
d:/leaksense-p2/leaksense-p2/target/6.2.1/argon/leaksense-p2.elf:     file format elf32-littlearm

Sections:
Idx Name          Size      VMA       LMA       File off  Algn
  0 .module_info  00000018  000b4000  000b4000  00004000  2**0
                  CONTENTS, ALLOC, LOAD, READONLY, DATA
  1 .dynalib      00000004  000b4018  000b4018  00004018  2**2
                  CONTENTS, ALLOC, LOAD, READONLY, DATA
  2 .text         0000948c  000b4020  000b4020  00004020  2**3
                  CONTENTS, ALLOC, LOAD, READONLY, CODE
  3 .ARM.exidx    00000008  000bd4ac  000bd4ac  0000d4ac  2**2
                  CONTENTS, ALLOC, LOAD, READONLY, DATA
  4 .note.gnu.build-id 00000024  000bd4b4  000bd4b4  0000d4b4  2**2
                  CONTENTS, ALLOC, LOAD, READONLY, DATA
  5 .data         000001e8  2003705c  000bd4d8  0001705c  2**2
                  CONTENTS, ALLOC, LOAD, DATA
  6 .bss          000075b4  20037248  20037248  00037248  2**3
                  ALLOC
  7 .backup       0000009c  2003f400  000bd6c0  0001f400  2**2
                  CONTENTS, ALLOC, LOAD, DATA
  8 .module_info_product 00000006  000bd75c  000bd75c  0002d75c  2**1
                  CONTENTS, ALLOC, LOAD, DATA
  9 .module_info_suffix 00000024  000bd762  000bd762  0002d762  2**0
                  CONTENTS, ALLOC, LOAD, READONLY, DATA
 10 .module_info_crc 00000004  000bd786  000bd786  0002d786  2**0
                  CONTENTS, ALLOC, LOAD, READONLY, DATA
 11 .debug_info   0020f926  00000000  00000000  0002d78a  2**0
                  CONTENTS, READONLY, DEBUGGING, OCTETS
 12 .debug_abbrev 0001a836  00000000  00000000  0023d0b0  2**0
                  CONTENTS, READONLY, DEBUGGING, OCTETS
 13 .debug_loc    00080cbc  00000000  00000000  002578e6  2**0
                  CONTENTS, READONLY, DEBUGGING, OCTETS
 14 .debug_aranges 00004388  00000000  00000000  002d85a2  2**0
                  CONTENTS, READONLY, DEBUGGING, OCTETS
 15 .debug_ranges 000143f8  00000000  00000000  002dc92a  2**0
                  CONTENTS, READONLY, DEBUGGING, OCTETS
 16 .debug_macro  00044ede  00000000  00000000  002f0d22  2**0
                  CONTENTS, READONLY, DEBUGGING, OCTETS
 17 .debug_line   00066035  00000000  00000000  00335c00  2**0
                  CONTENTS, READONLY, DEBUGGING, OCTETS
 18 .debug_str    001f76d5  00000000  00000000  0039bc35  2**0
                  CONTENTS, READONLY, DEBUGGING, OCTETS
 19 .debug_frame  0000cfc8  00000000  00000000  0059330c  2**2
                  CONTENTS, READONLY, DEBUGGING, OCTETS

Disassembly of section .text:

000b4020 <__aeabi_drsub>:
   b4020:	f081 4100 	eor.w	r1, r1, #2147483648	; 0x80000000
   b4024:	e002      	b.n	b402c <__adddf3>
   b4026:	bf00      	nop

000b4028 <__aeabi_dsub>:
   b4028:	f083 4300 	eor.w	r3, r3, #2147483648	; 0x80000000

000b402c <__adddf3>:
   b402c:	b530      	push	{r4, r5, lr}
   b402e:	ea4f 0441 	mov.w	r4, r1, lsl #1
   b4032:	ea4f 0543 	mov.w	r5, r3, lsl #1
   b4036:	ea94 0f05 	teq	r4, r5
   b403a:	bf08      	it	eq
   b403c:	ea90 0f02 	teqeq	r0, r2
   b4040:	bf1f      	itttt	ne
   b4042:	ea54 0c00 	orrsne.w	ip, r4, r0
   b4046:	ea55 0c02 	orrsne.w	ip, r5, r2
   b404a:	ea7f 5c64 	mvnsne.w	ip, r4, asr #21
   b404e:	ea7f 5c65 	mvnsne.w	ip, r5, asr #21
   b4052:	f000 80e2 	beq.w	b421a <__adddf3+0x1ee>
   b4056:	ea4f 5454 	mov.w	r4, r4, lsr #21
   b405a:	ebd4 5555 	rsbs	r5, r4, r5, lsr #21
   b405e:	bfb8      	it	lt
   b4060:	426d      	neglt	r5, r5
   b4062:	dd0c      	ble.n	b407e <__adddf3+0x52>
   b4064:	442c      	add	r4, r5
   b4066:	ea80 0202 	eor.w	r2, r0, r2
   b406a:	ea81 0303 	eor.w	r3, r1, r3
   b406e:	ea82 0000 	eor.w	r0, r2, r0
   b4072:	ea83 0101 	eor.w	r1, r3, r1
   b4076:	ea80 0202 	eor.w	r2, r0, r2
   b407a:	ea81 0303 	eor.w	r3, r1, r3
   b407e:	2d36      	cmp	r5, #54	; 0x36
   b4080:	bf88      	it	hi
   b4082:	bd30      	pophi	{r4, r5, pc}
   b4084:	f011 4f00 	tst.w	r1, #2147483648	; 0x80000000
   b4088:	ea4f 3101 	mov.w	r1, r1, lsl #12
   b408c:	f44f 1c80 	mov.w	ip, #1048576	; 0x100000
   b4090:	ea4c 3111 	orr.w	r1, ip, r1, lsr #12
   b4094:	d002      	beq.n	b409c <__adddf3+0x70>
   b4096:	4240      	negs	r0, r0
   b4098:	eb61 0141 	sbc.w	r1, r1, r1, lsl #1
   b409c:	f013 4f00 	tst.w	r3, #2147483648	; 0x80000000
   b40a0:	ea4f 3303 	mov.w	r3, r3, lsl #12
   b40a4:	ea4c 3313 	orr.w	r3, ip, r3, lsr #12
   b40a8:	d002      	beq.n	b40b0 <__adddf3+0x84>
   b40aa:	4252      	negs	r2, r2
   b40ac:	eb63 0343 	sbc.w	r3, r3, r3, lsl #1
   b40b0:	ea94 0f05 	teq	r4, r5
   b40b4:	f000 80a7 	beq.w	b4206 <__adddf3+0x1da>
   b40b8:	f1a4 0401 	sub.w	r4, r4, #1
   b40bc:	f1d5 0e20 	rsbs	lr, r5, #32
   b40c0:	db0d      	blt.n	b40de <__adddf3+0xb2>
   b40c2:	fa02 fc0e 	lsl.w	ip, r2, lr
   b40c6:	fa22 f205 	lsr.w	r2, r2, r5
   b40ca:	1880      	adds	r0, r0, r2
   b40cc:	f141 0100 	adc.w	r1, r1, #0
   b40d0:	fa03 f20e 	lsl.w	r2, r3, lr
   b40d4:	1880      	adds	r0, r0, r2
   b40d6:	fa43 f305 	asr.w	r3, r3, r5
   b40da:	4159      	adcs	r1, r3
   b40dc:	e00e      	b.n	b40fc <__adddf3+0xd0>
   b40de:	f1a5 0520 	sub.w	r5, r5, #32
   b40e2:	f10e 0e20 	add.w	lr, lr, #32
   b40e6:	2a01      	cmp	r2, #1
   b40e8:	fa03 fc0e 	lsl.w	ip, r3, lr
   b40ec:	bf28      	it	cs
   b40ee:	f04c 0c02 	orrcs.w	ip, ip, #2
   b40f2:	fa43 f305 	asr.w	r3, r3, r5
   b40f6:	18c0      	adds	r0, r0, r3
   b40f8:	eb51 71e3 	adcs.w	r1, r1, r3, asr #31
   b40fc:	f001 4500 	and.w	r5, r1, #2147483648	; 0x80000000
   b4100:	d507      	bpl.n	b4112 <__adddf3+0xe6>
   b4102:	f04f 0e00 	mov.w	lr, #0
   b4106:	f1dc 0c00 	rsbs	ip, ip, #0
   b410a:	eb7e 0000 	sbcs.w	r0, lr, r0
   b410e:	eb6e 0101 	sbc.w	r1, lr, r1
   b4112:	f5b1 1f80 	cmp.w	r1, #1048576	; 0x100000
   b4116:	d31b      	bcc.n	b4150 <__adddf3+0x124>
   b4118:	f5b1 1f00 	cmp.w	r1, #2097152	; 0x200000
   b411c:	d30c      	bcc.n	b4138 <__adddf3+0x10c>
   b411e:	0849      	lsrs	r1, r1, #1
   b4120:	ea5f 0030 	movs.w	r0, r0, rrx
   b4124:	ea4f 0c3c 	mov.w	ip, ip, rrx
   b4128:	f104 0401 	add.w	r4, r4, #1
   b412c:	ea4f 5244 	mov.w	r2, r4, lsl #21
   b4130:	f512 0f80 	cmn.w	r2, #4194304	; 0x400000
   b4134:	f080 809a 	bcs.w	b426c <__adddf3+0x240>
   b4138:	f1bc 4f00 	cmp.w	ip, #2147483648	; 0x80000000
   b413c:	bf08      	it	eq
   b413e:	ea5f 0c50 	movseq.w	ip, r0, lsr #1
   b4142:	f150 0000 	adcs.w	r0, r0, #0
   b4146:	eb41 5104 	adc.w	r1, r1, r4, lsl #20
   b414a:	ea41 0105 	orr.w	r1, r1, r5
   b414e:	bd30      	pop	{r4, r5, pc}
   b4150:	ea5f 0c4c 	movs.w	ip, ip, lsl #1
   b4154:	4140      	adcs	r0, r0
   b4156:	eb41 0101 	adc.w	r1, r1, r1
   b415a:	3c01      	subs	r4, #1
   b415c:	bf28      	it	cs
   b415e:	f5b1 1f80 	cmpcs.w	r1, #1048576	; 0x100000
   b4162:	d2e9      	bcs.n	b4138 <__adddf3+0x10c>
   b4164:	f091 0f00 	teq	r1, #0
   b4168:	bf04      	itt	eq
   b416a:	4601      	moveq	r1, r0
   b416c:	2000      	moveq	r0, #0
   b416e:	fab1 f381 	clz	r3, r1
   b4172:	bf08      	it	eq
   b4174:	3320      	addeq	r3, #32
   b4176:	f1a3 030b 	sub.w	r3, r3, #11
   b417a:	f1b3 0220 	subs.w	r2, r3, #32
   b417e:	da0c      	bge.n	b419a <__adddf3+0x16e>
   b4180:	320c      	adds	r2, #12
   b4182:	dd08      	ble.n	b4196 <__adddf3+0x16a>
   b4184:	f102 0c14 	add.w	ip, r2, #20
   b4188:	f1c2 020c 	rsb	r2, r2, #12
   b418c:	fa01 f00c 	lsl.w	r0, r1, ip
   b4190:	fa21 f102 	lsr.w	r1, r1, r2
   b4194:	e00c      	b.n	b41b0 <__adddf3+0x184>
   b4196:	f102 0214 	add.w	r2, r2, #20
   b419a:	bfd8      	it	le
   b419c:	f1c2 0c20 	rsble	ip, r2, #32
   b41a0:	fa01 f102 	lsl.w	r1, r1, r2
   b41a4:	fa20 fc0c 	lsr.w	ip, r0, ip
   b41a8:	bfdc      	itt	le
   b41aa:	ea41 010c 	orrle.w	r1, r1, ip
   b41ae:	4090      	lslle	r0, r2
   b41b0:	1ae4      	subs	r4, r4, r3
   b41b2:	bfa2      	ittt	ge
   b41b4:	eb01 5104 	addge.w	r1, r1, r4, lsl #20
   b41b8:	4329      	orrge	r1, r5
   b41ba:	bd30      	popge	{r4, r5, pc}
   b41bc:	ea6f 0404 	mvn.w	r4, r4
   b41c0:	3c1f      	subs	r4, #31
   b41c2:	da1c      	bge.n	b41fe <__adddf3+0x1d2>
   b41c4:	340c      	adds	r4, #12
   b41c6:	dc0e      	bgt.n	b41e6 <__adddf3+0x1ba>
   b41c8:	f104 0414 	add.w	r4, r4, #20
   b41cc:	f1c4 0220 	rsb	r2, r4, #32
   b41d0:	fa20 f004 	lsr.w	r0, r0, r4
   b41d4:	fa01 f302 	lsl.w	r3, r1, r2
   b41d8:	ea40 0003 	orr.w	r0, r0, r3
   b41dc:	fa21 f304 	lsr.w	r3, r1, r4
   b41e0:	ea45 0103 	orr.w	r1, r5, r3
   b41e4:	bd30      	pop	{r4, r5, pc}
   b41e6:	f1c4 040c 	rsb	r4, r4, #12
   b41ea:	f1c4 0220 	rsb	r2, r4, #32
   b41ee:	fa20 f002 	lsr.w	r0, r0, r2
   b41f2:	fa01 f304 	lsl.w	r3, r1, r4
   b41f6:	ea40 0003 	orr.w	r0, r0, r3
   b41fa:	4629      	mov	r1, r5
   b41fc:	bd30      	pop	{r4, r5, pc}
   b41fe:	fa21 f004 	lsr.w	r0, r1, r4
   b4202:	4629      	mov	r1, r5
   b4204:	bd30      	pop	{r4, r5, pc}
   b4206:	f094 0f00 	teq	r4, #0
   b420a:	f483 1380 	eor.w	r3, r3, #1048576	; 0x100000
   b420e:	bf06      	itte	eq
   b4210:	f481 1180 	eoreq.w	r1, r1, #1048576	; 0x100000
   b4214:	3401      	addeq	r4, #1
   b4216:	3d01      	subne	r5, #1
   b4218:	e74e      	b.n	b40b8 <__adddf3+0x8c>
   b421a:	ea7f 5c64 	mvns.w	ip, r4, asr #21
   b421e:	bf18      	it	ne
   b4220:	ea7f 5c65 	mvnsne.w	ip, r5, asr #21
   b4224:	d029      	beq.n	b427a <__adddf3+0x24e>
   b4226:	ea94 0f05 	teq	r4, r5
   b422a:	bf08      	it	eq
   b422c:	ea90 0f02 	teqeq	r0, r2
   b4230:	d005      	beq.n	b423e <__adddf3+0x212>
   b4232:	ea54 0c00 	orrs.w	ip, r4, r0
   b4236:	bf04      	itt	eq
   b4238:	4619      	moveq	r1, r3
   b423a:	4610      	moveq	r0, r2
   b423c:	bd30      	pop	{r4, r5, pc}
   b423e:	ea91 0f03 	teq	r1, r3
   b4242:	bf1e      	ittt	ne
   b4244:	2100      	movne	r1, #0
   b4246:	2000      	movne	r0, #0
   b4248:	bd30      	popne	{r4, r5, pc}
   b424a:	ea5f 5c54 	movs.w	ip, r4, lsr #21
   b424e:	d105      	bne.n	b425c <__adddf3+0x230>
   b4250:	0040      	lsls	r0, r0, #1
   b4252:	4149      	adcs	r1, r1
   b4254:	bf28      	it	cs
   b4256:	f041 4100 	orrcs.w	r1, r1, #2147483648	; 0x80000000
   b425a:	bd30      	pop	{r4, r5, pc}
   b425c:	f514 0480 	adds.w	r4, r4, #4194304	; 0x400000
   b4260:	bf3c      	itt	cc
   b4262:	f501 1180 	addcc.w	r1, r1, #1048576	; 0x100000
   b4266:	bd30      	popcc	{r4, r5, pc}
   b4268:	f001 4500 	and.w	r5, r1, #2147483648	; 0x80000000
   b426c:	f045 41fe 	orr.w	r1, r5, #2130706432	; 0x7f000000
   b4270:	f441 0170 	orr.w	r1, r1, #15728640	; 0xf00000
   b4274:	f04f 0000 	mov.w	r0, #0
   b4278:	bd30      	pop	{r4, r5, pc}
   b427a:	ea7f 5c64 	mvns.w	ip, r4, asr #21
   b427e:	bf1a      	itte	ne
   b4280:	4619      	movne	r1, r3
   b4282:	4610      	movne	r0, r2
   b4284:	ea7f 5c65 	mvnseq.w	ip, r5, asr #21
   b4288:	bf1c      	itt	ne
   b428a:	460b      	movne	r3, r1
   b428c:	4602      	movne	r2, r0
   b428e:	ea50 3401 	orrs.w	r4, r0, r1, lsl #12
   b4292:	bf06      	itte	eq
   b4294:	ea52 3503 	orrseq.w	r5, r2, r3, lsl #12
   b4298:	ea91 0f03 	teqeq	r1, r3
   b429c:	f441 2100 	orrne.w	r1, r1, #524288	; 0x80000
   b42a0:	bd30      	pop	{r4, r5, pc}
   b42a2:	bf00      	nop

000b42a4 <__aeabi_ui2d>:
   b42a4:	f090 0f00 	teq	r0, #0
   b42a8:	bf04      	itt	eq
   b42aa:	2100      	moveq	r1, #0
   b42ac:	4770      	bxeq	lr
   b42ae:	b530      	push	{r4, r5, lr}
   b42b0:	f44f 6480 	mov.w	r4, #1024	; 0x400
   b42b4:	f104 0432 	add.w	r4, r4, #50	; 0x32
   b42b8:	f04f 0500 	mov.w	r5, #0
   b42bc:	f04f 0100 	mov.w	r1, #0
   b42c0:	e750      	b.n	b4164 <__adddf3+0x138>
   b42c2:	bf00      	nop

000b42c4 <__aeabi_i2d>:
   b42c4:	f090 0f00 	teq	r0, #0
   b42c8:	bf04      	itt	eq
   b42ca:	2100      	moveq	r1, #0
   b42cc:	4770      	bxeq	lr
   b42ce:	b530      	push	{r4, r5, lr}
   b42d0:	f44f 6480 	mov.w	r4, #1024	; 0x400
   b42d4:	f104 0432 	add.w	r4, r4, #50	; 0x32
   b42d8:	f010 4500 	ands.w	r5, r0, #2147483648	; 0x80000000
   b42dc:	bf48      	it	mi
   b42de:	4240      	negmi	r0, r0
   b42e0:	f04f 0100 	mov.w	r1, #0
   b42e4:	e73e      	b.n	b4164 <__adddf3+0x138>
   b42e6:	bf00      	nop

000b42e8 <__aeabi_f2d>:
   b42e8:	0042      	lsls	r2, r0, #1
   b42ea:	ea4f 01e2 	mov.w	r1, r2, asr #3
   b42ee:	ea4f 0131 	mov.w	r1, r1, rrx
   b42f2:	ea4f 7002 	mov.w	r0, r2, lsl #28
   b42f6:	bf1f      	itttt	ne
   b42f8:	f012 437f 	andsne.w	r3, r2, #4278190080	; 0xff000000
   b42fc:	f093 4f7f 	teqne	r3, #4278190080	; 0xff000000
   b4300:	f081 5160 	eorne.w	r1, r1, #939524096	; 0x38000000
   b4304:	4770      	bxne	lr
   b4306:	f032 427f 	bics.w	r2, r2, #4278190080	; 0xff000000
   b430a:	bf08      	it	eq
   b430c:	4770      	bxeq	lr
   b430e:	f093 4f7f 	teq	r3, #4278190080	; 0xff000000
   b4312:	bf04      	itt	eq
   b4314:	f441 2100 	orreq.w	r1, r1, #524288	; 0x80000
   b4318:	4770      	bxeq	lr
   b431a:	b530      	push	{r4, r5, lr}
   b431c:	f44f 7460 	mov.w	r4, #896	; 0x380
   b4320:	f001 4500 	and.w	r5, r1, #2147483648	; 0x80000000
   b4324:	f021 4100 	bic.w	r1, r1, #2147483648	; 0x80000000
   b4328:	e71c      	b.n	b4164 <__adddf3+0x138>
   b432a:	bf00      	nop

000b432c <__aeabi_ul2d>:
   b432c:	ea50 0201 	orrs.w	r2, r0, r1
   b4330:	bf08      	it	eq
   b4332:	4770      	bxeq	lr
   b4334:	b530      	push	{r4, r5, lr}
   b4336:	f04f 0500 	mov.w	r5, #0
   b433a:	e00a      	b.n	b4352 <__aeabi_l2d+0x16>

000b433c <__aeabi_l2d>:
   b433c:	ea50 0201 	orrs.w	r2, r0, r1
   b4340:	bf08      	it	eq
   b4342:	4770      	bxeq	lr
   b4344:	b530      	push	{r4, r5, lr}
   b4346:	f011 4500 	ands.w	r5, r1, #2147483648	; 0x80000000
   b434a:	d502      	bpl.n	b4352 <__aeabi_l2d+0x16>
   b434c:	4240      	negs	r0, r0
   b434e:	eb61 0141 	sbc.w	r1, r1, r1, lsl #1
   b4352:	f44f 6480 	mov.w	r4, #1024	; 0x400
   b4356:	f104 0432 	add.w	r4, r4, #50	; 0x32
   b435a:	ea5f 5c91 	movs.w	ip, r1, lsr #22
   b435e:	f43f aed8 	beq.w	b4112 <__adddf3+0xe6>
   b4362:	f04f 0203 	mov.w	r2, #3
   b4366:	ea5f 0cdc 	movs.w	ip, ip, lsr #3
   b436a:	bf18      	it	ne
   b436c:	3203      	addne	r2, #3
   b436e:	ea5f 0cdc 	movs.w	ip, ip, lsr #3
   b4372:	bf18      	it	ne
   b4374:	3203      	addne	r2, #3
   b4376:	eb02 02dc 	add.w	r2, r2, ip, lsr #3
   b437a:	f1c2 0320 	rsb	r3, r2, #32
   b437e:	fa00 fc03 	lsl.w	ip, r0, r3
   b4382:	fa20 f002 	lsr.w	r0, r0, r2
   b4386:	fa01 fe03 	lsl.w	lr, r1, r3
   b438a:	ea40 000e 	orr.w	r0, r0, lr
   b438e:	fa21 f102 	lsr.w	r1, r1, r2
   b4392:	4414      	add	r4, r2
   b4394:	e6bd      	b.n	b4112 <__adddf3+0xe6>
   b4396:	bf00      	nop

000b4398 <__aeabi_dmul>:
   b4398:	b570      	push	{r4, r5, r6, lr}
   b439a:	f04f 0cff 	mov.w	ip, #255	; 0xff
   b439e:	f44c 6ce0 	orr.w	ip, ip, #1792	; 0x700
   b43a2:	ea1c 5411 	ands.w	r4, ip, r1, lsr #20
   b43a6:	bf1d      	ittte	ne
   b43a8:	ea1c 5513 	andsne.w	r5, ip, r3, lsr #20
   b43ac:	ea94 0f0c 	teqne	r4, ip
   b43b0:	ea95 0f0c 	teqne	r5, ip
   b43b4:	f000 f8de 	bleq	b4574 <__aeabi_dmul+0x1dc>
   b43b8:	442c      	add	r4, r5
   b43ba:	ea81 0603 	eor.w	r6, r1, r3
   b43be:	ea21 514c 	bic.w	r1, r1, ip, lsl #21
   b43c2:	ea23 534c 	bic.w	r3, r3, ip, lsl #21
   b43c6:	ea50 3501 	orrs.w	r5, r0, r1, lsl #12
   b43ca:	bf18      	it	ne
   b43cc:	ea52 3503 	orrsne.w	r5, r2, r3, lsl #12
   b43d0:	f441 1180 	orr.w	r1, r1, #1048576	; 0x100000
   b43d4:	f443 1380 	orr.w	r3, r3, #1048576	; 0x100000
   b43d8:	d038      	beq.n	b444c <__aeabi_dmul+0xb4>
   b43da:	fba0 ce02 	umull	ip, lr, r0, r2
   b43de:	f04f 0500 	mov.w	r5, #0
   b43e2:	fbe1 e502 	umlal	lr, r5, r1, r2
   b43e6:	f006 4200 	and.w	r2, r6, #2147483648	; 0x80000000
   b43ea:	fbe0 e503 	umlal	lr, r5, r0, r3
   b43ee:	f04f 0600 	mov.w	r6, #0
   b43f2:	fbe1 5603 	umlal	r5, r6, r1, r3
   b43f6:	f09c 0f00 	teq	ip, #0
   b43fa:	bf18      	it	ne
   b43fc:	f04e 0e01 	orrne.w	lr, lr, #1
   b4400:	f1a4 04ff 	sub.w	r4, r4, #255	; 0xff
   b4404:	f5b6 7f00 	cmp.w	r6, #512	; 0x200
   b4408:	f564 7440 	sbc.w	r4, r4, #768	; 0x300
   b440c:	d204      	bcs.n	b4418 <__aeabi_dmul+0x80>
   b440e:	ea5f 0e4e 	movs.w	lr, lr, lsl #1
   b4412:	416d      	adcs	r5, r5
   b4414:	eb46 0606 	adc.w	r6, r6, r6
   b4418:	ea42 21c6 	orr.w	r1, r2, r6, lsl #11
   b441c:	ea41 5155 	orr.w	r1, r1, r5, lsr #21
   b4420:	ea4f 20c5 	mov.w	r0, r5, lsl #11
   b4424:	ea40 505e 	orr.w	r0, r0, lr, lsr #21
   b4428:	ea4f 2ece 	mov.w	lr, lr, lsl #11
   b442c:	f1b4 0cfd 	subs.w	ip, r4, #253	; 0xfd
   b4430:	bf88      	it	hi
   b4432:	f5bc 6fe0 	cmphi.w	ip, #1792	; 0x700
   b4436:	d81e      	bhi.n	b4476 <__aeabi_dmul+0xde>
   b4438:	f1be 4f00 	cmp.w	lr, #2147483648	; 0x80000000
   b443c:	bf08      	it	eq
   b443e:	ea5f 0e50 	movseq.w	lr, r0, lsr #1
   b4442:	f150 0000 	adcs.w	r0, r0, #0
   b4446:	eb41 5104 	adc.w	r1, r1, r4, lsl #20
   b444a:	bd70      	pop	{r4, r5, r6, pc}
   b444c:	f006 4600 	and.w	r6, r6, #2147483648	; 0x80000000
   b4450:	ea46 0101 	orr.w	r1, r6, r1
   b4454:	ea40 0002 	orr.w	r0, r0, r2
   b4458:	ea81 0103 	eor.w	r1, r1, r3
   b445c:	ebb4 045c 	subs.w	r4, r4, ip, lsr #1
   b4460:	bfc2      	ittt	gt
   b4462:	ebd4 050c 	rsbsgt	r5, r4, ip
   b4466:	ea41 5104 	orrgt.w	r1, r1, r4, lsl #20
   b446a:	bd70      	popgt	{r4, r5, r6, pc}
   b446c:	f441 1180 	orr.w	r1, r1, #1048576	; 0x100000
   b4470:	f04f 0e00 	mov.w	lr, #0
   b4474:	3c01      	subs	r4, #1
   b4476:	f300 80ab 	bgt.w	b45d0 <__aeabi_dmul+0x238>
   b447a:	f114 0f36 	cmn.w	r4, #54	; 0x36
   b447e:	bfde      	ittt	le
   b4480:	2000      	movle	r0, #0
   b4482:	f001 4100 	andle.w	r1, r1, #2147483648	; 0x80000000
   b4486:	bd70      	pople	{r4, r5, r6, pc}
   b4488:	f1c4 0400 	rsb	r4, r4, #0
   b448c:	3c20      	subs	r4, #32
   b448e:	da35      	bge.n	b44fc <__aeabi_dmul+0x164>
   b4490:	340c      	adds	r4, #12
   b4492:	dc1b      	bgt.n	b44cc <__aeabi_dmul+0x134>
   b4494:	f104 0414 	add.w	r4, r4, #20
   b4498:	f1c4 0520 	rsb	r5, r4, #32
   b449c:	fa00 f305 	lsl.w	r3, r0, r5
   b44a0:	fa20 f004 	lsr.w	r0, r0, r4
   b44a4:	fa01 f205 	lsl.w	r2, r1, r5
   b44a8:	ea40 0002 	orr.w	r0, r0, r2
   b44ac:	f001 4200 	and.w	r2, r1, #2147483648	; 0x80000000
   b44b0:	f021 4100 	bic.w	r1, r1, #2147483648	; 0x80000000
   b44b4:	eb10 70d3 	adds.w	r0, r0, r3, lsr #31
   b44b8:	fa21 f604 	lsr.w	r6, r1, r4
   b44bc:	eb42 0106 	adc.w	r1, r2, r6
   b44c0:	ea5e 0e43 	orrs.w	lr, lr, r3, lsl #1
   b44c4:	bf08      	it	eq
   b44c6:	ea20 70d3 	biceq.w	r0, r0, r3, lsr #31
   b44ca:	bd70      	pop	{r4, r5, r6, pc}
   b44cc:	f1c4 040c 	rsb	r4, r4, #12
   b44d0:	f1c4 0520 	rsb	r5, r4, #32
   b44d4:	fa00 f304 	lsl.w	r3, r0, r4
   b44d8:	fa20 f005 	lsr.w	r0, r0, r5
   b44dc:	fa01 f204 	lsl.w	r2, r1, r4
   b44e0:	ea40 0002 	orr.w	r0, r0, r2
   b44e4:	f001 4100 	and.w	r1, r1, #2147483648	; 0x80000000
   b44e8:	eb10 70d3 	adds.w	r0, r0, r3, lsr #31
   b44ec:	f141 0100 	adc.w	r1, r1, #0
   b44f0:	ea5e 0e43 	orrs.w	lr, lr, r3, lsl #1
   b44f4:	bf08      	it	eq
   b44f6:	ea20 70d3 	biceq.w	r0, r0, r3, lsr #31
   b44fa:	bd70      	pop	{r4, r5, r6, pc}
   b44fc:	f1c4 0520 	rsb	r5, r4, #32
   b4500:	fa00 f205 	lsl.w	r2, r0, r5
   b4504:	ea4e 0e02 	orr.w	lr, lr, r2
   b4508:	fa20 f304 	lsr.w	r3, r0, r4
   b450c:	fa01 f205 	lsl.w	r2, r1, r5
   b4510:	ea43 0302 	orr.w	r3, r3, r2
   b4514:	fa21 f004 	lsr.w	r0, r1, r4
   b4518:	f001 4100 	and.w	r1, r1, #2147483648	; 0x80000000
   b451c:	fa21 f204 	lsr.w	r2, r1, r4
   b4520:	ea20 0002 	bic.w	r0, r0, r2
   b4524:	eb00 70d3 	add.w	r0, r0, r3, lsr #31
   b4528:	ea5e 0e43 	orrs.w	lr, lr, r3, lsl #1
   b452c:	bf08      	it	eq
   b452e:	ea20 70d3 	biceq.w	r0, r0, r3, lsr #31
   b4532:	bd70      	pop	{r4, r5, r6, pc}
   b4534:	f094 0f00 	teq	r4, #0
   b4538:	d10f      	bne.n	b455a <__aeabi_dmul+0x1c2>
   b453a:	f001 4600 	and.w	r6, r1, #2147483648	; 0x80000000
   b453e:	0040      	lsls	r0, r0, #1
   b4540:	eb41 0101 	adc.w	r1, r1, r1
   b4544:	f411 1f80 	tst.w	r1, #1048576	; 0x100000
   b4548:	bf08      	it	eq
   b454a:	3c01      	subeq	r4, #1
   b454c:	d0f7      	beq.n	b453e <__aeabi_dmul+0x1a6>
   b454e:	ea41 0106 	orr.w	r1, r1, r6
   b4552:	f095 0f00 	teq	r5, #0
   b4556:	bf18      	it	ne
   b4558:	4770      	bxne	lr
   b455a:	f003 4600 	and.w	r6, r3, #2147483648	; 0x80000000
   b455e:	0052      	lsls	r2, r2, #1
   b4560:	eb43 0303 	adc.w	r3, r3, r3
   b4564:	f413 1f80 	tst.w	r3, #1048576	; 0x100000
   b4568:	bf08      	it	eq
   b456a:	3d01      	subeq	r5, #1
   b456c:	d0f7      	beq.n	b455e <__aeabi_dmul+0x1c6>
   b456e:	ea43 0306 	orr.w	r3, r3, r6
   b4572:	4770      	bx	lr
   b4574:	ea94 0f0c 	teq	r4, ip
   b4578:	ea0c 5513 	and.w	r5, ip, r3, lsr #20
   b457c:	bf18      	it	ne
   b457e:	ea95 0f0c 	teqne	r5, ip
   b4582:	d00c      	beq.n	b459e <__aeabi_dmul+0x206>
   b4584:	ea50 0641 	orrs.w	r6, r0, r1, lsl #1
   b4588:	bf18      	it	ne
   b458a:	ea52 0643 	orrsne.w	r6, r2, r3, lsl #1
   b458e:	d1d1      	bne.n	b4534 <__aeabi_dmul+0x19c>
   b4590:	ea81 0103 	eor.w	r1, r1, r3
   b4594:	f001 4100 	and.w	r1, r1, #2147483648	; 0x80000000
   b4598:	f04f 0000 	mov.w	r0, #0
   b459c:	bd70      	pop	{r4, r5, r6, pc}
   b459e:	ea50 0641 	orrs.w	r6, r0, r1, lsl #1
   b45a2:	bf06      	itte	eq
   b45a4:	4610      	moveq	r0, r2
   b45a6:	4619      	moveq	r1, r3
   b45a8:	ea52 0643 	orrsne.w	r6, r2, r3, lsl #1
   b45ac:	d019      	beq.n	b45e2 <__aeabi_dmul+0x24a>
   b45ae:	ea94 0f0c 	teq	r4, ip
   b45b2:	d102      	bne.n	b45ba <__aeabi_dmul+0x222>
   b45b4:	ea50 3601 	orrs.w	r6, r0, r1, lsl #12
   b45b8:	d113      	bne.n	b45e2 <__aeabi_dmul+0x24a>
   b45ba:	ea95 0f0c 	teq	r5, ip
   b45be:	d105      	bne.n	b45cc <__aeabi_dmul+0x234>
   b45c0:	ea52 3603 	orrs.w	r6, r2, r3, lsl #12
   b45c4:	bf1c      	itt	ne
   b45c6:	4610      	movne	r0, r2
   b45c8:	4619      	movne	r1, r3
   b45ca:	d10a      	bne.n	b45e2 <__aeabi_dmul+0x24a>
   b45cc:	ea81 0103 	eor.w	r1, r1, r3
   b45d0:	f001 4100 	and.w	r1, r1, #2147483648	; 0x80000000
   b45d4:	f041 41fe 	orr.w	r1, r1, #2130706432	; 0x7f000000
   b45d8:	f441 0170 	orr.w	r1, r1, #15728640	; 0xf00000
   b45dc:	f04f 0000 	mov.w	r0, #0
   b45e0:	bd70      	pop	{r4, r5, r6, pc}
   b45e2:	f041 41fe 	orr.w	r1, r1, #2130706432	; 0x7f000000
   b45e6:	f441 0178 	orr.w	r1, r1, #16252928	; 0xf80000
   b45ea:	bd70      	pop	{r4, r5, r6, pc}

000b45ec <__aeabi_ddiv>:
   b45ec:	b570      	push	{r4, r5, r6, lr}
   b45ee:	f04f 0cff 	mov.w	ip, #255	; 0xff
   b45f2:	f44c 6ce0 	orr.w	ip, ip, #1792	; 0x700
   b45f6:	ea1c 5411 	ands.w	r4, ip, r1, lsr #20
   b45fa:	bf1d      	ittte	ne
   b45fc:	ea1c 5513 	andsne.w	r5, ip, r3, lsr #20
   b4600:	ea94 0f0c 	teqne	r4, ip
   b4604:	ea95 0f0c 	teqne	r5, ip
   b4608:	f000 f8a7 	bleq	b475a <__aeabi_ddiv+0x16e>
   b460c:	eba4 0405 	sub.w	r4, r4, r5
   b4610:	ea81 0e03 	eor.w	lr, r1, r3
   b4614:	ea52 3503 	orrs.w	r5, r2, r3, lsl #12
   b4618:	ea4f 3101 	mov.w	r1, r1, lsl #12
   b461c:	f000 8088 	beq.w	b4730 <__aeabi_ddiv+0x144>
   b4620:	ea4f 3303 	mov.w	r3, r3, lsl #12
   b4624:	f04f 5580 	mov.w	r5, #268435456	; 0x10000000
   b4628:	ea45 1313 	orr.w	r3, r5, r3, lsr #4
   b462c:	ea43 6312 	orr.w	r3, r3, r2, lsr #24
   b4630:	ea4f 2202 	mov.w	r2, r2, lsl #8
   b4634:	ea45 1511 	orr.w	r5, r5, r1, lsr #4
   b4638:	ea45 6510 	orr.w	r5, r5, r0, lsr #24
   b463c:	ea4f 2600 	mov.w	r6, r0, lsl #8
   b4640:	f00e 4100 	and.w	r1, lr, #2147483648	; 0x80000000
   b4644:	429d      	cmp	r5, r3
   b4646:	bf08      	it	eq
   b4648:	4296      	cmpeq	r6, r2
   b464a:	f144 04fd 	adc.w	r4, r4, #253	; 0xfd
   b464e:	f504 7440 	add.w	r4, r4, #768	; 0x300
   b4652:	d202      	bcs.n	b465a <__aeabi_ddiv+0x6e>
   b4654:	085b      	lsrs	r3, r3, #1
   b4656:	ea4f 0232 	mov.w	r2, r2, rrx
   b465a:	1ab6      	subs	r6, r6, r2
   b465c:	eb65 0503 	sbc.w	r5, r5, r3
   b4660:	085b      	lsrs	r3, r3, #1
   b4662:	ea4f 0232 	mov.w	r2, r2, rrx
   b4666:	f44f 1080 	mov.w	r0, #1048576	; 0x100000
   b466a:	f44f 2c00 	mov.w	ip, #524288	; 0x80000
   b466e:	ebb6 0e02 	subs.w	lr, r6, r2
   b4672:	eb75 0e03 	sbcs.w	lr, r5, r3
   b4676:	bf22      	ittt	cs
   b4678:	1ab6      	subcs	r6, r6, r2
   b467a:	4675      	movcs	r5, lr
   b467c:	ea40 000c 	orrcs.w	r0, r0, ip
   b4680:	085b      	lsrs	r3, r3, #1
   b4682:	ea4f 0232 	mov.w	r2, r2, rrx
   b4686:	ebb6 0e02 	subs.w	lr, r6, r2
   b468a:	eb75 0e03 	sbcs.w	lr, r5, r3
   b468e:	bf22      	ittt	cs
   b4690:	1ab6      	subcs	r6, r6, r2
   b4692:	4675      	movcs	r5, lr
   b4694:	ea40 005c 	orrcs.w	r0, r0, ip, lsr #1
   b4698:	085b      	lsrs	r3, r3, #1
   b469a:	ea4f 0232 	mov.w	r2, r2, rrx
   b469e:	ebb6 0e02 	subs.w	lr, r6, r2
   b46a2:	eb75 0e03 	sbcs.w	lr, r5, r3
   b46a6:	bf22      	ittt	cs
   b46a8:	1ab6      	subcs	r6, r6, r2
   b46aa:	4675      	movcs	r5, lr
   b46ac:	ea40 009c 	orrcs.w	r0, r0, ip, lsr #2
   b46b0:	085b      	lsrs	r3, r3, #1
   b46b2:	ea4f 0232 	mov.w	r2, r2, rrx
   b46b6:	ebb6 0e02 	subs.w	lr, r6, r2
   b46ba:	eb75 0e03 	sbcs.w	lr, r5, r3
   b46be:	bf22      	ittt	cs
   b46c0:	1ab6      	subcs	r6, r6, r2
   b46c2:	4675      	movcs	r5, lr
   b46c4:	ea40 00dc 	orrcs.w	r0, r0, ip, lsr #3
   b46c8:	ea55 0e06 	orrs.w	lr, r5, r6
   b46cc:	d018      	beq.n	b4700 <__aeabi_ddiv+0x114>
   b46ce:	ea4f 1505 	mov.w	r5, r5, lsl #4
   b46d2:	ea45 7516 	orr.w	r5, r5, r6, lsr #28
   b46d6:	ea4f 1606 	mov.w	r6, r6, lsl #4
   b46da:	ea4f 03c3 	mov.w	r3, r3, lsl #3
   b46de:	ea43 7352 	orr.w	r3, r3, r2, lsr #29
   b46e2:	ea4f 02c2 	mov.w	r2, r2, lsl #3
   b46e6:	ea5f 1c1c 	movs.w	ip, ip, lsr #4
   b46ea:	d1c0      	bne.n	b466e <__aeabi_ddiv+0x82>
   b46ec:	f411 1f80 	tst.w	r1, #1048576	; 0x100000
   b46f0:	d10b      	bne.n	b470a <__aeabi_ddiv+0x11e>
   b46f2:	ea41 0100 	orr.w	r1, r1, r0
   b46f6:	f04f 0000 	mov.w	r0, #0
   b46fa:	f04f 4c00 	mov.w	ip, #2147483648	; 0x80000000
   b46fe:	e7b6      	b.n	b466e <__aeabi_ddiv+0x82>
   b4700:	f411 1f80 	tst.w	r1, #1048576	; 0x100000
   b4704:	bf04      	itt	eq
   b4706:	4301      	orreq	r1, r0
   b4708:	2000      	moveq	r0, #0
   b470a:	f1b4 0cfd 	subs.w	ip, r4, #253	; 0xfd
   b470e:	bf88      	it	hi
   b4710:	f5bc 6fe0 	cmphi.w	ip, #1792	; 0x700
   b4714:	f63f aeaf 	bhi.w	b4476 <__aeabi_dmul+0xde>
   b4718:	ebb5 0c03 	subs.w	ip, r5, r3
   b471c:	bf04      	itt	eq
   b471e:	ebb6 0c02 	subseq.w	ip, r6, r2
   b4722:	ea5f 0c50 	movseq.w	ip, r0, lsr #1
   b4726:	f150 0000 	adcs.w	r0, r0, #0
   b472a:	eb41 5104 	adc.w	r1, r1, r4, lsl #20
   b472e:	bd70      	pop	{r4, r5, r6, pc}
   b4730:	f00e 4e00 	and.w	lr, lr, #2147483648	; 0x80000000
   b4734:	ea4e 3111 	orr.w	r1, lr, r1, lsr #12
   b4738:	eb14 045c 	adds.w	r4, r4, ip, lsr #1
   b473c:	bfc2      	ittt	gt
   b473e:	ebd4 050c 	rsbsgt	r5, r4, ip
   b4742:	ea41 5104 	orrgt.w	r1, r1, r4, lsl #20
   b4746:	bd70      	popgt	{r4, r5, r6, pc}
   b4748:	f441 1180 	orr.w	r1, r1, #1048576	; 0x100000
   b474c:	f04f 0e00 	mov.w	lr, #0
   b4750:	3c01      	subs	r4, #1
   b4752:	e690      	b.n	b4476 <__aeabi_dmul+0xde>
   b4754:	ea45 0e06 	orr.w	lr, r5, r6
   b4758:	e68d      	b.n	b4476 <__aeabi_dmul+0xde>
   b475a:	ea0c 5513 	and.w	r5, ip, r3, lsr #20
   b475e:	ea94 0f0c 	teq	r4, ip
   b4762:	bf08      	it	eq
   b4764:	ea95 0f0c 	teqeq	r5, ip
   b4768:	f43f af3b 	beq.w	b45e2 <__aeabi_dmul+0x24a>
   b476c:	ea94 0f0c 	teq	r4, ip
   b4770:	d10a      	bne.n	b4788 <__aeabi_ddiv+0x19c>
   b4772:	ea50 3401 	orrs.w	r4, r0, r1, lsl #12
   b4776:	f47f af34 	bne.w	b45e2 <__aeabi_dmul+0x24a>
   b477a:	ea95 0f0c 	teq	r5, ip
   b477e:	f47f af25 	bne.w	b45cc <__aeabi_dmul+0x234>
   b4782:	4610      	mov	r0, r2
   b4784:	4619      	mov	r1, r3
   b4786:	e72c      	b.n	b45e2 <__aeabi_dmul+0x24a>
   b4788:	ea95 0f0c 	teq	r5, ip
   b478c:	d106      	bne.n	b479c <__aeabi_ddiv+0x1b0>
   b478e:	ea52 3503 	orrs.w	r5, r2, r3, lsl #12
   b4792:	f43f aefd 	beq.w	b4590 <__aeabi_dmul+0x1f8>
   b4796:	4610      	mov	r0, r2
   b4798:	4619      	mov	r1, r3
   b479a:	e722      	b.n	b45e2 <__aeabi_dmul+0x24a>
   b479c:	ea50 0641 	orrs.w	r6, r0, r1, lsl #1
   b47a0:	bf18      	it	ne
   b47a2:	ea52 0643 	orrsne.w	r6, r2, r3, lsl #1
   b47a6:	f47f aec5 	bne.w	b4534 <__aeabi_dmul+0x19c>
   b47aa:	ea50 0441 	orrs.w	r4, r0, r1, lsl #1
   b47ae:	f47f af0d 	bne.w	b45cc <__aeabi_dmul+0x234>
   b47b2:	ea52 0543 	orrs.w	r5, r2, r3, lsl #1
   b47b6:	f47f aeeb 	bne.w	b4590 <__aeabi_dmul+0x1f8>
   b47ba:	e712      	b.n	b45e2 <__aeabi_dmul+0x24a>

000b47bc <__gedf2>:
   b47bc:	f04f 3cff 	mov.w	ip, #4294967295
   b47c0:	e006      	b.n	b47d0 <__cmpdf2+0x4>
   b47c2:	bf00      	nop

000b47c4 <__ledf2>:
   b47c4:	f04f 0c01 	mov.w	ip, #1
   b47c8:	e002      	b.n	b47d0 <__cmpdf2+0x4>
   b47ca:	bf00      	nop

000b47cc <__cmpdf2>:
   b47cc:	f04f 0c01 	mov.w	ip, #1
   b47d0:	f84d cd04 	str.w	ip, [sp, #-4]!
   b47d4:	ea4f 0c41 	mov.w	ip, r1, lsl #1
   b47d8:	ea7f 5c6c 	mvns.w	ip, ip, asr #21
   b47dc:	ea4f 0c43 	mov.w	ip, r3, lsl #1
   b47e0:	bf18      	it	ne
   b47e2:	ea7f 5c6c 	mvnsne.w	ip, ip, asr #21
   b47e6:	d01b      	beq.n	b4820 <__cmpdf2+0x54>
   b47e8:	b001      	add	sp, #4
   b47ea:	ea50 0c41 	orrs.w	ip, r0, r1, lsl #1
   b47ee:	bf0c      	ite	eq
   b47f0:	ea52 0c43 	orrseq.w	ip, r2, r3, lsl #1
   b47f4:	ea91 0f03 	teqne	r1, r3
   b47f8:	bf02      	ittt	eq
   b47fa:	ea90 0f02 	teqeq	r0, r2
   b47fe:	2000      	moveq	r0, #0
   b4800:	4770      	bxeq	lr
   b4802:	f110 0f00 	cmn.w	r0, #0
   b4806:	ea91 0f03 	teq	r1, r3
   b480a:	bf58      	it	pl
   b480c:	4299      	cmppl	r1, r3
   b480e:	bf08      	it	eq
   b4810:	4290      	cmpeq	r0, r2
   b4812:	bf2c      	ite	cs
   b4814:	17d8      	asrcs	r0, r3, #31
   b4816:	ea6f 70e3 	mvncc.w	r0, r3, asr #31
   b481a:	f040 0001 	orr.w	r0, r0, #1
   b481e:	4770      	bx	lr
   b4820:	ea4f 0c41 	mov.w	ip, r1, lsl #1
   b4824:	ea7f 5c6c 	mvns.w	ip, ip, asr #21
   b4828:	d102      	bne.n	b4830 <__cmpdf2+0x64>
   b482a:	ea50 3c01 	orrs.w	ip, r0, r1, lsl #12
   b482e:	d107      	bne.n	b4840 <__cmpdf2+0x74>
   b4830:	ea4f 0c43 	mov.w	ip, r3, lsl #1
   b4834:	ea7f 5c6c 	mvns.w	ip, ip, asr #21
   b4838:	d1d6      	bne.n	b47e8 <__cmpdf2+0x1c>
   b483a:	ea52 3c03 	orrs.w	ip, r2, r3, lsl #12
   b483e:	d0d3      	beq.n	b47e8 <__cmpdf2+0x1c>
   b4840:	f85d 0b04 	ldr.w	r0, [sp], #4
   b4844:	4770      	bx	lr
   b4846:	bf00      	nop

000b4848 <__aeabi_cdrcmple>:
   b4848:	4684      	mov	ip, r0
   b484a:	4610      	mov	r0, r2
   b484c:	4662      	mov	r2, ip
   b484e:	468c      	mov	ip, r1
   b4850:	4619      	mov	r1, r3
   b4852:	4663      	mov	r3, ip
   b4854:	e000      	b.n	b4858 <__aeabi_cdcmpeq>
   b4856:	bf00      	nop

000b4858 <__aeabi_cdcmpeq>:
   b4858:	b501      	push	{r0, lr}
   b485a:	f7ff ffb7 	bl	b47cc <__cmpdf2>
   b485e:	2800      	cmp	r0, #0
   b4860:	bf48      	it	mi
   b4862:	f110 0f00 	cmnmi.w	r0, #0
   b4866:	bd01      	pop	{r0, pc}

000b4868 <__aeabi_dcmpeq>:
   b4868:	f84d ed08 	str.w	lr, [sp, #-8]!
   b486c:	f7ff fff4 	bl	b4858 <__aeabi_cdcmpeq>
   b4870:	bf0c      	ite	eq
   b4872:	2001      	moveq	r0, #1
   b4874:	2000      	movne	r0, #0
   b4876:	f85d fb08 	ldr.w	pc, [sp], #8
   b487a:	bf00      	nop

000b487c <__aeabi_dcmplt>:
   b487c:	f84d ed08 	str.w	lr, [sp, #-8]!
   b4880:	f7ff ffea 	bl	b4858 <__aeabi_cdcmpeq>
   b4884:	bf34      	ite	cc
   b4886:	2001      	movcc	r0, #1
   b4888:	2000      	movcs	r0, #0
   b488a:	f85d fb08 	ldr.w	pc, [sp], #8
   b488e:	bf00      	nop

000b4890 <__aeabi_dcmple>:
   b4890:	f84d ed08 	str.w	lr, [sp, #-8]!
   b4894:	f7ff ffe0 	bl	b4858 <__aeabi_cdcmpeq>
   b4898:	bf94      	ite	ls
   b489a:	2001      	movls	r0, #1
   b489c:	2000      	movhi	r0, #0
   b489e:	f85d fb08 	ldr.w	pc, [sp], #8
   b48a2:	bf00      	nop

000b48a4 <__aeabi_dcmpge>:
   b48a4:	f84d ed08 	str.w	lr, [sp, #-8]!
   b48a8:	f7ff ffce 	bl	b4848 <__aeabi_cdrcmple>
   b48ac:	bf94      	ite	ls
   b48ae:	2001      	movls	r0, #1
   b48b0:	2000      	movhi	r0, #0
   b48b2:	f85d fb08 	ldr.w	pc, [sp], #8
   b48b6:	bf00      	nop

000b48b8 <__aeabi_dcmpgt>:
   b48b8:	f84d ed08 	str.w	lr, [sp, #-8]!
   b48bc:	f7ff ffc4 	bl	b4848 <__aeabi_cdrcmple>
   b48c0:	bf34      	ite	cc
   b48c2:	2001      	movcc	r0, #1
   b48c4:	2000      	movcs	r0, #0
   b48c6:	f85d fb08 	ldr.w	pc, [sp], #8
   b48ca:	bf00      	nop

000b48cc <__aeabi_d2f>:
   b48cc:	ea4f 0241 	mov.w	r2, r1, lsl #1
   b48d0:	f1b2 43e0 	subs.w	r3, r2, #1879048192	; 0x70000000
   b48d4:	bf24      	itt	cs
   b48d6:	f5b3 1c00 	subscs.w	ip, r3, #2097152	; 0x200000
   b48da:	f1dc 5cfe 	rsbscs	ip, ip, #532676608	; 0x1fc00000
   b48de:	d90d      	bls.n	b48fc <__aeabi_d2f+0x30>
   b48e0:	f001 4c00 	and.w	ip, r1, #2147483648	; 0x80000000
   b48e4:	ea4f 02c0 	mov.w	r2, r0, lsl #3
   b48e8:	ea4c 7050 	orr.w	r0, ip, r0, lsr #29
   b48ec:	f1b2 4f00 	cmp.w	r2, #2147483648	; 0x80000000
   b48f0:	eb40 0083 	adc.w	r0, r0, r3, lsl #2
   b48f4:	bf08      	it	eq
   b48f6:	f020 0001 	biceq.w	r0, r0, #1
   b48fa:	4770      	bx	lr
   b48fc:	f011 4f80 	tst.w	r1, #1073741824	; 0x40000000
   b4900:	d121      	bne.n	b4946 <__aeabi_d2f+0x7a>
   b4902:	f113 7238 	adds.w	r2, r3, #48234496	; 0x2e00000
   b4906:	bfbc      	itt	lt
   b4908:	f001 4000 	andlt.w	r0, r1, #2147483648	; 0x80000000
   b490c:	4770      	bxlt	lr
   b490e:	f441 1180 	orr.w	r1, r1, #1048576	; 0x100000
   b4912:	ea4f 5252 	mov.w	r2, r2, lsr #21
   b4916:	f1c2 0218 	rsb	r2, r2, #24
   b491a:	f1c2 0c20 	rsb	ip, r2, #32
   b491e:	fa10 f30c 	lsls.w	r3, r0, ip
   b4922:	fa20 f002 	lsr.w	r0, r0, r2
   b4926:	bf18      	it	ne
   b4928:	f040 0001 	orrne.w	r0, r0, #1
   b492c:	ea4f 23c1 	mov.w	r3, r1, lsl #11
   b4930:	ea4f 23d3 	mov.w	r3, r3, lsr #11
   b4934:	fa03 fc0c 	lsl.w	ip, r3, ip
   b4938:	ea40 000c 	orr.w	r0, r0, ip
   b493c:	fa23 f302 	lsr.w	r3, r3, r2
   b4940:	ea4f 0343 	mov.w	r3, r3, lsl #1
   b4944:	e7cc      	b.n	b48e0 <__aeabi_d2f+0x14>
   b4946:	ea7f 5362 	mvns.w	r3, r2, asr #21
   b494a:	d107      	bne.n	b495c <__aeabi_d2f+0x90>
   b494c:	ea50 3301 	orrs.w	r3, r0, r1, lsl #12
   b4950:	bf1e      	ittt	ne
   b4952:	f04f 40fe 	movne.w	r0, #2130706432	; 0x7f000000
   b4956:	f440 0040 	orrne.w	r0, r0, #12582912	; 0xc00000
   b495a:	4770      	bxne	lr
   b495c:	f001 4000 	and.w	r0, r1, #2147483648	; 0x80000000
   b4960:	f040 40fe 	orr.w	r0, r0, #2130706432	; 0x7f000000
   b4964:	f440 0000 	orr.w	r0, r0, #8388608	; 0x800000
   b4968:	4770      	bx	lr
   b496a:	bf00      	nop

000b496c <__aeabi_uldivmod>:
   b496c:	b953      	cbnz	r3, b4984 <__aeabi_uldivmod+0x18>
   b496e:	b94a      	cbnz	r2, b4984 <__aeabi_uldivmod+0x18>
   b4970:	2900      	cmp	r1, #0
   b4972:	bf08      	it	eq
   b4974:	2800      	cmpeq	r0, #0
   b4976:	bf1c      	itt	ne
   b4978:	f04f 31ff 	movne.w	r1, #4294967295
   b497c:	f04f 30ff 	movne.w	r0, #4294967295
   b4980:	f000 b9c6 	b.w	b4d10 <__aeabi_idiv0>
   b4984:	f1ad 0c08 	sub.w	ip, sp, #8
   b4988:	e96d ce04 	strd	ip, lr, [sp, #-16]!
   b498c:	f000 f858 	bl	b4a40 <__udivmoddi4>
   b4990:	f8dd e004 	ldr.w	lr, [sp, #4]
   b4994:	e9dd 2302 	ldrd	r2, r3, [sp, #8]
   b4998:	b004      	add	sp, #16
   b499a:	4770      	bx	lr

000b499c <__aeabi_f2lz>:
   b499c:	ee07 0a90 	vmov	s15, r0
   b49a0:	eef5 7ac0 	vcmpe.f32	s15, #0.0
   b49a4:	eef1 fa10 	vmrs	APSR_nzcv, fpscr
   b49a8:	d401      	bmi.n	b49ae <__aeabi_f2lz+0x12>
   b49aa:	f000 b80b 	b.w	b49c4 <__aeabi_f2ulz>
   b49ae:	eef1 7a67 	vneg.f32	s15, s15
   b49b2:	b508      	push	{r3, lr}
   b49b4:	ee17 0a90 	vmov	r0, s15
   b49b8:	f000 f804 	bl	b49c4 <__aeabi_f2ulz>
   b49bc:	4240      	negs	r0, r0
   b49be:	eb61 0141 	sbc.w	r1, r1, r1, lsl #1
   b49c2:	bd08      	pop	{r3, pc}

000b49c4 <__aeabi_f2ulz>:
   b49c4:	b5d0      	push	{r4, r6, r7, lr}
   b49c6:	f7ff fc8f 	bl	b42e8 <__aeabi_f2d>
   b49ca:	4b0c      	ldr	r3, [pc, #48]	; (b49fc <__aeabi_f2ulz+0x38>)
   b49cc:	2200      	movs	r2, #0
   b49ce:	4606      	mov	r6, r0
   b49d0:	460f      	mov	r7, r1
   b49d2:	f7ff fce1 	bl	b4398 <__aeabi_dmul>
   b49d6:	f000 f99d 	bl	b4d14 <__aeabi_d2uiz>
   b49da:	4604      	mov	r4, r0
   b49dc:	f7ff fc62 	bl	b42a4 <__aeabi_ui2d>
   b49e0:	4b07      	ldr	r3, [pc, #28]	; (b4a00 <__aeabi_f2ulz+0x3c>)
   b49e2:	2200      	movs	r2, #0
   b49e4:	f7ff fcd8 	bl	b4398 <__aeabi_dmul>
   b49e8:	4602      	mov	r2, r0
   b49ea:	460b      	mov	r3, r1
   b49ec:	4630      	mov	r0, r6
   b49ee:	4639      	mov	r1, r7
   b49f0:	f7ff fb1a 	bl	b4028 <__aeabi_dsub>
   b49f4:	f000 f98e 	bl	b4d14 <__aeabi_d2uiz>
   b49f8:	4621      	mov	r1, r4
   b49fa:	bdd0      	pop	{r4, r6, r7, pc}
   b49fc:	3df00000 	.word	0x3df00000
   b4a00:	41f00000 	.word	0x41f00000

000b4a04 <__aeabi_d2ulz>:
   b4a04:	b5d0      	push	{r4, r6, r7, lr}
   b4a06:	4b0c      	ldr	r3, [pc, #48]	; (b4a38 <__aeabi_d2ulz+0x34>)
   b4a08:	2200      	movs	r2, #0
   b4a0a:	4606      	mov	r6, r0
   b4a0c:	460f      	mov	r7, r1
   b4a0e:	f7ff fcc3 	bl	b4398 <__aeabi_dmul>
   b4a12:	f000 f97f 	bl	b4d14 <__aeabi_d2uiz>
   b4a16:	4604      	mov	r4, r0
   b4a18:	f7ff fc44 	bl	b42a4 <__aeabi_ui2d>
   b4a1c:	4b07      	ldr	r3, [pc, #28]	; (b4a3c <__aeabi_d2ulz+0x38>)
   b4a1e:	2200      	movs	r2, #0
   b4a20:	f7ff fcba 	bl	b4398 <__aeabi_dmul>
   b4a24:	4602      	mov	r2, r0
   b4a26:	460b      	mov	r3, r1
   b4a28:	4630      	mov	r0, r6
   b4a2a:	4639      	mov	r1, r7
   b4a2c:	f7ff fafc 	bl	b4028 <__aeabi_dsub>
   b4a30:	f000 f970 	bl	b4d14 <__aeabi_d2uiz>
   b4a34:	4621      	mov	r1, r4
   b4a36:	bdd0      	pop	{r4, r6, r7, pc}
   b4a38:	3df00000 	.word	0x3df00000
   b4a3c:	41f00000 	.word	0x41f00000

000b4a40 <__udivmoddi4>:
   b4a40:	e92d 47f0 	stmdb	sp!, {r4, r5, r6, r7, r8, r9, sl, lr}
   b4a44:	9d08      	ldr	r5, [sp, #32]
   b4a46:	4604      	mov	r4, r0
   b4a48:	468e      	mov	lr, r1
   b4a4a:	2b00      	cmp	r3, #0
   b4a4c:	d14d      	bne.n	b4aea <__udivmoddi4+0xaa>
   b4a4e:	428a      	cmp	r2, r1
   b4a50:	4694      	mov	ip, r2
   b4a52:	d969      	bls.n	b4b28 <__udivmoddi4+0xe8>
   b4a54:	fab2 f282 	clz	r2, r2
   b4a58:	b152      	cbz	r2, b4a70 <__udivmoddi4+0x30>
   b4a5a:	fa01 f302 	lsl.w	r3, r1, r2
   b4a5e:	f1c2 0120 	rsb	r1, r2, #32
   b4a62:	fa20 f101 	lsr.w	r1, r0, r1
   b4a66:	fa0c fc02 	lsl.w	ip, ip, r2
   b4a6a:	ea41 0e03 	orr.w	lr, r1, r3
   b4a6e:	4094      	lsls	r4, r2
   b4a70:	ea4f 481c 	mov.w	r8, ip, lsr #16
   b4a74:	0c21      	lsrs	r1, r4, #16
   b4a76:	fbbe f6f8 	udiv	r6, lr, r8
   b4a7a:	fa1f f78c 	uxth.w	r7, ip
   b4a7e:	fb08 e316 	mls	r3, r8, r6, lr
   b4a82:	ea41 4303 	orr.w	r3, r1, r3, lsl #16
   b4a86:	fb06 f107 	mul.w	r1, r6, r7
   b4a8a:	4299      	cmp	r1, r3
   b4a8c:	d90a      	bls.n	b4aa4 <__udivmoddi4+0x64>
   b4a8e:	eb1c 0303 	adds.w	r3, ip, r3
   b4a92:	f106 30ff 	add.w	r0, r6, #4294967295
   b4a96:	f080 811f 	bcs.w	b4cd8 <__udivmoddi4+0x298>
   b4a9a:	4299      	cmp	r1, r3
   b4a9c:	f240 811c 	bls.w	b4cd8 <__udivmoddi4+0x298>
   b4aa0:	3e02      	subs	r6, #2
   b4aa2:	4463      	add	r3, ip
   b4aa4:	1a5b      	subs	r3, r3, r1
   b4aa6:	b2a4      	uxth	r4, r4
   b4aa8:	fbb3 f0f8 	udiv	r0, r3, r8
   b4aac:	fb08 3310 	mls	r3, r8, r0, r3
   b4ab0:	ea44 4403 	orr.w	r4, r4, r3, lsl #16
   b4ab4:	fb00 f707 	mul.w	r7, r0, r7
   b4ab8:	42a7      	cmp	r7, r4
   b4aba:	d90a      	bls.n	b4ad2 <__udivmoddi4+0x92>
   b4abc:	eb1c 0404 	adds.w	r4, ip, r4
   b4ac0:	f100 33ff 	add.w	r3, r0, #4294967295
   b4ac4:	f080 810a 	bcs.w	b4cdc <__udivmoddi4+0x29c>
   b4ac8:	42a7      	cmp	r7, r4
   b4aca:	f240 8107 	bls.w	b4cdc <__udivmoddi4+0x29c>
   b4ace:	4464      	add	r4, ip
   b4ad0:	3802      	subs	r0, #2
   b4ad2:	ea40 4006 	orr.w	r0, r0, r6, lsl #16
   b4ad6:	1be4      	subs	r4, r4, r7
   b4ad8:	2600      	movs	r6, #0
   b4ada:	b11d      	cbz	r5, b4ae4 <__udivmoddi4+0xa4>
   b4adc:	40d4      	lsrs	r4, r2
   b4ade:	2300      	movs	r3, #0
   b4ae0:	e9c5 4300 	strd	r4, r3, [r5]
   b4ae4:	4631      	mov	r1, r6
   b4ae6:	e8bd 87f0 	ldmia.w	sp!, {r4, r5, r6, r7, r8, r9, sl, pc}
   b4aea:	428b      	cmp	r3, r1
   b4aec:	d909      	bls.n	b4b02 <__udivmoddi4+0xc2>
   b4aee:	2d00      	cmp	r5, #0
   b4af0:	f000 80ef 	beq.w	b4cd2 <__udivmoddi4+0x292>
   b4af4:	2600      	movs	r6, #0
   b4af6:	e9c5 0100 	strd	r0, r1, [r5]
   b4afa:	4630      	mov	r0, r6
   b4afc:	4631      	mov	r1, r6
   b4afe:	e8bd 87f0 	ldmia.w	sp!, {r4, r5, r6, r7, r8, r9, sl, pc}
   b4b02:	fab3 f683 	clz	r6, r3
   b4b06:	2e00      	cmp	r6, #0
   b4b08:	d14a      	bne.n	b4ba0 <__udivmoddi4+0x160>
   b4b0a:	428b      	cmp	r3, r1
   b4b0c:	d302      	bcc.n	b4b14 <__udivmoddi4+0xd4>
   b4b0e:	4282      	cmp	r2, r0
   b4b10:	f200 80f9 	bhi.w	b4d06 <__udivmoddi4+0x2c6>
   b4b14:	1a84      	subs	r4, r0, r2
   b4b16:	eb61 0303 	sbc.w	r3, r1, r3
   b4b1a:	2001      	movs	r0, #1
   b4b1c:	469e      	mov	lr, r3
   b4b1e:	2d00      	cmp	r5, #0
   b4b20:	d0e0      	beq.n	b4ae4 <__udivmoddi4+0xa4>
   b4b22:	e9c5 4e00 	strd	r4, lr, [r5]
   b4b26:	e7dd      	b.n	b4ae4 <__udivmoddi4+0xa4>
   b4b28:	b902      	cbnz	r2, b4b2c <__udivmoddi4+0xec>
   b4b2a:	deff      	udf	#255	; 0xff
   b4b2c:	fab2 f282 	clz	r2, r2
   b4b30:	2a00      	cmp	r2, #0
   b4b32:	f040 8092 	bne.w	b4c5a <__udivmoddi4+0x21a>
   b4b36:	eba1 010c 	sub.w	r1, r1, ip
   b4b3a:	ea4f 471c 	mov.w	r7, ip, lsr #16
   b4b3e:	fa1f fe8c 	uxth.w	lr, ip
   b4b42:	2601      	movs	r6, #1
   b4b44:	0c20      	lsrs	r0, r4, #16
   b4b46:	fbb1 f3f7 	udiv	r3, r1, r7
   b4b4a:	fb07 1113 	mls	r1, r7, r3, r1
   b4b4e:	ea40 4101 	orr.w	r1, r0, r1, lsl #16
   b4b52:	fb0e f003 	mul.w	r0, lr, r3
   b4b56:	4288      	cmp	r0, r1
   b4b58:	d908      	bls.n	b4b6c <__udivmoddi4+0x12c>
   b4b5a:	eb1c 0101 	adds.w	r1, ip, r1
   b4b5e:	f103 38ff 	add.w	r8, r3, #4294967295
   b4b62:	d202      	bcs.n	b4b6a <__udivmoddi4+0x12a>
   b4b64:	4288      	cmp	r0, r1
   b4b66:	f200 80cb 	bhi.w	b4d00 <__udivmoddi4+0x2c0>
   b4b6a:	4643      	mov	r3, r8
   b4b6c:	1a09      	subs	r1, r1, r0
   b4b6e:	b2a4      	uxth	r4, r4
   b4b70:	fbb1 f0f7 	udiv	r0, r1, r7
   b4b74:	fb07 1110 	mls	r1, r7, r0, r1
   b4b78:	ea44 4401 	orr.w	r4, r4, r1, lsl #16
   b4b7c:	fb0e fe00 	mul.w	lr, lr, r0
   b4b80:	45a6      	cmp	lr, r4
   b4b82:	d908      	bls.n	b4b96 <__udivmoddi4+0x156>
   b4b84:	eb1c 0404 	adds.w	r4, ip, r4
   b4b88:	f100 31ff 	add.w	r1, r0, #4294967295
   b4b8c:	d202      	bcs.n	b4b94 <__udivmoddi4+0x154>
   b4b8e:	45a6      	cmp	lr, r4
   b4b90:	f200 80bb 	bhi.w	b4d0a <__udivmoddi4+0x2ca>
   b4b94:	4608      	mov	r0, r1
   b4b96:	eba4 040e 	sub.w	r4, r4, lr
   b4b9a:	ea40 4003 	orr.w	r0, r0, r3, lsl #16
   b4b9e:	e79c      	b.n	b4ada <__udivmoddi4+0x9a>
   b4ba0:	f1c6 0720 	rsb	r7, r6, #32
   b4ba4:	40b3      	lsls	r3, r6
   b4ba6:	fa22 fc07 	lsr.w	ip, r2, r7
   b4baa:	ea4c 0c03 	orr.w	ip, ip, r3
   b4bae:	fa20 f407 	lsr.w	r4, r0, r7
   b4bb2:	fa01 f306 	lsl.w	r3, r1, r6
   b4bb6:	431c      	orrs	r4, r3
   b4bb8:	40f9      	lsrs	r1, r7
   b4bba:	ea4f 491c 	mov.w	r9, ip, lsr #16
   b4bbe:	fa00 f306 	lsl.w	r3, r0, r6
   b4bc2:	fbb1 f8f9 	udiv	r8, r1, r9
   b4bc6:	0c20      	lsrs	r0, r4, #16
   b4bc8:	fa1f fe8c 	uxth.w	lr, ip
   b4bcc:	fb09 1118 	mls	r1, r9, r8, r1
   b4bd0:	ea40 4101 	orr.w	r1, r0, r1, lsl #16
   b4bd4:	fb08 f00e 	mul.w	r0, r8, lr
   b4bd8:	4288      	cmp	r0, r1
   b4bda:	fa02 f206 	lsl.w	r2, r2, r6
   b4bde:	d90b      	bls.n	b4bf8 <__udivmoddi4+0x1b8>
   b4be0:	eb1c 0101 	adds.w	r1, ip, r1
   b4be4:	f108 3aff 	add.w	sl, r8, #4294967295
   b4be8:	f080 8088 	bcs.w	b4cfc <__udivmoddi4+0x2bc>
   b4bec:	4288      	cmp	r0, r1
   b4bee:	f240 8085 	bls.w	b4cfc <__udivmoddi4+0x2bc>
   b4bf2:	f1a8 0802 	sub.w	r8, r8, #2
   b4bf6:	4461      	add	r1, ip
   b4bf8:	1a09      	subs	r1, r1, r0
   b4bfa:	b2a4      	uxth	r4, r4
   b4bfc:	fbb1 f0f9 	udiv	r0, r1, r9
   b4c00:	fb09 1110 	mls	r1, r9, r0, r1
   b4c04:	ea44 4101 	orr.w	r1, r4, r1, lsl #16
   b4c08:	fb00 fe0e 	mul.w	lr, r0, lr
   b4c0c:	458e      	cmp	lr, r1
   b4c0e:	d908      	bls.n	b4c22 <__udivmoddi4+0x1e2>
   b4c10:	eb1c 0101 	adds.w	r1, ip, r1
   b4c14:	f100 34ff 	add.w	r4, r0, #4294967295
   b4c18:	d26c      	bcs.n	b4cf4 <__udivmoddi4+0x2b4>
   b4c1a:	458e      	cmp	lr, r1
   b4c1c:	d96a      	bls.n	b4cf4 <__udivmoddi4+0x2b4>
   b4c1e:	3802      	subs	r0, #2
   b4c20:	4461      	add	r1, ip
   b4c22:	ea40 4008 	orr.w	r0, r0, r8, lsl #16
   b4c26:	fba0 9402 	umull	r9, r4, r0, r2
   b4c2a:	eba1 010e 	sub.w	r1, r1, lr
   b4c2e:	42a1      	cmp	r1, r4
   b4c30:	46c8      	mov	r8, r9
   b4c32:	46a6      	mov	lr, r4
   b4c34:	d356      	bcc.n	b4ce4 <__udivmoddi4+0x2a4>
   b4c36:	d053      	beq.n	b4ce0 <__udivmoddi4+0x2a0>
   b4c38:	b15d      	cbz	r5, b4c52 <__udivmoddi4+0x212>
   b4c3a:	ebb3 0208 	subs.w	r2, r3, r8
   b4c3e:	eb61 010e 	sbc.w	r1, r1, lr
   b4c42:	fa01 f707 	lsl.w	r7, r1, r7
   b4c46:	fa22 f306 	lsr.w	r3, r2, r6
   b4c4a:	40f1      	lsrs	r1, r6
   b4c4c:	431f      	orrs	r7, r3
   b4c4e:	e9c5 7100 	strd	r7, r1, [r5]
   b4c52:	2600      	movs	r6, #0
   b4c54:	4631      	mov	r1, r6
   b4c56:	e8bd 87f0 	ldmia.w	sp!, {r4, r5, r6, r7, r8, r9, sl, pc}
   b4c5a:	f1c2 0320 	rsb	r3, r2, #32
   b4c5e:	40d8      	lsrs	r0, r3
   b4c60:	fa0c fc02 	lsl.w	ip, ip, r2
   b4c64:	fa21 f303 	lsr.w	r3, r1, r3
   b4c68:	4091      	lsls	r1, r2
   b4c6a:	4301      	orrs	r1, r0
   b4c6c:	ea4f 471c 	mov.w	r7, ip, lsr #16
   b4c70:	fa1f fe8c 	uxth.w	lr, ip
   b4c74:	fbb3 f0f7 	udiv	r0, r3, r7
   b4c78:	fb07 3610 	mls	r6, r7, r0, r3
   b4c7c:	0c0b      	lsrs	r3, r1, #16
   b4c7e:	ea43 4306 	orr.w	r3, r3, r6, lsl #16
   b4c82:	fb00 f60e 	mul.w	r6, r0, lr
   b4c86:	429e      	cmp	r6, r3
   b4c88:	fa04 f402 	lsl.w	r4, r4, r2
   b4c8c:	d908      	bls.n	b4ca0 <__udivmoddi4+0x260>
   b4c8e:	eb1c 0303 	adds.w	r3, ip, r3
   b4c92:	f100 38ff 	add.w	r8, r0, #4294967295
   b4c96:	d22f      	bcs.n	b4cf8 <__udivmoddi4+0x2b8>
   b4c98:	429e      	cmp	r6, r3
   b4c9a:	d92d      	bls.n	b4cf8 <__udivmoddi4+0x2b8>
   b4c9c:	3802      	subs	r0, #2
   b4c9e:	4463      	add	r3, ip
   b4ca0:	1b9b      	subs	r3, r3, r6
   b4ca2:	b289      	uxth	r1, r1
   b4ca4:	fbb3 f6f7 	udiv	r6, r3, r7
   b4ca8:	fb07 3316 	mls	r3, r7, r6, r3
   b4cac:	ea41 4103 	orr.w	r1, r1, r3, lsl #16
   b4cb0:	fb06 f30e 	mul.w	r3, r6, lr
   b4cb4:	428b      	cmp	r3, r1
   b4cb6:	d908      	bls.n	b4cca <__udivmoddi4+0x28a>
   b4cb8:	eb1c 0101 	adds.w	r1, ip, r1
   b4cbc:	f106 38ff 	add.w	r8, r6, #4294967295
   b4cc0:	d216      	bcs.n	b4cf0 <__udivmoddi4+0x2b0>
   b4cc2:	428b      	cmp	r3, r1
   b4cc4:	d914      	bls.n	b4cf0 <__udivmoddi4+0x2b0>
   b4cc6:	3e02      	subs	r6, #2
   b4cc8:	4461      	add	r1, ip
   b4cca:	1ac9      	subs	r1, r1, r3
   b4ccc:	ea46 4600 	orr.w	r6, r6, r0, lsl #16
   b4cd0:	e738      	b.n	b4b44 <__udivmoddi4+0x104>
   b4cd2:	462e      	mov	r6, r5
   b4cd4:	4628      	mov	r0, r5
   b4cd6:	e705      	b.n	b4ae4 <__udivmoddi4+0xa4>
   b4cd8:	4606      	mov	r6, r0
   b4cda:	e6e3      	b.n	b4aa4 <__udivmoddi4+0x64>
   b4cdc:	4618      	mov	r0, r3
   b4cde:	e6f8      	b.n	b4ad2 <__udivmoddi4+0x92>
   b4ce0:	454b      	cmp	r3, r9
   b4ce2:	d2a9      	bcs.n	b4c38 <__udivmoddi4+0x1f8>
   b4ce4:	ebb9 0802 	subs.w	r8, r9, r2
   b4ce8:	eb64 0e0c 	sbc.w	lr, r4, ip
   b4cec:	3801      	subs	r0, #1
   b4cee:	e7a3      	b.n	b4c38 <__udivmoddi4+0x1f8>
   b4cf0:	4646      	mov	r6, r8
   b4cf2:	e7ea      	b.n	b4cca <__udivmoddi4+0x28a>
   b4cf4:	4620      	mov	r0, r4
   b4cf6:	e794      	b.n	b4c22 <__udivmoddi4+0x1e2>
   b4cf8:	4640      	mov	r0, r8
   b4cfa:	e7d1      	b.n	b4ca0 <__udivmoddi4+0x260>
   b4cfc:	46d0      	mov	r8, sl
   b4cfe:	e77b      	b.n	b4bf8 <__udivmoddi4+0x1b8>
   b4d00:	3b02      	subs	r3, #2
   b4d02:	4461      	add	r1, ip
   b4d04:	e732      	b.n	b4b6c <__udivmoddi4+0x12c>
   b4d06:	4630      	mov	r0, r6
   b4d08:	e709      	b.n	b4b1e <__udivmoddi4+0xde>
   b4d0a:	4464      	add	r4, ip
   b4d0c:	3802      	subs	r0, #2
   b4d0e:	e742      	b.n	b4b96 <__udivmoddi4+0x156>

000b4d10 <__aeabi_idiv0>:
   b4d10:	4770      	bx	lr
   b4d12:	bf00      	nop

000b4d14 <__aeabi_d2uiz>:
   b4d14:	004a      	lsls	r2, r1, #1
   b4d16:	d211      	bcs.n	b4d3c <__aeabi_d2uiz+0x28>
   b4d18:	f512 1200 	adds.w	r2, r2, #2097152	; 0x200000
   b4d1c:	d211      	bcs.n	b4d42 <__aeabi_d2uiz+0x2e>
   b4d1e:	d50d      	bpl.n	b4d3c <__aeabi_d2uiz+0x28>
   b4d20:	f46f 7378 	mvn.w	r3, #992	; 0x3e0
   b4d24:	ebb3 5262 	subs.w	r2, r3, r2, asr #21
   b4d28:	d40e      	bmi.n	b4d48 <__aeabi_d2uiz+0x34>
   b4d2a:	ea4f 23c1 	mov.w	r3, r1, lsl #11
   b4d2e:	f043 4300 	orr.w	r3, r3, #2147483648	; 0x80000000
   b4d32:	ea43 5350 	orr.w	r3, r3, r0, lsr #21
   b4d36:	fa23 f002 	lsr.w	r0, r3, r2
   b4d3a:	4770      	bx	lr
   b4d3c:	f04f 0000 	mov.w	r0, #0
   b4d40:	4770      	bx	lr
   b4d42:	ea50 3001 	orrs.w	r0, r0, r1, lsl #12
   b4d46:	d102      	bne.n	b4d4e <__aeabi_d2uiz+0x3a>
   b4d48:	f04f 30ff 	mov.w	r0, #4294967295
   b4d4c:	4770      	bx	lr
   b4d4e:	f04f 0000 	mov.w	r0, #0
   b4d52:	4770      	bx	lr

000b4d54 <strcmp>:
   b4d54:	f810 2b01 	ldrb.w	r2, [r0], #1
   b4d58:	f811 3b01 	ldrb.w	r3, [r1], #1
   b4d5c:	2a01      	cmp	r2, #1
   b4d5e:	bf28      	it	cs
   b4d60:	429a      	cmpcs	r2, r3
   b4d62:	d0f7      	beq.n	b4d54 <strcmp>
   b4d64:	1ad0      	subs	r0, r2, r3
   b4d66:	4770      	bx	lr

000b4d68 <strlen>:
   b4d68:	4603      	mov	r3, r0
   b4d6a:	f813 2b01 	ldrb.w	r2, [r3], #1
   b4d6e:	2a00      	cmp	r2, #0
   b4d70:	d1fb      	bne.n	b4d6a <strlen+0x2>
   b4d72:	1a18      	subs	r0, r3, r0
   b4d74:	3801      	subs	r0, #1
   b4d76:	4770      	bx	lr

000b4d78 <__aeabi_d2lz>:
   b4d78:	b538      	push	{r3, r4, r5, lr}
   b4d7a:	2200      	movs	r2, #0
   b4d7c:	2300      	movs	r3, #0
   b4d7e:	4604      	mov	r4, r0
   b4d80:	460d      	mov	r5, r1
   b4d82:	f7ff fd7b 	bl	b487c <__aeabi_dcmplt>
   b4d86:	b928      	cbnz	r0, b4d94 <__aeabi_d2lz+0x1c>
   b4d88:	4620      	mov	r0, r4
   b4d8a:	4629      	mov	r1, r5
   b4d8c:	e8bd 4038 	ldmia.w	sp!, {r3, r4, r5, lr}
   b4d90:	f7ff be38 	b.w	b4a04 <__aeabi_d2ulz>
   b4d94:	4620      	mov	r0, r4
   b4d96:	f105 4100 	add.w	r1, r5, #2147483648	; 0x80000000
   b4d9a:	f7ff fe33 	bl	b4a04 <__aeabi_d2ulz>
   b4d9e:	4240      	negs	r0, r0
   b4da0:	eb61 0141 	sbc.w	r1, r1, r1, lsl #1
   b4da4:	bd38      	pop	{r3, r4, r5, pc}
   b4da6:	bf00      	nop

000b4da8 <module_user_pre_init>:
/**
 * Initializes this user module. Returns the start of the heap.
 */
void* module_user_pre_init() {

    if ( (&link_global_data_start!=&link_global_data_initial_values) && (link_global_data_size != 0))
   b4da8:	4809      	ldr	r0, [pc, #36]	; (b4dd0 <module_user_pre_init+0x28>)
   b4daa:	490a      	ldr	r1, [pc, #40]	; (b4dd4 <module_user_pre_init+0x2c>)
   b4dac:	4288      	cmp	r0, r1
void* module_user_pre_init() {
   b4dae:	b508      	push	{r3, lr}
    if ( (&link_global_data_start!=&link_global_data_initial_values) && (link_global_data_size != 0))
   b4db0:	d005      	beq.n	b4dbe <module_user_pre_init+0x16>
   b4db2:	4a09      	ldr	r2, [pc, #36]	; (b4dd8 <module_user_pre_init+0x30>)
   b4db4:	4282      	cmp	r2, r0
   b4db6:	d002      	beq.n	b4dbe <module_user_pre_init+0x16>
    {
        memcpy(&link_global_data_start, &link_global_data_initial_values, link_global_data_size);
   b4db8:	1a12      	subs	r2, r2, r0
   b4dba:	f005 fc2f 	bl	ba61c <memcpy>
    }

    memset(&link_bss_location, 0, link_bss_size );
   b4dbe:	4807      	ldr	r0, [pc, #28]	; (b4ddc <module_user_pre_init+0x34>)
   b4dc0:	4a07      	ldr	r2, [pc, #28]	; (b4de0 <module_user_pre_init+0x38>)
   b4dc2:	2100      	movs	r1, #0
   b4dc4:	1a12      	subs	r2, r2, r0
   b4dc6:	f005 fc51 	bl	ba66c <memset>
    return &link_global_data_start;
}
   b4dca:	4801      	ldr	r0, [pc, #4]	; (b4dd0 <module_user_pre_init+0x28>)
   b4dcc:	bd08      	pop	{r3, pc}
   b4dce:	bf00      	nop
   b4dd0:	2003705c 	.word	0x2003705c
   b4dd4:	000bd4d8 	.word	0x000bd4d8
   b4dd8:	20037244 	.word	0x20037244
   b4ddc:	20037248 	.word	0x20037248
   b4de0:	2003e7fc 	.word	0x2003e7fc

000b4de4 <module_user_init>:
extern constructor_ptr_t link_constructors_location[];
extern constructor_ptr_t link_constructors_end;
#define link_constructors_size   ((unsigned long)&link_constructors_end  -  (unsigned long)&link_constructors_location )

void module_user_init()
{
   b4de4:	b570      	push	{r4, r5, r6, lr}
    module_user_init_hook();

    // invoke constructors
    for (size_t ctor_num=0; ctor_num < link_constructors_size/sizeof(constructor_ptr_t); ctor_num++ )
   b4de6:	4e07      	ldr	r6, [pc, #28]	; (b4e04 <module_user_init+0x20>)
   b4de8:	4c07      	ldr	r4, [pc, #28]	; (b4e08 <module_user_init+0x24>)
    module_user_init_hook();
   b4dea:	f004 f9b3 	bl	b9154 <module_user_init_hook>
    for (size_t ctor_num=0; ctor_num < link_constructors_size/sizeof(constructor_ptr_t); ctor_num++ )
   b4dee:	1ba4      	subs	r4, r4, r6
   b4df0:	08a4      	lsrs	r4, r4, #2
   b4df2:	2500      	movs	r5, #0
   b4df4:	42ac      	cmp	r4, r5
   b4df6:	d100      	bne.n	b4dfa <module_user_init+0x16>
    {
        link_constructors_location[ctor_num]();
    }
}
   b4df8:	bd70      	pop	{r4, r5, r6, pc}
        link_constructors_location[ctor_num]();
   b4dfa:	f856 3b04 	ldr.w	r3, [r6], #4
   b4dfe:	4798      	blx	r3
    for (size_t ctor_num=0; ctor_num < link_constructors_size/sizeof(constructor_ptr_t); ctor_num++ )
   b4e00:	3501      	adds	r5, #1
   b4e02:	e7f7      	b.n	b4df4 <module_user_init+0x10>
   b4e04:	000bd484 	.word	0x000bd484
   b4e08:	000bd4ac 	.word	0x000bd4ac

000b4e0c <module_user_setup>:

/**
 * Export these functions with a fuller name so they don't clash with the setup/loop wrappers in the system module.
 */
void module_user_setup() {
    setup();
   b4e0c:	f001 b93e 	b.w	b608c <setup>

000b4e10 <module_user_loop>:
}

void module_user_loop() {
   b4e10:	b508      	push	{r3, lr}
    loop();
   b4e12:	f001 fd99 	bl	b6948 <loop>
    _post_loop();
}
   b4e16:	e8bd 4008 	ldmia.w	sp!, {r3, lr}
    _post_loop();
   b4e1a:	f004 b953 	b.w	b90c4 <_post_loop>

000b4e1e <_Znwj>:
 * Implement C++ new/delete operators using the heap
 */

void *operator new(size_t size)
{
	return malloc(size);
   b4e1e:	f002 bd11 	b.w	b7844 <malloc>

000b4e22 <_Znaj>:
   b4e22:	f002 bd0f 	b.w	b7844 <malloc>

000b4e26 <_ZdlPvj>:
	free(p);
}

void operator delete(void *p, size_t size)
{
	free(p);
   b4e26:	f002 bd15 	b.w	b7854 <free>
	...

000b4e2c <__cxa_pure_virtual>:
int __wrap_printf(const char* fmt, ...) {
    return -1;
}

/* Default implementation for call made to pure virtual function. */
void __cxa_pure_virtual() {
   b4e2c:	b508      	push	{r3, lr}
  PANIC(PureVirtualCall,"Call on pure virtual");
   b4e2e:	4a03      	ldr	r2, [pc, #12]	; (b4e3c <__cxa_pure_virtual+0x10>)
   b4e30:	4903      	ldr	r1, [pc, #12]	; (b4e40 <__cxa_pure_virtual+0x14>)
   b4e32:	200c      	movs	r0, #12
   b4e34:	f002 fbc8 	bl	b75c8 <panic_>
  while (1);
   b4e38:	e7fe      	b.n	b4e38 <__cxa_pure_virtual+0xc>
   b4e3a:	bf00      	nop
   b4e3c:	000b71f9 	.word	0x000b71f9
   b4e40:	000bc7f0 	.word	0x000bc7f0

000b4e44 <__cxa_guard_acquire>:

/* Provide default implemenation for __cxa_guard_acquire() and
 * __cxa_guard_release(). Note: these must be revisited if a multitasking
 * OS is ported to this platform. */
__extension__ typedef int __guard __attribute__((mode (__DI__)));
int __cxa_guard_acquire(__guard *g) {return !*(char *)(g);};
   b4e44:	7800      	ldrb	r0, [r0, #0]
   b4e46:	fab0 f080 	clz	r0, r0
   b4e4a:	0940      	lsrs	r0, r0, #5
   b4e4c:	4770      	bx	lr

000b4e4e <__cxa_guard_release>:
void __cxa_guard_release (__guard *g) {*(char *)g = 1;};
   b4e4e:	2301      	movs	r3, #1
   b4e50:	7003      	strb	r3, [r0, #0]
   b4e52:	4770      	bx	lr

000b4e54 <_ZN5spark10LogHandler5writeEPKcj>:
    }
}

inline void spark::LogHandler::write(const char *data, size_t size) {
    // Default implementation does nothing
}
   b4e54:	4770      	bx	lr
	...

000b4e58 <_Z14shutoffTimerCbv>:

  leakingEventCount = shutoffEventCount = overflowEventCount = 0;
}

// =============================================================== Shutoff valve
void shutoffTimerCb() { resetShutoff = true; triggerPublish = true; }
   b4e58:	4a02      	ldr	r2, [pc, #8]	; (b4e64 <_Z14shutoffTimerCbv+0xc>)
   b4e5a:	2301      	movs	r3, #1
   b4e5c:	7013      	strb	r3, [r2, #0]
   b4e5e:	4a02      	ldr	r2, [pc, #8]	; (b4e68 <_Z14shutoffTimerCbv+0x10>)
   b4e60:	7013      	strb	r3, [r2, #0]
   b4e62:	4770      	bx	lr
   b4e64:	2003d505 	.word	0x2003d505
   b4e68:	2003d52c 	.word	0x2003d52c

000b4e6c <_Z10getFlowCal6String>:
  if (v != v || v < FLOW_CAL_MIN || v > FLOW_CAL_MAX) return -1;
  flowCalScale = v; saveFlowCal(); syncBackupRam(); triggerPublish = true;
  Log.info("FLOW_CAL set %.4f", flowCalScale);
  return 1;
}
int getFlowCal(String cmd) { (void)cmd; return (int)(flowCalScale * 1000.0f + 0.5f); }
   b4e6c:	4b06      	ldr	r3, [pc, #24]	; (b4e88 <_Z10getFlowCal6String+0x1c>)
   b4e6e:	ed9f 7a07 	vldr	s14, [pc, #28]	; b4e8c <_Z10getFlowCal6String+0x20>
   b4e72:	edd3 6a00 	vldr	s13, [r3]
   b4e76:	eef6 7a00 	vmov.f32	s15, #96	; 0x3f000000  0.5
   b4e7a:	eee6 7a87 	vfma.f32	s15, s13, s14
   b4e7e:	eefd 7ae7 	vcvt.s32.f32	s15, s15
   b4e82:	ee17 0a90 	vmov	r0, s15
   b4e86:	4770      	bx	lr
   b4e88:	2003f400 	.word	0x2003f400
   b4e8c:	447a0000 	.word	0x447a0000

000b4e90 <_Z9getConfig6String>:
  // If the PIC happens to be awake right now, push immediately.
  if (picLink.wakeIsHigh() && picLink.pushConfig(appConfig)) picConfigDirty = false;
  return 1;
}

int getConfig(String cmd) { (void)cmd; triggerPublish = true; return 1; }
   b4e90:	4b01      	ldr	r3, [pc, #4]	; (b4e98 <_Z9getConfig6String+0x8>)
   b4e92:	2001      	movs	r0, #1
   b4e94:	7018      	strb	r0, [r3, #0]
   b4e96:	4770      	bx	lr
   b4e98:	2003d52c 	.word	0x2003d52c

000b4e9c <_ZN16JsonWriterStaticILj512EED1Ev>:
 * variable.
 *
 * @param BUFFER_SIZE The size of the buffer to reserve.
 */
template <size_t BUFFER_SIZE>
class JsonWriterStatic : public JsonWriter {
   b4e9c:	b510      	push	{r4, lr}
   b4e9e:	4b03      	ldr	r3, [pc, #12]	; (b4eac <_ZN16JsonWriterStaticILj512EED1Ev+0x10>)
   b4ea0:	6003      	str	r3, [r0, #0]
   b4ea2:	4604      	mov	r4, r0
   b4ea4:	f002 f806 	bl	b6eb4 <_ZN10JsonWriterD1Ev>
   b4ea8:	4620      	mov	r0, r4
   b4eaa:	bd10      	pop	{r4, pc}
   b4eac:	000bcce4 	.word	0x000bcce4

000b4eb0 <_ZN16JsonWriterStaticILj512EED0Ev>:
   b4eb0:	b510      	push	{r4, lr}
   b4eb2:	4604      	mov	r4, r0
   b4eb4:	f7ff fff2 	bl	b4e9c <_ZN16JsonWriterStaticILj512EED1Ev>
   b4eb8:	4620      	mov	r0, r4
   b4eba:	f44f 710c 	mov.w	r1, #560	; 0x230
   b4ebe:	f7ff ffb2 	bl	b4e26 <_ZdlPvj>
   b4ec2:	4620      	mov	r0, r4
   b4ec4:	bd10      	pop	{r4, pc}

000b4ec6 <_ZN5Timer7timeoutEv>:
     * Subclasses can either provide a callback function, or override
     * this timeout method.
     */
    virtual void timeout()
    {
        if (callback) {
   b4ec6:	6943      	ldr	r3, [r0, #20]
   b4ec8:	b113      	cbz	r3, b4ed0 <_ZN5Timer7timeoutEv+0xa>
    function<_Res(_ArgTypes...)>::
    operator()(_ArgTypes... __args) const
    {
      if (_M_empty())
	__throw_bad_function_call();
      return _M_invoker(_M_functor, std::forward<_ArgTypes>(__args)...);
   b4eca:	6983      	ldr	r3, [r0, #24]
   b4ecc:	300c      	adds	r0, #12
   b4ece:	4718      	bx	r3
            callback();
        }
    }
   b4ed0:	4770      	bx	lr

000b4ed2 <_ZN5Timer12invoke_timerEPv>:
private:
	volatile bool running;
    os_timer_t handle;
    timer_callback_fn callback;

    static void invoke_timer(os_timer_t timer)
   b4ed2:	b513      	push	{r0, r1, r4, lr}
typedef std::function<os_thread_return_t(void)> wiring_thread_fn_t;

class SingleThreadedSection {
public:
    SingleThreadedSection() {
        os_thread_scheduling(false, NULL);
   b4ed4:	2100      	movs	r1, #0
   b4ed6:	4604      	mov	r4, r0
   b4ed8:	4608      	mov	r0, r1
   b4eda:	f002 fa05 	bl	b72e8 <os_thread_scheduling>
    {
        Timer* t = nullptr;
        SINGLE_THREADED_BLOCK() {
            void* id = nullptr;
   b4ede:	2300      	movs	r3, #0
            os_timer_get_id(timer, &id);
   b4ee0:	4620      	mov	r0, r4
   b4ee2:	a901      	add	r1, sp, #4
            void* id = nullptr;
   b4ee4:	9301      	str	r3, [sp, #4]
            os_timer_get_id(timer, &id);
   b4ee6:	f002 fa17 	bl	b7318 <os_timer_get_id>
            t = static_cast<Timer*>(id);
   b4eea:	9c01      	ldr	r4, [sp, #4]
            if (t) {
   b4eec:	b10c      	cbz	r4, b4ef2 <_ZN5Timer12invoke_timerEPv+0x20>
                t->running = true;
   b4eee:	2301      	movs	r3, #1
   b4ef0:	7123      	strb	r3, [r4, #4]
    }

    ~SingleThreadedSection() {
        os_thread_scheduling(true, NULL);
   b4ef2:	2100      	movs	r1, #0
   b4ef4:	2001      	movs	r0, #1
   b4ef6:	f002 f9f7 	bl	b72e8 <os_thread_scheduling>
            }
        }
        if (t) {
   b4efa:	b12c      	cbz	r4, b4f08 <_ZN5Timer12invoke_timerEPv+0x36>
            t->timeout();
   b4efc:	6823      	ldr	r3, [r4, #0]
   b4efe:	4620      	mov	r0, r4
   b4f00:	689b      	ldr	r3, [r3, #8]
   b4f02:	4798      	blx	r3
            t->running = false;
   b4f04:	2300      	movs	r3, #0
   b4f06:	7123      	strb	r3, [r4, #4]
        }
    }
   b4f08:	b002      	add	sp, #8
   b4f0a:	bd10      	pop	{r4, pc}

000b4f0c <_ZL14updateBaselineif>:
  if (s < 0 || s >= SlotModel::SLOTS_PER_WEEK) return;
   b4f0c:	f5b0 6ffc 	cmp.w	r0, #2016	; 0x7e0
static inline void updateBaseline(int s, float x) {
   b4f10:	b510      	push	{r4, lr}
  if (s < 0 || s >= SlotModel::SLOTS_PER_WEEK) return;
   b4f12:	d211      	bcs.n	b4f38 <_ZL14updateBaselineif+0x2c>
  if (!model.init[s]) {
   b4f14:	4b1a      	ldr	r3, [pc, #104]	; (b4f80 <_ZL14updateBaselineif+0x74>)
   b4f16:	1819      	adds	r1, r3, r0
   b4f18:	f501 517c 	add.w	r1, r1, #16128	; 0x3f00
   b4f1c:	0082      	lsls	r2, r0, #2
   b4f1e:	780c      	ldrb	r4, [r1, #0]
   b4f20:	f500 60fc 	add.w	r0, r0, #2016	; 0x7e0
    model.mu[s] = x; model.var[s] = 0.05f * 0.05f; model.init[s] = 1; return;
   b4f24:	441a      	add	r2, r3
  if (!model.init[s]) {
   b4f26:	b944      	cbnz	r4, b4f3a <_ZL14updateBaselineif+0x2e>
    model.mu[s] = x; model.var[s] = 0.05f * 0.05f; model.init[s] = 1; return;
   b4f28:	eb03 0380 	add.w	r3, r3, r0, lsl #2
   b4f2c:	ed82 0a00 	vstr	s0, [r2]
   b4f30:	4a14      	ldr	r2, [pc, #80]	; (b4f84 <_ZL14updateBaselineif+0x78>)
   b4f32:	601a      	str	r2, [r3, #0]
   b4f34:	2301      	movs	r3, #1
   b4f36:	700b      	strb	r3, [r1, #0]
}
   b4f38:	bd10      	pop	{r4, pc}
  float mu = model.mu[s];
   b4f3a:	ed92 7a00 	vldr	s14, [r2]
  mu += ALPHA * err;
   b4f3e:	eddf 7a12 	vldr	s15, [pc, #72]	; b4f88 <_ZL14updateBaselineif+0x7c>
  float var = (1.0f - BETA) * model.var[s] + BETA * (err * err);
   b4f42:	eddf 6a12 	vldr	s13, [pc, #72]	; b4f8c <_ZL14updateBaselineif+0x80>
  float err = x - mu;
   b4f46:	ee30 0a47 	vsub.f32	s0, s0, s14
  float var = (1.0f - BETA) * model.var[s] + BETA * (err * err);
   b4f4a:	eb03 0380 	add.w	r3, r3, r0, lsl #2
  mu += ALPHA * err;
   b4f4e:	eea0 7a27 	vfma.f32	s14, s0, s15
  float var = (1.0f - BETA) * model.var[s] + BETA * (err * err);
   b4f52:	ee20 0a00 	vmul.f32	s0, s0, s0
   b4f56:	ed93 6a00 	vldr	s12, [r3]
  model.mu[s] = mu; model.var[s] = var;
   b4f5a:	ed82 7a00 	vstr	s14, [r2]
  float var = (1.0f - BETA) * model.var[s] + BETA * (err * err);
   b4f5e:	ee60 7a27 	vmul.f32	s15, s0, s15
   b4f62:	eee6 7a26 	vfma.f32	s15, s12, s13
  if (var < minVar) var = minVar;
   b4f66:	eddf 6a0a 	vldr	s13, [pc, #40]	; b4f90 <_ZL14updateBaselineif+0x84>
   b4f6a:	eef4 7a66 	vcmp.f32	s15, s13
   b4f6e:	eef1 fa10 	vmrs	APSR_nzcv, fpscr
   b4f72:	bf48      	it	mi
   b4f74:	eef0 7a66 	vmovmi.f32	s15, s13
  model.mu[s] = mu; model.var[s] = var;
   b4f78:	edc3 7a00 	vstr	s15, [r3]
   b4f7c:	e7dc      	b.n	b4f38 <_ZL14updateBaselineif+0x2c>
   b4f7e:	bf00      	nop
   b4f80:	20037258 	.word	0x20037258
   b4f84:	3b23d70b 	.word	0x3b23d70b
   b4f88:	3ca3d70a 	.word	0x3ca3d70a
   b4f8c:	3f7ae148 	.word	0x3f7ae148
   b4f90:	39d1b717 	.word	0x39d1b717

000b4f94 <_ZNSt17_Function_handlerIFvvEPS0_E10_M_managerERSt9_Any_dataRKS3_St18_Manager_operation>:
	switch (__op)
   b4f94:	2a01      	cmp	r2, #1
   b4f96:	d102      	bne.n	b4f9e <_ZNSt17_Function_handlerIFvvEPS0_E10_M_managerERSt9_Any_dataRKS3_St18_Manager_operation+0xa>
	    __dest._M_access<_Functor*>() = _Base::_M_get_pointer(__source);
   b4f98:	6001      	str	r1, [r0, #0]
      }
   b4f9a:	2000      	movs	r0, #0
   b4f9c:	4770      	bx	lr
	  switch (__op)
   b4f9e:	2a02      	cmp	r2, #2
	  ::new (__dest._M_access()) _Functor(__source._M_access<_Functor>());
   b4fa0:	bf04      	itt	eq
   b4fa2:	680b      	ldreq	r3, [r1, #0]
   b4fa4:	6003      	streq	r3, [r0, #0]
	      break;
   b4fa6:	e7f8      	b.n	b4f9a <_ZNSt17_Function_handlerIFvvEPS0_E10_M_managerERSt9_Any_dataRKS3_St18_Manager_operation+0x6>

000b4fa8 <_ZNSt17_Function_handlerIFvvEPS0_E9_M_invokeERKSt9_Any_data>:
    { return static_cast<_Up&&>(__t); }

  template<typename _Res, typename _Fn, typename... _Args>
    constexpr _Res
    __invoke_impl(__invoke_other, _Fn&& __f, _Args&&... __args)
    { return std::forward<_Fn>(__f)(std::forward<_Args>(__args)...); }
   b4fa8:	6803      	ldr	r3, [r0, #0]
   b4faa:	4718      	bx	r3

000b4fac <_ZN5Timer4stopEj.isra.0>:
    bool stop(unsigned block=default_wait) { return _stop(block, false); }
   b4fac:	b507      	push	{r0, r1, r2, lr}
        return handle ? !os_timer_change(handle, OS_TIMER_CHANGE_STOP, fromISR, 0, block, nullptr) : false;
   b4fae:	6880      	ldr	r0, [r0, #8]
   b4fb0:	b130      	cbz	r0, b4fc0 <_ZN5Timer4stopEj.isra.0+0x14>
   b4fb2:	2300      	movs	r3, #0
   b4fb4:	e9cd 1300 	strd	r1, r3, [sp]
   b4fb8:	461a      	mov	r2, r3
   b4fba:	2102      	movs	r1, #2
   b4fbc:	f002 f9b4 	bl	b7328 <os_timer_change>
    bool stop(unsigned block=default_wait) { return _stop(block, false); }
   b4fc0:	b003      	add	sp, #12
   b4fc2:	f85d fb04 	ldr.w	pc, [sp], #4

000b4fc6 <_ZN5Timer5startEj.isra.0>:
    bool start(unsigned block=default_wait) { return _start(block, false); }
   b4fc6:	b537      	push	{r0, r1, r2, r4, r5, lr}
   b4fc8:	4605      	mov	r5, r0
   b4fca:	460c      	mov	r4, r1
        stop(fromISR);
   b4fcc:	2100      	movs	r1, #0
   b4fce:	f7ff ffed 	bl	b4fac <_ZN5Timer4stopEj.isra.0>
        return handle ? !os_timer_change(handle, OS_TIMER_CHANGE_START, fromISR, 0, block, nullptr) : false;
   b4fd2:	68a8      	ldr	r0, [r5, #8]
   b4fd4:	b130      	cbz	r0, b4fe4 <_ZN5Timer5startEj.isra.0+0x1e>
   b4fd6:	2300      	movs	r3, #0
   b4fd8:	e9cd 4300 	strd	r4, r3, [sp]
   b4fdc:	461a      	mov	r2, r3
   b4fde:	4619      	mov	r1, r3
   b4fe0:	f002 f9a2 	bl	b7328 <os_timer_change>
    bool start(unsigned block=default_wait) { return _start(block, false); }
   b4fe4:	b003      	add	sp, #12
   b4fe6:	bd30      	pop	{r4, r5, pc}

000b4fe8 <_ZN10CloudClass7publishEPKcS1_.isra.0>:

inline particle::Future<bool> CloudClass::publish(const char* name) {
    return publish(name, PUBLIC);
}

inline particle::Future<bool> CloudClass::publish(const char* name, const char* data) {
   b4fe8:	b570      	push	{r4, r5, r6, lr}
   b4fea:	4b0d      	ldr	r3, [pc, #52]	; (b5020 <_ZN10CloudClass7publishEPKcS1_.isra.0+0x38>)
   b4fec:	b086      	sub	sp, #24
   b4fee:	781e      	ldrb	r6, [r3, #0]
   b4ff0:	4605      	mov	r5, r0
        return publish_event(eventName, eventData, eventData ? std::strlen(eventData) : 0, static_cast<int>(particle::ContentType::TEXT), ttl, flags1 | flags2);
   b4ff2:	4614      	mov	r4, r2
   b4ff4:	b192      	cbz	r2, b501c <_ZN10CloudClass7publishEPKcS1_.isra.0+0x34>
   b4ff6:	4610      	mov	r0, r2
   b4ff8:	9105      	str	r1, [sp, #20]
   b4ffa:	f7ff feb5 	bl	b4d68 <strlen>
   b4ffe:	9905      	ldr	r1, [sp, #20]
   b5000:	f88d 6008 	strb.w	r6, [sp, #8]
   b5004:	2300      	movs	r3, #0
   b5006:	223c      	movs	r2, #60	; 0x3c
   b5008:	e9cd 3200 	strd	r3, r2, [sp]
   b500c:	4603      	mov	r3, r0
   b500e:	4622      	mov	r2, r4
   b5010:	4628      	mov	r0, r5
   b5012:	f004 fa65 	bl	b94e0 <_ZN10CloudClass13publish_eventEPKcS1_jiiN8particle5FlagsI15PublishFlagTypehEE>
    return publish(name, data, PUBLIC);
}
   b5016:	4628      	mov	r0, r5
   b5018:	b006      	add	sp, #24
   b501a:	bd70      	pop	{r4, r5, r6, pc}
        return publish_event(eventName, eventData, eventData ? std::strlen(eventData) : 0, static_cast<int>(particle::ContentType::TEXT), ttl, flags1 | flags2);
   b501c:	4610      	mov	r0, r2
   b501e:	e7ef      	b.n	b5000 <_ZN10CloudClass7publishEPKcS1_.isra.0+0x18>
   b5020:	2003b938 	.word	0x2003b938

000b5024 <_ZN5spark16SerialLogHandlerD1Ev>:
            StreamLogHandler(Serial, level, filters) {
        Serial.begin(baud);
        LogManager::instance()->addHandler(this);
    }

    virtual ~SerialLogHandler() {
   b5024:	4b0a      	ldr	r3, [pc, #40]	; (b5050 <_ZN5spark16SerialLogHandlerD1Ev+0x2c>)
   b5026:	b510      	push	{r4, lr}
   b5028:	4604      	mov	r4, r0
   b502a:	6003      	str	r3, [r0, #0]
        LogManager::instance()->removeHandler(this);
   b502c:	f003 f8ac 	bl	b8188 <_ZN5spark10LogManager8instanceEv>
   b5030:	4621      	mov	r1, r4
   b5032:	f003 faf6 	bl	b8622 <_ZN5spark10LogManager13removeHandlerEPNS_10LogHandlerE>
        Serial.end();
   b5036:	f004 fc7f 	bl	b9938 <_Z16_fetch_usbserialv>
   b503a:	f004 fc6f 	bl	b991c <_ZN9USBSerial3endEv>
    virtual ~LogHandler() = default;
   b503e:	4620      	mov	r0, r4
   b5040:	4b04      	ldr	r3, [pc, #16]	; (b5054 <_ZN5spark16SerialLogHandlerD1Ev+0x30>)
   b5042:	f840 3b04 	str.w	r3, [r0], #4
   b5046:	f003 f975 	bl	b8334 <_ZN5spark6detail9LogFilterD1Ev>
    }
   b504a:	4620      	mov	r0, r4
   b504c:	bd10      	pop	{r4, pc}
   b504e:	bf00      	nop
   b5050:	000bcccc 	.word	0x000bcccc
   b5054:	000bccb4 	.word	0x000bccb4

000b5058 <_ZN5spark16SerialLogHandlerD0Ev>:
    virtual ~SerialLogHandler() {
   b5058:	b510      	push	{r4, lr}
   b505a:	4604      	mov	r4, r0
    }
   b505c:	f7ff ffe2 	bl	b5024 <_ZN5spark16SerialLogHandlerD1Ev>
   b5060:	4620      	mov	r0, r4
   b5062:	2124      	movs	r1, #36	; 0x24
   b5064:	f7ff fedf 	bl	b4e26 <_ZdlPvj>
   b5068:	4620      	mov	r0, r4
   b506a:	bd10      	pop	{r4, pc}

000b506c <_ZNSt14_Function_baseD1Ev>:
    ~_Function_base()
   b506c:	b510      	push	{r4, lr}
      if (_M_manager)
   b506e:	6883      	ldr	r3, [r0, #8]
    ~_Function_base()
   b5070:	4604      	mov	r4, r0
      if (_M_manager)
   b5072:	b113      	cbz	r3, b507a <_ZNSt14_Function_baseD1Ev+0xe>
	_M_manager(_M_functor, _M_functor, __destroy_functor);
   b5074:	2203      	movs	r2, #3
   b5076:	4601      	mov	r1, r0
   b5078:	4798      	blx	r3
    }
   b507a:	4620      	mov	r0, r4
   b507c:	bd10      	pop	{r4, pc}
	...

000b5080 <_ZN5TimerD1Ev>:
    virtual ~Timer() {
   b5080:	b538      	push	{r3, r4, r5, lr}
   b5082:	4b0f      	ldr	r3, [pc, #60]	; (b50c0 <_ZN5TimerD1Ev+0x40>)
   b5084:	6003      	str	r3, [r0, #0]
        if (handle) {
   b5086:	6883      	ldr	r3, [r0, #8]
    virtual ~Timer() {
   b5088:	4604      	mov	r4, r0
        if (handle) {
   b508a:	b19b      	cbz	r3, b50b4 <_ZN5TimerD1Ev+0x34>
            stop();
   b508c:	f06f 4100 	mvn.w	r1, #2147483648	; 0x80000000
   b5090:	f7ff ff8c 	bl	b4fac <_ZN5Timer4stopEj.isra.0>
            os_timer_set_id(handle, nullptr);
   b5094:	68a0      	ldr	r0, [r4, #8]
   b5096:	2100      	movs	r1, #0
   b5098:	f002 f96e 	bl	b7378 <os_timer_set_id>
            while (running) {
   b509c:	7923      	ldrb	r3, [r4, #4]
   b509e:	f003 05ff 	and.w	r5, r3, #255	; 0xff
   b50a2:	b113      	cbz	r3, b50aa <_ZN5TimerD1Ev+0x2a>
                os_thread_yield();
   b50a4:	f002 f918 	bl	b72d8 <os_thread_yield>
            while (running) {
   b50a8:	e7f8      	b.n	b509c <_ZN5TimerD1Ev+0x1c>
            os_timer_destroy(handle, nullptr);
   b50aa:	68a0      	ldr	r0, [r4, #8]
   b50ac:	4629      	mov	r1, r5
   b50ae:	f002 f92b 	bl	b7308 <os_timer_destroy>
            handle = nullptr;
   b50b2:	60a5      	str	r5, [r4, #8]
    class function<_Res(_ArgTypes...)>
   b50b4:	f104 000c 	add.w	r0, r4, #12
   b50b8:	f7ff ffd8 	bl	b506c <_ZNSt14_Function_baseD1Ev>
    }
   b50bc:	4620      	mov	r0, r4
   b50be:	bd38      	pop	{r3, r4, r5, pc}
   b50c0:	000bcca0 	.word	0x000bcca0

000b50c4 <_ZN5TimerD0Ev>:
    virtual ~Timer() {
   b50c4:	b510      	push	{r4, lr}
   b50c6:	4604      	mov	r4, r0
    }
   b50c8:	f7ff ffda 	bl	b5080 <_ZN5TimerD1Ev>
   b50cc:	4620      	mov	r0, r4
   b50ce:	211c      	movs	r1, #28
   b50d0:	f7ff fea9 	bl	b4e26 <_ZdlPvj>
   b50d4:	4620      	mov	r0, r4
   b50d6:	bd10      	pop	{r4, pc}

000b50d8 <_ZN5spark9WiFiClass2onEv>:
    WiFiClass() :
            NetworkClass(NETWORK_INTERFACE_WIFI_STA) {
    }

    void on(void) {
        network_on(*this, 0, 0, NULL);
   b50d8:	2300      	movs	r3, #0
   b50da:	6840      	ldr	r0, [r0, #4]
   b50dc:	461a      	mov	r2, r3
   b50de:	4619      	mov	r1, r3
   b50e0:	f002 bb10 	b.w	b7704 <network_on>

000b50e4 <_ZN5spark9WiFiClass7connectEj>:
    uint32_t ping(IPAddress remoteIP, uint8_t nTries) {
        return inet_ping(&remoteIP.raw(), *this, nTries, NULL);
    }

    void connect(unsigned flags=0) {
        network_connect(*this, flags, 0, NULL);
   b50e4:	2300      	movs	r3, #0
   b50e6:	6840      	ldr	r0, [r0, #4]
   b50e8:	461a      	mov	r2, r3
   b50ea:	f002 baeb 	b.w	b76c4 <network_connect>

000b50ee <_ZN5spark9WiFiClass5readyEv>:
    bool connecting(void) {
        return network_connecting(*this, 0, NULL);
    }

    bool ready(void) {
        return network_ready(*this, 0, NULL);
   b50ee:	2200      	movs	r2, #0
   b50f0:	6840      	ldr	r0, [r0, #4]
   b50f2:	4611      	mov	r1, r2
   b50f4:	f002 bafe 	b.w	b76f4 <network_ready>

000b50f8 <_ZN8particle24SystemSleepConfiguration4gpioEt13InterruptMode>:
            config_.flags |= f.value();
        }
        return *this;
    }

    SystemSleepConfiguration& gpio(hal_pin_t pin, InterruptMode mode) {
   b50f8:	b5f8      	push	{r3, r4, r5, r6, r7, lr}
        if (valid_) {
   b50fa:	7d03      	ldrb	r3, [r0, #20]
    SystemSleepConfiguration& gpio(hal_pin_t pin, InterruptMode mode) {
   b50fc:	4605      	mov	r5, r0
   b50fe:	460f      	mov	r7, r1
   b5100:	4616      	mov	r6, r2
        if (valid_) {
   b5102:	b18b      	cbz	r3, b5128 <_ZN8particle24SystemSleepConfiguration4gpioEt13InterruptMode+0x30>
        return wakeupSourceFeatured(type, config_->wakeup_sources);
   b5104:	6803      	ldr	r3, [r0, #0]
   b5106:	68db      	ldr	r3, [r3, #12]
        if (!start) {
   b5108:	b183      	cbz	r3, b512c <_ZN8particle24SystemSleepConfiguration4gpioEt13InterruptMode+0x34>
            if (start->type == type) {
   b510a:	889a      	ldrh	r2, [r3, #4]
   b510c:	2a01      	cmp	r2, #1
   b510e:	d006      	beq.n	b511e <_ZN8particle24SystemSleepConfiguration4gpioEt13InterruptMode+0x26>
            start = start->next;
   b5110:	689b      	ldr	r3, [r3, #8]
        while (start) {
   b5112:	e7f9      	b.n	b5108 <_ZN8particle24SystemSleepConfiguration4gpioEt13InterruptMode+0x10>
                auto gpioWakeup = reinterpret_cast<hal_wakeup_source_gpio_t*>(wakeup);
                if (gpioWakeup->pin == pin) {
                    gpioWakeup->mode = mode;
                    return *this;
                }
                wakeup = wakeupSourceFeatured(HAL_WAKEUP_SOURCE_TYPE_GPIO, wakeup->next);
   b5114:	689b      	ldr	r3, [r3, #8]
        if (!start) {
   b5116:	b14b      	cbz	r3, b512c <_ZN8particle24SystemSleepConfiguration4gpioEt13InterruptMode+0x34>
            if (start->type == type) {
   b5118:	889a      	ldrh	r2, [r3, #4]
   b511a:	2a01      	cmp	r2, #1
   b511c:	d1fa      	bne.n	b5114 <_ZN8particle24SystemSleepConfiguration4gpioEt13InterruptMode+0x1c>
            while (wakeup) {
   b511e:	b12b      	cbz	r3, b512c <_ZN8particle24SystemSleepConfiguration4gpioEt13InterruptMode+0x34>
                if (gpioWakeup->pin == pin) {
   b5120:	899a      	ldrh	r2, [r3, #12]
   b5122:	42ba      	cmp	r2, r7
   b5124:	d1f6      	bne.n	b5114 <_ZN8particle24SystemSleepConfiguration4gpioEt13InterruptMode+0x1c>
                    gpioWakeup->mode = mode;
   b5126:	739e      	strb	r6, [r3, #14]
            wakeupSource->pin = pin;
            wakeupSource->mode = mode;
            config_.wakeup_sources = reinterpret_cast<hal_wakeup_source_base_t*>(wakeupSource);
        }
        return *this;
    }
   b5128:	4628      	mov	r0, r5
   b512a:	bdf8      	pop	{r3, r4, r5, r6, r7, pc}
            auto wakeupSource = new(std::nothrow) hal_wakeup_source_gpio_t();
   b512c:	490a      	ldr	r1, [pc, #40]	; (b5158 <_ZN8particle24SystemSleepConfiguration4gpioEt13InterruptMode+0x60>)
   b512e:	2010      	movs	r0, #16
   b5130:	f005 f9dc 	bl	ba4ec <_ZnwjRKSt9nothrow_t>
   b5134:	4604      	mov	r4, r0
   b5136:	b168      	cbz	r0, b5154 <_ZN8particle24SystemSleepConfiguration4gpioEt13InterruptMode+0x5c>
   b5138:	2210      	movs	r2, #16
   b513a:	2100      	movs	r1, #0
   b513c:	f005 fa96 	bl	ba66c <memset>
            wakeupSource->base.size = sizeof(hal_wakeup_source_gpio_t);
   b5140:	4b06      	ldr	r3, [pc, #24]	; (b515c <_ZN8particle24SystemSleepConfiguration4gpioEt13InterruptMode+0x64>)
   b5142:	6023      	str	r3, [r4, #0]
            wakeupSource->base.type = HAL_WAKEUP_SOURCE_TYPE_GPIO;
   b5144:	2301      	movs	r3, #1
   b5146:	80a3      	strh	r3, [r4, #4]
            wakeupSource->base.next = config_.wakeup_sources;
   b5148:	692b      	ldr	r3, [r5, #16]
   b514a:	60a3      	str	r3, [r4, #8]
            wakeupSource->pin = pin;
   b514c:	81a7      	strh	r7, [r4, #12]
            wakeupSource->mode = mode;
   b514e:	73a6      	strb	r6, [r4, #14]
            config_.wakeup_sources = reinterpret_cast<hal_wakeup_source_base_t*>(wakeupSource);
   b5150:	612c      	str	r4, [r5, #16]
   b5152:	e7e9      	b.n	b5128 <_ZN8particle24SystemSleepConfiguration4gpioEt13InterruptMode+0x30>
                valid_ = false;
   b5154:	7528      	strb	r0, [r5, #20]
                return *this;
   b5156:	e7e7      	b.n	b5128 <_ZN8particle24SystemSleepConfiguration4gpioEt13InterruptMode+0x30>
   b5158:	000bd060 	.word	0x000bd060
   b515c:	00030010 	.word	0x00030010

000b5160 <_ZN11SystemClass6millisEv>:
        HAL_Core_Button_Mirror_Pin_Disable((uint8_t)bootloader, 0, nullptr);
    }

    // This function is similar to the global millis() but returns a 64-bit value
    static uint64_t millis() {
        return hal_timer_millis(nullptr);
   b5160:	2000      	movs	r0, #0
   b5162:	f002 b879 	b.w	b7258 <hal_timer_millis>

000b5166 <_ZNK5spark6Logger3logE8LogLevelPKcSt9__va_list>:
    va_start(args, fmt);
    log(level, fmt, args);
    va_end(args);
}

inline void spark::Logger::log(LogLevel level, const char *fmt, va_list args) const {
   b5166:	b510      	push	{r4, lr}
   b5168:	4604      	mov	r4, r0
   b516a:	b08a      	sub	sp, #40	; 0x28
   b516c:	4608      	mov	r0, r1
    LogAttributes attr;
    attr.size = sizeof(LogAttributes);
    attr.flags = 0;
   b516e:	f04f 0c20 	mov.w	ip, #32
   b5172:	2100      	movs	r1, #0
    log_message_v(level, name_, &attr, nullptr, fmt, args);
   b5174:	e9cd 2300 	strd	r2, r3, [sp]
    attr.flags = 0;
   b5178:	e9cd c102 	strd	ip, r1, [sp, #8]
    log_message_v(level, name_, &attr, nullptr, fmt, args);
   b517c:	460b      	mov	r3, r1
   b517e:	aa02      	add	r2, sp, #8
   b5180:	6821      	ldr	r1, [r4, #0]
   b5182:	f002 fa31 	bl	b75e8 <log_message_v>
}
   b5186:	b00a      	add	sp, #40	; 0x28
   b5188:	bd10      	pop	{r4, pc}

000b518a <_ZNK5spark6Logger4infoEPKcz>:
inline void spark::Logger::info(const char *fmt, ...) const {
   b518a:	b40e      	push	{r1, r2, r3}
   b518c:	b503      	push	{r0, r1, lr}
   b518e:	ab03      	add	r3, sp, #12
    log(LOG_LEVEL_INFO, fmt, args);
   b5190:	211e      	movs	r1, #30
inline void spark::Logger::info(const char *fmt, ...) const {
   b5192:	f853 2b04 	ldr.w	r2, [r3], #4
    va_start(args, fmt);
   b5196:	9301      	str	r3, [sp, #4]
    log(LOG_LEVEL_INFO, fmt, args);
   b5198:	f7ff ffe5 	bl	b5166 <_ZNK5spark6Logger3logE8LogLevelPKcSt9__va_list>
}
   b519c:	b002      	add	sp, #8
   b519e:	f85d eb04 	ldr.w	lr, [sp], #4
   b51a2:	b003      	add	sp, #12
   b51a4:	4770      	bx	lr

000b51a6 <_ZNK5spark6Logger4warnEPKcz>:
inline void spark::Logger::warn(const char *fmt, ...) const {
   b51a6:	b40e      	push	{r1, r2, r3}
   b51a8:	b503      	push	{r0, r1, lr}
   b51aa:	ab03      	add	r3, sp, #12
    log(LOG_LEVEL_WARN, fmt, args);
   b51ac:	2128      	movs	r1, #40	; 0x28
inline void spark::Logger::warn(const char *fmt, ...) const {
   b51ae:	f853 2b04 	ldr.w	r2, [r3], #4
    va_start(args, fmt);
   b51b2:	9301      	str	r3, [sp, #4]
    log(LOG_LEVEL_WARN, fmt, args);
   b51b4:	f7ff ffd7 	bl	b5166 <_ZNK5spark6Logger3logE8LogLevelPKcSt9__va_list>
}
   b51b8:	b002      	add	sp, #8
   b51ba:	f85d eb04 	ldr.w	lr, [sp], #4
   b51be:	b003      	add	sp, #12
   b51c0:	4770      	bx	lr

000b51c2 <_ZNK5spark6Logger5errorEPKcz>:
inline void spark::Logger::error(const char *fmt, ...) const {
   b51c2:	b40e      	push	{r1, r2, r3}
   b51c4:	b503      	push	{r0, r1, lr}
   b51c6:	ab03      	add	r3, sp, #12
    log(LOG_LEVEL_ERROR, fmt, args);
   b51c8:	2132      	movs	r1, #50	; 0x32
inline void spark::Logger::error(const char *fmt, ...) const {
   b51ca:	f853 2b04 	ldr.w	r2, [r3], #4
    va_start(args, fmt);
   b51ce:	9301      	str	r3, [sp, #4]
    log(LOG_LEVEL_ERROR, fmt, args);
   b51d0:	f7ff ffc9 	bl	b5166 <_ZNK5spark6Logger3logE8LogLevelPKcSt9__va_list>
}
   b51d4:	b002      	add	sp, #8
   b51d6:	f85d eb04 	ldr.w	lr, [sp], #4
   b51da:	b003      	add	sp, #12
   b51dc:	4770      	bx	lr

000b51de <_Z8saveBlobPKcPKvj>:
bool saveBlob(const char *path, const void *data, size_t len) {
   b51de:	b570      	push	{r4, r5, r6, lr}
   b51e0:	460e      	mov	r6, r1
   b51e2:	4614      	mov	r4, r2
  int fd = open(path, O_WRONLY | O_CREAT | O_TRUNC, 0666);
   b51e4:	f240 6101 	movw	r1, #1537	; 0x601
   b51e8:	f44f 72db 	mov.w	r2, #438	; 0x1b6
   b51ec:	f006 f99e 	bl	bb52c <open>
  if (fd < 0) return false;
   b51f0:	1e05      	subs	r5, r0, #0
   b51f2:	db0b      	blt.n	b520c <_Z8saveBlobPKcPKvj+0x2e>
  int w = write(fd, data, len);
   b51f4:	4631      	mov	r1, r6
   b51f6:	4622      	mov	r2, r4
   b51f8:	f006 f9b6 	bl	bb568 <write>
   b51fc:	4606      	mov	r6, r0
  close(fd);
   b51fe:	4628      	mov	r0, r5
   b5200:	f006 f98c 	bl	bb51c <close>
  return (w == (int)len);
   b5204:	1ba3      	subs	r3, r4, r6
   b5206:	4258      	negs	r0, r3
   b5208:	4158      	adcs	r0, r3
}
   b520a:	bd70      	pop	{r4, r5, r6, pc}
  if (fd < 0) return false;
   b520c:	2000      	movs	r0, #0
   b520e:	e7fc      	b.n	b520a <_Z8saveBlobPKcPKvj+0x2c>

000b5210 <_Z8loadBlobPKcPvj>:
bool loadBlob(const char *path, void *data, size_t len) {
   b5210:	b570      	push	{r4, r5, r6, lr}
   b5212:	460e      	mov	r6, r1
  int fd = open(path, O_RDONLY);
   b5214:	2100      	movs	r1, #0
bool loadBlob(const char *path, void *data, size_t len) {
   b5216:	4614      	mov	r4, r2
  int fd = open(path, O_RDONLY);
   b5218:	f006 f988 	bl	bb52c <open>
  if (fd < 0) return false;
   b521c:	1e05      	subs	r5, r0, #0
   b521e:	db0b      	blt.n	b5238 <_Z8loadBlobPKcPvj+0x28>
  int r = read(fd, data, len);
   b5220:	4631      	mov	r1, r6
   b5222:	4622      	mov	r2, r4
   b5224:	f006 f996 	bl	bb554 <read>
   b5228:	4606      	mov	r6, r0
  close(fd);
   b522a:	4628      	mov	r0, r5
   b522c:	f006 f976 	bl	bb51c <close>
  return (r == (int)len);
   b5230:	1ba3      	subs	r3, r4, r6
   b5232:	4258      	negs	r0, r3
   b5234:	4158      	adcs	r0, r3
}
   b5236:	bd70      	pop	{r4, r5, r6, pc}
  if (fd < 0) return false;
   b5238:	2000      	movs	r0, #0
   b523a:	e7fc      	b.n	b5236 <_Z8loadBlobPKcPvj+0x26>

000b523c <_Z10persistAllv>:
void persistAll() {
   b523c:	b510      	push	{r4, lr}
  saveBlob(GMETER_PATH, &gMeter, sizeof(gMeter));
   b523e:	4911      	ldr	r1, [pc, #68]	; (b5284 <_Z10persistAllv+0x48>)
   b5240:	4811      	ldr	r0, [pc, #68]	; (b5288 <_Z10persistAllv+0x4c>)
   b5242:	f640 3248 	movw	r2, #2888	; 0xb48
   b5246:	f7ff ffca 	bl	b51de <_Z8saveBlobPKcPKvj>
  int fd = open(MODEL_PATH, O_WRONLY | O_CREAT | O_TRUNC, 0666);
   b524a:	4810      	ldr	r0, [pc, #64]	; (b528c <_Z10persistAllv+0x50>)
   b524c:	f44f 72db 	mov.w	r2, #438	; 0x1b6
   b5250:	f240 6101 	movw	r1, #1537	; 0x601
   b5254:	f006 f96a 	bl	bb52c <open>
  if (fd >= 0) {
   b5258:	1e04      	subs	r4, r0, #0
   b525a:	db0c      	blt.n	b5276 <_Z10persistAllv+0x3a>
    write(fd, &MODEL_FILE_MAGIC, sizeof(MODEL_FILE_MAGIC));
   b525c:	490c      	ldr	r1, [pc, #48]	; (b5290 <_Z10persistAllv+0x54>)
   b525e:	2204      	movs	r2, #4
   b5260:	f006 f982 	bl	bb568 <write>
    write(fd, &model, sizeof(model));
   b5264:	490b      	ldr	r1, [pc, #44]	; (b5294 <_Z10persistAllv+0x58>)
   b5266:	f244 62e0 	movw	r2, #18144	; 0x46e0
   b526a:	4620      	mov	r0, r4
   b526c:	f006 f97c 	bl	bb568 <write>
    close(fd);
   b5270:	4620      	mov	r0, r4
   b5272:	f006 f953 	bl	bb51c <close>
  Log.info("PERSIST: gMeter(%u) + model saved", (unsigned)gMeter.count);
   b5276:	4b03      	ldr	r3, [pc, #12]	; (b5284 <_Z10persistAllv+0x48>)
   b5278:	4907      	ldr	r1, [pc, #28]	; (b5298 <_Z10persistAllv+0x5c>)
   b527a:	88da      	ldrh	r2, [r3, #6]
   b527c:	4807      	ldr	r0, [pc, #28]	; (b529c <_Z10persistAllv+0x60>)
   b527e:	f7ff ff84 	bl	b518a <_ZNK5spark6Logger4infoEPKcz>
}
   b5282:	bd10      	pop	{r4, pc}
   b5284:	2003b939 	.word	0x2003b939
   b5288:	000bc805 	.word	0x000bc805
   b528c:	000bc815 	.word	0x000bc815
   b5290:	000bccec 	.word	0x000bccec
   b5294:	20037258 	.word	0x20037258
   b5298:	000bc828 	.word	0x000bc828
   b529c:	2003e658 	.word	0x2003e658

000b52a0 <_Z16restorePersistedv>:
void restorePersisted() {
   b52a0:	b537      	push	{r0, r1, r2, r4, r5, lr}
  uint32_t now = Time.now();
   b52a2:	f003 fe48 	bl	b8f36 <_ZN9TimeClass3nowEv>
  bool gOk = loadBlob(GMETER_PATH, &gMeter, sizeof(gMeter)) &&
   b52a6:	4c2a      	ldr	r4, [pc, #168]	; (b5350 <_Z16restorePersistedv+0xb0>)
  uint32_t now = Time.now();
   b52a8:	4605      	mov	r5, r0
  bool gOk = loadBlob(GMETER_PATH, &gMeter, sizeof(gMeter)) &&
   b52aa:	f640 3248 	movw	r2, #2888	; 0xb48
   b52ae:	4829      	ldr	r0, [pc, #164]	; (b5354 <_Z16restorePersistedv+0xb4>)
   b52b0:	4621      	mov	r1, r4
   b52b2:	f7ff ffad 	bl	b5210 <_Z8loadBlobPKcPvj>
             gMeter.day0_utc_midnight != 0 &&
   b52b6:	b1e8      	cbz	r0, b52f4 <_Z16restorePersistedv+0x54>
             gMeter.count <= MAX_SAMPLES &&
   b52b8:	88e2      	ldrh	r2, [r4, #6]
  bool gOk = loadBlob(GMETER_PATH, &gMeter, sizeof(gMeter)) &&
   b52ba:	f5b2 6fb4 	cmp.w	r2, #1440	; 0x5a0
   b52be:	d819      	bhi.n	b52f4 <_Z16restorePersistedv+0x54>
             gMeter.day0_utc_midnight != 0 &&
   b52c0:	6823      	ldr	r3, [r4, #0]
             gMeter.count <= MAX_SAMPLES &&
   b52c2:	b1bb      	cbz	r3, b52f4 <_Z16restorePersistedv+0x54>
             gMeter.day0_utc_midnight != 0 &&
   b52c4:	42ab      	cmp	r3, r5
   b52c6:	d815      	bhi.n	b52f4 <_Z16restorePersistedv+0x54>
    Log.info("PERSIST: gMeter restored (%u samples)", (unsigned)gMeter.count);
   b52c8:	4923      	ldr	r1, [pc, #140]	; (b5358 <_Z16restorePersistedv+0xb8>)
   b52ca:	4824      	ldr	r0, [pc, #144]	; (b535c <_Z16restorePersistedv+0xbc>)
   b52cc:	f7ff ff5d 	bl	b518a <_ZNK5spark6Logger4infoEPKcz>
  int fd = open(MODEL_PATH, O_RDONLY);
   b52d0:	4823      	ldr	r0, [pc, #140]	; (b5360 <_Z16restorePersistedv+0xc0>)
   b52d2:	2100      	movs	r1, #0
   b52d4:	f006 f92a 	bl	bb52c <open>
  if (fd >= 0) {
   b52d8:	1e05      	subs	r5, r0, #0
   b52da:	da1a      	bge.n	b5312 <_Z16restorePersistedv+0x72>
    memset(&model, 0, sizeof(model));
   b52dc:	2100      	movs	r1, #0
   b52de:	4821      	ldr	r0, [pc, #132]	; (b5364 <_Z16restorePersistedv+0xc4>)
   b52e0:	f244 62e0 	movw	r2, #18144	; 0x46e0
   b52e4:	f005 f9c2 	bl	ba66c <memset>
    Log.info("PERSIST: leak model fresh (1-week learning restarts)");
   b52e8:	491f      	ldr	r1, [pc, #124]	; (b5368 <_Z16restorePersistedv+0xc8>)
    Log.info("PERSIST: leak model restored");
   b52ea:	481c      	ldr	r0, [pc, #112]	; (b535c <_Z16restorePersistedv+0xbc>)
   b52ec:	f7ff ff4d 	bl	b518a <_ZNK5spark6Logger4infoEPKcz>
}
   b52f0:	b003      	add	sp, #12
   b52f2:	bd30      	pop	{r4, r5, pc}
    gMeter.day0_utc_midnight = (now / 86400UL) * 86400UL;
   b52f4:	481d      	ldr	r0, [pc, #116]	; (b536c <_Z16restorePersistedv+0xcc>)
    Log.info("PERSIST: gMeter fresh");
   b52f6:	491e      	ldr	r1, [pc, #120]	; (b5370 <_Z16restorePersistedv+0xd0>)
    gMeter.day0_utc_midnight = (now / 86400UL) * 86400UL;
   b52f8:	fbb5 f5f0 	udiv	r5, r5, r0
    gMeter.start_slot = 0;
   b52fc:	2300      	movs	r3, #0
    gMeter.day0_utc_midnight = (now / 86400UL) * 86400UL;
   b52fe:	4345      	muls	r5, r0
    Log.info("PERSIST: gMeter fresh");
   b5300:	4816      	ldr	r0, [pc, #88]	; (b535c <_Z16restorePersistedv+0xbc>)
    gMeter.day0_utc_midnight = (now / 86400UL) * 86400UL;
   b5302:	6025      	str	r5, [r4, #0]
    gMeter.start_slot = 0;
   b5304:	7123      	strb	r3, [r4, #4]
   b5306:	7163      	strb	r3, [r4, #5]
    gMeter.count = 0;
   b5308:	71a3      	strb	r3, [r4, #6]
   b530a:	71e3      	strb	r3, [r4, #7]
    Log.info("PERSIST: gMeter fresh");
   b530c:	f7ff ff3d 	bl	b518a <_ZNK5spark6Logger4infoEPKcz>
   b5310:	e7de      	b.n	b52d0 <_Z16restorePersistedv+0x30>
    if (read(fd, &magic, sizeof(magic)) == (int)sizeof(magic) &&
   b5312:	2204      	movs	r2, #4
    uint32_t magic = 0;
   b5314:	2400      	movs	r4, #0
    if (read(fd, &magic, sizeof(magic)) == (int)sizeof(magic) &&
   b5316:	eb0d 0102 	add.w	r1, sp, r2
    uint32_t magic = 0;
   b531a:	9401      	str	r4, [sp, #4]
    if (read(fd, &magic, sizeof(magic)) == (int)sizeof(magic) &&
   b531c:	f006 f91a 	bl	bb554 <read>
        magic == MODEL_FILE_MAGIC &&
   b5320:	2804      	cmp	r0, #4
   b5322:	d10e      	bne.n	b5342 <_Z16restorePersistedv+0xa2>
    if (read(fd, &magic, sizeof(magic)) == (int)sizeof(magic) &&
   b5324:	4b13      	ldr	r3, [pc, #76]	; (b5374 <_Z16restorePersistedv+0xd4>)
   b5326:	9a01      	ldr	r2, [sp, #4]
   b5328:	429a      	cmp	r2, r3
   b532a:	d10a      	bne.n	b5342 <_Z16restorePersistedv+0xa2>
        read(fd, &model, sizeof(model)) == (int)sizeof(model)) {
   b532c:	490d      	ldr	r1, [pc, #52]	; (b5364 <_Z16restorePersistedv+0xc4>)
   b532e:	f244 62e0 	movw	r2, #18144	; 0x46e0
   b5332:	4628      	mov	r0, r5
   b5334:	f006 f90e 	bl	bb554 <read>
        magic == MODEL_FILE_MAGIC &&
   b5338:	f244 64e0 	movw	r4, #18144	; 0x46e0
   b533c:	1b03      	subs	r3, r0, r4
   b533e:	425c      	negs	r4, r3
   b5340:	415c      	adcs	r4, r3
    close(fd);
   b5342:	4628      	mov	r0, r5
   b5344:	f006 f8ea 	bl	bb51c <close>
  if (!mOk) {
   b5348:	2c00      	cmp	r4, #0
   b534a:	d0c7      	beq.n	b52dc <_Z16restorePersistedv+0x3c>
    Log.info("PERSIST: leak model restored");
   b534c:	490a      	ldr	r1, [pc, #40]	; (b5378 <_Z16restorePersistedv+0xd8>)
   b534e:	e7cc      	b.n	b52ea <_Z16restorePersistedv+0x4a>
   b5350:	2003b939 	.word	0x2003b939
   b5354:	000bc805 	.word	0x000bc805
   b5358:	000bc84a 	.word	0x000bc84a
   b535c:	2003e658 	.word	0x2003e658
   b5360:	000bc815 	.word	0x000bc815
   b5364:	20037258 	.word	0x20037258
   b5368:	000bc886 	.word	0x000bc886
   b536c:	00015180 	.word	0x00015180
   b5370:	000bc870 	.word	0x000bc870
   b5374:	4c4d444c 	.word	0x4c4d444c
   b5378:	000bc8bb 	.word	0x000bc8bb

000b537c <_Z11saveFlowCalv>:
void saveFlowCal() {
   b537c:	b507      	push	{r0, r1, r2, lr}
  FlowCalStore s = {FLOW_CAL_MAGIC, flowCalScale};
   b537e:	4b07      	ldr	r3, [pc, #28]	; (b539c <_Z11saveFlowCalv+0x20>)
   b5380:	9300      	str	r3, [sp, #0]
   b5382:	4b07      	ldr	r3, [pc, #28]	; (b53a0 <_Z11saveFlowCalv+0x24>)
   b5384:	681b      	ldr	r3, [r3, #0]
   b5386:	9301      	str	r3, [sp, #4]
  EEPROM.put(FLOW_CAL_EEPROM_ADDR, s);
   b5388:	f005 f85a 	bl	ba440 <_Z21__fetch_global_EEPROMv>
        return t;
    }

    template <typename T> const T &put( int idx, const T &t )
    {
        HAL_EEPROM_Put(idx, &t, sizeof(T));
   b538c:	2208      	movs	r2, #8
   b538e:	4669      	mov	r1, sp
   b5390:	2000      	movs	r0, #0
   b5392:	f001 ff51 	bl	b7238 <HAL_EEPROM_Put>
}
   b5396:	b003      	add	sp, #12
   b5398:	f85d fb04 	ldr.w	pc, [sp], #4
   b539c:	4643414c 	.word	0x4643414c
   b53a0:	2003f400 	.word	0x2003f400

000b53a4 <_Z11loadFlowCalv>:
void loadFlowCal() {
   b53a4:	b513      	push	{r0, r1, r4, lr}
  FlowCalStore s = {0, 0};
   b53a6:	2300      	movs	r3, #0
   b53a8:	2400      	movs	r4, #0
   b53aa:	9301      	str	r3, [sp, #4]
   b53ac:	9400      	str	r4, [sp, #0]
  EEPROM.get(FLOW_CAL_EEPROM_ADDR, s);
   b53ae:	f005 f847 	bl	ba440 <_Z21__fetch_global_EEPROMv>
        HAL_EEPROM_Get(idx, &t, sizeof(T));
   b53b2:	2208      	movs	r2, #8
   b53b4:	4620      	mov	r0, r4
   b53b6:	4669      	mov	r1, sp
   b53b8:	f001 ff36 	bl	b7228 <HAL_EEPROM_Get>
  if (s.magic == FLOW_CAL_MAGIC && s.scale == s.scale &&
   b53bc:	4b15      	ldr	r3, [pc, #84]	; (b5414 <_Z11loadFlowCalv+0x70>)
   b53be:	9a00      	ldr	r2, [sp, #0]
   b53c0:	4c15      	ldr	r4, [pc, #84]	; (b5418 <_Z11loadFlowCalv+0x74>)
   b53c2:	429a      	cmp	r2, r3
   b53c4:	d121      	bne.n	b540a <_Z11loadFlowCalv+0x66>
   b53c6:	eddd 7a01 	vldr	s15, [sp, #4]
   b53ca:	eef4 7a67 	vcmp.f32	s15, s15
   b53ce:	eef1 fa10 	vmrs	APSR_nzcv, fpscr
   b53d2:	d11a      	bne.n	b540a <_Z11loadFlowCalv+0x66>
   b53d4:	eeb6 7a00 	vmov.f32	s14, #96	; 0x3f000000  0.5
   b53d8:	eef4 7ac7 	vcmpe.f32	s15, s14
   b53dc:	eef1 fa10 	vmrs	APSR_nzcv, fpscr
   b53e0:	db13      	blt.n	b540a <_Z11loadFlowCalv+0x66>
      s.scale >= FLOW_CAL_MIN && s.scale <= FLOW_CAL_MAX) {
   b53e2:	eeb0 7a00 	vmov.f32	s14, #0	; 0x40000000  2.0
   b53e6:	eef4 7ac7 	vcmpe.f32	s15, s14
   b53ea:	eef1 fa10 	vmrs	APSR_nzcv, fpscr
   b53ee:	d80c      	bhi.n	b540a <_Z11loadFlowCalv+0x66>
    flowCalScale = s.scale;
   b53f0:	edc4 7a00 	vstr	s15, [r4]
  Log.info("FLOW_CAL: %.4f", flowCalScale);
   b53f4:	6820      	ldr	r0, [r4, #0]
   b53f6:	f7fe ff77 	bl	b42e8 <__aeabi_f2d>
   b53fa:	4602      	mov	r2, r0
   b53fc:	460b      	mov	r3, r1
   b53fe:	4807      	ldr	r0, [pc, #28]	; (b541c <_Z11loadFlowCalv+0x78>)
   b5400:	4907      	ldr	r1, [pc, #28]	; (b5420 <_Z11loadFlowCalv+0x7c>)
   b5402:	f7ff fec2 	bl	b518a <_ZNK5spark6Logger4infoEPKcz>
}
   b5406:	b002      	add	sp, #8
   b5408:	bd10      	pop	{r4, pc}
    flowCalScale = FLOW_CAL_DFLT;
   b540a:	4b06      	ldr	r3, [pc, #24]	; (b5424 <_Z11loadFlowCalv+0x80>)
   b540c:	6023      	str	r3, [r4, #0]
    saveFlowCal();
   b540e:	f7ff ffb5 	bl	b537c <_Z11saveFlowCalv>
   b5412:	e7ef      	b.n	b53f4 <_Z11loadFlowCalv+0x50>
   b5414:	4643414c 	.word	0x4643414c
   b5418:	2003f400 	.word	0x2003f400
   b541c:	2003e658 	.word	0x2003e658
   b5420:	000bc8d8 	.word	0x000bc8d8
   b5424:	3fa0a3d7 	.word	0x3fa0a3d7

000b5428 <_Z10saveConfigv>:
void saveConfig() {
   b5428:	b51f      	push	{r0, r1, r2, r3, r4, lr}
  CfgStore s = {CFG_MAGIC, appConfig};
   b542a:	4b09      	ldr	r3, [pc, #36]	; (b5450 <_Z10saveConfigv+0x28>)
   b542c:	9300      	str	r3, [sp, #0]
   b542e:	4b09      	ldr	r3, [pc, #36]	; (b5454 <_Z10saveConfigv+0x2c>)
   b5430:	e893 0007 	ldmia.w	r3, {r0, r1, r2}
   b5434:	ab04      	add	r3, sp, #16
   b5436:	e903 0007 	stmdb	r3, {r0, r1, r2}
  EEPROM.put(CFG_EEPROM_ADDR, s);
   b543a:	f005 f801 	bl	ba440 <_Z21__fetch_global_EEPROMv>
        HAL_EEPROM_Put(idx, &t, sizeof(T));
   b543e:	2210      	movs	r2, #16
   b5440:	4669      	mov	r1, sp
   b5442:	2020      	movs	r0, #32
   b5444:	f001 fef8 	bl	b7238 <HAL_EEPROM_Put>
}
   b5448:	b005      	add	sp, #20
   b544a:	f85d fb04 	ldr.w	pc, [sp], #4
   b544e:	bf00      	nop
   b5450:	4c434647 	.word	0x4c434647
   b5454:	2003f404 	.word	0x2003f404

000b5458 <_Z10loadConfigv>:
void loadConfig() {
   b5458:	b510      	push	{r4, lr}
   b545a:	b08a      	sub	sp, #40	; 0x28
  EEPROM.get(CFG_EEPROM_ADDR, s);
   b545c:	f004 fff0 	bl	ba440 <_Z21__fetch_global_EEPROMv>
        HAL_EEPROM_Get(idx, &t, sizeof(T));
   b5460:	2210      	movs	r2, #16
   b5462:	a906      	add	r1, sp, #24
   b5464:	2020      	movs	r0, #32
   b5466:	f001 fedf 	bl	b7228 <HAL_EEPROM_Get>
  if (s.magic == CFG_MAGIC) {
   b546a:	4b15      	ldr	r3, [pc, #84]	; (b54c0 <_Z10loadConfigv+0x68>)
   b546c:	9a06      	ldr	r2, [sp, #24]
   b546e:	429a      	cmp	r2, r3
   b5470:	4b14      	ldr	r3, [pc, #80]	; (b54c4 <_Z10loadConfigv+0x6c>)
   b5472:	d11d      	bne.n	b54b0 <_Z10loadConfigv+0x58>
    appConfig = s.cfg;
   b5474:	aa0a      	add	r2, sp, #40	; 0x28
   b5476:	e912 0007 	ldmdb	r2, {r0, r1, r2}
   b547a:	e883 0007 	stmia.w	r3, {r0, r1, r2}
           appConfig.leakThreshGpm, appConfig.shutoffVolGal,
   b547e:	4c12      	ldr	r4, [pc, #72]	; (b54c8 <_Z10loadConfigv+0x70>)
  Log.info("CFG: leak=%.2f shutoffVol=%.1f auto=%u alert=%u",
   b5480:	6860      	ldr	r0, [r4, #4]
   b5482:	f7fe ff31 	bl	b42e8 <__aeabi_f2d>
   b5486:	460b      	mov	r3, r1
   b5488:	7b61      	ldrb	r1, [r4, #13]
   b548a:	9103      	str	r1, [sp, #12]
   b548c:	4602      	mov	r2, r0
   b548e:	7b21      	ldrb	r1, [r4, #12]
   b5490:	68a0      	ldr	r0, [r4, #8]
   b5492:	9102      	str	r1, [sp, #8]
   b5494:	e9cd 2304 	strd	r2, r3, [sp, #16]
   b5498:	f7fe ff26 	bl	b42e8 <__aeabi_f2d>
   b549c:	e9dd 2304 	ldrd	r2, r3, [sp, #16]
   b54a0:	e9cd 0100 	strd	r0, r1, [sp]
   b54a4:	4909      	ldr	r1, [pc, #36]	; (b54cc <_Z10loadConfigv+0x74>)
   b54a6:	480a      	ldr	r0, [pc, #40]	; (b54d0 <_Z10loadConfigv+0x78>)
   b54a8:	f7ff fe6f 	bl	b518a <_ZNK5spark6Logger4infoEPKcz>
}
   b54ac:	b00a      	add	sp, #40	; 0x28
   b54ae:	bd10      	pop	{r4, pc}
    appConfig = {CFG_LEAK_GPM_DFLT, CFG_SHUTOFF_DFLT,
   b54b0:	4a08      	ldr	r2, [pc, #32]	; (b54d4 <_Z10loadConfigv+0x7c>)
   b54b2:	ca07      	ldmia	r2, {r0, r1, r2}
   b54b4:	e883 0007 	stmia.w	r3, {r0, r1, r2}
    saveConfig();
   b54b8:	f7ff ffb6 	bl	b5428 <_Z10saveConfigv>
   b54bc:	e7df      	b.n	b547e <_Z10loadConfigv+0x26>
   b54be:	bf00      	nop
   b54c0:	4c434647 	.word	0x4c434647
   b54c4:	2003f404 	.word	0x2003f404
   b54c8:	2003f400 	.word	0x2003f400
   b54cc:	000bc8e7 	.word	0x000bc8e7
   b54d0:	2003e658 	.word	0x2003e658
   b54d4:	000bc7bc 	.word	0x000bc7bc

000b54d8 <_Z9senseLeakmf>:
bool senseLeak(uint32_t tsUtc, float gpm) {
   b54d8:	b538      	push	{r3, r4, r5, lr}
  uint32_t days = tsUtc / 86400UL;
   b54da:	4948      	ldr	r1, [pc, #288]	; (b55fc <_Z9senseLeakmf+0x124>)
   b54dc:	fbb0 f2f1 	udiv	r2, r0, r1
  int dow = (int)((days + 4UL) % 7UL);                                  // Sun=0
   b54e0:	2307      	movs	r3, #7
   b54e2:	1d14      	adds	r4, r2, #4
   b54e4:	fbb4 f3f3 	udiv	r3, r4, r3
   b54e8:	ebc3 03c3 	rsb	r3, r3, r3, lsl #3
   b54ec:	1ae3      	subs	r3, r4, r3
  int slotInDay = (int)((tsUtc % 86400UL) / LEAK_MODEL_INTERVAL_SEC);   // 0..287
   b54ee:	fb01 0012 	mls	r0, r1, r2, r0
   b54f2:	f44f 7496 	mov.w	r4, #300	; 0x12c
   b54f6:	fbb0 f0f4 	udiv	r0, r0, r4
  return dow * SlotModel::SLOTS_PER_DAY + slotInDay;                    // 0..2015
   b54fa:	f44f 7490 	mov.w	r4, #288	; 0x120
   b54fe:	fb04 0403 	mla	r4, r4, r3, r0
  if (!model.init[s]) { updateBaseline(s, gpm); return false; }
   b5502:	4b3f      	ldr	r3, [pc, #252]	; (b5600 <_Z9senseLeakmf+0x128>)
bool senseLeak(uint32_t tsUtc, float gpm) {
   b5504:	ed2d 8b02 	vpush	{d8}
  if (!model.init[s]) { updateBaseline(s, gpm); return false; }
   b5508:	191a      	adds	r2, r3, r4
   b550a:	f502 527c 	add.w	r2, r2, #16128	; 0x3f00
bool senseLeak(uint32_t tsUtc, float gpm) {
   b550e:	eeb0 8a40 	vmov.f32	s16, s0
  if (!model.init[s]) { updateBaseline(s, gpm); return false; }
   b5512:	7815      	ldrb	r5, [r2, #0]
   b5514:	b935      	cbnz	r5, b5524 <_Z9senseLeakmf+0x4c>
  if (!leakNow) updateBaseline(s, gpm);   // only learn when not leaking
   b5516:	4620      	mov	r0, r4
   b5518:	f7ff fcf8 	bl	b4f0c <_ZL14updateBaselineif>
  bool leakNow = (leakRunLen >= N_CONSEC) || volTrip;
   b551c:	2000      	movs	r0, #0
}
   b551e:	ecbd 8b02 	vpop	{d8}
   b5522:	bd38      	pop	{r3, r4, r5, pc}
  float mu = model.mu[s];
   b5524:	eb03 0284 	add.w	r2, r3, r4, lsl #2
   b5528:	edd2 8a00 	vldr	s17, [r2]
  if (v < EPS * EPS) v = EPS * EPS;
   b552c:	eddf 7a35 	vldr	s15, [pc, #212]	; b5604 <_Z9senseLeakmf+0x12c>
  float v = model.var[s];
   b5530:	f504 62fc 	add.w	r2, r4, #2016	; 0x7e0
   b5534:	eb03 0382 	add.w	r3, r3, r2, lsl #2
   b5538:	ed93 0a00 	vldr	s0, [r3]
  if (v < EPS * EPS) v = EPS * EPS;
   b553c:	eeb4 0a67 	vcmp.f32	s0, s15
   b5540:	eef1 fa10 	vmrs	APSR_nzcv, fpscr
  return sqrtf(v);
   b5544:	bf48      	it	mi
   b5546:	eeb0 0a67 	vmovmi.f32	s0, s15
   b554a:	f005 f81d 	bl	ba588 <sqrtf>
  float thresh = mu + SIGMA_MULT * sig;
   b554e:	eeb1 7a00 	vmov.f32	s14, #16	; 0x40800000  4.0
   b5552:	eef0 7a68 	vmov.f32	s15, s17
   b5556:	eee0 7a07 	vfma.f32	s15, s0, s14
  if (thresh < ABS_GPM_MIN) thresh = ABS_GPM_MIN;
   b555a:	4b2b      	ldr	r3, [pc, #172]	; (b5608 <_Z9senseLeakmf+0x130>)
   b555c:	eeb6 7a00 	vmov.f32	s14, #96	; 0x3f000000  0.5
   b5560:	eef4 7a47 	vcmp.f32	s15, s14
   b5564:	eef1 fa10 	vmrs	APSR_nzcv, fpscr
   b5568:	bf48      	it	mi
   b556a:	eef0 7a47 	vmovmi.f32	s15, s14
  bool highNow = (gpm > thresh) || (gpm > appConfig.leakThreshGpm); // cloud var (1)
   b556e:	eef4 7ac8 	vcmpe.f32	s15, s16
   b5572:	eef1 fa10 	vmrs	APSR_nzcv, fpscr
   b5576:	d407      	bmi.n	b5588 <_Z9senseLeakmf+0xb0>
   b5578:	4a24      	ldr	r2, [pc, #144]	; (b560c <_Z9senseLeakmf+0x134>)
   b557a:	edd2 7a01 	vldr	s15, [r2, #4]
   b557e:	eef4 7ac8 	vcmpe.f32	s15, s16
   b5582:	eef1 fa10 	vmrs	APSR_nzcv, fpscr
   b5586:	d525      	bpl.n	b55d4 <_Z9senseLeakmf+0xfc>
  leakRunLen = highNow ? (leakRunLen + 1) : 0;
   b5588:	681a      	ldr	r2, [r3, #0]
   b558a:	3201      	adds	r2, #1
  volWin[volIdx] = gpm;
   b558c:	4820      	ldr	r0, [pc, #128]	; (b5610 <_Z9senseLeakmf+0x138>)
   b558e:	4921      	ldr	r1, [pc, #132]	; (b5614 <_Z9senseLeakmf+0x13c>)
  leakRunLen = highNow ? (leakRunLen + 1) : 0;
   b5590:	601a      	str	r2, [r3, #0]
  volWin[volIdx] = gpm;
   b5592:	6803      	ldr	r3, [r0, #0]
  for (int i = 0; i < volCount; i++) gal30 += gallonsIn5min(volWin[i]);
   b5594:	eddf 7a20 	vldr	s15, [pc, #128]	; b5618 <_Z9senseLeakmf+0x140>
  volWin[volIdx] = gpm;
   b5598:	eb01 0183 	add.w	r1, r1, r3, lsl #2
   b559c:	ed81 8a00 	vstr	s16, [r1]
  volIdx = (volIdx + 1) % VOL_WIN;
   b55a0:	3301      	adds	r3, #1
   b55a2:	2106      	movs	r1, #6
   b55a4:	fb93 f5f1 	sdiv	r5, r3, r1
   b55a8:	fb01 3315 	mls	r3, r1, r5, r3
  if (volCount < VOL_WIN) volCount++;
   b55ac:	491b      	ldr	r1, [pc, #108]	; (b561c <_Z9senseLeakmf+0x144>)
  volIdx = (volIdx + 1) % VOL_WIN;
   b55ae:	6003      	str	r3, [r0, #0]
  if (volCount < VOL_WIN) volCount++;
   b55b0:	680b      	ldr	r3, [r1, #0]
   b55b2:	4818      	ldr	r0, [pc, #96]	; (b5614 <_Z9senseLeakmf+0x13c>)
   b55b4:	2b05      	cmp	r3, #5
   b55b6:	bfdc      	itt	le
   b55b8:	3301      	addle	r3, #1
   b55ba:	600b      	strle	r3, [r1, #0]
  for (int i = 0; i < volCount; i++) gal30 += gallonsIn5min(volWin[i]);
   b55bc:	6809      	ldr	r1, [r1, #0]
   b55be:	2300      	movs	r3, #0
   b55c0:	eeb1 7a04 	vmov.f32	s14, #20	; 0x40a00000  5.0
   b55c4:	4299      	cmp	r1, r3
   b55c6:	dd07      	ble.n	b55d8 <_Z9senseLeakmf+0x100>
   b55c8:	ecf0 6a01 	vldmia	r0!, {s13}
   b55cc:	3301      	adds	r3, #1
   b55ce:	eee6 7a87 	vfma.f32	s15, s13, s14
   b55d2:	e7f7      	b.n	b55c4 <_Z9senseLeakmf+0xec>
  leakRunLen = highNow ? (leakRunLen + 1) : 0;
   b55d4:	2200      	movs	r2, #0
   b55d6:	e7d9      	b.n	b558c <_Z9senseLeakmf+0xb4>
  bool volTrip = (volCount == VOL_WIN) && (gal30 > appConfig.shutoffVolGal);
   b55d8:	2906      	cmp	r1, #6
   b55da:	d107      	bne.n	b55ec <_Z9senseLeakmf+0x114>
   b55dc:	4b0b      	ldr	r3, [pc, #44]	; (b560c <_Z9senseLeakmf+0x134>)
   b55de:	ed93 7a02 	vldr	s14, [r3, #8]
   b55e2:	eeb4 7ae7 	vcmpe.f32	s14, s15
   b55e6:	eef1 fa10 	vmrs	APSR_nzcv, fpscr
   b55ea:	d404      	bmi.n	b55f6 <_Z9senseLeakmf+0x11e>
  bool leakNow = (leakRunLen >= N_CONSEC) || volTrip;
   b55ec:	2a02      	cmp	r2, #2
   b55ee:	dc02      	bgt.n	b55f6 <_Z9senseLeakmf+0x11e>
  if (!leakNow) updateBaseline(s, gpm);   // only learn when not leaking
   b55f0:	eeb0 0a48 	vmov.f32	s0, s16
   b55f4:	e78f      	b.n	b5516 <_Z9senseLeakmf+0x3e>
  bool leakNow = (leakRunLen >= N_CONSEC) || volTrip;
   b55f6:	2001      	movs	r0, #1
   b55f8:	e791      	b.n	b551e <_Z9senseLeakmf+0x46>
   b55fa:	bf00      	nop
   b55fc:	00015180 	.word	0x00015180
   b5600:	20037258 	.word	0x20037258
   b5604:	39d1b717 	.word	0x39d1b717
   b5608:	20037254 	.word	0x20037254
   b560c:	2003f400 	.word	0x2003f400
   b5610:	2003d484 	.word	0x2003d484
   b5614:	2003d488 	.word	0x2003d488
   b5618:	00000000 	.word	0x00000000
   b561c:	2003d4a0 	.word	0x2003d4a0

000b5620 <_Z16accumulateHourlyiif>:
void accumulateHourly(int hr, int day, float gallons) {
   b5620:	b5f0      	push	{r4, r5, r6, r7, lr}
  if (lastHourIngested == -1) {       // first ever sample
   b5622:	4c1f      	ldr	r4, [pc, #124]	; (b56a0 <_Z16accumulateHourlyiif+0x80>)
void accumulateHourly(int hr, int day, float gallons) {
   b5624:	ed2d 8b02 	vpush	{d8}
  if (lastHourIngested == -1) {       // first ever sample
   b5628:	6927      	ldr	r7, [r4, #16]
   b562a:	1c7b      	adds	r3, r7, #1
void accumulateHourly(int hr, int day, float gallons) {
   b562c:	b085      	sub	sp, #20
   b562e:	4605      	mov	r5, r0
   b5630:	460e      	mov	r6, r1
   b5632:	eeb0 8a40 	vmov.f32	s16, s0
  if (lastHourIngested == -1) {       // first ever sample
   b5636:	d10d      	bne.n	b5654 <_Z16accumulateHourlyiif+0x34>
    lastDayIngested  = day;
   b5638:	e9c4 5604 	strd	r5, r6, [r4, #16]
  hourlyData[hr] += gallons;
   b563c:	eb04 0085 	add.w	r0, r4, r5, lsl #2
   b5640:	edd0 7a06 	vldr	s15, [r0, #24]
   b5644:	ee37 0a88 	vadd.f32	s0, s15, s16
   b5648:	ed80 0a06 	vstr	s0, [r0, #24]
}
   b564c:	b005      	add	sp, #20
   b564e:	ecbd 8b02 	vpop	{d8}
   b5652:	bdf0      	pop	{r4, r5, r6, r7, pc}
  } else if (hr != lastHourIngested) {
   b5654:	4287      	cmp	r7, r0
   b5656:	d0f1      	beq.n	b563c <_Z16accumulateHourlyiif+0x1c>
             lastHourIngested, hourlyData[lastHourIngested], hr);
   b5658:	eb04 0387 	add.w	r3, r4, r7, lsl #2
    Log.info("Hour %d done: %.2f gal -> hour %d",
   b565c:	9002      	str	r0, [sp, #8]
   b565e:	6998      	ldr	r0, [r3, #24]
   b5660:	f7fe fe42 	bl	b42e8 <__aeabi_f2d>
   b5664:	463a      	mov	r2, r7
   b5666:	e9cd 0100 	strd	r0, r1, [sp]
   b566a:	490e      	ldr	r1, [pc, #56]	; (b56a4 <_Z16accumulateHourlyiif+0x84>)
   b566c:	480e      	ldr	r0, [pc, #56]	; (b56a8 <_Z16accumulateHourlyiif+0x88>)
   b566e:	f7ff fd8c 	bl	b518a <_ZNK5spark6Logger4infoEPKcz>
    if (hr == 0 && day != lastDayIngested) {  // midnight rollover
   b5672:	2d00      	cmp	r5, #0
   b5674:	d1e0      	bne.n	b5638 <_Z16accumulateHourlyiif+0x18>
   b5676:	6963      	ldr	r3, [r4, #20]
   b5678:	42b3      	cmp	r3, r6
   b567a:	d0dd      	beq.n	b5638 <_Z16accumulateHourlyiif+0x18>
      Log.info("Midnight: daily=%.2f gal reset", dailyGallons);
   b567c:	6fa0      	ldr	r0, [r4, #120]	; 0x78
   b567e:	f7fe fe33 	bl	b42e8 <__aeabi_f2d>
   b5682:	460b      	mov	r3, r1
   b5684:	4602      	mov	r2, r0
   b5686:	4909      	ldr	r1, [pc, #36]	; (b56ac <_Z16accumulateHourlyiif+0x8c>)
   b5688:	4807      	ldr	r0, [pc, #28]	; (b56a8 <_Z16accumulateHourlyiif+0x88>)
   b568a:	f7ff fd7e 	bl	b518a <_ZNK5spark6Logger4infoEPKcz>
      for (int i = 0; i < 24; i++) hourlyData[i] = 0.0f;
   b568e:	2260      	movs	r2, #96	; 0x60
   b5690:	4629      	mov	r1, r5
   b5692:	f104 0018 	add.w	r0, r4, #24
   b5696:	f004 ffe9 	bl	ba66c <memset>
      dailyGallons = 0.0f;                     // ONLY reset here (doc 1 bug fixed)
   b569a:	2300      	movs	r3, #0
   b569c:	67a3      	str	r3, [r4, #120]	; 0x78
   b569e:	e7cb      	b.n	b5638 <_Z16accumulateHourlyiif+0x18>
   b56a0:	2003f400 	.word	0x2003f400
   b56a4:	000bc917 	.word	0x000bc917
   b56a8:	2003e658 	.word	0x2003e658
   b56ac:	000bc939 	.word	0x000bc939

000b56b0 <_Z20appendIntervalSamplef>:
  if (gMeter.count >= MAX_SAMPLES) return;   // hold until daily publish/roll
   b56b0:	490d      	ldr	r1, [pc, #52]	; (b56e8 <_Z20appendIntervalSamplef+0x38>)
   b56b2:	88ca      	ldrh	r2, [r1, #6]
   b56b4:	f5b2 6fb4 	cmp.w	r2, #1440	; 0x5a0
   b56b8:	d214      	bcs.n	b56e4 <_Z20appendIntervalSamplef+0x34>
  uint16_t val = (uint16_t)(gpm * 100.0f + 0.5f);  // 0.01 GPM units
   b56ba:	ed9f 7a0c 	vldr	s14, [pc, #48]	; b56ec <_Z20appendIntervalSamplef+0x3c>
   b56be:	eef6 7a00 	vmov.f32	s15, #96	; 0x3f000000  0.5
   b56c2:	eee0 7a07 	vfma.f32	s15, s0, s14
  gMeter.raw[gMeter.count++] = val;
   b56c6:	1c50      	adds	r0, r2, #1
   b56c8:	80c8      	strh	r0, [r1, #6]
   b56ca:	f240 30e7 	movw	r0, #999	; 0x3e7
  uint16_t val = (uint16_t)(gpm * 100.0f + 0.5f);  // 0.01 GPM units
   b56ce:	eefc 7ae7 	vcvt.u32.f32	s15, s15
  gMeter.raw[gMeter.count++] = val;
   b56d2:	3204      	adds	r2, #4
  uint16_t val = (uint16_t)(gpm * 100.0f + 0.5f);  // 0.01 GPM units
   b56d4:	ee17 3a90 	vmov	r3, s15
   b56d8:	b29b      	uxth	r3, r3
  gMeter.raw[gMeter.count++] = val;
   b56da:	4283      	cmp	r3, r0
   b56dc:	bf28      	it	cs
   b56de:	4603      	movcs	r3, r0
   b56e0:	f821 3012 	strh.w	r3, [r1, r2, lsl #1]
}
   b56e4:	4770      	bx	lr
   b56e6:	bf00      	nop
   b56e8:	2003b939 	.word	0x2003b939
   b56ec:	42c80000 	.word	0x42c80000

000b56f0 <_Z8imuPrintv>:
void imuPrint() {
   b56f0:	b508      	push	{r3, lr}
  if (imuGet() != 0) { Log.info("IMU not available"); return; }
   b56f2:	4902      	ldr	r1, [pc, #8]	; (b56fc <_Z8imuPrintv+0xc>)
   b56f4:	4802      	ldr	r0, [pc, #8]	; (b5700 <_Z8imuPrintv+0x10>)
   b56f6:	f7ff fd48 	bl	b518a <_ZNK5spark6Logger4infoEPKcz>
}
   b56fa:	bd08      	pop	{r3, pc}
   b56fc:	000bc958 	.word	0x000bc958
   b5700:	2003e658 	.word	0x2003e658

000b5704 <_Z17restartSleepTimerPKc>:
    Log.info("PIC: pending config delivered");
  }
}

// =============================================================== Sleep mgmt
void restartSleepTimer(const char *reason) {
   b5704:	b507      	push	{r0, r1, r2, lr}
  sleepCycleCount = 0; lastWakeTime = millis(); sleepStart = millis();
   b5706:	4b0a      	ldr	r3, [pc, #40]	; (b5730 <_Z17restartSleepTimerPKc+0x2c>)
void restartSleepTimer(const char *reason) {
   b5708:	9001      	str	r0, [sp, #4]
  sleepCycleCount = 0; lastWakeTime = millis(); sleepStart = millis();
   b570a:	2100      	movs	r1, #0
   b570c:	6019      	str	r1, [r3, #0]

#ifdef __cplusplus
extern "C" {
#endif

inline system_tick_t millis(void) { return HAL_Timer_Get_Milli_Seconds(); }
   b570e:	f001 fd7b 	bl	b7208 <HAL_Timer_Get_Milli_Seconds>
   b5712:	4b08      	ldr	r3, [pc, #32]	; (b5734 <_Z17restartSleepTimerPKc+0x30>)
   b5714:	6018      	str	r0, [r3, #0]
   b5716:	f001 fd77 	bl	b7208 <HAL_Timer_Get_Milli_Seconds>
   b571a:	4b07      	ldr	r3, [pc, #28]	; (b5738 <_Z17restartSleepTimerPKc+0x34>)
  Log.info("SLEEP: timer restarted (%s)", reason);
   b571c:	9a01      	ldr	r2, [sp, #4]
  sleepCycleCount = 0; lastWakeTime = millis(); sleepStart = millis();
   b571e:	6018      	str	r0, [r3, #0]
  Log.info("SLEEP: timer restarted (%s)", reason);
   b5720:	4906      	ldr	r1, [pc, #24]	; (b573c <_Z17restartSleepTimerPKc+0x38>)
   b5722:	4807      	ldr	r0, [pc, #28]	; (b5740 <_Z17restartSleepTimerPKc+0x3c>)
   b5724:	f7ff fd31 	bl	b518a <_ZNK5spark6Logger4infoEPKcz>
}
   b5728:	b003      	add	sp, #12
   b572a:	f85d fb04 	ldr.w	pc, [sp], #4
   b572e:	bf00      	nop
   b5730:	2003d524 	.word	0x2003d524
   b5734:	2003d4dc 	.word	0x2003d4dc
   b5738:	2003d528 	.word	0x2003d528
   b573c:	000bc96a 	.word	0x000bc96a
   b5740:	2003e658 	.word	0x2003e658

000b5744 <_Z13shutoffSwitch6String>:
int shutoffSwitch(String cmd) {
   b5744:	b570      	push	{r4, r5, r6, lr}
   b5746:	4605      	mov	r5, r0
  restartSleepTimer("shutoffSwitch");
   b5748:	4832      	ldr	r0, [pc, #200]	; (b5814 <_Z13shutoffSwitch6String+0xd0>)
   b574a:	f7ff ffdb 	bl	b5704 <_Z17restartSleepTimerPKc>
  cmd.trim(); cmd.toLowerCase();
   b574e:	4628      	mov	r0, r5
   b5750:	f002 facf 	bl	b7cf2 <_ZN6String4trimEv>
   b5754:	4628      	mov	r0, r5
   b5756:	f002 fabe 	bl	b7cd6 <_ZN6String11toLowerCaseEv>
    operator StringIfHelperType() const { return buffer ? &String::StringIfHelper : 0; }
    int compareTo(const String &s) const;
    unsigned char equals(const String &s) const;
    unsigned char equals(const char *cstr) const;
    unsigned char operator == (const String &rhs) const {return equals(rhs);}
    unsigned char operator == (const char *cstr) const {return equals(cstr);}
   b575a:	492f      	ldr	r1, [pc, #188]	; (b5818 <_Z13shutoffSwitch6String+0xd4>)
   b575c:	4628      	mov	r0, r5
   b575e:	f002 fa6f 	bl	b7c40 <_ZNK6String6equalsEPKc>
  if (cmd == "close") {
   b5762:	4606      	mov	r6, r0
   b5764:	b1e8      	cbz	r0, b57a2 <_Z13shutoffSwitch6String+0x5e>
    digitalWrite(LED1_PIN, HIGH); digitalWrite(SHUTOFF_SWITCH_PIN, HIGH); digitalWrite(SHUTOFF_SSR_PIN, HIGH);
   b5766:	2101      	movs	r1, #1
   b5768:	2007      	movs	r0, #7
   b576a:	f004 fe18 	bl	ba39e <digitalWrite>
   b576e:	2101      	movs	r1, #1
   b5770:	2004      	movs	r0, #4
   b5772:	f004 fe14 	bl	ba39e <digitalWrite>
   b5776:	2101      	movs	r1, #1
   b5778:	2003      	movs	r0, #3
   b577a:	f004 fe10 	bl	ba39e <digitalWrite>
    if (!imu_data.shutoff) shutoffEventCount++;
   b577e:	4a27      	ldr	r2, [pc, #156]	; (b581c <_Z13shutoffSwitch6String+0xd8>)
   b5780:	7953      	ldrb	r3, [r2, #5]
   b5782:	b91b      	cbnz	r3, b578c <_Z13shutoffSwitch6String+0x48>
   b5784:	4926      	ldr	r1, [pc, #152]	; (b5820 <_Z13shutoffSwitch6String+0xdc>)
   b5786:	6fcb      	ldr	r3, [r1, #124]	; 0x7c
   b5788:	3301      	adds	r3, #1
   b578a:	67cb      	str	r3, [r1, #124]	; 0x7c
    imu_data.shutoff = true; triggerPublish = true; shutoffTimer.start(); return 2;
   b578c:	2301      	movs	r3, #1
   b578e:	7153      	strb	r3, [r2, #5]
   b5790:	4a24      	ldr	r2, [pc, #144]	; (b5824 <_Z13shutoffSwitch6String+0xe0>)
   b5792:	4825      	ldr	r0, [pc, #148]	; (b5828 <_Z13shutoffSwitch6String+0xe4>)
   b5794:	7013      	strb	r3, [r2, #0]
   b5796:	f06f 4100 	mvn.w	r1, #2147483648	; 0x80000000
   b579a:	f7ff fc14 	bl	b4fc6 <_ZN5Timer5startEj.isra.0>
   b579e:	2002      	movs	r0, #2
}
   b57a0:	bd70      	pop	{r4, r5, r6, pc}
   b57a2:	4922      	ldr	r1, [pc, #136]	; (b582c <_Z13shutoffSwitch6String+0xe8>)
   b57a4:	4628      	mov	r0, r5
   b57a6:	f002 fa4b 	bl	b7c40 <_ZNK6String6equalsEPKc>
  } else if (cmd == "open") {
   b57aa:	4604      	mov	r4, r0
   b57ac:	b1b8      	cbz	r0, b57de <_Z13shutoffSwitch6String+0x9a>
    digitalWrite(LED1_PIN, HIGH); digitalWrite(SHUTOFF_SWITCH_PIN, LOW); digitalWrite(SHUTOFF_SSR_PIN, HIGH);
   b57ae:	2101      	movs	r1, #1
   b57b0:	2007      	movs	r0, #7
   b57b2:	f004 fdf4 	bl	ba39e <digitalWrite>
   b57b6:	4631      	mov	r1, r6
   b57b8:	2004      	movs	r0, #4
   b57ba:	f004 fdf0 	bl	ba39e <digitalWrite>
   b57be:	2101      	movs	r1, #1
   b57c0:	2003      	movs	r0, #3
   b57c2:	f004 fdec 	bl	ba39e <digitalWrite>
    imu_data.shutoff = false; triggerPublish = true; shutoffTimer.start(); return 1;
   b57c6:	4b15      	ldr	r3, [pc, #84]	; (b581c <_Z13shutoffSwitch6String+0xd8>)
   b57c8:	4817      	ldr	r0, [pc, #92]	; (b5828 <_Z13shutoffSwitch6String+0xe4>)
   b57ca:	715e      	strb	r6, [r3, #5]
   b57cc:	4b15      	ldr	r3, [pc, #84]	; (b5824 <_Z13shutoffSwitch6String+0xe0>)
   b57ce:	2401      	movs	r4, #1
   b57d0:	f06f 4100 	mvn.w	r1, #2147483648	; 0x80000000
   b57d4:	701c      	strb	r4, [r3, #0]
   b57d6:	f7ff fbf6 	bl	b4fc6 <_ZN5Timer5startEj.isra.0>
    shutoffTimer.stop(); return 0;
   b57da:	4620      	mov	r0, r4
   b57dc:	e7e0      	b.n	b57a0 <_Z13shutoffSwitch6String+0x5c>
   b57de:	4914      	ldr	r1, [pc, #80]	; (b5830 <_Z13shutoffSwitch6String+0xec>)
   b57e0:	4628      	mov	r0, r5
   b57e2:	f002 fa2d 	bl	b7c40 <_ZNK6String6equalsEPKc>
  } else if (cmd == "off") {
   b57e6:	b188      	cbz	r0, b580c <_Z13shutoffSwitch6String+0xc8>
    digitalWrite(LED1_PIN, LOW); digitalWrite(SHUTOFF_SWITCH_PIN, LOW); digitalWrite(SHUTOFF_SSR_PIN, LOW);
   b57e8:	4621      	mov	r1, r4
   b57ea:	2007      	movs	r0, #7
   b57ec:	f004 fdd7 	bl	ba39e <digitalWrite>
   b57f0:	4621      	mov	r1, r4
   b57f2:	2004      	movs	r0, #4
   b57f4:	f004 fdd3 	bl	ba39e <digitalWrite>
   b57f8:	4621      	mov	r1, r4
   b57fa:	2003      	movs	r0, #3
   b57fc:	f004 fdcf 	bl	ba39e <digitalWrite>
    shutoffTimer.stop(); return 0;
   b5800:	4809      	ldr	r0, [pc, #36]	; (b5828 <_Z13shutoffSwitch6String+0xe4>)
   b5802:	f06f 4100 	mvn.w	r1, #2147483648	; 0x80000000
   b5806:	f7ff fbd1 	bl	b4fac <_ZN5Timer4stopEj.isra.0>
   b580a:	e7e6      	b.n	b57da <_Z13shutoffSwitch6String+0x96>
  return -1;
   b580c:	f04f 30ff 	mov.w	r0, #4294967295
   b5810:	e7c6      	b.n	b57a0 <_Z13shutoffSwitch6String+0x5c>
   b5812:	bf00      	nop
   b5814:	000bc986 	.word	0x000bc986
   b5818:	000bc994 	.word	0x000bc994
   b581c:	2003d4a8 	.word	0x2003d4a8
   b5820:	2003f400 	.word	0x2003f400
   b5824:	2003d52c 	.word	0x2003d52c
   b5828:	2003d508 	.word	0x2003d508
   b582c:	000bc99a 	.word	0x000bc99a
   b5830:	000bcc20 	.word	0x000bcc20

000b5834 <_Z14onLeakDetectedv>:
void onLeakDetected() {
   b5834:	b51f      	push	{r0, r1, r2, r3, r4, lr}
  if (!imu_data.overflow) overflowEventCount++;
   b5836:	4b13      	ldr	r3, [pc, #76]	; (b5884 <_Z14onLeakDetectedv+0x50>)
   b5838:	4c13      	ldr	r4, [pc, #76]	; (b5888 <_Z14onLeakDetectedv+0x54>)
   b583a:	799a      	ldrb	r2, [r3, #6]
   b583c:	b922      	cbnz	r2, b5848 <_Z14onLeakDetectedv+0x14>
   b583e:	f8d4 2080 	ldr.w	r2, [r4, #128]	; 0x80
   b5842:	3201      	adds	r2, #1
   b5844:	f8c4 2080 	str.w	r2, [r4, #128]	; 0x80
  imu_data.overflow = true;
   b5848:	2201      	movs	r2, #1
   b584a:	719a      	strb	r2, [r3, #6]
  if (!imu_data.leaking) leakingEventCount++;
   b584c:	791a      	ldrb	r2, [r3, #4]
   b584e:	b922      	cbnz	r2, b585a <_Z14onLeakDetectedv+0x26>
   b5850:	f8d4 2084 	ldr.w	r2, [r4, #132]	; 0x84
   b5854:	3201      	adds	r2, #1
   b5856:	f8c4 2084 	str.w	r2, [r4, #132]	; 0x84
  imu_data.leaking = true;
   b585a:	2201      	movs	r2, #1
   b585c:	711a      	strb	r2, [r3, #4]
  if (appConfig.autoShutoff) {        // cloud var (3)
   b585e:	7b23      	ldrb	r3, [r4, #12]
   b5860:	b14b      	cbz	r3, b5876 <_Z14onLeakDetectedv+0x42>
    shutoffSwitch("close");
   b5862:	490a      	ldr	r1, [pc, #40]	; (b588c <_Z14onLeakDetectedv+0x58>)
   b5864:	4668      	mov	r0, sp
   b5866:	f002 f994 	bl	b7b92 <_ZN6StringC1EPK19__FlashStringHelper>
   b586a:	4668      	mov	r0, sp
   b586c:	f7ff ff6a 	bl	b5744 <_Z13shutoffSwitch6String>
   b5870:	4668      	mov	r0, sp
   b5872:	f002 f943 	bl	b7afc <_ZN6StringD1Ev>
  if (appConfig.alertMode >= 1) {     // cloud var (4)
   b5876:	7b63      	ldrb	r3, [r4, #13]
   b5878:	b113      	cbz	r3, b5880 <_Z14onLeakDetectedv+0x4c>
    triggerPublish = true;
   b587a:	4b05      	ldr	r3, [pc, #20]	; (b5890 <_Z14onLeakDetectedv+0x5c>)
   b587c:	2201      	movs	r2, #1
   b587e:	701a      	strb	r2, [r3, #0]
}
   b5880:	b004      	add	sp, #16
   b5882:	bd10      	pop	{r4, pc}
   b5884:	2003d4a8 	.word	0x2003d4a8
   b5888:	2003f400 	.word	0x2003f400
   b588c:	000bc994 	.word	0x000bc994
   b5890:	2003d52c 	.word	0x2003d52c

000b5894 <_Z14ingestPicBatchPK9PicSamplei>:
void ingestPicBatch(const PicSample *s, int n) {
   b5894:	e92d 47f0 	stmdb	sp!, {r4, r5, r6, r7, r8, r9, sl, lr}
   b5898:	ed2d 8b04 	vpush	{d8-d9}
  if (n <= 0) return;
   b589c:	1e0c      	subs	r4, r1, #0
void ingestPicBatch(const PicSample *s, int n) {
   b589e:	b082      	sub	sp, #8
   b58a0:	4681      	mov	r9, r0
  if (n <= 0) return;
   b58a2:	dd06      	ble.n	b58b2 <_Z14ingestPicBatchPK9PicSamplei+0x1e>
  if (!Time.isValid()) { Log.warn("PIC: time invalid, dropping batch"); return; }
   b58a4:	f003 fb2a 	bl	b8efc <_ZN9TimeClass7isValidEv>
   b58a8:	b940      	cbnz	r0, b58bc <_Z14ingestPicBatchPK9PicSamplei+0x28>
   b58aa:	4947      	ldr	r1, [pc, #284]	; (b59c8 <_Z14ingestPicBatchPK9PicSamplei+0x134>)
   b58ac:	4847      	ldr	r0, [pc, #284]	; (b59cc <_Z14ingestPicBatchPK9PicSamplei+0x138>)
   b58ae:	f7ff fc7a 	bl	b51a6 <_ZNK5spark6Logger4warnEPKcz>
}
   b58b2:	b002      	add	sp, #8
   b58b4:	ecbd 8b04 	vpop	{d8-d9}
   b58b8:	e8bd 87f0 	ldmia.w	sp!, {r4, r5, r6, r7, r8, r9, sl, pc}
  uint32_t now = Time.now();
   b58bc:	f003 fb3b 	bl	b8f36 <_ZN9TimeClass3nowEv>
    float freq    = (float)s[k].pulses / (float)PIC_SAMPLE_INTERVAL_SEC; // Hz
   b58c0:	ed9f 9a43 	vldr	s18, [pc, #268]	; b59d0 <_Z14ingestPicBatchPK9PicSamplei+0x13c>
   b58c4:	f8df 8134 	ldr.w	r8, [pc, #308]	; b59fc <_Z14ingestPicBatchPK9PicSamplei+0x168>
  if (freq <= 0.0f) return 0.0f;
   b58c8:	eddf 8a42 	vldr	s17, [pc, #264]	; b59d4 <_Z14ingestPicBatchPK9PicSamplei+0x140>
  uint32_t endBoundary = (now / PIC_SAMPLE_INTERVAL_SEC) * PIC_SAMPLE_INTERVAL_SEC;
   b58cc:	263c      	movs	r6, #60	; 0x3c
   b58ce:	2501      	movs	r5, #1
   b58d0:	fbb0 f0f6 	udiv	r0, r0, r6
   b58d4:	1b06      	subs	r6, r0, r4
    uint32_t tsEnd = endBoundary - (uint32_t)(n - 1 - k) * PIC_SAMPLE_INTERVAL_SEC;
   b58d6:	233c      	movs	r3, #60	; 0x3c
   b58d8:	1977      	adds	r7, r6, r5
   b58da:	435f      	muls	r7, r3
    float freq    = (float)s[k].pulses / (float)PIC_SAMPLE_INTERVAL_SEC; // Hz
   b58dc:	f1a9 0302 	sub.w	r3, r9, #2
   b58e0:	f833 3025 	ldrh.w	r3, [r3, r5, lsl #2]
   b58e4:	ee07 3a90 	vmov	s15, r3
   b58e8:	eef8 7a67 	vcvt.f32.u32	s15, s15
   b58ec:	eec7 6a89 	vdiv.f32	s13, s15, s18
  if (freq <= 0.0f) return 0.0f;
   b58f0:	eef5 6ac0 	vcmpe.f32	s13, #0.0
   b58f4:	eef1 fa10 	vmrs	APSR_nzcv, fpscr
   b58f8:	d963      	bls.n	b59c2 <_Z14ingestPicBatchPK9PicSamplei+0x12e>
  float f  = freq / (1.0f + (FLOW_C5 * freq + FLOW_C6));   // freq correction
   b58fa:	eddf 7a37 	vldr	s15, [pc, #220]	; b59d8 <_Z14ingestPicBatchPK9PicSamplei+0x144>
   b58fe:	ed9f 7a37 	vldr	s14, [pc, #220]	; b59dc <_Z14ingestPicBatchPK9PicSamplei+0x148>
  float g0 = FLOW_C0 * f;                                  // raw GPM
   b5902:	ed9f 8a37 	vldr	s16, [pc, #220]	; b59e0 <_Z14ingestPicBatchPK9PicSamplei+0x14c>
  float f  = freq / (1.0f + (FLOW_C5 * freq + FLOW_C6));   // freq correction
   b5906:	eea6 7aa7 	vfma.f32	s14, s13, s15
   b590a:	eef7 7a00 	vmov.f32	s15, #112	; 0x3f800000  1.0
   b590e:	ee37 7a27 	vadd.f32	s14, s14, s15
   b5912:	eec6 7a87 	vdiv.f32	s15, s13, s14
  float g  = g0 - (FLOW_C1 * g0 * g0 + FLOW_C2 * g0 + FLOW_C3);
   b5916:	ed9f 7a33 	vldr	s14, [pc, #204]	; b59e4 <_Z14ingestPicBatchPK9PicSamplei+0x150>
  float g0 = FLOW_C0 * f;                                  // raw GPM
   b591a:	ee67 7a88 	vmul.f32	s15, s15, s16
  float g  = g0 - (FLOW_C1 * g0 * g0 + FLOW_C2 * g0 + FLOW_C3);
   b591e:	ed9f 8a32 	vldr	s16, [pc, #200]	; b59e8 <_Z14ingestPicBatchPK9PicSamplei+0x154>
   b5922:	ee27 7a87 	vmul.f32	s14, s15, s14
   b5926:	ee27 8a88 	vmul.f32	s16, s15, s16
   b592a:	eea7 8a87 	vfma.f32	s16, s15, s14
   b592e:	ed9f 7a2f 	vldr	s14, [pc, #188]	; b59ec <_Z14ingestPicBatchPK9PicSamplei+0x158>
   b5932:	ee38 8a47 	vsub.f32	s16, s16, s14
   b5936:	ee77 7ac8 	vsub.f32	s15, s15, s16
  g *= flowCalScale;
   b593a:	ed98 8a00 	vldr	s16, [r8]
   b593e:	ee27 8a88 	vmul.f32	s16, s15, s16
  if (freq <= 0.0f) return 0.0f;
   b5942:	eeb5 8a40 	vcmp.f32	s16, #0.0
   b5946:	eef1 fa10 	vmrs	APSR_nzcv, fpscr
   b594a:	bf48      	it	mi
   b594c:	eeb0 8a68 	vmovmi.f32	s16, s17
    float gallons = gpm * (PIC_SAMPLE_INTERVAL_SEC / 60.0f) / FLOW_C4;
   b5950:	eddf 7a27 	vldr	s15, [pc, #156]	; b59f0 <_Z14ingestPicBatchPK9PicSamplei+0x15c>
   b5954:	eec8 9a27 	vdiv.f32	s19, s16, s15
    int hr  = Time.hour(tsEnd);
   b5958:	2100      	movs	r1, #0
   b595a:	4638      	mov	r0, r7
   b595c:	f003 fa9e 	bl	b8e9c <_ZN9TimeClass4hourEx>
    int day = Time.day(tsEnd);
   b5960:	2100      	movs	r1, #0
    int hr  = Time.hour(tsEnd);
   b5962:	4682      	mov	sl, r0
    int day = Time.day(tsEnd);
   b5964:	4638      	mov	r0, r7
   b5966:	f003 faa1 	bl	b8eac <_ZN9TimeClass3dayEx>
   b596a:	4601      	mov	r1, r0
    accumulateHourly(hr, day, gallons);
   b596c:	4650      	mov	r0, sl
   b596e:	eeb0 0a69 	vmov.f32	s0, s19
   b5972:	f7ff fe55 	bl	b5620 <_Z16accumulateHourlyiif>
    dailyGallons += gallons;
   b5976:	edd8 7a1e 	vldr	s15, [r8, #120]	; 0x78
   b597a:	ee77 7aa9 	vadd.f32	s15, s15, s19
    if (senseLeak(tsEnd, gpm)) onLeakDetected();
   b597e:	eeb0 0a48 	vmov.f32	s0, s16
   b5982:	4638      	mov	r0, r7
    dailyGallons += gallons;
   b5984:	edc8 7a1e 	vstr	s15, [r8, #120]	; 0x78
    if (senseLeak(tsEnd, gpm)) onLeakDetected();
   b5988:	f7ff fda6 	bl	b54d8 <_Z9senseLeakmf>
   b598c:	b108      	cbz	r0, b5992 <_Z14ingestPicBatchPK9PicSamplei+0xfe>
   b598e:	f7ff ff51 	bl	b5834 <_Z14onLeakDetectedv>
    appendIntervalSample(gpm);
   b5992:	eeb0 0a48 	vmov.f32	s0, s16
   b5996:	f7ff fe8b 	bl	b56b0 <_Z20appendIntervalSamplef>
  for (int k = 0; k < n; k++) {
   b599a:	42ac      	cmp	r4, r5
   b599c:	f105 0301 	add.w	r3, r5, #1
   b59a0:	d10d      	bne.n	b59be <_Z14ingestPicBatchPK9PicSamplei+0x12a>
  imu_data.dailyGallons = dailyGallons;
   b59a2:	4b14      	ldr	r3, [pc, #80]	; (b59f4 <_Z14ingestPicBatchPK9PicSamplei+0x160>)
   b59a4:	f8d8 0078 	ldr.w	r0, [r8, #120]	; 0x78
   b59a8:	6298      	str	r0, [r3, #40]	; 0x28
  Log.info("PIC: ingested %d samples, daily=%.2f gal", n, dailyGallons);
   b59aa:	f7fe fc9d 	bl	b42e8 <__aeabi_f2d>
   b59ae:	4622      	mov	r2, r4
   b59b0:	e9cd 0100 	strd	r0, r1, [sp]
   b59b4:	4910      	ldr	r1, [pc, #64]	; (b59f8 <_Z14ingestPicBatchPK9PicSamplei+0x164>)
   b59b6:	4805      	ldr	r0, [pc, #20]	; (b59cc <_Z14ingestPicBatchPK9PicSamplei+0x138>)
   b59b8:	f7ff fbe7 	bl	b518a <_ZNK5spark6Logger4infoEPKcz>
   b59bc:	e779      	b.n	b58b2 <_Z14ingestPicBatchPK9PicSamplei+0x1e>
   b59be:	461d      	mov	r5, r3
   b59c0:	e789      	b.n	b58d6 <_Z14ingestPicBatchPK9PicSamplei+0x42>
  if (freq <= 0.0f) return 0.0f;
   b59c2:	eeb0 8a68 	vmov.f32	s16, s17
   b59c6:	e7c3      	b.n	b5950 <_Z14ingestPicBatchPK9PicSamplei+0xbc>
   b59c8:	000bc99f 	.word	0x000bc99f
   b59cc:	2003e658 	.word	0x2003e658
   b59d0:	42700000 	.word	0x42700000
   b59d4:	00000000 	.word	0x00000000
   b59d8:	bb8ce704 	.word	0xbb8ce704
   b59dc:	3d851eb8 	.word	0x3d851eb8
   b59e0:	3cbc6a7f 	.word	0x3cbc6a7f
   b59e4:	3eb33333 	.word	0x3eb33333
   b59e8:	beeb851f 	.word	0xbeeb851f
   b59ec:	3d0b4396 	.word	0x3d0b4396
   b59f0:	3fb02de0 	.word	0x3fb02de0
   b59f4:	2003d4a8 	.word	0x2003d4a8
   b59f8:	000bc9c1 	.word	0x000bc9c1
   b59fc:	2003f400 	.word	0x2003f400

000b5a00 <_Z19serviceMeterFromPicb>:
void serviceMeterFromPic(bool picInitiated) {
   b5a00:	b510      	push	{r4, lr}
  if (picInitiated) {
   b5a02:	b310      	cbz	r0, b5a4a <_Z19serviceMeterFromPicb+0x4a>
    if (!picLink.wakeIsHigh()) return;        // nothing to do
   b5a04:	4818      	ldr	r0, [pc, #96]	; (b5a68 <_Z19serviceMeterFromPicb+0x68>)
   b5a06:	f001 f8d1 	bl	b6bac <_ZN7PicLink10wakeIsHighEv>
   b5a0a:	b1e8      	cbz	r0, b5a48 <_Z19serviceMeterFromPicb+0x48>
    n = picLink.receiveUpload(picBuf, PIC_MAX_RECORDS);   // Case B
   b5a0c:	4917      	ldr	r1, [pc, #92]	; (b5a6c <_Z19serviceMeterFromPicb+0x6c>)
   b5a0e:	4816      	ldr	r0, [pc, #88]	; (b5a68 <_Z19serviceMeterFromPicb+0x68>)
   b5a10:	f44f 6280 	mov.w	r2, #1024	; 0x400
   b5a14:	f001 f97a 	bl	b6d0c <_ZN7PicLink13receiveUploadEP9PicSamplet>
  if (n > 0) {
   b5a18:	2800      	cmp	r0, #0
   b5a1a:	dd1d      	ble.n	b5a58 <_Z19serviceMeterFromPicb+0x58>
    ingestPicBatch(picBuf, n);
   b5a1c:	4601      	mov	r1, r0
   b5a1e:	4813      	ldr	r0, [pc, #76]	; (b5a6c <_Z19serviceMeterFromPicb+0x6c>)
   b5a20:	f7ff ff38 	bl	b5894 <_Z14ingestPicBatchPK9PicSamplei>
    persistAll();
   b5a24:	f7ff fc0a 	bl	b523c <_Z10persistAllv>
  if (picConfigDirty && picLink.pushConfig(appConfig)) {
   b5a28:	4c11      	ldr	r4, [pc, #68]	; (b5a70 <_Z19serviceMeterFromPicb+0x70>)
   b5a2a:	f894 3088 	ldrb.w	r3, [r4, #136]	; 0x88
   b5a2e:	b15b      	cbz	r3, b5a48 <_Z19serviceMeterFromPicb+0x48>
   b5a30:	480d      	ldr	r0, [pc, #52]	; (b5a68 <_Z19serviceMeterFromPicb+0x68>)
   b5a32:	1d21      	adds	r1, r4, #4
   b5a34:	f001 f996 	bl	b6d64 <_ZN7PicLink10pushConfigERK9AppConfig>
   b5a38:	b130      	cbz	r0, b5a48 <_Z19serviceMeterFromPicb+0x48>
    picConfigDirty = false;
   b5a3a:	2300      	movs	r3, #0
    Log.info("PIC: pending config delivered");
   b5a3c:	490d      	ldr	r1, [pc, #52]	; (b5a74 <_Z19serviceMeterFromPicb+0x74>)
   b5a3e:	480e      	ldr	r0, [pc, #56]	; (b5a78 <_Z19serviceMeterFromPicb+0x78>)
    picConfigDirty = false;
   b5a40:	f884 3088 	strb.w	r3, [r4, #136]	; 0x88
    Log.info("PIC: pending config delivered");
   b5a44:	f7ff fba1 	bl	b518a <_ZNK5spark6Logger4infoEPKcz>
}
   b5a48:	bd10      	pop	{r4, pc}
    n = picLink.requestUpload(picBuf, PIC_MAX_RECORDS);   // Case A
   b5a4a:	4908      	ldr	r1, [pc, #32]	; (b5a6c <_Z19serviceMeterFromPicb+0x6c>)
   b5a4c:	4806      	ldr	r0, [pc, #24]	; (b5a68 <_Z19serviceMeterFromPicb+0x68>)
   b5a4e:	f44f 6280 	mov.w	r2, #1024	; 0x400
   b5a52:	f001 f95d 	bl	b6d10 <_ZN7PicLink13requestUploadEP9PicSamplet>
   b5a56:	e7df      	b.n	b5a18 <_Z19serviceMeterFromPicb+0x18>
  } else if (n < 0) {
   b5a58:	d0e6      	beq.n	b5a28 <_Z19serviceMeterFromPicb+0x28>
    Log.warn("PIC upload err %d", n);
   b5a5a:	4602      	mov	r2, r0
   b5a5c:	4907      	ldr	r1, [pc, #28]	; (b5a7c <_Z19serviceMeterFromPicb+0x7c>)
   b5a5e:	4806      	ldr	r0, [pc, #24]	; (b5a78 <_Z19serviceMeterFromPicb+0x78>)
   b5a60:	f7ff fba1 	bl	b51a6 <_ZNK5spark6Logger4warnEPKcz>
   b5a64:	e7e0      	b.n	b5a28 <_Z19serviceMeterFromPicb+0x28>
   b5a66:	bf00      	nop
   b5a68:	2003d504 	.word	0x2003d504
   b5a6c:	2003c482 	.word	0x2003c482
   b5a70:	2003f400 	.word	0x2003f400
   b5a74:	000bc9fc 	.word	0x000bc9fc
   b5a78:	2003e658 	.word	0x2003e658
   b5a7c:	000bc9ea 	.word	0x000bc9ea

000b5a80 <_Z13leakingSwitch6String>:
int leakingSwitch(String cmd) {
   b5a80:	b510      	push	{r4, lr}
   b5a82:	4604      	mov	r4, r0
  restartSleepTimer("leakingSwitch");
   b5a84:	4819      	ldr	r0, [pc, #100]	; (b5aec <_Z13leakingSwitch6String+0x6c>)
   b5a86:	f7ff fe3d 	bl	b5704 <_Z17restartSleepTimerPKc>
  cmd.trim(); cmd.toLowerCase();
   b5a8a:	4620      	mov	r0, r4
   b5a8c:	f002 f931 	bl	b7cf2 <_ZN6String4trimEv>
   b5a90:	4620      	mov	r0, r4
   b5a92:	f002 f920 	bl	b7cd6 <_ZN6String11toLowerCaseEv>
   b5a96:	4916      	ldr	r1, [pc, #88]	; (b5af0 <_Z13leakingSwitch6String+0x70>)
   b5a98:	4620      	mov	r0, r4
   b5a9a:	f002 f8d1 	bl	b7c40 <_ZNK6String6equalsEPKc>
  if (cmd == "on")  { if (!imu_data.leaking) leakingEventCount++; imu_data.leaking = true;  triggerPublish = true; return 1; }
   b5a9e:	b168      	cbz	r0, b5abc <_Z13leakingSwitch6String+0x3c>
   b5aa0:	4a14      	ldr	r2, [pc, #80]	; (b5af4 <_Z13leakingSwitch6String+0x74>)
   b5aa2:	7913      	ldrb	r3, [r2, #4]
   b5aa4:	b92b      	cbnz	r3, b5ab2 <_Z13leakingSwitch6String+0x32>
   b5aa6:	4914      	ldr	r1, [pc, #80]	; (b5af8 <_Z13leakingSwitch6String+0x78>)
   b5aa8:	f8d1 3084 	ldr.w	r3, [r1, #132]	; 0x84
   b5aac:	3301      	adds	r3, #1
   b5aae:	f8c1 3084 	str.w	r3, [r1, #132]	; 0x84
   b5ab2:	4b12      	ldr	r3, [pc, #72]	; (b5afc <_Z13leakingSwitch6String+0x7c>)
   b5ab4:	2001      	movs	r0, #1
   b5ab6:	7110      	strb	r0, [r2, #4]
   b5ab8:	7018      	strb	r0, [r3, #0]
}
   b5aba:	bd10      	pop	{r4, pc}
   b5abc:	4910      	ldr	r1, [pc, #64]	; (b5b00 <_Z13leakingSwitch6String+0x80>)
   b5abe:	4620      	mov	r0, r4
   b5ac0:	f002 f8be 	bl	b7c40 <_ZNK6String6equalsEPKc>
  if (cmd == "off" || cmd == "reset") { imu_data.leaking = false; leakRunLen = 0; triggerPublish = true; return 0; }
   b5ac4:	b140      	cbz	r0, b5ad8 <_Z13leakingSwitch6String+0x58>
   b5ac6:	4b0b      	ldr	r3, [pc, #44]	; (b5af4 <_Z13leakingSwitch6String+0x74>)
   b5ac8:	2000      	movs	r0, #0
   b5aca:	7118      	strb	r0, [r3, #4]
   b5acc:	4b0d      	ldr	r3, [pc, #52]	; (b5b04 <_Z13leakingSwitch6String+0x84>)
   b5ace:	6018      	str	r0, [r3, #0]
   b5ad0:	4b0a      	ldr	r3, [pc, #40]	; (b5afc <_Z13leakingSwitch6String+0x7c>)
   b5ad2:	2201      	movs	r2, #1
   b5ad4:	701a      	strb	r2, [r3, #0]
   b5ad6:	e7f0      	b.n	b5aba <_Z13leakingSwitch6String+0x3a>
   b5ad8:	490b      	ldr	r1, [pc, #44]	; (b5b08 <_Z13leakingSwitch6String+0x88>)
   b5ada:	4620      	mov	r0, r4
   b5adc:	f002 f8b0 	bl	b7c40 <_ZNK6String6equalsEPKc>
   b5ae0:	2800      	cmp	r0, #0
   b5ae2:	d1f0      	bne.n	b5ac6 <_Z13leakingSwitch6String+0x46>
  return -1;
   b5ae4:	f04f 30ff 	mov.w	r0, #4294967295
   b5ae8:	e7e7      	b.n	b5aba <_Z13leakingSwitch6String+0x3a>
   b5aea:	bf00      	nop
   b5aec:	000bca1a 	.word	0x000bca1a
   b5af0:	000bcb26 	.word	0x000bcb26
   b5af4:	2003d4a8 	.word	0x2003d4a8
   b5af8:	2003f400 	.word	0x2003f400
   b5afc:	2003d52c 	.word	0x2003d52c
   b5b00:	000bcc20 	.word	0x000bcc20
   b5b04:	20037254 	.word	0x20037254
   b5b08:	000bc952 	.word	0x000bc952

000b5b0c <_Z7syncPic6String>:
int syncPic(String cmd) {
   b5b0c:	b510      	push	{r4, lr}
  bool ok = picLink.pushConfig(appConfig);
   b5b0e:	4c08      	ldr	r4, [pc, #32]	; (b5b30 <_Z7syncPic6String+0x24>)
  restartSleepTimer("syncPic");
   b5b10:	4808      	ldr	r0, [pc, #32]	; (b5b34 <_Z7syncPic6String+0x28>)
   b5b12:	f7ff fdf7 	bl	b5704 <_Z17restartSleepTimerPKc>
  bool ok = picLink.pushConfig(appConfig);
   b5b16:	4808      	ldr	r0, [pc, #32]	; (b5b38 <_Z7syncPic6String+0x2c>)
   b5b18:	1d21      	adds	r1, r4, #4
   b5b1a:	f001 f923 	bl	b6d64 <_ZN7PicLink10pushConfigERK9AppConfig>
  if (ok) picConfigDirty = false;
   b5b1e:	b120      	cbz	r0, b5b2a <_Z7syncPic6String+0x1e>
   b5b20:	2300      	movs	r3, #0
   b5b22:	f884 3088 	strb.w	r3, [r4, #136]	; 0x88
  return ok ? 1 : -1;
   b5b26:	2001      	movs	r0, #1
}
   b5b28:	bd10      	pop	{r4, pc}
  return ok ? 1 : -1;
   b5b2a:	f04f 30ff 	mov.w	r0, #4294967295
   b5b2e:	e7fb      	b.n	b5b28 <_Z7syncPic6String+0x1c>
   b5b30:	2003f400 	.word	0x2003f400
   b5b34:	000bca28 	.word	0x000bca28
   b5b38:	2003d504 	.word	0x2003d504

000b5b3c <_Z7setWiFi6String>:
int setWiFi(String cmd) {
   b5b3c:	b5f0      	push	{r4, r5, r6, r7, lr}
   b5b3e:	4604      	mov	r4, r0
   b5b40:	b09d      	sub	sp, #116	; 0x74
  restartSleepTimer("setWiFi");
   b5b42:	482d      	ldr	r0, [pc, #180]	; (b5bf8 <_Z7setWiFi6String+0xbc>)
   b5b44:	f7ff fdde 	bl	b5704 <_Z17restartSleepTimerPKc>
  cmd.trim(); int comma = cmd.indexOf(',');
   b5b48:	4620      	mov	r0, r4
   b5b4a:	f002 f8d2 	bl	b7cf2 <_ZN6String4trimEv>
   b5b4e:	212c      	movs	r1, #44	; 0x2c
   b5b50:	4620      	mov	r0, r4
   b5b52:	f002 f895 	bl	b7c80 <_ZNK6String7indexOfEc>
  if (comma <= 0) return -1;
   b5b56:	1e05      	subs	r5, r0, #0
   b5b58:	dd4b      	ble.n	b5bf2 <_Z7setWiFi6String+0xb6>
  String ssid = cmd.substring(0, comma); String pass = cmd.substring(comma + 1);
   b5b5a:	462b      	mov	r3, r5
   b5b5c:	2200      	movs	r2, #0
   b5b5e:	4621      	mov	r1, r4
   b5b60:	a801      	add	r0, sp, #4
   b5b62:	f002 f891 	bl	b7c88 <_ZNK6String9substringEjj>
   b5b66:	1c6a      	adds	r2, r5, #1
   b5b68:	4621      	mov	r1, r4
   b5b6a:	a805      	add	r0, sp, #20
   b5b6c:	f002 f8ac 	bl	b7cc8 <_ZNK6String9substringEj>
  ssid.trim(); pass.trim();
   b5b70:	a801      	add	r0, sp, #4
   b5b72:	f002 f8be 	bl	b7cf2 <_ZN6String4trimEv>
   b5b76:	a805      	add	r0, sp, #20
   b5b78:	f002 f8bb 	bl	b7cf2 <_ZN6String4trimEv>
  if (ssid.length() == 0 || !WiFi.setCredentials(ssid, pass)) return -1;
   b5b7c:	9b03      	ldr	r3, [sp, #12]
   b5b7e:	b953      	cbnz	r3, b5b96 <_Z7setWiFi6String+0x5a>
   b5b80:	f04f 34ff 	mov.w	r4, #4294967295
  String ssid = cmd.substring(0, comma); String pass = cmd.substring(comma + 1);
   b5b84:	a805      	add	r0, sp, #20
   b5b86:	f001 ffb9 	bl	b7afc <_ZN6StringD1Ev>
   b5b8a:	a801      	add	r0, sp, #4
   b5b8c:	f001 ffb6 	bl	b7afc <_ZN6StringD1Ev>
}
   b5b90:	4620      	mov	r0, r4
   b5b92:	b01d      	add	sp, #116	; 0x74
   b5b94:	bdf0      	pop	{r4, r5, r6, r7, pc}
    char operator [] (unsigned int index) const;
    char& operator [] (unsigned int index);
    void getBytes(unsigned char *buf, unsigned int bufsize, unsigned int index=0) const;
    void toCharArray(char *buf, unsigned int bufsize, unsigned int index=0) const
        {getBytes((unsigned char *)buf, bufsize, index);}
    const char * c_str() const { return buffer; }
   b5b96:	9f01      	ldr	r7, [sp, #4]
   b5b98:	9d05      	ldr	r5, [sp, #20]
    bool setCredentials(const char *ssid, const char *password) {
        return setCredentials(ssid, password, WPA2);
    }

    bool setCredentials(const char *ssid, const char *password, unsigned long security, unsigned long cipher=WLAN_CIPHER_NOT_SET) {
        return setCredentials(ssid, ssid ? strlen(ssid) : 0, password, password ? strlen(password) : 0, security, cipher);
   b5b9a:	b337      	cbz	r7, b5bea <_Z7setWiFi6String+0xae>
   b5b9c:	4638      	mov	r0, r7
   b5b9e:	f7ff f8e3 	bl	b4d68 <strlen>
   b5ba2:	4606      	mov	r6, r0
   b5ba4:	b31d      	cbz	r5, b5bee <_Z7setWiFi6String+0xb2>
   b5ba6:	4628      	mov	r0, r5
   b5ba8:	f7ff f8de 	bl	b4d68 <strlen>
   b5bac:	4604      	mov	r4, r0

    bool setCredentials(const char *ssid, unsigned int ssidLen, const char *password,
            unsigned int passwordLen, unsigned long security=WLAN_SEC_UNSEC, unsigned long cipher=WLAN_CIPHER_NOT_SET) {

        WLanCredentials creds;
        memset(&creds, 0, sizeof(creds));
   b5bae:	2238      	movs	r2, #56	; 0x38
   b5bb0:	2100      	movs	r1, #0
   b5bb2:	eb0d 0002 	add.w	r0, sp, r2
   b5bb6:	f004 fd59 	bl	ba66c <memset>
        creds.size = sizeof(creds);
   b5bba:	234c      	movs	r3, #76	; 0x4c
        creds.ssid = ssid;
   b5bbc:	e9cd 3709 	strd	r3, r7, [sp, #36]	; 0x24
        creds.ssid_len = ssidLen;
        creds.password = password;
        creds.password_len = passwordLen;
   b5bc0:	940d      	str	r4, [sp, #52]	; 0x34
        creds.security = WLanSecurityType(security);
   b5bc2:	2303      	movs	r3, #3
    virtual bool listening();
    virtual NetworkClass& prefer(bool prefer = true);
    virtual bool isPreferred();

    operator network_interface_t() const {
        return iface_;
   b5bc4:	4c0d      	ldr	r4, [pc, #52]	; (b5bfc <_Z7setWiFi6String+0xc0>)
   b5bc6:	f88d 3038 	strb.w	r3, [sp, #56]	; 0x38
        creds.cipher = WLanSecurityCipher(cipher);
        return (network_set_credentials(*this, 0, &creds, NULL) == 0);
   b5bca:	2300      	movs	r3, #0
   b5bcc:	4619      	mov	r1, r3
   b5bce:	6860      	ldr	r0, [r4, #4]
   b5bd0:	aa09      	add	r2, sp, #36	; 0x24
        creds.password = password;
   b5bd2:	e9cd 650b 	strd	r6, r5, [sp, #44]	; 0x2c
        return (network_set_credentials(*this, 0, &creds, NULL) == 0);
   b5bd6:	f001 fdb5 	bl	b7744 <network_set_credentials>
  if (ssid.length() == 0 || !WiFi.setCredentials(ssid, pass)) return -1;
   b5bda:	4601      	mov	r1, r0
   b5bdc:	2800      	cmp	r0, #0
   b5bde:	d1cf      	bne.n	b5b80 <_Z7setWiFi6String+0x44>
  WiFi.connect(); return 1;
   b5be0:	4620      	mov	r0, r4
   b5be2:	f7ff fa7f 	bl	b50e4 <_ZN5spark9WiFiClass7connectEj>
   b5be6:	2401      	movs	r4, #1
   b5be8:	e7cc      	b.n	b5b84 <_Z7setWiFi6String+0x48>
        return setCredentials(ssid, ssid ? strlen(ssid) : 0, password, password ? strlen(password) : 0, security, cipher);
   b5bea:	463e      	mov	r6, r7
   b5bec:	e7da      	b.n	b5ba4 <_Z7setWiFi6String+0x68>
   b5bee:	462c      	mov	r4, r5
   b5bf0:	e7dd      	b.n	b5bae <_Z7setWiFi6String+0x72>
  if (comma <= 0) return -1;
   b5bf2:	f04f 34ff 	mov.w	r4, #4294967295
   b5bf6:	e7cb      	b.n	b5b90 <_Z7setWiFi6String+0x54>
   b5bf8:	000bca30 	.word	0x000bca30
   b5bfc:	2003e70c 	.word	0x2003e70c

000b5c00 <_Z9clearWiFi6String>:
int clearWiFi(String cmd) { restartSleepTimer("clearWiFi"); (void)cmd; WiFi.clearCredentials(); WiFi.disconnect(); return 1; }
   b5c00:	b510      	push	{r4, lr}
   b5c02:	4808      	ldr	r0, [pc, #32]	; (b5c24 <_Z9clearWiFi6String+0x24>)
   b5c04:	4c08      	ldr	r4, [pc, #32]	; (b5c28 <_Z9clearWiFi6String+0x28>)
   b5c06:	f7ff fd7d 	bl	b5704 <_Z17restartSleepTimerPKc>
    bool hasCredentials(void) {
        return network_has_credentials(*this, 0, NULL);
    }

    bool clearCredentials(void) {
        return network_clear_credentials(*this, 0, NULL, NULL);
   b5c0a:	2300      	movs	r3, #0
   b5c0c:	461a      	mov	r2, r3
   b5c0e:	4619      	mov	r1, r3
   b5c10:	6860      	ldr	r0, [r4, #4]
   b5c12:	f001 fd9f 	bl	b7754 <network_clear_credentials>
        network_disconnect(*this, NETWORK_DISCONNECT_REASON_USER, NULL);
   b5c16:	6860      	ldr	r0, [r4, #4]
   b5c18:	2200      	movs	r2, #0
   b5c1a:	2102      	movs	r1, #2
   b5c1c:	f001 fd62 	bl	b76e4 <network_disconnect>
   b5c20:	2001      	movs	r0, #1
   b5c22:	bd10      	pop	{r4, pc}
   b5c24:	000bca38 	.word	0x000bca38
   b5c28:	2003e70c 	.word	0x2003e70c

000b5c2c <_Z10setFlowCal6String>:
int setFlowCal(String cmd) {
   b5c2c:	b538      	push	{r3, r4, r5, lr}
   b5c2e:	4604      	mov	r4, r0
  restartSleepTimer("setFlowCal");
   b5c30:	481b      	ldr	r0, [pc, #108]	; (b5ca0 <_Z10setFlowCal6String+0x74>)
   b5c32:	f7ff fd67 	bl	b5704 <_Z17restartSleepTimerPKc>
  cmd.trim();
   b5c36:	4620      	mov	r0, r4
   b5c38:	f002 f85b 	bl	b7cf2 <_ZN6String4trimEv>
  float v = atof(cmd.c_str());
   b5c3c:	6820      	ldr	r0, [r4, #0]
   b5c3e:	f004 fcd5 	bl	ba5ec <atof>
   b5c42:	ec51 0b10 	vmov	r0, r1, d0
   b5c46:	f7fe fe41 	bl	b48cc <__aeabi_d2f>
   b5c4a:	ee07 0a90 	vmov	s15, r0
  if (v != v || v < FLOW_CAL_MIN || v > FLOW_CAL_MAX) return -1;
   b5c4e:	eef4 7a67 	vcmp.f32	s15, s15
   b5c52:	eef1 fa10 	vmrs	APSR_nzcv, fpscr
   b5c56:	d11f      	bne.n	b5c98 <_Z10setFlowCal6String+0x6c>
   b5c58:	eeb6 7a00 	vmov.f32	s14, #96	; 0x3f000000  0.5
   b5c5c:	eef4 7ac7 	vcmpe.f32	s15, s14
   b5c60:	eef1 fa10 	vmrs	APSR_nzcv, fpscr
   b5c64:	d418      	bmi.n	b5c98 <_Z10setFlowCal6String+0x6c>
   b5c66:	eeb0 7a00 	vmov.f32	s14, #0	; 0x40000000  2.0
   b5c6a:	eef4 7ac7 	vcmpe.f32	s15, s14
   b5c6e:	eef1 fa10 	vmrs	APSR_nzcv, fpscr
   b5c72:	dc11      	bgt.n	b5c98 <_Z10setFlowCal6String+0x6c>
  flowCalScale = v; saveFlowCal(); syncBackupRam(); triggerPublish = true;
   b5c74:	4d0b      	ldr	r5, [pc, #44]	; (b5ca4 <_Z10setFlowCal6String+0x78>)
   b5c76:	6028      	str	r0, [r5, #0]
   b5c78:	f7ff fb80 	bl	b537c <_Z11saveFlowCalv>
   b5c7c:	4b0a      	ldr	r3, [pc, #40]	; (b5ca8 <_Z10setFlowCal6String+0x7c>)
  Log.info("FLOW_CAL set %.4f", flowCalScale);
   b5c7e:	6828      	ldr	r0, [r5, #0]
  flowCalScale = v; saveFlowCal(); syncBackupRam(); triggerPublish = true;
   b5c80:	2401      	movs	r4, #1
   b5c82:	701c      	strb	r4, [r3, #0]
  Log.info("FLOW_CAL set %.4f", flowCalScale);
   b5c84:	f7fe fb30 	bl	b42e8 <__aeabi_f2d>
   b5c88:	4602      	mov	r2, r0
   b5c8a:	460b      	mov	r3, r1
   b5c8c:	4807      	ldr	r0, [pc, #28]	; (b5cac <_Z10setFlowCal6String+0x80>)
   b5c8e:	4908      	ldr	r1, [pc, #32]	; (b5cb0 <_Z10setFlowCal6String+0x84>)
   b5c90:	f7ff fa7b 	bl	b518a <_ZNK5spark6Logger4infoEPKcz>
  return 1;
   b5c94:	4620      	mov	r0, r4
}
   b5c96:	bd38      	pop	{r3, r4, r5, pc}
  if (v != v || v < FLOW_CAL_MIN || v > FLOW_CAL_MAX) return -1;
   b5c98:	f04f 30ff 	mov.w	r0, #4294967295
   b5c9c:	e7fb      	b.n	b5c96 <_Z10setFlowCal6String+0x6a>
   b5c9e:	bf00      	nop
   b5ca0:	000bca42 	.word	0x000bca42
   b5ca4:	2003f400 	.word	0x2003f400
   b5ca8:	2003d52c 	.word	0x2003d52c
   b5cac:	2003e658 	.word	0x2003e658
   b5cb0:	000bca4d 	.word	0x000bca4d

000b5cb4 <_Z9setConfig6String>:
int setConfig(String cmd) {
   b5cb4:	e92d 43f0 	stmdb	sp!, {r4, r5, r6, r7, r8, r9, lr}
   b5cb8:	ed2d 8b02 	vpush	{d8}
   b5cbc:	4604      	mov	r4, r0
   b5cbe:	b08b      	sub	sp, #44	; 0x2c
  restartSleepTimer("setConfig");
   b5cc0:	4864      	ldr	r0, [pc, #400]	; (b5e54 <_Z9setConfig6String+0x1a0>)
   b5cc2:	f7ff fd1f 	bl	b5704 <_Z17restartSleepTimerPKc>
  cmd.trim();
   b5cc6:	4620      	mov	r0, r4
   b5cc8:	f002 f813 	bl	b7cf2 <_ZN6String4trimEv>
  int c1 = cmd.indexOf(','), c2 = cmd.indexOf(',', c1 + 1), c3 = cmd.indexOf(',', c2 + 1);
   b5ccc:	212c      	movs	r1, #44	; 0x2c
   b5cce:	4620      	mov	r0, r4
   b5cd0:	f001 ffd6 	bl	b7c80 <_ZNK6String7indexOfEc>
   b5cd4:	f100 0901 	add.w	r9, r0, #1
   b5cd8:	4607      	mov	r7, r0
   b5cda:	464a      	mov	r2, r9
   b5cdc:	212c      	movs	r1, #44	; 0x2c
   b5cde:	4620      	mov	r0, r4
   b5ce0:	f001 ffc0 	bl	b7c64 <_ZNK6String7indexOfEcj>
   b5ce4:	f100 0801 	add.w	r8, r0, #1
   b5ce8:	4605      	mov	r5, r0
   b5cea:	4642      	mov	r2, r8
   b5cec:	212c      	movs	r1, #44	; 0x2c
   b5cee:	4620      	mov	r0, r4
   b5cf0:	f001 ffb8 	bl	b7c64 <_ZNK6String7indexOfEcj>
  if (c1 < 0 || c2 < 0 || c3 < 0) { Log.warn("setConfig: need 4 CSV values"); return -1; }
   b5cf4:	2f00      	cmp	r7, #0
  int c1 = cmd.indexOf(','), c2 = cmd.indexOf(',', c1 + 1), c3 = cmd.indexOf(',', c2 + 1);
   b5cf6:	4606      	mov	r6, r0
  if (c1 < 0 || c2 < 0 || c3 < 0) { Log.warn("setConfig: need 4 CSV values"); return -1; }
   b5cf8:	db03      	blt.n	b5d02 <_Z9setConfig6String+0x4e>
   b5cfa:	2d00      	cmp	r5, #0
   b5cfc:	db01      	blt.n	b5d02 <_Z9setConfig6String+0x4e>
   b5cfe:	2800      	cmp	r0, #0
   b5d00:	da0a      	bge.n	b5d18 <_Z9setConfig6String+0x64>
   b5d02:	4855      	ldr	r0, [pc, #340]	; (b5e58 <_Z9setConfig6String+0x1a4>)
   b5d04:	4955      	ldr	r1, [pc, #340]	; (b5e5c <_Z9setConfig6String+0x1a8>)
   b5d06:	f7ff fa4e 	bl	b51a6 <_ZNK5spark6Logger4warnEPKcz>
   b5d0a:	f04f 30ff 	mov.w	r0, #4294967295
}
   b5d0e:	b00b      	add	sp, #44	; 0x2c
   b5d10:	ecbd 8b02 	vpop	{d8}
   b5d14:	e8bd 83f0 	ldmia.w	sp!, {r4, r5, r6, r7, r8, r9, pc}
  float   leak = atof(cmd.substring(0, c1).c_str());
   b5d18:	463b      	mov	r3, r7
   b5d1a:	2200      	movs	r2, #0
   b5d1c:	4621      	mov	r1, r4
   b5d1e:	a806      	add	r0, sp, #24
   b5d20:	f001 ffb2 	bl	b7c88 <_ZNK6String9substringEjj>
   b5d24:	9806      	ldr	r0, [sp, #24]
   b5d26:	f004 fc61 	bl	ba5ec <atof>
   b5d2a:	ec51 0b10 	vmov	r0, r1, d0
   b5d2e:	f7fe fdcd 	bl	b48cc <__aeabi_d2f>
   b5d32:	ee08 0a90 	vmov	s17, r0
   b5d36:	a806      	add	r0, sp, #24
   b5d38:	f001 fee0 	bl	b7afc <_ZN6StringD1Ev>
  float   vol  = atof(cmd.substring(c1 + 1, c2).c_str());
   b5d3c:	462b      	mov	r3, r5
   b5d3e:	464a      	mov	r2, r9
   b5d40:	4621      	mov	r1, r4
   b5d42:	a806      	add	r0, sp, #24
   b5d44:	f001 ffa0 	bl	b7c88 <_ZNK6String9substringEjj>
   b5d48:	9806      	ldr	r0, [sp, #24]
   b5d4a:	f004 fc4f 	bl	ba5ec <atof>
   b5d4e:	ec51 0b10 	vmov	r0, r1, d0
   b5d52:	f7fe fdbb 	bl	b48cc <__aeabi_d2f>
   b5d56:	ee08 0a10 	vmov	s16, r0
   b5d5a:	a806      	add	r0, sp, #24
   b5d5c:	f001 fece 	bl	b7afc <_ZN6StringD1Ev>
  int     aut  = atoi(cmd.substring(c2 + 1, c3).c_str());
   b5d60:	4633      	mov	r3, r6
   b5d62:	4642      	mov	r2, r8
   b5d64:	4621      	mov	r1, r4
   b5d66:	a806      	add	r0, sp, #24
   b5d68:	f001 ff8e 	bl	b7c88 <_ZNK6String9substringEjj>
   b5d6c:	9806      	ldr	r0, [sp, #24]
   b5d6e:	f004 fc40 	bl	ba5f2 <atoi>
   b5d72:	4605      	mov	r5, r0
   b5d74:	a806      	add	r0, sp, #24
   b5d76:	f001 fec1 	bl	b7afc <_ZN6StringD1Ev>
  int     alt  = atoi(cmd.substring(c3 + 1).c_str());
   b5d7a:	1c72      	adds	r2, r6, #1
   b5d7c:	4621      	mov	r1, r4
   b5d7e:	a806      	add	r0, sp, #24
   b5d80:	f001 ffa2 	bl	b7cc8 <_ZNK6String9substringEj>
   b5d84:	9806      	ldr	r0, [sp, #24]
   b5d86:	f004 fc34 	bl	ba5f2 <atoi>
   b5d8a:	4606      	mov	r6, r0
   b5d8c:	a806      	add	r0, sp, #24
   b5d8e:	f001 feb5 	bl	b7afc <_ZN6StringD1Ev>
  if (leak < CFG_LEAK_GPM_MIN || leak > CFG_LEAK_GPM_MAX) return -2;
   b5d92:	eddf 7a33 	vldr	s15, [pc, #204]	; b5e60 <_Z9setConfig6String+0x1ac>
   b5d96:	eef4 8ae7 	vcmpe.f32	s17, s15
   b5d9a:	eef1 fa10 	vmrs	APSR_nzcv, fpscr
   b5d9e:	d44c      	bmi.n	b5e3a <_Z9setConfig6String+0x186>
   b5da0:	eddf 7a30 	vldr	s15, [pc, #192]	; b5e64 <_Z9setConfig6String+0x1b0>
   b5da4:	eef4 8ae7 	vcmpe.f32	s17, s15
   b5da8:	eef1 fa10 	vmrs	APSR_nzcv, fpscr
   b5dac:	dc45      	bgt.n	b5e3a <_Z9setConfig6String+0x186>
  if (vol  < CFG_SHUTOFF_MIN  || vol  > CFG_SHUTOFF_MAX)  return -3;
   b5dae:	eef7 7a00 	vmov.f32	s15, #112	; 0x3f800000  1.0
   b5db2:	eeb4 8ae7 	vcmpe.f32	s16, s15
   b5db6:	eef1 fa10 	vmrs	APSR_nzcv, fpscr
   b5dba:	d441      	bmi.n	b5e40 <_Z9setConfig6String+0x18c>
   b5dbc:	eddf 7a2a 	vldr	s15, [pc, #168]	; b5e68 <_Z9setConfig6String+0x1b4>
   b5dc0:	eeb4 8ae7 	vcmpe.f32	s16, s15
   b5dc4:	eef1 fa10 	vmrs	APSR_nzcv, fpscr
   b5dc8:	dc3a      	bgt.n	b5e40 <_Z9setConfig6String+0x18c>
  if (aut < 0 || aut > 1)  return -4;
   b5dca:	2d01      	cmp	r5, #1
   b5dcc:	d83b      	bhi.n	b5e46 <_Z9setConfig6String+0x192>
  if (alt < 0 || alt > 2)  return -5;
   b5dce:	2e02      	cmp	r6, #2
   b5dd0:	d83c      	bhi.n	b5e4c <_Z9setConfig6String+0x198>
  appConfig.leakThreshGpm = leak;
   b5dd2:	4c26      	ldr	r4, [pc, #152]	; (b5e6c <_Z9setConfig6String+0x1b8>)
   b5dd4:	edc4 8a01 	vstr	s17, [r4, #4]
  appConfig.shutoffVolGal = vol;
   b5dd8:	ed84 8a02 	vstr	s16, [r4, #8]
  appConfig.autoShutoff   = (uint8_t)aut;
   b5ddc:	7325      	strb	r5, [r4, #12]
  appConfig.alertMode     = (uint8_t)alt;
   b5dde:	7366      	strb	r6, [r4, #13]
  saveConfig(); syncBackupRam();
   b5de0:	f7ff fb22 	bl	b5428 <_Z10saveConfigv>
  triggerPublish = true;
   b5de4:	4a22      	ldr	r2, [pc, #136]	; (b5e70 <_Z9setConfig6String+0x1bc>)
  picConfigDirty = true;          // push to PIC on next contact
   b5de6:	2301      	movs	r3, #1
  triggerPublish = true;
   b5de8:	7013      	strb	r3, [r2, #0]
  picConfigDirty = true;          // push to PIC on next contact
   b5dea:	f884 3088 	strb.w	r3, [r4, #136]	; 0x88
  Log.info("CFG set leak=%.2f vol=%.1f auto=%d alert=%d", leak, vol, aut, alt);
   b5dee:	ee18 0a90 	vmov	r0, s17
   b5df2:	f7fe fa79 	bl	b42e8 <__aeabi_f2d>
   b5df6:	4602      	mov	r2, r0
   b5df8:	460b      	mov	r3, r1
   b5dfa:	ee18 0a10 	vmov	r0, s16
   b5dfe:	e9cd 2304 	strd	r2, r3, [sp, #16]
   b5e02:	e9cd 5602 	strd	r5, r6, [sp, #8]
   b5e06:	f7fe fa6f 	bl	b42e8 <__aeabi_f2d>
   b5e0a:	e9dd 2304 	ldrd	r2, r3, [sp, #16]
   b5e0e:	e9cd 0100 	strd	r0, r1, [sp]
   b5e12:	4811      	ldr	r0, [pc, #68]	; (b5e58 <_Z9setConfig6String+0x1a4>)
   b5e14:	4917      	ldr	r1, [pc, #92]	; (b5e74 <_Z9setConfig6String+0x1c0>)
   b5e16:	f7ff f9b8 	bl	b518a <_ZNK5spark6Logger4infoEPKcz>
  if (picLink.wakeIsHigh() && picLink.pushConfig(appConfig)) picConfigDirty = false;
   b5e1a:	4817      	ldr	r0, [pc, #92]	; (b5e78 <_Z9setConfig6String+0x1c4>)
   b5e1c:	f000 fec6 	bl	b6bac <_ZN7PicLink10wakeIsHighEv>
   b5e20:	b908      	cbnz	r0, b5e26 <_Z9setConfig6String+0x172>
  return 1;
   b5e22:	2001      	movs	r0, #1
   b5e24:	e773      	b.n	b5d0e <_Z9setConfig6String+0x5a>
  if (picLink.wakeIsHigh() && picLink.pushConfig(appConfig)) picConfigDirty = false;
   b5e26:	4915      	ldr	r1, [pc, #84]	; (b5e7c <_Z9setConfig6String+0x1c8>)
   b5e28:	4813      	ldr	r0, [pc, #76]	; (b5e78 <_Z9setConfig6String+0x1c4>)
   b5e2a:	f000 ff9b 	bl	b6d64 <_ZN7PicLink10pushConfigERK9AppConfig>
   b5e2e:	2800      	cmp	r0, #0
   b5e30:	d0f7      	beq.n	b5e22 <_Z9setConfig6String+0x16e>
   b5e32:	2300      	movs	r3, #0
   b5e34:	f884 3088 	strb.w	r3, [r4, #136]	; 0x88
   b5e38:	e7f3      	b.n	b5e22 <_Z9setConfig6String+0x16e>
  if (leak < CFG_LEAK_GPM_MIN || leak > CFG_LEAK_GPM_MAX) return -2;
   b5e3a:	f06f 0001 	mvn.w	r0, #1
   b5e3e:	e766      	b.n	b5d0e <_Z9setConfig6String+0x5a>
  if (vol  < CFG_SHUTOFF_MIN  || vol  > CFG_SHUTOFF_MAX)  return -3;
   b5e40:	f06f 0002 	mvn.w	r0, #2
   b5e44:	e763      	b.n	b5d0e <_Z9setConfig6String+0x5a>
  if (aut < 0 || aut > 1)  return -4;
   b5e46:	f06f 0003 	mvn.w	r0, #3
   b5e4a:	e760      	b.n	b5d0e <_Z9setConfig6String+0x5a>
  if (alt < 0 || alt > 2)  return -5;
   b5e4c:	f06f 0004 	mvn.w	r0, #4
   b5e50:	e75d      	b.n	b5d0e <_Z9setConfig6String+0x5a>
   b5e52:	bf00      	nop
   b5e54:	000bca5f 	.word	0x000bca5f
   b5e58:	2003e658 	.word	0x2003e658
   b5e5c:	000bca69 	.word	0x000bca69
   b5e60:	3dcccccd 	.word	0x3dcccccd
   b5e64:	43480000 	.word	0x43480000
   b5e68:	447a0000 	.word	0x447a0000
   b5e6c:	2003f400 	.word	0x2003f400
   b5e70:	2003d52c 	.word	0x2003d52c
   b5e74:	000bca86 	.word	0x000bca86
   b5e78:	2003d504 	.word	0x2003d504
   b5e7c:	2003f404 	.word	0x2003f404

000b5e80 <_Z8runSleepv>:

void runSleep() {
   b5e80:	b570      	push	{r4, r5, r6, lr}
  if (imu_data.leaking || imu_data.shutoff) return;   // stay awake on alarm
   b5e82:	4b66      	ldr	r3, [pc, #408]	; (b601c <_Z8runSleepv+0x19c>)
   b5e84:	791a      	ldrb	r2, [r3, #4]
void runSleep() {
   b5e86:	b08a      	sub	sp, #40	; 0x28
  if (imu_data.leaking || imu_data.shutoff) return;   // stay awake on alarm
   b5e88:	2a00      	cmp	r2, #0
   b5e8a:	f040 80c4 	bne.w	b6016 <_Z8runSleepv+0x196>
   b5e8e:	795b      	ldrb	r3, [r3, #5]
   b5e90:	2b00      	cmp	r3, #0
   b5e92:	f040 80c0 	bne.w	b6016 <_Z8runSleepv+0x196>
  if (triggerState) return;                            // stay awake while flowing
   b5e96:	4b62      	ldr	r3, [pc, #392]	; (b6020 <_Z8runSleepv+0x1a0>)
   b5e98:	f893 3089 	ldrb.w	r3, [r3, #137]	; 0x89
   b5e9c:	2b00      	cmp	r3, #0
   b5e9e:	f040 80ba 	bne.w	b6016 <_Z8runSleepv+0x196>

  unsigned long now = millis();
  unsigned long awake = now - lastWakeTime;
  if (sleepCycleCount == 0 && (now - sleepStart) < WAKE_WINDOW_MS) return;
   b5ea2:	4e60      	ldr	r6, [pc, #384]	; (b6024 <_Z8runSleepv+0x1a4>)
   b5ea4:	f001 f9b0 	bl	b7208 <HAL_Timer_Get_Milli_Seconds>
   b5ea8:	6833      	ldr	r3, [r6, #0]
   b5eaa:	2b00      	cmp	r3, #0
   b5eac:	d129      	bne.n	b5f02 <_Z8runSleepv+0x82>
   b5eae:	4a5e      	ldr	r2, [pc, #376]	; (b6028 <_Z8runSleepv+0x1a8>)
  unsigned long awake = now - lastWakeTime;
   b5eb0:	6812      	ldr	r2, [r2, #0]
   b5eb2:	1a80      	subs	r0, r0, r2
  if (sleepCycleCount  > 0 && awake < WAKE_WINDOW_MS) return;
   b5eb4:	f64e 225f 	movw	r2, #59999	; 0xea5f
   b5eb8:	4290      	cmp	r0, r2
   b5eba:	f240 80ac 	bls.w	b6016 <_Z8runSleepv+0x196>

  sleepCycleCount++;
   b5ebe:	3301      	adds	r3, #1
   b5ec0:	6033      	str	r3, [r6, #0]
  persistAll();   // flush RAM buffers before we risk a reset on wake
   b5ec2:	f7ff f9bb 	bl	b523c <_Z10persistAllv>
        reconnect_(reconnect) {
   b5ec6:	2300      	movs	r3, #0

  Particle.disconnect();
   b5ec8:	a804      	add	r0, sp, #16
   b5eca:	e9cd 3304 	strd	r3, r3, [sp, #16]
        bool clearSession, bool reconnect) :
   b5ece:	f8ad 3018 	strh.w	r3, [sp, #24]
        reconnect_(reconnect) {
   b5ed2:	f88d 301a 	strb.w	r3, [sp, #26]
   b5ed6:	f003 f9ea 	bl	b92ae <_ZN10CloudClass10disconnectERK22CloudDisconnectOptions>
        const system_tick_t start = millis();
   b5eda:	f7ff f941 	bl	b5160 <_ZN11SystemClass6millisEv>
        while (_while() && !_condition()) {
   b5ede:	f241 3588 	movw	r5, #5000	; 0x1388
        const system_tick_t start = millis();
   b5ee2:	4604      	mov	r4, r0
        return waitConditionWhile(_condition, [=]{ return (millis()-start)<timeout; });
   b5ee4:	f7ff f93c 	bl	b5160 <_ZN11SystemClass6millisEv>
   b5ee8:	1b00      	subs	r0, r0, r4
   b5eea:	f161 0100 	sbc.w	r1, r1, #0
        while (_while() && !_condition()) {
   b5eee:	42a8      	cmp	r0, r5
   b5ef0:	f171 0300 	sbcs.w	r3, r1, #0
   b5ef4:	d208      	bcs.n	b5f08 <_Z8runSleepv+0x88>
    static bool connected(void) { return spark_cloud_flag_connected(); }
   b5ef6:	f001 fc7d 	bl	b77f4 <spark_cloud_flag_connected>
   b5efa:	b128      	cbz	r0, b5f08 <_Z8runSleepv+0x88>
            spark_process();
   b5efc:	f001 fc6a 	bl	b77d4 <spark_process>
        while (_while() && !_condition()) {
   b5f00:	e7f0      	b.n	b5ee4 <_Z8runSleepv+0x64>
  if (sleepCycleCount  > 0 && awake < WAKE_WINDOW_MS) return;
   b5f02:	dddc      	ble.n	b5ebe <_Z8runSleepv+0x3e>
  unsigned long awake = now - lastWakeTime;
   b5f04:	4a49      	ldr	r2, [pc, #292]	; (b602c <_Z8runSleepv+0x1ac>)
   b5f06:	e7d3      	b.n	b5eb0 <_Z8runSleepv+0x30>
   b5f08:	f001 fc74 	bl	b77f4 <spark_cloud_flag_connected>
        network_off(*this, 0, 0, NULL);
   b5f0c:	4848      	ldr	r0, [pc, #288]	; (b6030 <_Z8runSleepv+0x1b0>)
   b5f0e:	2300      	movs	r3, #0
   b5f10:	461a      	mov	r2, r3
   b5f12:	4619      	mov	r1, r3
   b5f14:	6840      	ldr	r0, [r0, #4]
   b5f16:	f001 fbfd 	bl	b7714 <network_off>
        : config_(config) {
   b5f1a:	ab05      	add	r3, sp, #20
   b5f1c:	9304      	str	r3, [sp, #16]
              valid_(true) {
   b5f1e:	2300      	movs	r3, #0
   b5f20:	e9cd 3306 	strd	r3, r3, [sp, #24]
   b5f24:	9308      	str	r3, [sp, #32]
        config_.size = sizeof(hal_sleep_config_t);
   b5f26:	2310      	movs	r3, #16
            config_.mode = static_cast<hal_sleep_mode_t>(mode);
   b5f28:	2202      	movs	r2, #2
              valid_(true) {
   b5f2a:	2401      	movs	r4, #1
        config_.size = sizeof(hal_sleep_config_t);
   b5f2c:	f8ad 3014 	strh.w	r3, [sp, #20]
  Cellular.off();
#endif

  SystemSleepConfiguration cfg;
  cfg.mode(SystemSleepMode::ULTRA_LOW_POWER)
     .gpio(MODE_PIN, FALLING)        // button
   b5f30:	2112      	movs	r1, #18
        config_.version = HAL_SLEEP_VERSION;
   b5f32:	2303      	movs	r3, #3
   b5f34:	a804      	add	r0, sp, #16
   b5f36:	f8ad 3016 	strh.w	r3, [sp, #22]
            config_.mode = static_cast<hal_sleep_mode_t>(mode);
   b5f3a:	f88d 2018 	strb.w	r2, [sp, #24]
              valid_(true) {
   b5f3e:	f88d 4024 	strb.w	r4, [sp, #36]	; 0x24
   b5f42:	f7ff f8d9 	bl	b50f8 <_ZN8particle24SystemSleepConfiguration4gpioEt13InterruptMode>
     .gpio(PIC_WAKE_PIN, RISING)     // PIC says "I have data"
   b5f46:	4622      	mov	r2, r4
   b5f48:	210a      	movs	r1, #10
   b5f4a:	f7ff f8d5 	bl	b50f8 <_ZN8particle24SystemSleepConfiguration4gpioEt13InterruptMode>
        }
        return *this;
    }

    SystemSleepConfiguration& duration(system_tick_t ms) {
        if (valid_) {
   b5f4e:	7d03      	ldrb	r3, [r0, #20]
   b5f50:	4605      	mov	r5, r0
   b5f52:	b1db      	cbz	r3, b5f8c <_Z8runSleepv+0x10c>
        return wakeupSourceFeatured(type, config_->wakeup_sources);
   b5f54:	6803      	ldr	r3, [r0, #0]
   b5f56:	68db      	ldr	r3, [r3, #12]
        if (!start) {
   b5f58:	b123      	cbz	r3, b5f64 <_Z8runSleepv+0xe4>
            if (start->type == type) {
   b5f5a:	889a      	ldrh	r2, [r3, #4]
   b5f5c:	2a04      	cmp	r2, #4
   b5f5e:	d057      	beq.n	b6010 <_Z8runSleepv+0x190>
            start = start->next;
   b5f60:	689b      	ldr	r3, [r3, #8]
        while (start) {
   b5f62:	e7f9      	b.n	b5f58 <_Z8runSleepv+0xd8>
            }
            // Otherwise, configure RTC as wakeup source.
#if HAL_PLATFORM_RTL872X
            auto wakeupSource = (hal_wakeup_source_rtc_t*)system_pool_alloc(sizeof(hal_wakeup_source_rtc_t), nullptr);
#else
            auto wakeupSource = new(std::nothrow) hal_wakeup_source_rtc_t();
   b5f64:	4933      	ldr	r1, [pc, #204]	; (b6034 <_Z8runSleepv+0x1b4>)
   b5f66:	2010      	movs	r0, #16
   b5f68:	f004 fac0 	bl	ba4ec <_ZnwjRKSt9nothrow_t>
   b5f6c:	4604      	mov	r4, r0
   b5f6e:	2800      	cmp	r0, #0
   b5f70:	d04c      	beq.n	b600c <_Z8runSleepv+0x18c>
   b5f72:	2210      	movs	r2, #16
   b5f74:	2100      	movs	r1, #0
   b5f76:	f004 fb79 	bl	ba66c <memset>
#endif
            if (!wakeupSource) {
                valid_ = false;
                return *this;
            }
            wakeupSource->base.size = sizeof(hal_wakeup_source_rtc_t);
   b5f7a:	4b2f      	ldr	r3, [pc, #188]	; (b6038 <_Z8runSleepv+0x1b8>)
   b5f7c:	6023      	str	r3, [r4, #0]
            wakeupSource->base.version = HAL_SLEEP_VERSION;
            wakeupSource->base.type = HAL_WAKEUP_SOURCE_TYPE_RTC;
   b5f7e:	2304      	movs	r3, #4
   b5f80:	80a3      	strh	r3, [r4, #4]
            wakeupSource->base.next = config_.wakeup_sources;
   b5f82:	692b      	ldr	r3, [r5, #16]
   b5f84:	60a3      	str	r3, [r4, #8]
            wakeupSource->ms = ms;
   b5f86:	4b2d      	ldr	r3, [pc, #180]	; (b603c <_Z8runSleepv+0x1bc>)
   b5f88:	60e3      	str	r3, [r4, #12]
            config_.wakeup_sources = reinterpret_cast<hal_wakeup_source_base_t*>(wakeupSource);
   b5f8a:	612c      	str	r4, [r5, #16]
     .duration(SLEEP_DURATION_S * 1000);   // 24 h cap

  Log.info("SLEEP: #%d for up to %lu s", sleepCycleCount, (unsigned long)SLEEP_DURATION_S);
   b5f8c:	4b2c      	ldr	r3, [pc, #176]	; (b6040 <_Z8runSleepv+0x1c0>)
   b5f8e:	6832      	ldr	r2, [r6, #0]
   b5f90:	492c      	ldr	r1, [pc, #176]	; (b6044 <_Z8runSleepv+0x1c4>)
   b5f92:	482d      	ldr	r0, [pc, #180]	; (b6048 <_Z8runSleepv+0x1c8>)
   b5f94:	4c2d      	ldr	r4, [pc, #180]	; (b604c <_Z8runSleepv+0x1cc>)
   b5f96:	f7ff f8f8 	bl	b518a <_ZNK5spark6Logger4infoEPKcz>
  SystemSleepResult r = System.sleep(cfg);
   b5f9a:	a904      	add	r1, sp, #16
   b5f9c:	a801      	add	r0, sp, #4
   b5f9e:	f001 fd29 	bl	b79f4 <_ZN11SystemClass5sleepERKN8particle24SystemSleepConfigurationE>
   b5fa2:	f001 f931 	bl	b7208 <HAL_Timer_Get_Milli_Seconds>

  lastWakeTime = millis();
   b5fa6:	4b21      	ldr	r3, [pc, #132]	; (b602c <_Z8runSleepv+0x1ac>)
   b5fa8:	6018      	str	r0, [r3, #0]
void changeState(SystemState s) { currentState = s; }
   b5faa:	4b29      	ldr	r3, [pc, #164]	; (b6050 <_Z8runSleepv+0x1d0>)
   b5fac:	2202      	movs	r2, #2
   b5fae:	701a      	strb	r2, [r3, #0]
        if (wakeupReason() == SystemSleepWakeupReason::BY_GPIO) {
   b5fb0:	9b01      	ldr	r3, [sp, #4]
        if (wakeupSource_) {
   b5fb2:	b313      	cbz	r3, b5ffa <_Z8runSleepv+0x17a>
        if (wakeupReason() == SystemSleepWakeupReason::BY_GPIO) {
   b5fb4:	889d      	ldrh	r5, [r3, #4]
   b5fb6:	2d01      	cmp	r5, #1
   b5fb8:	d11f      	bne.n	b5ffa <_Z8runSleepv+0x17a>
            return reinterpret_cast<hal_wakeup_source_gpio_t*>(wakeupSource_)->pin;
   b5fba:	899b      	ldrh	r3, [r3, #12]
  changeState(STATE_MONITORING);

  if (r.wakeupPin() == PIC_WAKE_PIN) {
   b5fbc:	2b0a      	cmp	r3, #10
   b5fbe:	d109      	bne.n	b5fd4 <_Z8runSleepv+0x154>
    // PIC-initiated: pull data, DO NOT connect to cloud (TODO #4).
    Log.info("WAKE: PIC -> offload only");
   b5fc0:	4924      	ldr	r1, [pc, #144]	; (b6054 <_Z8runSleepv+0x1d4>)
   b5fc2:	4821      	ldr	r0, [pc, #132]	; (b6048 <_Z8runSleepv+0x1c8>)
   b5fc4:	f7ff f8e1 	bl	b518a <_ZNK5spark6Logger4infoEPKcz>
    serviceMeterFromPic(true);
   b5fc8:	4628      	mov	r0, r5
   b5fca:	f7ff fd19 	bl	b5a00 <_Z19serviceMeterFromPicb>
    triggerPublish = false;
   b5fce:	2300      	movs	r3, #0
    triggerPublish = true;
  } else {
    // 24 h timer wake -> this is the once-a-day cloud sync.
    Log.info("WAKE: 24h timer -> daily cloud sync");
    serviceMeterFromPic(false);     // grab anything the PIC still holds
    triggerPublish = true;
   b5fd0:	7023      	strb	r3, [r4, #0]
   b5fd2:	e006      	b.n	b5fe2 <_Z8runSleepv+0x162>
  } else if (r.wakeupPin() == MODE_PIN) {
   b5fd4:	2b12      	cmp	r3, #18
   b5fd6:	d110      	bne.n	b5ffa <_Z8runSleepv+0x17a>
    Log.info("WAKE: button -> publish");
   b5fd8:	491f      	ldr	r1, [pc, #124]	; (b6058 <_Z8runSleepv+0x1d8>)
   b5fda:	481b      	ldr	r0, [pc, #108]	; (b6048 <_Z8runSleepv+0x1c8>)
   b5fdc:	f7ff f8d5 	bl	b518a <_ZNK5spark6Logger4infoEPKcz>
    triggerPublish = true;
   b5fe0:	7025      	strb	r5, [r4, #0]
        if (wakeupSource_) {
   b5fe2:	9801      	ldr	r0, [sp, #4]
   b5fe4:	b108      	cbz	r0, b5fea <_Z8runSleepv+0x16a>
            free(wakeupSource_);
   b5fe6:	f001 fc35 	bl	b7854 <free>
        auto wakeupSource = config_.wakeup_sources;
   b5fea:	9808      	ldr	r0, [sp, #32]
        while (wakeupSource) {
   b5fec:	b198      	cbz	r0, b6016 <_Z8runSleepv+0x196>
            auto next = wakeupSource->next;
   b5fee:	6884      	ldr	r4, [r0, #8]
            delete wakeupSource;
   b5ff0:	210c      	movs	r1, #12
   b5ff2:	f7fe ff18 	bl	b4e26 <_ZdlPvj>
            wakeupSource = next;
   b5ff6:	4620      	mov	r0, r4
        while (wakeupSource) {
   b5ff8:	e7f8      	b.n	b5fec <_Z8runSleepv+0x16c>
    Log.info("WAKE: 24h timer -> daily cloud sync");
   b5ffa:	4918      	ldr	r1, [pc, #96]	; (b605c <_Z8runSleepv+0x1dc>)
   b5ffc:	4812      	ldr	r0, [pc, #72]	; (b6048 <_Z8runSleepv+0x1c8>)
   b5ffe:	f7ff f8c4 	bl	b518a <_ZNK5spark6Logger4infoEPKcz>
    serviceMeterFromPic(false);     // grab anything the PIC still holds
   b6002:	2000      	movs	r0, #0
   b6004:	f7ff fcfc 	bl	b5a00 <_Z19serviceMeterFromPicb>
    triggerPublish = true;
   b6008:	2301      	movs	r3, #1
   b600a:	e7e1      	b.n	b5fd0 <_Z8runSleepv+0x150>
                valid_ = false;
   b600c:	7528      	strb	r0, [r5, #20]
                return *this;
   b600e:	e7bd      	b.n	b5f8c <_Z8runSleepv+0x10c>
                reinterpret_cast<hal_wakeup_source_rtc_t*>(wakeup)->ms = ms;
   b6010:	4a0a      	ldr	r2, [pc, #40]	; (b603c <_Z8runSleepv+0x1bc>)
   b6012:	60da      	str	r2, [r3, #12]
                return *this;
   b6014:	e7ba      	b.n	b5f8c <_Z8runSleepv+0x10c>
  }
}
   b6016:	b00a      	add	sp, #40	; 0x28
   b6018:	bd70      	pop	{r4, r5, r6, pc}
   b601a:	bf00      	nop
   b601c:	2003d4a8 	.word	0x2003d4a8
   b6020:	2003f400 	.word	0x2003f400
   b6024:	2003d524 	.word	0x2003d524
   b6028:	2003d528 	.word	0x2003d528
   b602c:	2003d4dc 	.word	0x2003d4dc
   b6030:	2003e70c 	.word	0x2003e70c
   b6034:	000bd060 	.word	0x000bd060
   b6038:	00030010 	.word	0x00030010
   b603c:	05265c00 	.word	0x05265c00
   b6040:	00015180 	.word	0x00015180
   b6044:	000bcab2 	.word	0x000bcab2
   b6048:	2003e658 	.word	0x2003e658
   b604c:	2003d52c 	.word	0x2003d52c
   b6050:	2003d4a4 	.word	0x2003d4a4
   b6054:	000bcacd 	.word	0x000bcacd
   b6058:	000bcae7 	.word	0x000bcae7
   b605c:	000bcaff 	.word	0x000bcaff

000b6060 <_Z16handleConnectingv>:

// =============================================================== State machine
void handleConnecting() {
   b6060:	b508      	push	{r3, lr}
#if USE_WIFI
  if (WiFi.ready() && Particle.connected()) { changeState(STATE_MONITORING); triggerPublish = true; }
   b6062:	4807      	ldr	r0, [pc, #28]	; (b6080 <_Z16handleConnectingv+0x20>)
   b6064:	f7ff f843 	bl	b50ee <_ZN5spark9WiFiClass5readyEv>
   b6068:	b140      	cbz	r0, b607c <_Z16handleConnectingv+0x1c>
   b606a:	f001 fbc3 	bl	b77f4 <spark_cloud_flag_connected>
   b606e:	b128      	cbz	r0, b607c <_Z16handleConnectingv+0x1c>
void changeState(SystemState s) { currentState = s; }
   b6070:	4b04      	ldr	r3, [pc, #16]	; (b6084 <_Z16handleConnectingv+0x24>)
   b6072:	2202      	movs	r2, #2
   b6074:	701a      	strb	r2, [r3, #0]
  if (WiFi.ready() && Particle.connected()) { changeState(STATE_MONITORING); triggerPublish = true; }
   b6076:	4b04      	ldr	r3, [pc, #16]	; (b6088 <_Z16handleConnectingv+0x28>)
   b6078:	2201      	movs	r2, #1
   b607a:	701a      	strb	r2, [r3, #0]
#elif USE_CELLULAR
  if (Cellular.ready() && Particle.connected()) { changeState(STATE_MONITORING); triggerPublish = true; }
#endif
}
   b607c:	bd08      	pop	{r3, pc}
   b607e:	bf00      	nop
   b6080:	2003e70c 	.word	0x2003e70c
   b6084:	2003d4a4 	.word	0x2003d4a4
   b6088:	2003d52c 	.word	0x2003d52c

000b608c <setup>:
    triggerPublish = false;
  }
}

// =============================================================== Arduino entry
void setup() {
   b608c:	b57f      	push	{r0, r1, r2, r3, r4, r5, r6, lr}
  Serial.begin(115200);
   b608e:	f003 fc53 	bl	b9938 <_Z16_fetch_usbserialv>
   b6092:	f44f 31e1 	mov.w	r1, #115200	; 0x1c200
   b6096:	f003 fc3d 	bl	b9914 <_ZN9USBSerial5beginEl>
        const system_tick_t start = millis();
   b609a:	f7ff f861 	bl	b5160 <_ZN11SystemClass6millisEv>
   b609e:	4604      	mov	r4, r0
        return waitConditionWhile(_condition, [=]{ return (millis()-start)<timeout; });
   b60a0:	f7ff f85e 	bl	b5160 <_ZN11SystemClass6millisEv>
   b60a4:	1b00      	subs	r0, r0, r4
   b60a6:	f161 0100 	sbc.w	r1, r1, #0
        while (_while() && !_condition()) {
   b60aa:	f5b0 5ffa 	cmp.w	r0, #8000	; 0x1f40
   b60ae:	f171 0300 	sbcs.w	r3, r1, #0
   b60b2:	d207      	bcs.n	b60c4 <setup+0x38>
  waitFor(Serial.isConnected, SERIAL_CONNECT_MS);
   b60b4:	f003 fc40 	bl	b9938 <_Z16_fetch_usbserialv>
   b60b8:	f003 fc33 	bl	b9922 <_ZN9USBSerial11isConnectedEv>
   b60bc:	b910      	cbnz	r0, b60c4 <setup+0x38>
            spark_process();
   b60be:	f001 fb89 	bl	b77d4 <spark_process>
        while (_while() && !_condition()) {
   b60c2:	e7ed      	b.n	b60a0 <setup+0x14>
   b60c4:	f003 fc38 	bl	b9938 <_Z16_fetch_usbserialv>
   b60c8:	f003 fc2b 	bl	b9922 <_ZN9USBSerial11isConnectedEv>
  Time.zone(-8);                 // PST display; logger math stays in UTC
   b60cc:	eeba 0a00 	vmov.f32	s0, #160	; 0xc1000000 -8.0
   b60d0:	f002 fef4 	bl	b8ebc <_ZN9TimeClass4zoneEf>
  Log.info("LeakSense P2 boot on %s", PLATFORM_STR);
   b60d4:	4a5d      	ldr	r2, [pc, #372]	; (b624c <setup+0x1c0>)
   b60d6:	495e      	ldr	r1, [pc, #376]	; (b6250 <setup+0x1c4>)
   b60d8:	485e      	ldr	r0, [pc, #376]	; (b6254 <setup+0x1c8>)
#else
  imuInit();   // no-op stub: marks IMU absent, telemetry fields stay 0
#endif

#if USE_WIFI
  WiFi.on(); WiFi.connect(); waitFor(WiFi.ready, WIFI_CONNECT_TIMEOUT_MS);
   b60da:	4e5f      	ldr	r6, [pc, #380]	; (b6258 <setup+0x1cc>)
  Log.info("LeakSense P2 boot on %s", PLATFORM_STR);
   b60dc:	f7ff f855 	bl	b518a <_ZNK5spark6Logger4infoEPKcz>
  loadFlowCal();
   b60e0:	f7ff f960 	bl	b53a4 <_Z11loadFlowCalv>
  loadConfig();
   b60e4:	f7ff f9b8 	bl	b5458 <_Z10loadConfigv>
  pinMode(LED1_PIN, OUTPUT);
   b60e8:	2101      	movs	r1, #1
   b60ea:	2007      	movs	r0, #7
   b60ec:	f004 f946 	bl	ba37c <pinMode>
  pinMode(SHUTOFF_SWITCH_PIN, OUTPUT);
   b60f0:	2101      	movs	r1, #1
   b60f2:	2004      	movs	r0, #4
   b60f4:	f004 f942 	bl	ba37c <pinMode>
  pinMode(SHUTOFF_SSR_PIN, OUTPUT);
   b60f8:	2101      	movs	r1, #1
   b60fa:	2003      	movs	r0, #3
   b60fc:	f004 f93e 	bl	ba37c <pinMode>
  pinMode(MODE_PIN, INPUT_PULLUP);
   b6100:	2102      	movs	r1, #2
   b6102:	2012      	movs	r0, #18
   b6104:	f004 f93a 	bl	ba37c <pinMode>
  shutoffSwitch("off");          // known-safe valve power state
   b6108:	4954      	ldr	r1, [pc, #336]	; (b625c <setup+0x1d0>)
   b610a:	4668      	mov	r0, sp
   b610c:	f001 fd41 	bl	b7b92 <_ZN6StringC1EPK19__FlashStringHelper>
   b6110:	4668      	mov	r0, sp
   b6112:	f7ff fb17 	bl	b5744 <_Z13shutoffSwitch6String>
   b6116:	4668      	mov	r0, sp
   b6118:	f001 fcf0 	bl	b7afc <_ZN6StringD1Ev>
  picLink.begin(38400);          // Serial1 + WAKE pin
   b611c:	4850      	ldr	r0, [pc, #320]	; (b6260 <setup+0x1d4>)
   b611e:	f44f 4116 	mov.w	r1, #38400	; 0x9600
   b6122:	f000 fd35 	bl	b6b90 <_ZN7PicLink5beginEm>
        return register_function(call_raw_user_function, (void*)func, funcKey);
   b6126:	4a4f      	ldr	r2, [pc, #316]	; (b6264 <setup+0x1d8>)
   b6128:	494f      	ldr	r1, [pc, #316]	; (b6268 <setup+0x1dc>)
   b612a:	4850      	ldr	r0, [pc, #320]	; (b626c <setup+0x1e0>)
   b612c:	f003 f8ae 	bl	b928c <_ZN10CloudClass17register_functionEPFiPvPKcS0_ES0_S2_>
   b6130:	4a4f      	ldr	r2, [pc, #316]	; (b6270 <setup+0x1e4>)
   b6132:	4950      	ldr	r1, [pc, #320]	; (b6274 <setup+0x1e8>)
   b6134:	484d      	ldr	r0, [pc, #308]	; (b626c <setup+0x1e0>)
   b6136:	f003 f8a9 	bl	b928c <_ZN10CloudClass17register_functionEPFiPvPKcS0_ES0_S2_>
   b613a:	4a4f      	ldr	r2, [pc, #316]	; (b6278 <setup+0x1ec>)
   b613c:	494f      	ldr	r1, [pc, #316]	; (b627c <setup+0x1f0>)
   b613e:	484b      	ldr	r0, [pc, #300]	; (b626c <setup+0x1e0>)
   b6140:	f003 f8a4 	bl	b928c <_ZN10CloudClass17register_functionEPFiPvPKcS0_ES0_S2_>
   b6144:	4a4e      	ldr	r2, [pc, #312]	; (b6280 <setup+0x1f4>)
   b6146:	494f      	ldr	r1, [pc, #316]	; (b6284 <setup+0x1f8>)
   b6148:	4848      	ldr	r0, [pc, #288]	; (b626c <setup+0x1e0>)
   b614a:	f003 f89f 	bl	b928c <_ZN10CloudClass17register_functionEPFiPvPKcS0_ES0_S2_>
   b614e:	4a4e      	ldr	r2, [pc, #312]	; (b6288 <setup+0x1fc>)
   b6150:	494e      	ldr	r1, [pc, #312]	; (b628c <setup+0x200>)
   b6152:	4846      	ldr	r0, [pc, #280]	; (b626c <setup+0x1e0>)
   b6154:	f003 f89a 	bl	b928c <_ZN10CloudClass17register_functionEPFiPvPKcS0_ES0_S2_>
   b6158:	4a4d      	ldr	r2, [pc, #308]	; (b6290 <setup+0x204>)
   b615a:	494e      	ldr	r1, [pc, #312]	; (b6294 <setup+0x208>)
   b615c:	4843      	ldr	r0, [pc, #268]	; (b626c <setup+0x1e0>)
   b615e:	f003 f895 	bl	b928c <_ZN10CloudClass17register_functionEPFiPvPKcS0_ES0_S2_>
   b6162:	4a4d      	ldr	r2, [pc, #308]	; (b6298 <setup+0x20c>)
   b6164:	494d      	ldr	r1, [pc, #308]	; (b629c <setup+0x210>)
   b6166:	4841      	ldr	r0, [pc, #260]	; (b626c <setup+0x1e0>)
   b6168:	f003 f890 	bl	b928c <_ZN10CloudClass17register_functionEPFiPvPKcS0_ES0_S2_>
   b616c:	4a4c      	ldr	r2, [pc, #304]	; (b62a0 <setup+0x214>)
   b616e:	494d      	ldr	r1, [pc, #308]	; (b62a4 <setup+0x218>)
   b6170:	483e      	ldr	r0, [pc, #248]	; (b626c <setup+0x1e0>)
   b6172:	f003 f88b 	bl	b928c <_ZN10CloudClass17register_functionEPFiPvPKcS0_ES0_S2_>
   b6176:	4a4c      	ldr	r2, [pc, #304]	; (b62a8 <setup+0x21c>)
   b6178:	494c      	ldr	r1, [pc, #304]	; (b62ac <setup+0x220>)
   b617a:	483c      	ldr	r0, [pc, #240]	; (b626c <setup+0x1e0>)
   b617c:	f003 f886 	bl	b928c <_ZN10CloudClass17register_functionEPFiPvPKcS0_ES0_S2_>
int  imuInit() { imu_data.sensor = 0; return 0; }
   b6180:	4b4b      	ldr	r3, [pc, #300]	; (b62b0 <setup+0x224>)
  WiFi.on(); WiFi.connect(); waitFor(WiFi.ready, WIFI_CONNECT_TIMEOUT_MS);
   b6182:	4835      	ldr	r0, [pc, #212]	; (b6258 <setup+0x1cc>)
int  imuInit() { imu_data.sensor = 0; return 0; }
   b6184:	2400      	movs	r4, #0
   b6186:	601c      	str	r4, [r3, #0]
  WiFi.on(); WiFi.connect(); waitFor(WiFi.ready, WIFI_CONNECT_TIMEOUT_MS);
   b6188:	f7fe ffa6 	bl	b50d8 <_ZN5spark9WiFiClass2onEv>
   b618c:	4621      	mov	r1, r4
   b618e:	4832      	ldr	r0, [pc, #200]	; (b6258 <setup+0x1cc>)
   b6190:	f7fe ffa8 	bl	b50e4 <_ZN5spark9WiFiClass7connectEj>
        const system_tick_t start = millis();
   b6194:	f7fe ffe4 	bl	b5160 <_ZN11SystemClass6millisEv>
        while (_while() && !_condition()) {
   b6198:	f644 6520 	movw	r5, #20000	; 0x4e20
        const system_tick_t start = millis();
   b619c:	4604      	mov	r4, r0
        return waitConditionWhile(_condition, [=]{ return (millis()-start)<timeout; });
   b619e:	f7fe ffdf 	bl	b5160 <_ZN11SystemClass6millisEv>
   b61a2:	1b00      	subs	r0, r0, r4
   b61a4:	f161 0100 	sbc.w	r1, r1, #0
        while (_while() && !_condition()) {
   b61a8:	42a8      	cmp	r0, r5
   b61aa:	f171 0300 	sbcs.w	r3, r1, #0
   b61ae:	d206      	bcs.n	b61be <setup+0x132>
   b61b0:	4630      	mov	r0, r6
   b61b2:	f7fe ff9c 	bl	b50ee <_ZN5spark9WiFiClass5readyEv>
   b61b6:	b910      	cbnz	r0, b61be <setup+0x132>
            spark_process();
   b61b8:	f001 fb0c 	bl	b77d4 <spark_process>
        while (_while() && !_condition()) {
   b61bc:	e7ef      	b.n	b619e <setup+0x112>
   b61be:	4826      	ldr	r0, [pc, #152]	; (b6258 <setup+0x1cc>)
   b61c0:	f7fe ff95 	bl	b50ee <_ZN5spark9WiFiClass5readyEv>
        spark_cloud_flag_connect();
   b61c4:	f001 fb0e 	bl	b77e4 <spark_cloud_flag_connect>
        const system_tick_t start = millis();
   b61c8:	f7fe ffca 	bl	b5160 <_ZN11SystemClass6millisEv>
        while (_while() && !_condition()) {
   b61cc:	f247 5530 	movw	r5, #30000	; 0x7530
        const system_tick_t start = millis();
   b61d0:	4604      	mov	r4, r0
        return waitConditionWhile(_condition, [=]{ return (millis()-start)<timeout; });
   b61d2:	f7fe ffc5 	bl	b5160 <_ZN11SystemClass6millisEv>
   b61d6:	1b00      	subs	r0, r0, r4
   b61d8:	f161 0100 	sbc.w	r1, r1, #0
        while (_while() && !_condition()) {
   b61dc:	42a8      	cmp	r0, r5
   b61de:	f171 0300 	sbcs.w	r3, r1, #0
   b61e2:	d205      	bcs.n	b61f0 <setup+0x164>
    static bool connected(void) { return spark_cloud_flag_connected(); }
   b61e4:	f001 fb06 	bl	b77f4 <spark_cloud_flag_connected>
   b61e8:	b910      	cbnz	r0, b61f0 <setup+0x164>
            spark_process();
   b61ea:	f001 faf3 	bl	b77d4 <spark_process>
        while (_while() && !_condition()) {
   b61ee:	e7f0      	b.n	b61d2 <setup+0x146>
   b61f0:	f001 fb00 	bl	b77f4 <spark_cloud_flag_connected>

#if USE_LOCAL_METER
  attachInterrupt(METER_PIN, countPulse, CHANGE);
#endif

  waitUntil(Time.isValid);
   b61f4:	f002 fe82 	bl	b8efc <_ZN9TimeClass7isValidEv>
   b61f8:	b910      	cbnz	r0, b6200 <setup+0x174>
            spark_process();
   b61fa:	f001 faeb 	bl	b77d4 <spark_process>
        while (_while() && !_condition()) {
   b61fe:	e7f9      	b.n	b61f4 <setup+0x168>
   b6200:	f002 fe7c 	bl	b8efc <_ZN9TimeClass7isValidEv>
  restorePersisted();            // load gMeter + leak model from LittleFS
   b6204:	f7ff f84c 	bl	b52a0 <_Z16restorePersistedv>

  uint32_t now = Time.now();
   b6208:	f002 fe95 	bl	b8f36 <_ZN9TimeClass3nowEv>
  if (nextSampleAtUtc == 0 || nextSampleAtUtc <= now)
   b620c:	4a29      	ldr	r2, [pc, #164]	; (b62b4 <setup+0x228>)
   b620e:	f8d2 308c 	ldr.w	r3, [r2, #140]	; 0x8c
   b6212:	4283      	cmp	r3, r0
    nextSampleAtUtc = ((now / METER_INTERVAL_SEC) + 1) * METER_INTERVAL_SEC;
   b6214:	bf9f      	itttt	ls
   b6216:	233c      	movls	r3, #60	; 0x3c
   b6218:	fbb0 f0f3 	udivls	r0, r0, r3
   b621c:	fb00 3303 	mlals	r3, r0, r3, r3
   b6220:	f8c2 308c 	strls.w	r3, [r2, #140]	; 0x8c

  triggerPublish = true;
   b6224:	4b24      	ldr	r3, [pc, #144]	; (b62b8 <setup+0x22c>)
   b6226:	2201      	movs	r2, #1
   b6228:	701a      	strb	r2, [r3, #0]
   b622a:	f000 ffed 	bl	b7208 <HAL_Timer_Get_Milli_Seconds>
  sleepStart = millis(); lastWakeTime = millis();
   b622e:	4b23      	ldr	r3, [pc, #140]	; (b62bc <setup+0x230>)
   b6230:	6018      	str	r0, [r3, #0]
   b6232:	f000 ffe9 	bl	b7208 <HAL_Timer_Get_Milli_Seconds>
   b6236:	4b22      	ldr	r3, [pc, #136]	; (b62c0 <setup+0x234>)
  changeState(STATE_MONITORING);
  Log.info("Setup complete");
   b6238:	4922      	ldr	r1, [pc, #136]	; (b62c4 <setup+0x238>)
  sleepStart = millis(); lastWakeTime = millis();
   b623a:	6018      	str	r0, [r3, #0]
void changeState(SystemState s) { currentState = s; }
   b623c:	4b22      	ldr	r3, [pc, #136]	; (b62c8 <setup+0x23c>)
  Log.info("Setup complete");
   b623e:	4805      	ldr	r0, [pc, #20]	; (b6254 <setup+0x1c8>)
void changeState(SystemState s) { currentState = s; }
   b6240:	2202      	movs	r2, #2
   b6242:	701a      	strb	r2, [r3, #0]
  Log.info("Setup complete");
   b6244:	f7fe ffa1 	bl	b518a <_ZNK5spark6Logger4infoEPKcz>
}
   b6248:	b004      	add	sp, #16
   b624a:	bd70      	pop	{r4, r5, r6, pc}
   b624c:	000bcb23 	.word	0x000bcb23
   b6250:	000bcb29 	.word	0x000bcb29
   b6254:	2003e658 	.word	0x2003e658
   b6258:	2003e70c 	.word	0x2003e70c
   b625c:	000bcc20 	.word	0x000bcc20
   b6260:	2003d504 	.word	0x2003d504
   b6264:	000bc986 	.word	0x000bc986
   b6268:	000b5745 	.word	0x000b5745
   b626c:	000b9261 	.word	0x000b9261
   b6270:	000bca1a 	.word	0x000bca1a
   b6274:	000b5a81 	.word	0x000b5a81
   b6278:	000bca42 	.word	0x000bca42
   b627c:	000b5c2d 	.word	0x000b5c2d
   b6280:	000bcb41 	.word	0x000bcb41
   b6284:	000b4e6d 	.word	0x000b4e6d
   b6288:	000bca5f 	.word	0x000bca5f
   b628c:	000b5cb5 	.word	0x000b5cb5
   b6290:	000bcb4c 	.word	0x000bcb4c
   b6294:	000b4e91 	.word	0x000b4e91
   b6298:	000bca28 	.word	0x000bca28
   b629c:	000b5b0d 	.word	0x000b5b0d
   b62a0:	000bca30 	.word	0x000bca30
   b62a4:	000b5b3d 	.word	0x000b5b3d
   b62a8:	000bca38 	.word	0x000bca38
   b62ac:	000b5c01 	.word	0x000b5c01
   b62b0:	2003d4a8 	.word	0x2003d4a8
   b62b4:	2003f400 	.word	0x2003f400
   b62b8:	2003d52c 	.word	0x2003d52c
   b62bc:	2003d528 	.word	0x2003d528
   b62c0:	2003d4dc 	.word	0x2003d4dc
   b62c4:	000bcb56 	.word	0x000bcb56
   b62c8:	2003d4a4 	.word	0x2003d4a4

000b62cc <_ZNSt14__shared_countILN9__gnu_cxx12_Lock_policyE0EED1Ev>:
      explicit __shared_count(const __weak_count<_Lp>& __r);

      // Does not throw if __r._M_get_use_count() == 0, caller must check.
      explicit __shared_count(const __weak_count<_Lp>& __r, std::nothrow_t);

      ~__shared_count() noexcept
   b62cc:	b538      	push	{r3, r4, r5, lr}
      {
	if (_M_pi != nullptr)
   b62ce:	6804      	ldr	r4, [r0, #0]
      ~__shared_count() noexcept
   b62d0:	4605      	mov	r5, r0
	if (_M_pi != nullptr)
   b62d2:	b17c      	cbz	r4, b62f4 <_ZNSt14__shared_countILN9__gnu_cxx12_Lock_policyE0EED1Ev+0x28>
      if (--_M_use_count == 0)
   b62d4:	6863      	ldr	r3, [r4, #4]
   b62d6:	3b01      	subs	r3, #1
   b62d8:	6063      	str	r3, [r4, #4]
   b62da:	b95b      	cbnz	r3, b62f4 <_ZNSt14__shared_countILN9__gnu_cxx12_Lock_policyE0EED1Ev+0x28>
          _M_dispose();
   b62dc:	6823      	ldr	r3, [r4, #0]
   b62de:	4620      	mov	r0, r4
   b62e0:	689b      	ldr	r3, [r3, #8]
   b62e2:	4798      	blx	r3
          if (--_M_weak_count == 0)
   b62e4:	68a3      	ldr	r3, [r4, #8]
   b62e6:	3b01      	subs	r3, #1
   b62e8:	60a3      	str	r3, [r4, #8]
   b62ea:	b91b      	cbnz	r3, b62f4 <_ZNSt14__shared_countILN9__gnu_cxx12_Lock_policyE0EED1Ev+0x28>
            _M_destroy();
   b62ec:	6823      	ldr	r3, [r4, #0]
   b62ee:	4620      	mov	r0, r4
   b62f0:	68db      	ldr	r3, [r3, #12]
   b62f2:	4798      	blx	r3
	  _M_pi->_M_release();
      }
   b62f4:	4628      	mov	r0, r5
   b62f6:	bd38      	pop	{r3, r4, r5, pc}

000b62f8 <_ZN5spark6VectorINS_17LogCategoryFilterENS_16DefaultAllocatorEED1Ev>:
inline spark::Vector<T, AllocatorT>::Vector(Vector<T, AllocatorT>&& vector) : Vector() {
    swap(*this, vector);
}

template<typename T, typename AllocatorT>
inline spark::Vector<T, AllocatorT>::~Vector() {
   b62f8:	b570      	push	{r4, r5, r6, lr}
    destruct(data_, data_ + size_);
   b62fa:	e9d0 5300 	ldrd	r5, r3, [r0]
   b62fe:	2614      	movs	r6, #20
inline spark::Vector<T, AllocatorT>::~Vector() {
   b6300:	4604      	mov	r4, r0
    destruct(data_, data_ + size_);
   b6302:	fb06 5603 	mla	r6, r6, r3, r5
        for (; p != end; ++p) {
   b6306:	42ae      	cmp	r6, r5
   b6308:	d004      	beq.n	b6314 <_ZN5spark6VectorINS_17LogCategoryFilterENS_16DefaultAllocatorEED1Ev+0x1c>
class LogCategoryFilter {
   b630a:	4628      	mov	r0, r5
   b630c:	f001 fbf6 	bl	b7afc <_ZN6StringD1Ev>
   b6310:	3514      	adds	r5, #20
   b6312:	e7f8      	b.n	b6306 <_ZN5spark6VectorINS_17LogCategoryFilterENS_16DefaultAllocatorEED1Ev+0xe>
    ::free(ptr);
   b6314:	6820      	ldr	r0, [r4, #0]
   b6316:	f001 fa9d 	bl	b7854 <free>
    AllocatorT::free(data_);
}
   b631a:	4620      	mov	r0, r4
   b631c:	bd70      	pop	{r4, r5, r6, pc}

000b631e <_ZN10JsonWriter14insertKeyValueIPKcEEvS2_T_>:
	void insertKeyValue(const char *key, T value) {
   b631e:	b537      	push	{r0, r1, r2, r4, r5, lr}
   b6320:	4604      	mov	r4, r0
   b6322:	4615      	mov	r5, r2
   b6324:	9101      	str	r1, [sp, #4]
		insertCheckSeparator();
   b6326:	f000 fed1 	bl	b70cc <_ZN10JsonWriter20insertCheckSeparatorEv>
	void insertValue(const char *value) { insertString(value, true); }
   b632a:	9901      	ldr	r1, [sp, #4]
   b632c:	2201      	movs	r2, #1
   b632e:	4620      	mov	r0, r4
   b6330:	f000 fe3a 	bl	b6fa8 <_ZN10JsonWriter12insertStringEPKcb>
		insertChar(':');
   b6334:	4620      	mov	r0, r4
   b6336:	213a      	movs	r1, #58	; 0x3a
   b6338:	f000 fdea 	bl	b6f10 <_ZN10JsonWriter10insertCharEc>
	void insertValue(const char *value) { insertString(value, true); }
   b633c:	2201      	movs	r2, #1
   b633e:	4629      	mov	r1, r5
   b6340:	4620      	mov	r0, r4
	}
   b6342:	b003      	add	sp, #12
   b6344:	e8bd 4030 	ldmia.w	sp!, {r4, r5, lr}
	void insertValue(const char *value) { insertString(value, true); }
   b6348:	f000 be2e 	b.w	b6fa8 <_ZN10JsonWriter12insertStringEPKcb>

000b634c <_ZN10JsonWriter14insertKeyValueIiEEvPKcT_>:
	void insertKeyValue(const char *key, T value) {
   b634c:	b537      	push	{r0, r1, r2, r4, r5, lr}
   b634e:	4604      	mov	r4, r0
   b6350:	4615      	mov	r5, r2
   b6352:	9101      	str	r1, [sp, #4]
		insertCheckSeparator();
   b6354:	f000 feba 	bl	b70cc <_ZN10JsonWriter20insertCheckSeparatorEv>
	void insertValue(const char *value) { insertString(value, true); }
   b6358:	9901      	ldr	r1, [sp, #4]
   b635a:	2201      	movs	r2, #1
   b635c:	4620      	mov	r0, r4
   b635e:	f000 fe23 	bl	b6fa8 <_ZN10JsonWriter12insertStringEPKcb>
		insertChar(':');
   b6362:	4620      	mov	r0, r4
   b6364:	213a      	movs	r1, #58	; 0x3a
   b6366:	f000 fdd3 	bl	b6f10 <_ZN10JsonWriter10insertCharEc>
	void insertValue(int value) { insertsprintf("%d", value); }
   b636a:	4904      	ldr	r1, [pc, #16]	; (b637c <_ZN10JsonWriter14insertKeyValueIiEEvPKcT_+0x30>)
   b636c:	462a      	mov	r2, r5
   b636e:	4620      	mov	r0, r4
	}
   b6370:	b003      	add	sp, #12
   b6372:	e8bd 4030 	ldmia.w	sp!, {r4, r5, lr}
	void insertValue(int value) { insertsprintf("%d", value); }
   b6376:	f000 be0a 	b.w	b6f8e <_ZN10JsonWriter13insertsprintfEPKcz>
   b637a:	bf00      	nop
   b637c:	000bc9f9 	.word	0x000bc9f9

000b6380 <_Z25publishIntervalDataChunksv>:
void publishIntervalDataChunks() {
   b6380:	e92d 4ff0 	stmdb	sp!, {r4, r5, r6, r7, r8, r9, sl, fp, lr}
  if (gMeter.count == 0) return;
   b6384:	f8df a15c 	ldr.w	sl, [pc, #348]	; b64e4 <_Z25publishIntervalDataChunksv+0x164>
   b6388:	f8ba 6006 	ldrh.w	r6, [sl, #6]
void publishIntervalDataChunks() {
   b638c:	f5ad 7d6d 	sub.w	sp, sp, #948	; 0x3b4
  if (gMeter.count == 0) return;
   b6390:	2e00      	cmp	r6, #0
   b6392:	f000 808b 	beq.w	b64ac <_Z25publishIntervalDataChunksv+0x12c>
  uint16_t total = (gMeter.count + per - 1) / per;
   b6396:	2378      	movs	r3, #120	; 0x78
   b6398:	3677      	adds	r6, #119	; 0x77
   b639a:	fbb6 f6f3 	udiv	r6, r6, r3
   b639e:	b2b3      	uxth	r3, r6
   b63a0:	9301      	str	r3, [sp, #4]
   b63a2:	2700      	movs	r7, #0
    uint16_t start = c * per;
   b63a4:	ebc7 1507 	rsb	r5, r7, r7, lsl #4
    uint16_t cnt = gMeter.count - start;
   b63a8:	f8ba 4006 	ldrh.w	r4, [sl, #6]
   b63ac:	00ed      	lsls	r5, r5, #3
   b63ae:	b2ad      	uxth	r5, r5
   b63b0:	1b64      	subs	r4, r4, r5
   b63b2:	b2a4      	uxth	r4, r4
    if (cnt > per) cnt = per;
   b63b4:	2c78      	cmp	r4, #120	; 0x78
    uint16_t cnt = gMeter.count - start;
   b63b6:	f04f 0900 	mov.w	r9, #0
   b63ba:	bf28      	it	cs
   b63bc:	2478      	movcs	r4, #120	; 0x78
    size_t pos = 0;
   b63be:	46c8      	mov	r8, r9
   b63c0:	f10d 0b14 	add.w	fp, sp, #20
    for (uint16_t i = 0; i < cnt; i++) {
   b63c4:	fa1f f389 	uxth.w	r3, r9
   b63c8:	429c      	cmp	r4, r3
   b63ca:	d912      	bls.n	b63f2 <_Z25publishIntervalDataChunksv+0x72>
                      (unsigned)gMeter.raw[start + i]);
   b63cc:	eb09 0305 	add.w	r3, r9, r5
   b63d0:	3304      	adds	r3, #4
      pos += snprintf(&packed[pos], sizeof(packed) - pos, "%03u",
   b63d2:	f5c8 71b4 	rsb	r1, r8, #360	; 0x168
   b63d6:	eb0b 0008 	add.w	r0, fp, r8
   b63da:	f83a 3013 	ldrh.w	r3, [sl, r3, lsl #1]
   b63de:	4a35      	ldr	r2, [pc, #212]	; (b64b4 <_Z25publishIntervalDataChunksv+0x134>)
   b63e0:	3101      	adds	r1, #1
   b63e2:	f001 fa47 	bl	b7874 <snprintf>
   b63e6:	4480      	add	r8, r0
      if (pos >= sizeof(packed) - 1) break;
   b63e8:	f5b8 7fb4 	cmp.w	r8, #360	; 0x168
   b63ec:	f109 0901 	add.w	r9, r9, #1
   b63f0:	d3e8      	bcc.n	b63c4 <_Z25publishIntervalDataChunksv+0x44>
    packed[pos] = '\0';
   b63f2:	2300      	movs	r3, #0
public:
	explicit JsonWriterStatic() : JsonWriter(staticBuffer, BUFFER_SIZE) {};
   b63f4:	f44f 7200 	mov.w	r2, #512	; 0x200
   b63f8:	a96c      	add	r1, sp, #432	; 0x1b0
   b63fa:	a860      	add	r0, sp, #384	; 0x180
   b63fc:	f80b 3008 	strb.w	r3, [fp, r8]
   b6400:	f000 fd74 	bl	b6eec <_ZN10JsonWriterC1EPcj>
   b6404:	4b2c      	ldr	r3, [pc, #176]	; (b64b8 <_Z25publishIntervalDataChunksv+0x138>)
   b6406:	9360      	str	r3, [sp, #384]	; 0x180
	bool startObject() { return startObjectOrArray('{', '}'); };
   b6408:	227d      	movs	r2, #125	; 0x7d
   b640a:	217b      	movs	r1, #123	; 0x7b
   b640c:	a860      	add	r0, sp, #384	; 0x180
   b640e:	f000 fe68 	bl	b70e2 <_ZN10JsonWriter18startObjectOrArrayEcc>
      jw.insertKeyValue("platform", PLATFORM_STR);
   b6412:	4a2a      	ldr	r2, [pc, #168]	; (b64bc <_Z25publishIntervalDataChunksv+0x13c>)
   b6414:	492a      	ldr	r1, [pc, #168]	; (b64c0 <_Z25publishIntervalDataChunksv+0x140>)
   b6416:	a860      	add	r0, sp, #384	; 0x180
   b6418:	f7ff ff81 	bl	b631e <_ZN10JsonWriter14insertKeyValueIPKcEEvS2_T_>
      jw.insertKeyValue("day0Utc", (int)gMeter.day0_utc_midnight);
   b641c:	f8da 2000 	ldr.w	r2, [sl]
   b6420:	4928      	ldr	r1, [pc, #160]	; (b64c4 <_Z25publishIntervalDataChunksv+0x144>)
   b6422:	a860      	add	r0, sp, #384	; 0x180
   b6424:	f7ff ff92 	bl	b634c <_ZN10JsonWriter14insertKeyValueIiEEvPKcT_>
      jw.insertKeyValue("intervalSec", (int)METER_INTERVAL_SEC);
   b6428:	3701      	adds	r7, #1
   b642a:	4927      	ldr	r1, [pc, #156]	; (b64c8 <_Z25publishIntervalDataChunksv+0x148>)
   b642c:	223c      	movs	r2, #60	; 0x3c
   b642e:	a860      	add	r0, sp, #384	; 0x180
   b6430:	f7ff ff8c 	bl	b634c <_ZN10JsonWriter14insertKeyValueIiEEvPKcT_>
      jw.insertKeyValue("chunk", (int)(c + 1));
   b6434:	4925      	ldr	r1, [pc, #148]	; (b64cc <_Z25publishIntervalDataChunksv+0x14c>)
   b6436:	463a      	mov	r2, r7
   b6438:	a860      	add	r0, sp, #384	; 0x180
   b643a:	f7ff ff87 	bl	b634c <_ZN10JsonWriter14insertKeyValueIiEEvPKcT_>
      jw.insertKeyValue("totalChunks", (int)total);
   b643e:	4924      	ldr	r1, [pc, #144]	; (b64d0 <_Z25publishIntervalDataChunksv+0x150>)
   b6440:	4632      	mov	r2, r6
   b6442:	a860      	add	r0, sp, #384	; 0x180
   b6444:	f7ff ff82 	bl	b634c <_ZN10JsonWriter14insertKeyValueIiEEvPKcT_>
      jw.insertKeyValue("sampleStart", (int)start);
   b6448:	4922      	ldr	r1, [pc, #136]	; (b64d4 <_Z25publishIntervalDataChunksv+0x154>)
   b644a:	462a      	mov	r2, r5
   b644c:	a860      	add	r0, sp, #384	; 0x180
   b644e:	f7ff ff7d 	bl	b634c <_ZN10JsonWriter14insertKeyValueIiEEvPKcT_>
      jw.insertKeyValue("sampleCount", (int)cnt);
   b6452:	4921      	ldr	r1, [pc, #132]	; (b64d8 <_Z25publishIntervalDataChunksv+0x158>)
   b6454:	4622      	mov	r2, r4
   b6456:	a860      	add	r0, sp, #384	; 0x180
   b6458:	f7ff ff78 	bl	b634c <_ZN10JsonWriter14insertKeyValueIiEEvPKcT_>
		insertCheckSeparator();
   b645c:	a860      	add	r0, sp, #384	; 0x180
   b645e:	f000 fe35 	bl	b70cc <_ZN10JsonWriter20insertCheckSeparatorEv>
	void insertValue(const char *value) { insertString(value, true); }
   b6462:	2201      	movs	r2, #1
   b6464:	491d      	ldr	r1, [pc, #116]	; (b64dc <_Z25publishIntervalDataChunksv+0x15c>)
   b6466:	a860      	add	r0, sp, #384	; 0x180
   b6468:	f000 fd9e 	bl	b6fa8 <_ZN10JsonWriter12insertStringEPKcb>
		insertChar(':');
   b646c:	213a      	movs	r1, #58	; 0x3a
   b646e:	a860      	add	r0, sp, #384	; 0x180
   b6470:	f000 fd4e 	bl	b6f10 <_ZN10JsonWriter10insertCharEc>
	void insertValue(const char *value) { insertString(value, true); }
   b6474:	2201      	movs	r2, #1
   b6476:	4659      	mov	r1, fp
   b6478:	a860      	add	r0, sp, #384	; 0x180
   b647a:	f000 fd95 	bl	b6fa8 <_ZN10JsonWriter12insertStringEPKcb>

	/**
	 * @brief End the object
	 */
	~JsonWriterAutoObject() {
		jw->finishObjectOrArray();
   b647e:	a860      	add	r0, sp, #384	; 0x180
   b6480:	f000 fd54 	bl	b6f2c <_ZN10JsonWriter19finishObjectOrArrayEv>
    Particle.publish("meterIntervals", jw.getBuffer());
   b6484:	9a61      	ldr	r2, [sp, #388]	; 0x184
   b6486:	4916      	ldr	r1, [pc, #88]	; (b64e0 <_Z25publishIntervalDataChunksv+0x160>)
   b6488:	a803      	add	r0, sp, #12
   b648a:	f7fe fdad 	bl	b4fe8 <_ZN10CloudClass7publishEPKcS1_.isra.0>
	  __r._M_ptr = 0;
	}

      __shared_ptr(const __shared_ptr&) noexcept = default;
      __shared_ptr& operator=(const __shared_ptr&) noexcept = default;
      ~__shared_ptr() = default;
   b648e:	a804      	add	r0, sp, #16
   b6490:	f7ff ff1c 	bl	b62cc <_ZNSt14__shared_countILN9__gnu_cxx12_Lock_policyE0EED1Ev>
    delay(1100);
   b6494:	f240 404c 	movw	r0, #1100	; 0x44c
   b6498:	f002 fd68 	bl	b8f6c <delay>
    JsonWriterStatic<512> jw;
   b649c:	a860      	add	r0, sp, #384	; 0x180
   b649e:	f7fe fcfd 	bl	b4e9c <_ZN16JsonWriterStaticILj512EED1Ev>
  for (uint16_t c = 0; c < total; c++) {
   b64a2:	9a01      	ldr	r2, [sp, #4]
   b64a4:	b2bb      	uxth	r3, r7
   b64a6:	429a      	cmp	r2, r3
   b64a8:	f63f af7c 	bhi.w	b63a4 <_Z25publishIntervalDataChunksv+0x24>
}
   b64ac:	f50d 7d6d 	add.w	sp, sp, #948	; 0x3b4
   b64b0:	e8bd 8ff0 	ldmia.w	sp!, {r4, r5, r6, r7, r8, r9, sl, fp, pc}
   b64b4:	000bcb65 	.word	0x000bcb65
   b64b8:	000bcce4 	.word	0x000bcce4
   b64bc:	000bcb23 	.word	0x000bcb23
   b64c0:	000bcb6a 	.word	0x000bcb6a
   b64c4:	000bcb73 	.word	0x000bcb73
   b64c8:	000bcb7b 	.word	0x000bcb7b
   b64cc:	000bcb87 	.word	0x000bcb87
   b64d0:	000bcb8d 	.word	0x000bcb8d
   b64d4:	000bcb99 	.word	0x000bcb99
   b64d8:	000bcba5 	.word	0x000bcba5
   b64dc:	000bcbb1 	.word	0x000bcbb1
   b64e0:	000bcbb6 	.word	0x000bcbb6
   b64e4:	2003b939 	.word	0x2003b939

000b64e8 <_ZN10JsonWriter14insertKeyValueIfEEvPKcT_>:
	void insertKeyValue(const char *key, T value) {
   b64e8:	b513      	push	{r0, r1, r4, lr}
   b64ea:	4604      	mov	r4, r0
   b64ec:	ed8d 0a00 	vstr	s0, [sp]
   b64f0:	9101      	str	r1, [sp, #4]
		insertCheckSeparator();
   b64f2:	f000 fdeb 	bl	b70cc <_ZN10JsonWriter20insertCheckSeparatorEv>
	void insertValue(const char *value) { insertString(value, true); }
   b64f6:	9901      	ldr	r1, [sp, #4]
   b64f8:	2201      	movs	r2, #1
   b64fa:	4620      	mov	r0, r4
   b64fc:	f000 fd54 	bl	b6fa8 <_ZN10JsonWriter12insertStringEPKcb>
		insertChar(':');
   b6500:	4620      	mov	r0, r4
   b6502:	213a      	movs	r1, #58	; 0x3a
   b6504:	f000 fd04 	bl	b6f10 <_ZN10JsonWriter10insertCharEc>
		insertValue(value);
   b6508:	ed9d 0a00 	vldr	s0, [sp]
   b650c:	4620      	mov	r0, r4
	}
   b650e:	b002      	add	sp, #8
   b6510:	e8bd 4010 	ldmia.w	sp!, {r4, lr}
		insertValue(value);
   b6514:	f000 bdfe 	b.w	b7114 <_ZN10JsonWriter11insertValueEf>

000b6518 <_Z10imuPublishv>:
void imuPublish() {
   b6518:	b570      	push	{r4, r5, r6, lr}
   b651a:	ed2d 8b04 	vpush	{d8-d9}
  if (!WiFi.ready()) { WiFi.connect(); if (!waitFor(WiFi.ready, WIFI_CONNECT_TIMEOUT_MS)) { Log.error("WiFi fail"); return; } }
   b651e:	4881      	ldr	r0, [pc, #516]	; (b6724 <_Z10imuPublishv+0x20c>)
void imuPublish() {
   b6520:	f5ad 7d16 	sub.w	sp, sp, #600	; 0x258
  if (!WiFi.ready()) { WiFi.connect(); if (!waitFor(WiFi.ready, WIFI_CONNECT_TIMEOUT_MS)) { Log.error("WiFi fail"); return; } }
   b6524:	f7fe fde3 	bl	b50ee <_ZN5spark9WiFiClass5readyEv>
   b6528:	4601      	mov	r1, r0
   b652a:	bb28      	cbnz	r0, b6578 <_Z10imuPublishv+0x60>
   b652c:	487d      	ldr	r0, [pc, #500]	; (b6724 <_Z10imuPublishv+0x20c>)
   b652e:	4e7d      	ldr	r6, [pc, #500]	; (b6724 <_Z10imuPublishv+0x20c>)
   b6530:	f7fe fdd8 	bl	b50e4 <_ZN5spark9WiFiClass7connectEj>
        const system_tick_t start = millis();
   b6534:	f7fe fe14 	bl	b5160 <_ZN11SystemClass6millisEv>
        while (_while() && !_condition()) {
   b6538:	f644 6520 	movw	r5, #20000	; 0x4e20
        const system_tick_t start = millis();
   b653c:	4604      	mov	r4, r0
        return waitConditionWhile(_condition, [=]{ return (millis()-start)<timeout; });
   b653e:	f7fe fe0f 	bl	b5160 <_ZN11SystemClass6millisEv>
   b6542:	1b00      	subs	r0, r0, r4
   b6544:	f161 0100 	sbc.w	r1, r1, #0
        while (_while() && !_condition()) {
   b6548:	42a8      	cmp	r0, r5
   b654a:	f171 0300 	sbcs.w	r3, r1, #0
   b654e:	d206      	bcs.n	b655e <_Z10imuPublishv+0x46>
   b6550:	4630      	mov	r0, r6
   b6552:	f7fe fdcc 	bl	b50ee <_ZN5spark9WiFiClass5readyEv>
   b6556:	b910      	cbnz	r0, b655e <_Z10imuPublishv+0x46>
            spark_process();
   b6558:	f001 f93c 	bl	b77d4 <spark_process>
        while (_while() && !_condition()) {
   b655c:	e7ef      	b.n	b653e <_Z10imuPublishv+0x26>
   b655e:	4871      	ldr	r0, [pc, #452]	; (b6724 <_Z10imuPublishv+0x20c>)
   b6560:	f7fe fdc5 	bl	b50ee <_ZN5spark9WiFiClass5readyEv>
   b6564:	b940      	cbnz	r0, b6578 <_Z10imuPublishv+0x60>
   b6566:	4970      	ldr	r1, [pc, #448]	; (b6728 <_Z10imuPublishv+0x210>)
   b6568:	4870      	ldr	r0, [pc, #448]	; (b672c <_Z10imuPublishv+0x214>)
   b656a:	f7fe fe2a 	bl	b51c2 <_ZNK5spark6Logger5errorEPKcz>
}
   b656e:	f50d 7d16 	add.w	sp, sp, #600	; 0x258
   b6572:	ecbd 8b04 	vpop	{d8-d9}
   b6576:	bd70      	pop	{r4, r5, r6, pc}
	explicit JsonWriterStatic() : JsonWriter(staticBuffer, BUFFER_SIZE) {};
   b6578:	f44f 7200 	mov.w	r2, #512	; 0x200
   b657c:	a916      	add	r1, sp, #88	; 0x58
   b657e:	a80a      	add	r0, sp, #40	; 0x28
   b6580:	f000 fcb4 	bl	b6eec <_ZN10JsonWriterC1EPcj>
    jw.insertKeyValue("sensor", imu_data.sensor);
   b6584:	4d6a      	ldr	r5, [pc, #424]	; (b6730 <_Z10imuPublishv+0x218>)
   b6586:	4b6b      	ldr	r3, [pc, #428]	; (b6734 <_Z10imuPublishv+0x21c>)
   b6588:	930a      	str	r3, [sp, #40]	; 0x28
	bool startObject() { return startObjectOrArray('{', '}'); };
   b658a:	227d      	movs	r2, #125	; 0x7d
   b658c:	217b      	movs	r1, #123	; 0x7b
   b658e:	a80a      	add	r0, sp, #40	; 0x28
    jw.insertKeyValue("leaking", (int)leakingEventCount);
   b6590:	4c69      	ldr	r4, [pc, #420]	; (b6738 <_Z10imuPublishv+0x220>)
   b6592:	f000 fda6 	bl	b70e2 <_ZN10JsonWriter18startObjectOrArrayEcc>
    jw.insertKeyValue("platform", PLATFORM_STR);
   b6596:	4a69      	ldr	r2, [pc, #420]	; (b673c <_Z10imuPublishv+0x224>)
   b6598:	4969      	ldr	r1, [pc, #420]	; (b6740 <_Z10imuPublishv+0x228>)
   b659a:	a80a      	add	r0, sp, #40	; 0x28
   b659c:	f7ff febf 	bl	b631e <_ZN10JsonWriter14insertKeyValueIPKcEEvS2_T_>
    jw.insertKeyValue("sensor", imu_data.sensor);
   b65a0:	682a      	ldr	r2, [r5, #0]
   b65a2:	4968      	ldr	r1, [pc, #416]	; (b6744 <_Z10imuPublishv+0x22c>)
   b65a4:	a80a      	add	r0, sp, #40	; 0x28
   b65a6:	f7ff fed1 	bl	b634c <_ZN10JsonWriter14insertKeyValueIiEEvPKcT_>
    jw.insertKeyValue("leaking", (int)leakingEventCount);
   b65aa:	f8d4 2084 	ldr.w	r2, [r4, #132]	; 0x84
   b65ae:	4966      	ldr	r1, [pc, #408]	; (b6748 <_Z10imuPublishv+0x230>)
   b65b0:	a80a      	add	r0, sp, #40	; 0x28
   b65b2:	f7ff fecb 	bl	b634c <_ZN10JsonWriter14insertKeyValueIiEEvPKcT_>
    jw.insertKeyValue("shutoff", (int)shutoffEventCount);
   b65b6:	6fe2      	ldr	r2, [r4, #124]	; 0x7c
   b65b8:	4964      	ldr	r1, [pc, #400]	; (b674c <_Z10imuPublishv+0x234>)
   b65ba:	a80a      	add	r0, sp, #40	; 0x28
   b65bc:	f7ff fec6 	bl	b634c <_ZN10JsonWriter14insertKeyValueIiEEvPKcT_>
    jw.insertKeyValue("overflow", (int)overflowEventCount);
   b65c0:	f8d4 2080 	ldr.w	r2, [r4, #128]	; 0x80
   b65c4:	4962      	ldr	r1, [pc, #392]	; (b6750 <_Z10imuPublishv+0x238>)
   b65c6:	a80a      	add	r0, sp, #40	; 0x28
   b65c8:	f7ff fec0 	bl	b634c <_ZN10JsonWriter14insertKeyValueIiEEvPKcT_>
    jw.insertKeyValue("temp", imu_data.temperature);
   b65cc:	ed95 0a02 	vldr	s0, [r5, #8]
   b65d0:	4960      	ldr	r1, [pc, #384]	; (b6754 <_Z10imuPublishv+0x23c>)
   b65d2:	a80a      	add	r0, sp, #40	; 0x28
   b65d4:	f7ff ff88 	bl	b64e8 <_ZN10JsonWriter14insertKeyValueIfEEvPKcT_>
    jw.insertKeyValue("flowCal", flowCalScale);
   b65d8:	ed94 0a00 	vldr	s0, [r4]
   b65dc:	495e      	ldr	r1, [pc, #376]	; (b6758 <_Z10imuPublishv+0x240>)
   b65de:	a80a      	add	r0, sp, #40	; 0x28
   b65e0:	f7ff ff82 	bl	b64e8 <_ZN10JsonWriter14insertKeyValueIfEEvPKcT_>
    jw.insertKeyValue("cfgLeakGpm", appConfig.leakThreshGpm);
   b65e4:	ed94 0a01 	vldr	s0, [r4, #4]
   b65e8:	495c      	ldr	r1, [pc, #368]	; (b675c <_Z10imuPublishv+0x244>)
   b65ea:	a80a      	add	r0, sp, #40	; 0x28
   b65ec:	f7ff ff7c 	bl	b64e8 <_ZN10JsonWriter14insertKeyValueIfEEvPKcT_>
    jw.insertKeyValue("cfgShutoffVol", appConfig.shutoffVolGal);
   b65f0:	ed94 0a02 	vldr	s0, [r4, #8]
   b65f4:	495a      	ldr	r1, [pc, #360]	; (b6760 <_Z10imuPublishv+0x248>)
   b65f6:	a80a      	add	r0, sp, #40	; 0x28
   b65f8:	f7ff ff76 	bl	b64e8 <_ZN10JsonWriter14insertKeyValueIfEEvPKcT_>
    jw.insertKeyValue("cfgAutoShutoff", (int)appConfig.autoShutoff);
   b65fc:	7b22      	ldrb	r2, [r4, #12]
   b65fe:	4959      	ldr	r1, [pc, #356]	; (b6764 <_Z10imuPublishv+0x24c>)
   b6600:	a80a      	add	r0, sp, #40	; 0x28
   b6602:	f7ff fea3 	bl	b634c <_ZN10JsonWriter14insertKeyValueIiEEvPKcT_>
    jw.insertKeyValue("cfgAlertMode", (int)appConfig.alertMode);
   b6606:	7b62      	ldrb	r2, [r4, #13]
   b6608:	4957      	ldr	r1, [pc, #348]	; (b6768 <_Z10imuPublishv+0x250>)
   b660a:	a80a      	add	r0, sp, #40	; 0x28
   b660c:	f7ff fe9e 	bl	b634c <_ZN10JsonWriter14insertKeyValueIiEEvPKcT_>
    jw.insertKeyValue("picCfgDirty", (int)picConfigDirty);
   b6610:	f894 2088 	ldrb.w	r2, [r4, #136]	; 0x88
   b6614:	4955      	ldr	r1, [pc, #340]	; (b676c <_Z10imuPublishv+0x254>)
   b6616:	a80a      	add	r0, sp, #40	; 0x28
   b6618:	f7ff fe98 	bl	b634c <_ZN10JsonWriter14insertKeyValueIiEEvPKcT_>
    jw.insertKeyArray("hourlyGallons");
   b661c:	4954      	ldr	r1, [pc, #336]	; (b6770 <_Z10imuPublishv+0x258>)
   b661e:	a80a      	add	r0, sp, #40	; 0x28
   b6620:	f000 fd98 	bl	b7154 <_ZN10JsonWriter14insertKeyArrayEPKc>
    for (int i = 0; i < 24; i++) jw.insertArrayValue(roundTenth(hourlyData[i]));
   b6624:	f104 0618 	add.w	r6, r4, #24
    jw.insertKeyArray("hourlyGallons");
   b6628:	2518      	movs	r5, #24
static inline float roundTenth(float v) { return floorf(v * 10.0f + 0.5f) / 10.0f; }
   b662a:	eef2 8a04 	vmov.f32	s17, #36	; 0x41200000  10.0
   b662e:	eeb6 9a00 	vmov.f32	s18, #96	; 0x3f000000  0.5
    for (int i = 0; i < 24; i++) jw.insertArrayValue(roundTenth(hourlyData[i]));
   b6632:	ecf6 7a01 	vldmia	r6!, {s15}
static inline float roundTenth(float v) { return floorf(v * 10.0f + 0.5f) / 10.0f; }
   b6636:	eeb0 0a49 	vmov.f32	s0, s18
   b663a:	eea7 0aa8 	vfma.f32	s0, s15, s17
   b663e:	f003 ff5d 	bl	ba4fc <floorf>
		insertCheckSeparator();
   b6642:	a80a      	add	r0, sp, #40	; 0x28
   b6644:	eeb0 8a40 	vmov.f32	s16, s0
   b6648:	f000 fd40 	bl	b70cc <_ZN10JsonWriter20insertCheckSeparatorEv>
		insertValue(value);
   b664c:	ee88 0a28 	vdiv.f32	s0, s16, s17
   b6650:	a80a      	add	r0, sp, #40	; 0x28
   b6652:	f000 fd5f 	bl	b7114 <_ZN10JsonWriter11insertValueEf>
    for (int i = 0; i < 24; i++) jw.insertArrayValue(roundTenth(hourlyData[i]));
   b6656:	3d01      	subs	r5, #1
   b6658:	d1eb      	bne.n	b6632 <_Z10imuPublishv+0x11a>
    jw.finishObjectOrArray();
   b665a:	a80a      	add	r0, sp, #40	; 0x28
   b665c:	f000 fc66 	bl	b6f2c <_ZN10JsonWriter19finishObjectOrArrayEv>
    jw.insertKeyValue("rssi", (int)WiFi.RSSI().getStrength());
   b6660:	4930      	ldr	r1, [pc, #192]	; (b6724 <_Z10imuPublishv+0x20c>)
  if (gMeter.count >= MAX_SAMPLES) {
   b6662:	4e44      	ldr	r6, [pc, #272]	; (b6774 <_Z10imuPublishv+0x25c>)
    jw.insertKeyValue("rssi", (int)WiFi.RSSI().getStrength());
   b6664:	a801      	add	r0, sp, #4
   b6666:	f003 fd2b 	bl	ba0c0 <_ZN5spark9WiFiClass4RSSIEv>
   b666a:	a801      	add	r0, sp, #4
   b666c:	f003 fca6 	bl	b9fbc <_ZNK10WiFiSignal11getStrengthEv>
   b6670:	eefd 7ac0 	vcvt.s32.f32	s15, s0
   b6674:	4940      	ldr	r1, [pc, #256]	; (b6778 <_Z10imuPublishv+0x260>)
   b6676:	ee17 2a90 	vmov	r2, s15
   b667a:	a80a      	add	r0, sp, #40	; 0x28
   b667c:	f7ff fe66 	bl	b634c <_ZN10JsonWriter14insertKeyValueIiEEvPKcT_>
    FuelGauge fuel;
   b6680:	4629      	mov	r1, r5
   b6682:	a801      	add	r0, sp, #4
   b6684:	f002 fc88 	bl	b8f98 <_ZN9FuelGaugeC1Eb>
    jw.insertKeyValue("battery", fuel.getSoC());                     // Gen3 fuel gauge (% SoC)
   b6688:	a801      	add	r0, sp, #4
   b668a:	f002 fcdb 	bl	b9044 <_ZN9FuelGauge6getSoCEv>
   b668e:	493b      	ldr	r1, [pc, #236]	; (b677c <_Z10imuPublishv+0x264>)
   b6690:	a80a      	add	r0, sp, #40	; 0x28
   b6692:	f7ff ff29 	bl	b64e8 <_ZN10JsonWriter14insertKeyValueIfEEvPKcT_>
    jw.insertKeyValue("freeMem", (int)System.freeMemory());
   b6696:	f001 fa0d 	bl	b7ab4 <_ZN11SystemClass10freeMemoryEv>
   b669a:	4939      	ldr	r1, [pc, #228]	; (b6780 <_Z10imuPublishv+0x268>)
   b669c:	4602      	mov	r2, r0
   b669e:	a80a      	add	r0, sp, #40	; 0x28
   b66a0:	f7ff fe54 	bl	b634c <_ZN10JsonWriter14insertKeyValueIiEEvPKcT_>
    }

    static unsigned uptime() {
        return (hal_timer_millis(nullptr) / 1000);
   b66a4:	4628      	mov	r0, r5
   b66a6:	f000 fdd7 	bl	b7258 <hal_timer_millis>
   b66aa:	2300      	movs	r3, #0
   b66ac:	f44f 727a 	mov.w	r2, #1000	; 0x3e8
   b66b0:	f7fe f95c 	bl	b496c <__aeabi_uldivmod>
    jw.insertKeyValue("uptime", (int)System.uptime());
   b66b4:	4933      	ldr	r1, [pc, #204]	; (b6784 <_Z10imuPublishv+0x26c>)
   b66b6:	4602      	mov	r2, r0
   b66b8:	a80a      	add	r0, sp, #40	; 0x28
   b66ba:	f7ff fe47 	bl	b634c <_ZN10JsonWriter14insertKeyValueIiEEvPKcT_>
    FuelGauge fuel;
   b66be:	a801      	add	r0, sp, #4
   b66c0:	f002 fc7a 	bl	b8fb8 <_ZN9FuelGaugeD1Ev>
		jw->finishObjectOrArray();
   b66c4:	a80a      	add	r0, sp, #40	; 0x28
   b66c6:	f000 fc31 	bl	b6f2c <_ZN10JsonWriter19finishObjectOrArrayEv>
  Particle.publish("sensorData", jw.getBuffer());
   b66ca:	9a0b      	ldr	r2, [sp, #44]	; 0x2c
   b66cc:	492e      	ldr	r1, [pc, #184]	; (b6788 <_Z10imuPublishv+0x270>)
   b66ce:	a801      	add	r0, sp, #4
   b66d0:	f7fe fc8a 	bl	b4fe8 <_ZN10CloudClass7publishEPKcS1_.isra.0>
   b66d4:	a802      	add	r0, sp, #8
   b66d6:	f7ff fdf9 	bl	b62cc <_ZNSt14__shared_countILN9__gnu_cxx12_Lock_policyE0EED1Ev>
  Log.info("Published: %s", jw.getBuffer());
   b66da:	9a0b      	ldr	r2, [sp, #44]	; 0x2c
   b66dc:	492b      	ldr	r1, [pc, #172]	; (b678c <_Z10imuPublishv+0x274>)
   b66de:	4813      	ldr	r0, [pc, #76]	; (b672c <_Z10imuPublishv+0x214>)
   b66e0:	f7fe fd53 	bl	b518a <_ZNK5spark6Logger4infoEPKcz>
  publishIntervalDataChunks();
   b66e4:	f7ff fe4c 	bl	b6380 <_Z25publishIntervalDataChunksv>
  if (gMeter.count >= MAX_SAMPLES) {
   b66e8:	88f3      	ldrh	r3, [r6, #6]
   b66ea:	f5b3 6fb4 	cmp.w	r3, #1440	; 0x5a0
   b66ee:	d30e      	bcc.n	b670e <_Z10imuPublishv+0x1f6>
    uint32_t now = Time.now();
   b66f0:	f002 fc21 	bl	b8f36 <_ZN9TimeClass3nowEv>
    gMeter.day0_utc_midnight = (now / 86400UL) * 86400UL;
   b66f4:	4b26      	ldr	r3, [pc, #152]	; (b6790 <_Z10imuPublishv+0x278>)
   b66f6:	fbb0 f0f3 	udiv	r0, r0, r3
   b66fa:	4358      	muls	r0, r3
   b66fc:	6030      	str	r0, [r6, #0]
    Log.info("gMeter rolled");
   b66fe:	4925      	ldr	r1, [pc, #148]	; (b6794 <_Z10imuPublishv+0x27c>)
   b6700:	480a      	ldr	r0, [pc, #40]	; (b672c <_Z10imuPublishv+0x214>)
    gMeter.start_slot = 0;
   b6702:	7135      	strb	r5, [r6, #4]
   b6704:	7175      	strb	r5, [r6, #5]
    gMeter.count = 0;
   b6706:	71b5      	strb	r5, [r6, #6]
   b6708:	71f5      	strb	r5, [r6, #7]
    Log.info("gMeter rolled");
   b670a:	f7fe fd3e 	bl	b518a <_ZNK5spark6Logger4infoEPKcz>
  persistAll();
   b670e:	f7fe fd95 	bl	b523c <_Z10persistAllv>
  leakingEventCount = shutoffEventCount = overflowEventCount = 0;
   b6712:	2300      	movs	r3, #0
  JsonWriterStatic<512> jw;
   b6714:	a80a      	add	r0, sp, #40	; 0x28
  leakingEventCount = shutoffEventCount = overflowEventCount = 0;
   b6716:	e9c4 331f 	strd	r3, r3, [r4, #124]	; 0x7c
   b671a:	f8c4 3084 	str.w	r3, [r4, #132]	; 0x84
  JsonWriterStatic<512> jw;
   b671e:	f7fe fbbd 	bl	b4e9c <_ZN16JsonWriterStaticILj512EED1Ev>
   b6722:	e724      	b.n	b656e <_Z10imuPublishv+0x56>
   b6724:	2003e70c 	.word	0x2003e70c
   b6728:	000bcbc5 	.word	0x000bcbc5
   b672c:	2003e658 	.word	0x2003e658
   b6730:	2003d4a8 	.word	0x2003d4a8
   b6734:	000bcce4 	.word	0x000bcce4
   b6738:	2003f400 	.word	0x2003f400
   b673c:	000bcb23 	.word	0x000bcb23
   b6740:	000bcb6a 	.word	0x000bcb6a
   b6744:	000bcbcf 	.word	0x000bcbcf
   b6748:	000bcbd6 	.word	0x000bcbd6
   b674c:	000bcbde 	.word	0x000bcbde
   b6750:	000bcbe6 	.word	0x000bcbe6
   b6754:	000bcbef 	.word	0x000bcbef
   b6758:	000bcbf4 	.word	0x000bcbf4
   b675c:	000bcbfc 	.word	0x000bcbfc
   b6760:	000bcc07 	.word	0x000bcc07
   b6764:	000bcc15 	.word	0x000bcc15
   b6768:	000bcc24 	.word	0x000bcc24
   b676c:	000bcc31 	.word	0x000bcc31
   b6770:	000bcc3d 	.word	0x000bcc3d
   b6774:	2003b939 	.word	0x2003b939
   b6778:	000bcc4b 	.word	0x000bcc4b
   b677c:	000bcc50 	.word	0x000bcc50
   b6780:	000bcc58 	.word	0x000bcc58
   b6784:	000bcc60 	.word	0x000bcc60
   b6788:	000bcc67 	.word	0x000bcc67
   b678c:	000bcc72 	.word	0x000bcc72
   b6790:	00015180 	.word	0x00015180
   b6794:	000bcc80 	.word	0x000bcc80

000b6798 <_Z16handleMonitoringv>:
void handleMonitoring() {
   b6798:	e92d 41ff 	stmdb	sp!, {r0, r1, r2, r3, r4, r5, r6, r7, r8, lr}
  bool btn = (digitalRead(MODE_PIN) == LOW) || (System.buttonPushed() > 0);
   b679c:	2012      	movs	r0, #18
   b679e:	f003 fe17 	bl	ba3d0 <digitalRead>
   b67a2:	4e5b      	ldr	r6, [pc, #364]	; (b6910 <_Z16handleMonitoringv+0x178>)
   b67a4:	4d5b      	ldr	r5, [pc, #364]	; (b6914 <_Z16handleMonitoringv+0x17c>)
   b67a6:	b9d0      	cbnz	r0, b67de <_Z16handleMonitoringv+0x46>
  if (btn && !lastButtonState) {
   b67a8:	7834      	ldrb	r4, [r6, #0]
   b67aa:	2c00      	cmp	r4, #0
   b67ac:	d179      	bne.n	b68a2 <_Z16handleMonitoringv+0x10a>
   b67ae:	f000 fd2b 	bl	b7208 <HAL_Timer_Get_Milli_Seconds>
    if (t - lastPressTime > DEBOUNCE_TIME) {
   b67b2:	4a59      	ldr	r2, [pc, #356]	; (b6918 <_Z16handleMonitoringv+0x180>)
   b67b4:	6813      	ldr	r3, [r2, #0]
   b67b6:	1ac3      	subs	r3, r0, r3
   b67b8:	f5b3 7f96 	cmp.w	r3, #300	; 0x12c
   b67bc:	d971      	bls.n	b68a2 <_Z16handleMonitoringv+0x10a>
      imu_data.leaking = false; leakRunLen = 0;
   b67be:	4b57      	ldr	r3, [pc, #348]	; (b691c <_Z16handleMonitoringv+0x184>)
      lastPressTime = t;
   b67c0:	6010      	str	r0, [r2, #0]
      imu_data.leaking = false; leakRunLen = 0;
   b67c2:	711c      	strb	r4, [r3, #4]
   b67c4:	4b56      	ldr	r3, [pc, #344]	; (b6920 <_Z16handleMonitoringv+0x188>)
      restartSleepTimer("button");
   b67c6:	4857      	ldr	r0, [pc, #348]	; (b6924 <_Z16handleMonitoringv+0x18c>)
      imu_data.leaking = false; leakRunLen = 0;
   b67c8:	601c      	str	r4, [r3, #0]
      triggerPublish = true;
   b67ca:	2401      	movs	r4, #1
   b67cc:	702c      	strb	r4, [r5, #0]
      restartSleepTimer("button");
   b67ce:	f7fe ff99 	bl	b5704 <_Z17restartSleepTimerPKc>
      delay(STATE_CHANGE_DELAY_MS);
   b67d2:	f44f 70fa 	mov.w	r0, #500	; 0x1f4
   b67d6:	f002 fbc9 	bl	b8f6c <delay>
  bool btn = (digitalRead(MODE_PIN) == LOW) || (System.buttonPushed() > 0);
   b67da:	4620      	mov	r0, r4
   b67dc:	e005      	b.n	b67ea <_Z16handleMonitoringv+0x52>
        return system_button_pushed_duration(button, nullptr);
   b67de:	2100      	movs	r1, #0
   b67e0:	4608      	mov	r0, r1
   b67e2:	f000 ff31 	bl	b7648 <system_button_pushed_duration>
   b67e6:	2800      	cmp	r0, #0
   b67e8:	d1de      	bne.n	b67a8 <_Z16handleMonitoringv+0x10>
  lastButtonState = btn;
   b67ea:	7030      	strb	r0, [r6, #0]
  if (picLink.wakeIsHigh()) serviceMeterFromPic(true);
   b67ec:	484e      	ldr	r0, [pc, #312]	; (b6928 <_Z16handleMonitoringv+0x190>)
   b67ee:	f000 f9dd 	bl	b6bac <_ZN7PicLink10wakeIsHighEv>
   b67f2:	b110      	cbz	r0, b67fa <_Z16handleMonitoringv+0x62>
   b67f4:	2001      	movs	r0, #1
   b67f6:	f7ff f903 	bl	b5a00 <_Z19serviceMeterFromPicb>
  if (resetShutoff) {
   b67fa:	4c4c      	ldr	r4, [pc, #304]	; (b692c <_Z16handleMonitoringv+0x194>)
   b67fc:	7823      	ldrb	r3, [r4, #0]
   b67fe:	b17b      	cbz	r3, b6820 <_Z16handleMonitoringv+0x88>
    shutoffSwitch("off"); imu_data.leaking = false; imu_data.shutoff = false;
   b6800:	494b      	ldr	r1, [pc, #300]	; (b6930 <_Z16handleMonitoringv+0x198>)
   b6802:	4668      	mov	r0, sp
   b6804:	f001 f9c5 	bl	b7b92 <_ZN6StringC1EPK19__FlashStringHelper>
   b6808:	4668      	mov	r0, sp
   b680a:	f7fe ff9b 	bl	b5744 <_Z13shutoffSwitch6String>
   b680e:	4668      	mov	r0, sp
   b6810:	f001 f974 	bl	b7afc <_ZN6StringD1Ev>
   b6814:	4a41      	ldr	r2, [pc, #260]	; (b691c <_Z16handleMonitoringv+0x184>)
   b6816:	2300      	movs	r3, #0
   b6818:	8093      	strh	r3, [r2, #4]
    triggerPublish = true; resetShutoff = false;
   b681a:	2201      	movs	r2, #1
   b681c:	702a      	strb	r2, [r5, #0]
   b681e:	7023      	strb	r3, [r4, #0]
  if (nextPublishEpoch == 0)
   b6820:	4c44      	ldr	r4, [pc, #272]	; (b6934 <_Z16handleMonitoringv+0x19c>)
  unsigned long nowS = Time.now();
   b6822:	f002 fb88 	bl	b8f36 <_ZN9TimeClass3nowEv>
  if (nextPublishEpoch == 0)
   b6826:	f8d4 3090 	ldr.w	r3, [r4, #144]	; 0x90
   b682a:	b933      	cbnz	r3, b683a <_Z16handleMonitoringv+0xa2>
    nextPublishEpoch = ((nowS / SLEEP_DURATION_S) + 1) * SLEEP_DURATION_S;
   b682c:	4b42      	ldr	r3, [pc, #264]	; (b6938 <_Z16handleMonitoringv+0x1a0>)
   b682e:	fbb0 f2f3 	udiv	r2, r0, r3
   b6832:	fb02 3303 	mla	r3, r2, r3, r3
   b6836:	f8c4 3090 	str.w	r3, [r4, #144]	; 0x90
  if (nowS >= nextPublishEpoch) {
   b683a:	f8d4 3090 	ldr.w	r3, [r4, #144]	; 0x90
   b683e:	4283      	cmp	r3, r0
   b6840:	d809      	bhi.n	b6856 <_Z16handleMonitoringv+0xbe>
    triggerPublish = true;
   b6842:	2201      	movs	r2, #1
   b6844:	702a      	strb	r2, [r5, #0]
    do { nextPublishEpoch += SLEEP_DURATION_S; } while (nextPublishEpoch <= nowS);
   b6846:	f503 33a8 	add.w	r3, r3, #86016	; 0x15000
   b684a:	f503 73c0 	add.w	r3, r3, #384	; 0x180
   b684e:	4283      	cmp	r3, r0
   b6850:	d9f9      	bls.n	b6846 <_Z16handleMonitoringv+0xae>
   b6852:	f8c4 3090 	str.w	r3, [r4, #144]	; 0x90
  if (triggerPublish) {
   b6856:	782b      	ldrb	r3, [r5, #0]
   b6858:	2b00      	cmp	r3, #0
   b685a:	d056      	beq.n	b690a <_Z16handleMonitoringv+0x172>
   b685c:	f000 ffca 	bl	b77f4 <spark_cloud_flag_connected>
    if (!Particle.connected()) {
   b6860:	4606      	mov	r6, r0
   b6862:	2800      	cmp	r0, #0
   b6864:	d140      	bne.n	b68e8 <_Z16handleMonitoringv+0x150>
      WiFi.on(); WiFi.connect(); waitFor(WiFi.ready, WIFI_CONNECT_TIMEOUT_MS);
   b6866:	4835      	ldr	r0, [pc, #212]	; (b693c <_Z16handleMonitoringv+0x1a4>)
   b6868:	f8df 80d0 	ldr.w	r8, [pc, #208]	; b693c <_Z16handleMonitoringv+0x1a4>
   b686c:	f7fe fc34 	bl	b50d8 <_ZN5spark9WiFiClass2onEv>
   b6870:	4631      	mov	r1, r6
   b6872:	4832      	ldr	r0, [pc, #200]	; (b693c <_Z16handleMonitoringv+0x1a4>)
   b6874:	f7fe fc36 	bl	b50e4 <_ZN5spark9WiFiClass7connectEj>
        const system_tick_t start = millis();
   b6878:	f7fe fc72 	bl	b5160 <_ZN11SystemClass6millisEv>
        while (_while() && !_condition()) {
   b687c:	f644 6720 	movw	r7, #20000	; 0x4e20
        const system_tick_t start = millis();
   b6880:	4606      	mov	r6, r0
        return waitConditionWhile(_condition, [=]{ return (millis()-start)<timeout; });
   b6882:	f7fe fc6d 	bl	b5160 <_ZN11SystemClass6millisEv>
   b6886:	1b80      	subs	r0, r0, r6
   b6888:	f161 0100 	sbc.w	r1, r1, #0
        while (_while() && !_condition()) {
   b688c:	42b8      	cmp	r0, r7
   b688e:	f171 0300 	sbcs.w	r3, r1, #0
   b6892:	d208      	bcs.n	b68a6 <_Z16handleMonitoringv+0x10e>
   b6894:	4640      	mov	r0, r8
   b6896:	f7fe fc2a 	bl	b50ee <_ZN5spark9WiFiClass5readyEv>
   b689a:	b920      	cbnz	r0, b68a6 <_Z16handleMonitoringv+0x10e>
            spark_process();
   b689c:	f000 ff9a 	bl	b77d4 <spark_process>
        while (_while() && !_condition()) {
   b68a0:	e7ef      	b.n	b6882 <_Z16handleMonitoringv+0xea>
  bool btn = (digitalRead(MODE_PIN) == LOW) || (System.buttonPushed() > 0);
   b68a2:	2001      	movs	r0, #1
   b68a4:	e7a1      	b.n	b67ea <_Z16handleMonitoringv+0x52>
      WiFi.on(); WiFi.connect(); waitFor(WiFi.ready, WIFI_CONNECT_TIMEOUT_MS);
   b68a6:	4825      	ldr	r0, [pc, #148]	; (b693c <_Z16handleMonitoringv+0x1a4>)
   b68a8:	f7fe fc21 	bl	b50ee <_ZN5spark9WiFiClass5readyEv>
        spark_cloud_flag_connect();
   b68ac:	f000 ff9a 	bl	b77e4 <spark_cloud_flag_connect>
        const system_tick_t start = millis();
   b68b0:	f7fe fc56 	bl	b5160 <_ZN11SystemClass6millisEv>
        while (_while() && !_condition()) {
   b68b4:	f247 5730 	movw	r7, #30000	; 0x7530
        const system_tick_t start = millis();
   b68b8:	4606      	mov	r6, r0
        return waitConditionWhile(_condition, [=]{ return (millis()-start)<timeout; });
   b68ba:	f7fe fc51 	bl	b5160 <_ZN11SystemClass6millisEv>
   b68be:	1b80      	subs	r0, r0, r6
   b68c0:	f161 0100 	sbc.w	r1, r1, #0
        while (_while() && !_condition()) {
   b68c4:	42b8      	cmp	r0, r7
   b68c6:	f171 0300 	sbcs.w	r3, r1, #0
   b68ca:	d205      	bcs.n	b68d8 <_Z16handleMonitoringv+0x140>
    static bool connected(void) { return spark_cloud_flag_connected(); }
   b68cc:	f000 ff92 	bl	b77f4 <spark_cloud_flag_connected>
   b68d0:	b910      	cbnz	r0, b68d8 <_Z16handleMonitoringv+0x140>
            spark_process();
   b68d2:	f000 ff7f 	bl	b77d4 <spark_process>
        while (_while() && !_condition()) {
   b68d6:	e7f0      	b.n	b68ba <_Z16handleMonitoringv+0x122>
   b68d8:	f000 ff8c 	bl	b77f4 <spark_cloud_flag_connected>
		return !thread || !thread->isRunning();
	}

	static inline system_tick_t current_time()
	{
		return HAL_Timer_Get_Milli_Seconds();
   b68dc:	f000 fc94 	bl	b7208 <HAL_Timer_Get_Milli_Seconds>
	/**
	 * Lifesign that the application is still working normally.
	 */
	static void checkin()
	{
		last_checkin = current_time();
   b68e0:	4b17      	ldr	r3, [pc, #92]	; (b6940 <_Z16handleMonitoringv+0x1a8>)
   b68e2:	6018      	str	r0, [r3, #0]
            return spark_process();
   b68e4:	f000 ff76 	bl	b77d4 <spark_process>
    if (picConfigDirty && picLink.pushConfig(appConfig)) picConfigDirty = false;
   b68e8:	f894 3088 	ldrb.w	r3, [r4, #136]	; 0x88
   b68ec:	b13b      	cbz	r3, b68fe <_Z16handleMonitoringv+0x166>
   b68ee:	4915      	ldr	r1, [pc, #84]	; (b6944 <_Z16handleMonitoringv+0x1ac>)
   b68f0:	480d      	ldr	r0, [pc, #52]	; (b6928 <_Z16handleMonitoringv+0x190>)
   b68f2:	f000 fa37 	bl	b6d64 <_ZN7PicLink10pushConfigERK9AppConfig>
   b68f6:	b110      	cbz	r0, b68fe <_Z16handleMonitoringv+0x166>
   b68f8:	2300      	movs	r3, #0
   b68fa:	f884 3088 	strb.w	r3, [r4, #136]	; 0x88
    imuPrint();
   b68fe:	f7fe fef7 	bl	b56f0 <_Z8imuPrintv>
    imuPublish();
   b6902:	f7ff fe09 	bl	b6518 <_Z10imuPublishv>
    triggerPublish = false;
   b6906:	2300      	movs	r3, #0
   b6908:	702b      	strb	r3, [r5, #0]
}
   b690a:	b004      	add	sp, #16
   b690c:	e8bd 81f0 	ldmia.w	sp!, {r4, r5, r6, r7, r8, pc}
   b6910:	2003d4d4 	.word	0x2003d4d4
   b6914:	2003d52c 	.word	0x2003d52c
   b6918:	2003d4d8 	.word	0x2003d4d8
   b691c:	2003d4a8 	.word	0x2003d4a8
   b6920:	20037254 	.word	0x20037254
   b6924:	000bcc8e 	.word	0x000bcc8e
   b6928:	2003d504 	.word	0x2003d504
   b692c:	2003d505 	.word	0x2003d505
   b6930:	000bcc20 	.word	0x000bcc20
   b6934:	2003f400 	.word	0x2003f400
   b6938:	00015180 	.word	0x00015180
   b693c:	2003e70c 	.word	0x2003e70c
   b6940:	2003e740 	.word	0x2003e740
   b6944:	2003f404 	.word	0x2003f404

000b6948 <loop>:

void loop() {
   b6948:	b508      	push	{r3, lr}
  runSleep();   // 24 h sleep cadence (no-op while awake/flowing/alarmed)
   b694a:	f7ff fa99 	bl	b5e80 <_Z8runSleepv>

  switch (currentState) {
   b694e:	4b08      	ldr	r3, [pc, #32]	; (b6970 <loop+0x28>)
   b6950:	781b      	ldrb	r3, [r3, #0]
   b6952:	2b01      	cmp	r3, #1
   b6954:	d906      	bls.n	b6964 <loop+0x1c>
   b6956:	2b02      	cmp	r3, #2
   b6958:	d007      	beq.n	b696a <loop+0x22>
    case STATE_STARTUP:
    case STATE_CONNECTING: handleConnecting(); break;
    case STATE_MONITORING: handleMonitoring(); break;
  }
  delay(5);
}
   b695a:	e8bd 4008 	ldmia.w	sp!, {r3, lr}
  delay(5);
   b695e:	2005      	movs	r0, #5
   b6960:	f002 bb04 	b.w	b8f6c <delay>
    case STATE_CONNECTING: handleConnecting(); break;
   b6964:	f7ff fb7c 	bl	b6060 <_Z16handleConnectingv>
   b6968:	e7f7      	b.n	b695a <loop+0x12>
    case STATE_MONITORING: handleMonitoring(); break;
   b696a:	f7ff ff15 	bl	b6798 <_Z16handleMonitoringv>
   b696e:	e7f4      	b.n	b695a <loop+0x12>
   b6970:	2003d4a4 	.word	0x2003d4a4

000b6974 <_ZN5spark6VectorINS_17LogCategoryFilterENS_16DefaultAllocatorEE4moveIS1_Li0EEEvPS1_S5_S5_>:
        if (dest > p && dest < end) {
   b6974:	4288      	cmp	r0, r1
    static void move(T* dest, T* p, T* end) {
   b6976:	b5f8      	push	{r3, r4, r5, r6, r7, lr}
   b6978:	4604      	mov	r4, r0
   b697a:	460d      	mov	r5, r1
   b697c:	4616      	mov	r6, r2
        if (dest > p && dest < end) {
   b697e:	d916      	bls.n	b69ae <_ZN5spark6VectorINS_17LogCategoryFilterENS_16DefaultAllocatorEE4moveIS1_Li0EEEvPS1_S5_S5_+0x3a>
   b6980:	4290      	cmp	r0, r2
   b6982:	d215      	bcs.n	b69b0 <_ZN5spark6VectorINS_17LogCategoryFilterENS_16DefaultAllocatorEE4moveIS1_Li0EEEvPS1_S5_S5_+0x3c>
            --end;
   b6984:	f1a2 0614 	sub.w	r6, r2, #20
            dest += end - p - 1;
   b6988:	1a75      	subs	r5, r6, r1
   b698a:	f1a1 0714 	sub.w	r7, r1, #20
   b698e:	442c      	add	r4, r5
            for (; end != p; --end, --dest) {
   b6990:	42b7      	cmp	r7, r6
   b6992:	d01c      	beq.n	b69ce <_ZN5spark6VectorINS_17LogCategoryFilterENS_16DefaultAllocatorEE4moveIS1_Li0EEEvPS1_S5_S5_+0x5a>
                new(dest) T(std::move(*end));
   b6994:	b12c      	cbz	r4, b69a2 <_ZN5spark6VectorINS_17LogCategoryFilterENS_16DefaultAllocatorEE4moveIS1_Li0EEEvPS1_S5_S5_+0x2e>
   b6996:	4631      	mov	r1, r6
   b6998:	4620      	mov	r0, r4
   b699a:	f001 f92c 	bl	b7bf6 <_ZN6StringC1EOS_>
   b699e:	7c33      	ldrb	r3, [r6, #16]
   b69a0:	7423      	strb	r3, [r4, #16]
   b69a2:	4630      	mov	r0, r6
   b69a4:	f001 f8aa 	bl	b7afc <_ZN6StringD1Ev>
            for (; end != p; --end, --dest) {
   b69a8:	3e14      	subs	r6, #20
   b69aa:	3c14      	subs	r4, #20
   b69ac:	e7f0      	b.n	b6990 <_ZN5spark6VectorINS_17LogCategoryFilterENS_16DefaultAllocatorEE4moveIS1_Li0EEEvPS1_S5_S5_+0x1c>
        } else if (dest != p) {
   b69ae:	d00e      	beq.n	b69ce <_ZN5spark6VectorINS_17LogCategoryFilterENS_16DefaultAllocatorEE4moveIS1_Li0EEEvPS1_S5_S5_+0x5a>
            for (; p != end; ++p, ++dest) {
   b69b0:	42b5      	cmp	r5, r6
   b69b2:	d00c      	beq.n	b69ce <_ZN5spark6VectorINS_17LogCategoryFilterENS_16DefaultAllocatorEE4moveIS1_Li0EEEvPS1_S5_S5_+0x5a>
                new(dest) T(std::move(*p));
   b69b4:	b12c      	cbz	r4, b69c2 <_ZN5spark6VectorINS_17LogCategoryFilterENS_16DefaultAllocatorEE4moveIS1_Li0EEEvPS1_S5_S5_+0x4e>
   b69b6:	4629      	mov	r1, r5
   b69b8:	4620      	mov	r0, r4
   b69ba:	f001 f91c 	bl	b7bf6 <_ZN6StringC1EOS_>
   b69be:	7c2b      	ldrb	r3, [r5, #16]
   b69c0:	7423      	strb	r3, [r4, #16]
   b69c2:	4628      	mov	r0, r5
   b69c4:	f001 f89a 	bl	b7afc <_ZN6StringD1Ev>
            for (; p != end; ++p, ++dest) {
   b69c8:	3514      	adds	r5, #20
   b69ca:	3414      	adds	r4, #20
   b69cc:	e7f0      	b.n	b69b0 <_ZN5spark6VectorINS_17LogCategoryFilterENS_16DefaultAllocatorEE4moveIS1_Li0EEEvPS1_S5_S5_+0x3c>
    }
   b69ce:	bdf8      	pop	{r3, r4, r5, r6, r7, pc}

000b69d0 <_ZN5spark6VectorINS_17LogCategoryFilterENS_16DefaultAllocatorEEC1ERKS3_>:
inline spark::Vector<T, AllocatorT>::Vector(const Vector<T, AllocatorT>& vector) : Vector() {
   b69d0:	e92d 41f0 	stmdb	sp!, {r4, r5, r6, r7, r8, lr}
        capacity_(0) {
   b69d4:	2300      	movs	r3, #0
   b69d6:	e9c0 3300 	strd	r3, r3, [r0]
   b69da:	6083      	str	r3, [r0, #8]
    if (vector.size_ > 0 && realloc(vector.size_)) {
   b69dc:	684f      	ldr	r7, [r1, #4]
   b69de:	429f      	cmp	r7, r3
inline spark::Vector<T, AllocatorT>::Vector(const Vector<T, AllocatorT>& vector) : Vector() {
   b69e0:	4604      	mov	r4, r0
   b69e2:	460e      	mov	r6, r1
    if (vector.size_ > 0 && realloc(vector.size_)) {
   b69e4:	dd23      	ble.n	b6a2e <_ZN5spark6VectorINS_17LogCategoryFilterENS_16DefaultAllocatorEEC1ERKS3_+0x5e>
            d = (T*)AllocatorT::malloc(n * sizeof(T));
   b69e6:	f04f 0814 	mov.w	r8, #20
    return ::malloc(size);
   b69ea:	fb08 f007 	mul.w	r0, r8, r7
   b69ee:	f000 ff29 	bl	b7844 <malloc>
            if (!d) {
   b69f2:	4605      	mov	r5, r0
   b69f4:	b1d8      	cbz	r0, b6a2e <_ZN5spark6VectorINS_17LogCategoryFilterENS_16DefaultAllocatorEEC1ERKS3_+0x5e>
            move(d, data_, data_ + size_);
   b69f6:	e9d4 1200 	ldrd	r1, r2, [r4]
   b69fa:	fb08 1202 	mla	r2, r8, r2, r1
   b69fe:	f7ff ffb9 	bl	b6974 <_ZN5spark6VectorINS_17LogCategoryFilterENS_16DefaultAllocatorEE4moveIS1_Li0EEEvPS1_S5_S5_>
    ::free(ptr);
   b6a02:	6820      	ldr	r0, [r4, #0]
   b6a04:	f000 ff26 	bl	b7854 <free>
        data_ = d;
   b6a08:	6025      	str	r5, [r4, #0]
        capacity_ = n;
   b6a0a:	60a7      	str	r7, [r4, #8]
        copy(data_, vector.data_, vector.data_ + vector.size_);
   b6a0c:	e9d6 7300 	ldrd	r7, r3, [r6]
   b6a10:	fb08 7803 	mla	r8, r8, r3, r7
        for (; it != end; ++it, ++dest) {
   b6a14:	45b8      	cmp	r8, r7
   b6a16:	d008      	beq.n	b6a2a <_ZN5spark6VectorINS_17LogCategoryFilterENS_16DefaultAllocatorEEC1ERKS3_+0x5a>
   b6a18:	4639      	mov	r1, r7
   b6a1a:	4628      	mov	r0, r5
   b6a1c:	f001 f905 	bl	b7c2a <_ZN6StringC1ERKS_>
   b6a20:	7c3b      	ldrb	r3, [r7, #16]
   b6a22:	742b      	strb	r3, [r5, #16]
   b6a24:	3714      	adds	r7, #20
   b6a26:	3514      	adds	r5, #20
   b6a28:	e7f4      	b.n	b6a14 <_ZN5spark6VectorINS_17LogCategoryFilterENS_16DefaultAllocatorEEC1ERKS3_+0x44>
        size_ = vector.size_;
   b6a2a:	6873      	ldr	r3, [r6, #4]
   b6a2c:	6063      	str	r3, [r4, #4]
}
   b6a2e:	4620      	mov	r0, r4
   b6a30:	e8bd 81f0 	ldmia.w	sp!, {r4, r5, r6, r7, r8, pc}

000b6a34 <_GLOBAL__sub_I___appProductVersion>:
}
   b6a34:	e92d 43f0 	stmdb	sp!, {r4, r5, r6, r7, r8, r9, lr}
} // namespace particle

// particle::Flag<TagT, ValueT>
template<typename TagT, typename ValueT>
inline particle::Flag<TagT, ValueT>::Flag(ValueT val) :
        val_(val) {
   b6a38:	4b42      	ldr	r3, [pc, #264]	; (b6b44 <_GLOBAL__sub_I___appProductVersion+0x110>)
        filter_(level, filters) {
   b6a3a:	4f43      	ldr	r7, [pc, #268]	; (b6b48 <_GLOBAL__sub_I___appProductVersion+0x114>)
   b6a3c:	2400      	movs	r4, #0
   b6a3e:	b091      	sub	sp, #68	; 0x44
   b6a40:	701c      	strb	r4, [r3, #0]
    }
};

struct __ApplicationProductVersion {
    __ApplicationProductVersion(product_firmware_version_t version) {
        spark_protocol_set_product_firmware_version(spark_protocol_instance(), version);
   b6a42:	f003 fc45 	bl	ba2d0 <spark_protocol_instance>
   b6a46:	4623      	mov	r3, r4
   b6a48:	4622      	mov	r2, r4
   b6a4a:	2102      	movs	r1, #2
   b6a4c:	f003 fc50 	bl	ba2f0 <spark_protocol_set_product_firmware_version>
        spark_protocol_set_product_id(spark_protocol_instance(), id);
   b6a50:	f003 fc3e 	bl	ba2d0 <spark_protocol_instance>
   b6a54:	210c      	movs	r1, #12
   b6a56:	4623      	mov	r3, r4
   b6a58:	4622      	mov	r2, r4
   b6a5a:	f003 fc41 	bl	ba2e0 <spark_protocol_set_product_id>
              error_(SYSTEM_ERROR_NONE) {
   b6a5e:	4b3b      	ldr	r3, [pc, #236]	; (b6b4c <_GLOBAL__sub_I___appProductVersion+0x118>)
    SleepResult() {}
   b6a60:	4a3b      	ldr	r2, [pc, #236]	; (b6b50 <_GLOBAL__sub_I___appProductVersion+0x11c>)
   b6a62:	609a      	str	r2, [r3, #8]
              error_(SYSTEM_ERROR_NONE) {
   b6a64:	e9c3 4400 	strd	r4, r4, [r3]
        set_system_mode(mode);
   b6a68:	2003      	movs	r0, #3
   b6a6a:	f000 fddd 	bl	b7628 <set_system_mode>
        capacity_(0) {
   b6a6e:	e9cd 4403 	strd	r4, r4, [sp, #12]
   b6a72:	9405      	str	r4, [sp, #20]
            StreamLogHandler(Serial, level, filters) {
   b6a74:	f002 ff60 	bl	b9938 <_Z16_fetch_usbserialv>
        stream_(&stream) {
   b6a78:	ae09      	add	r6, sp, #36	; 0x24
   b6a7a:	4680      	mov	r8, r0
   b6a7c:	a903      	add	r1, sp, #12
   b6a7e:	a806      	add	r0, sp, #24
   b6a80:	f7ff ffa6 	bl	b69d0 <_ZN5spark6VectorINS_17LogCategoryFilterENS_16DefaultAllocatorEEC1ERKS3_>
        filter_(level, filters) {
   b6a84:	46b9      	mov	r9, r7
        stream_(&stream) {
   b6a86:	a906      	add	r1, sp, #24
   b6a88:	4630      	mov	r0, r6
   b6a8a:	f7ff ffa1 	bl	b69d0 <_ZN5spark6VectorINS_17LogCategoryFilterENS_16DefaultAllocatorEEC1ERKS3_>
        filter_(level, filters) {
   b6a8e:	4b31      	ldr	r3, [pc, #196]	; (b6b54 <_GLOBAL__sub_I___appProductVersion+0x120>)
   b6a90:	f849 3b04 	str.w	r3, [r9], #4
   b6a94:	ad0c      	add	r5, sp, #48	; 0x30
   b6a96:	4631      	mov	r1, r6
   b6a98:	4628      	mov	r0, r5
   b6a9a:	f7ff ff99 	bl	b69d0 <_ZN5spark6VectorINS_17LogCategoryFilterENS_16DefaultAllocatorEEC1ERKS3_>
   b6a9e:	462a      	mov	r2, r5
   b6aa0:	211e      	movs	r1, #30
   b6aa2:	4648      	mov	r0, r9
   b6aa4:	f001 fea0 	bl	b87e8 <_ZN5spark6detail9LogFilterC1E8LogLevelNS_6VectorINS_17LogCategoryFilterENS_16DefaultAllocatorEEE>
   b6aa8:	4628      	mov	r0, r5
   b6aaa:	f7ff fc25 	bl	b62f8 <_ZN5spark6VectorINS_17LogCategoryFilterENS_16DefaultAllocatorEED1Ev>
        stream_(&stream) {
   b6aae:	4630      	mov	r0, r6
   b6ab0:	f7ff fc22 	bl	b62f8 <_ZN5spark6VectorINS_17LogCategoryFilterENS_16DefaultAllocatorEED1Ev>
   b6ab4:	4b28      	ldr	r3, [pc, #160]	; (b6b58 <_GLOBAL__sub_I___appProductVersion+0x124>)
   b6ab6:	603b      	str	r3, [r7, #0]
   b6ab8:	a806      	add	r0, sp, #24
   b6aba:	f8c7 8020 	str.w	r8, [r7, #32]
   b6abe:	f7ff fc1b 	bl	b62f8 <_ZN5spark6VectorINS_17LogCategoryFilterENS_16DefaultAllocatorEED1Ev>
   b6ac2:	4b26      	ldr	r3, [pc, #152]	; (b6b5c <_GLOBAL__sub_I___appProductVersion+0x128>)
   b6ac4:	603b      	str	r3, [r7, #0]
        Serial.begin();
   b6ac6:	f002 ff37 	bl	b9938 <_Z16_fetch_usbserialv>
   b6aca:	f44f 5116 	mov.w	r1, #9600	; 0x2580
   b6ace:	f002 ff21 	bl	b9914 <_ZN9USBSerial5beginEl>
        LogManager::instance()->addHandler(this);
   b6ad2:	f001 fb59 	bl	b8188 <_ZN5spark10LogManager8instanceEv>
   b6ad6:	4639      	mov	r1, r7
   b6ad8:	f001 fd5c 	bl	b8594 <_ZN5spark10LogManager10addHandlerEPNS_10LogHandlerE>
SerialLogHandler logHandler(LOG_LEVEL_INFO);
   b6adc:	a803      	add	r0, sp, #12
   b6ade:	f7ff fc0b 	bl	b62f8 <_ZN5spark6VectorINS_17LogCategoryFilterENS_16DefaultAllocatorEED1Ev>
        return HAL_Feature_Set(feature, true);
   b6ae2:	2101      	movs	r1, #1
   b6ae4:	4608      	mov	r0, r1
   b6ae6:	f000 fbcf 	bl	b7288 <HAL_Feature_Set>
	{ ::new (__functor._M_access()) _Functor(std::move(__f)); }
   b6aea:	4b1d      	ldr	r3, [pc, #116]	; (b6b60 <_GLOBAL__sub_I___appProductVersion+0x12c>)
   b6aec:	930c      	str	r3, [sp, #48]	; 0x30
    {
#if __cplusplus < 201103L
      // concept requirements
      __glibcxx_function_requires(_SGIAssignableConcept<_Tp>)
#endif
      _Tp __tmp = _GLIBCXX_MOVE(__a);
   b6aee:	e895 0003 	ldmia.w	r5, {r0, r1}
    Timer(unsigned period, timer_callback_fn callback_, bool one_shot=false) : running(false), handle(nullptr), callback(std::move(callback_)) {
   b6af2:	4b1c      	ldr	r3, [pc, #112]	; (b6b64 <_GLOBAL__sub_I___appProductVersion+0x130>)
   b6af4:	4a1c      	ldr	r2, [pc, #112]	; (b6b68 <_GLOBAL__sub_I___appProductVersion+0x134>)
   b6af6:	601a      	str	r2, [r3, #0]
      __a = _GLIBCXX_MOVE(__b);
   b6af8:	f103 020c 	add.w	r2, r3, #12
      _Tp __tmp = _GLIBCXX_MOVE(__a);
   b6afc:	e886 0003 	stmia.w	r6, {r0, r1}
      __a = _GLIBCXX_MOVE(__b);
   b6b00:	e892 0003 	ldmia.w	r2, {r0, r1}
   b6b04:	e885 0003 	stmia.w	r5, {r0, r1}
      __b = _GLIBCXX_MOVE(__tmp);
   b6b08:	e896 0003 	ldmia.w	r6, {r0, r1}
   b6b0c:	e882 0003 	stmia.w	r2, {r0, r1}
   b6b10:	4a16      	ldr	r2, [pc, #88]	; (b6b6c <_GLOBAL__sub_I___appProductVersion+0x138>)
   b6b12:	615a      	str	r2, [r3, #20]
      __a = _GLIBCXX_MOVE(__b);
   b6b14:	699a      	ldr	r2, [r3, #24]
   b6b16:	920f      	str	r2, [sp, #60]	; 0x3c
      __b = _GLIBCXX_MOVE(__tmp);
   b6b18:	4a15      	ldr	r2, [pc, #84]	; (b6b70 <_GLOBAL__sub_I___appProductVersion+0x13c>)
   b6b1a:	619a      	str	r2, [r3, #24]
        os_timer_create(&handle, period, invoke_timer, this, one_shot, nullptr);
   b6b1c:	2201      	movs	r2, #1
    Timer(unsigned period, timer_callback_fn callback_, bool one_shot=false) : running(false), handle(nullptr), callback(std::move(callback_)) {
   b6b1e:	711c      	strb	r4, [r3, #4]
   b6b20:	609c      	str	r4, [r3, #8]
        os_timer_create(&handle, period, invoke_timer, this, one_shot, nullptr);
   b6b22:	f242 7110 	movw	r1, #10000	; 0x2710
   b6b26:	9200      	str	r2, [sp, #0]
   b6b28:	f103 0008 	add.w	r0, r3, #8
   b6b2c:	4a11      	ldr	r2, [pc, #68]	; (b6b74 <_GLOBAL__sub_I___appProductVersion+0x140>)
   b6b2e:	9401      	str	r4, [sp, #4]
      __a = _GLIBCXX_MOVE(__b);
   b6b30:	940e      	str	r4, [sp, #56]	; 0x38
   b6b32:	f000 fbe1 	bl	b72f8 <os_timer_create>
    class function<_Res(_ArgTypes...)>
   b6b36:	4628      	mov	r0, r5
   b6b38:	f7fe fa98 	bl	b506c <_ZNSt14_Function_baseD1Ev>
}
   b6b3c:	b011      	add	sp, #68	; 0x44
   b6b3e:	e8bd 83f0 	ldmia.w	sp!, {r4, r5, r6, r7, r8, r9, pc}
   b6b42:	bf00      	nop
   b6b44:	2003b938 	.word	0x2003b938
   b6b48:	2003d4e0 	.word	0x2003d4e0
   b6b4c:	20037248 	.word	0x20037248
   b6b50:	ffff0000 	.word	0xffff0000
   b6b54:	000bccb4 	.word	0x000bccb4
   b6b58:	000bce68 	.word	0x000bce68
   b6b5c:	000bcccc 	.word	0x000bcccc
   b6b60:	000b4e59 	.word	0x000b4e59
   b6b64:	2003d508 	.word	0x2003d508
   b6b68:	000bcca0 	.word	0x000bcca0
   b6b6c:	000b4f95 	.word	0x000b4f95
   b6b70:	000b4fa9 	.word	0x000b4fa9
   b6b74:	000b4ed3 	.word	0x000b4ed3

000b6b78 <_Z20acquireSerial1Bufferv>:
 */
#include "pic_link.h"

// Grow the Serial1 RX buffer so a full batch (up to 1024 * 3 = 3072 bytes)
// can land without overflow before we drain it. (Ported from doc 2.)
hal_usart_buffer_config_t acquireSerial1Buffer(void) {
   b6b78:	b570      	push	{r4, r5, r6, lr}
  static uint8_t txBuf[256];
  static uint8_t rxBuf[4096];
  hal_usart_buffer_config_t cfg = {
   b6b7a:	4d04      	ldr	r5, [pc, #16]	; (b6b8c <_Z20acquireSerial1Bufferv+0x14>)
hal_usart_buffer_config_t acquireSerial1Buffer(void) {
   b6b7c:	4606      	mov	r6, r0
  hal_usart_buffer_config_t cfg = {
   b6b7e:	4604      	mov	r4, r0
   b6b80:	cd0f      	ldmia	r5!, {r0, r1, r2, r3}
   b6b82:	c40f      	stmia	r4!, {r0, r1, r2, r3}
   b6b84:	682b      	ldr	r3, [r5, #0]
   b6b86:	6023      	str	r3, [r4, #0]
      .rx_buffer      = rxBuf,
      .rx_buffer_size = sizeof(rxBuf),
      .tx_buffer      = txBuf,
      .tx_buffer_size = sizeof(txBuf)};
  return cfg;
}
   b6b88:	4630      	mov	r0, r6
   b6b8a:	bd70      	pop	{r4, r5, r6, pc}
   b6b8c:	000bc7c8 	.word	0x000bc7c8

000b6b90 <_ZN7PicLink5beginEm>:

void PicLink::begin(unsigned long baud) {
   b6b90:	b510      	push	{r4, lr}
  pinMode(PIC_WAKE_PIN, INPUT_PULLDOWN);
   b6b92:	200a      	movs	r0, #10
void PicLink::begin(unsigned long baud) {
   b6b94:	460c      	mov	r4, r1
  pinMode(PIC_WAKE_PIN, INPUT_PULLDOWN);
   b6b96:	2103      	movs	r1, #3
   b6b98:	f003 fbf0 	bl	ba37c <pinMode>
  Serial1.begin(baud, SERIAL_8N1);
   b6b9c:	f003 fc2c 	bl	ba3f8 <_Z22__fetch_global_Serial1v>
   b6ba0:	4621      	mov	r1, r4
   b6ba2:	2200      	movs	r2, #0
}
   b6ba4:	e8bd 4010 	ldmia.w	sp!, {r4, lr}
  Serial1.begin(baud, SERIAL_8N1);
   b6ba8:	f003 b916 	b.w	b9dd8 <_ZN11USARTSerial5beginEmm>

000b6bac <_ZN7PicLink10wakeIsHighEv>:

bool PicLink::wakeIsHigh() {
   b6bac:	b508      	push	{r3, lr}
  return digitalRead(PIC_WAKE_PIN) == HIGH;
   b6bae:	200a      	movs	r0, #10
   b6bb0:	f003 fc0e 	bl	ba3d0 <digitalRead>
}
   b6bb4:	1e43      	subs	r3, r0, #1
   b6bb6:	4258      	negs	r0, r3
   b6bb8:	4158      	adcs	r0, r3
   b6bba:	bd08      	pop	{r3, pc}

000b6bbc <_ZN7PicLink12waitWakeHighEm>:

bool PicLink::waitWakeHigh(uint32_t timeoutMs) {
   b6bbc:	b538      	push	{r3, r4, r5, lr}
   b6bbe:	460d      	mov	r5, r1
   b6bc0:	f000 fb22 	bl	b7208 <HAL_Timer_Get_Milli_Seconds>
   b6bc4:	4604      	mov	r4, r0
   b6bc6:	f000 fb1f 	bl	b7208 <HAL_Timer_Get_Milli_Seconds>
  uint32_t t = millis();
  while (millis() - t < timeoutMs) {
   b6bca:	1b00      	subs	r0, r0, r4
   b6bcc:	42a8      	cmp	r0, r5
    if (digitalRead(PIC_WAKE_PIN) == HIGH) return true;
   b6bce:	f04f 000a 	mov.w	r0, #10
  while (millis() - t < timeoutMs) {
   b6bd2:	d207      	bcs.n	b6be4 <_ZN7PicLink12waitWakeHighEm+0x28>
    if (digitalRead(PIC_WAKE_PIN) == HIGH) return true;
   b6bd4:	f003 fbfc 	bl	ba3d0 <digitalRead>
   b6bd8:	2801      	cmp	r0, #1
   b6bda:	d008      	beq.n	b6bee <_ZN7PicLink12waitWakeHighEm+0x32>
    delay(2);
   b6bdc:	2002      	movs	r0, #2
   b6bde:	f002 f9c5 	bl	b8f6c <delay>
  while (millis() - t < timeoutMs) {
   b6be2:	e7f0      	b.n	b6bc6 <_ZN7PicLink12waitWakeHighEm+0xa>
  }
  return digitalRead(PIC_WAKE_PIN) == HIGH;
   b6be4:	f003 fbf4 	bl	ba3d0 <digitalRead>
   b6be8:	1e43      	subs	r3, r0, #1
   b6bea:	4258      	negs	r0, r3
   b6bec:	4158      	adcs	r0, r3
}
   b6bee:	bd38      	pop	{r3, r4, r5, pc}

000b6bf0 <_ZN7PicLink8readByteEPhm>:

bool PicLink::readByte(uint8_t *out, uint32_t timeoutMs) {
   b6bf0:	b5f8      	push	{r3, r4, r5, r6, r7, lr}
   b6bf2:	460d      	mov	r5, r1
   b6bf4:	4616      	mov	r6, r2
   b6bf6:	f000 fb07 	bl	b7208 <HAL_Timer_Get_Milli_Seconds>
   b6bfa:	4607      	mov	r7, r0
  uint32_t start = millis();
  while (!Serial1.available()) {
   b6bfc:	f003 fbfc 	bl	ba3f8 <_Z22__fetch_global_Serial1v>
   b6c00:	6803      	ldr	r3, [r0, #0]
   b6c02:	691b      	ldr	r3, [r3, #16]
   b6c04:	4798      	blx	r3
   b6c06:	4604      	mov	r4, r0
   b6c08:	b930      	cbnz	r0, b6c18 <_ZN7PicLink8readByteEPhm+0x28>
   b6c0a:	f000 fafd 	bl	b7208 <HAL_Timer_Get_Milli_Seconds>
    if (millis() - start >= timeoutMs) return false;
   b6c0e:	1bc3      	subs	r3, r0, r7
   b6c10:	42b3      	cmp	r3, r6
   b6c12:	d3f3      	bcc.n	b6bfc <_ZN7PicLink8readByteEPhm+0xc>
   b6c14:	4620      	mov	r0, r4
   b6c16:	e006      	b.n	b6c26 <_ZN7PicLink8readByteEPhm+0x36>
  }
  *out = (uint8_t)Serial1.read();
   b6c18:	f003 fbee 	bl	ba3f8 <_Z22__fetch_global_Serial1v>
   b6c1c:	6803      	ldr	r3, [r0, #0]
   b6c1e:	695b      	ldr	r3, [r3, #20]
   b6c20:	4798      	blx	r3
   b6c22:	7028      	strb	r0, [r5, #0]
   b6c24:	2001      	movs	r0, #1
  return true;
}
   b6c26:	bdf8      	pop	{r3, r4, r5, r6, r7, pc}

000b6c28 <_ZN7PicLink9readBytesEPhmm>:

bool PicLink::readBytes(uint8_t *buf, uint32_t n, uint32_t timeoutMs) {
   b6c28:	b5f8      	push	{r3, r4, r5, r6, r7, lr}
   b6c2a:	4605      	mov	r5, r0
   b6c2c:	461e      	mov	r6, r3
   b6c2e:	460c      	mov	r4, r1
   b6c30:	188f      	adds	r7, r1, r2
  for (uint32_t i = 0; i < n; i++)
   b6c32:	42bc      	cmp	r4, r7
   b6c34:	d008      	beq.n	b6c48 <_ZN7PicLink9readBytesEPhmm+0x20>
    if (!readByte(&buf[i], timeoutMs)) return false;
   b6c36:	4621      	mov	r1, r4
   b6c38:	4632      	mov	r2, r6
   b6c3a:	4628      	mov	r0, r5
   b6c3c:	f7ff ffd8 	bl	b6bf0 <_ZN7PicLink8readByteEPhm>
   b6c40:	3401      	adds	r4, #1
   b6c42:	2800      	cmp	r0, #0
   b6c44:	d1f5      	bne.n	b6c32 <_ZN7PicLink9readBytesEPhmm+0xa>
  return true;
}
   b6c46:	bdf8      	pop	{r3, r4, r5, r6, r7, pc}
  return true;
   b6c48:	2001      	movs	r0, #1
   b6c4a:	e7fc      	b.n	b6c46 <_ZN7PicLink9readBytesEPhmm+0x1e>

000b6c4c <_ZN7PicLink9readCountEPm>:

// 4-byte big-endian COUNT (b[0] = MSB).
bool PicLink::readCount(uint32_t *val) {
   b6c4c:	b513      	push	{r0, r1, r4, lr}
  uint8_t b[4];
  if (!readBytes(b, 4, READ_TIMEOUT_MS)) return false;
   b6c4e:	2204      	movs	r2, #4
bool PicLink::readCount(uint32_t *val) {
   b6c50:	460c      	mov	r4, r1
  if (!readBytes(b, 4, READ_TIMEOUT_MS)) return false;
   b6c52:	23c8      	movs	r3, #200	; 0xc8
   b6c54:	eb0d 0102 	add.w	r1, sp, r2
   b6c58:	f7ff ffe6 	bl	b6c28 <_ZN7PicLink9readBytesEPhmm>
   b6c5c:	b110      	cbz	r0, b6c64 <_ZN7PicLink9readCountEPm+0x18>
  *val = ((uint32_t)b[0] << 24) | ((uint32_t)b[1] << 16) |
   b6c5e:	9b01      	ldr	r3, [sp, #4]
   b6c60:	ba1b      	rev	r3, r3
   b6c62:	6023      	str	r3, [r4, #0]
         ((uint32_t)b[2] << 8)  |  (uint32_t)b[3];
  return true;
}
   b6c64:	b002      	add	sp, #8
   b6c66:	bd10      	pop	{r4, pc}

000b6c68 <_ZN7PicLink9doReceiveEP9PicSamplet>:

// Send 0xAA, read COUNT, then decode each 10-14 sample inline (no big temp buf).
int PicLink::doReceive(PicSample *out, uint16_t maxSamples) {
   b6c68:	b5f7      	push	{r0, r1, r2, r4, r5, r6, r7, lr}
   b6c6a:	4606      	mov	r6, r0
   b6c6c:	460d      	mov	r5, r1
   b6c6e:	4617      	mov	r7, r2
  while (Serial1.available()) Serial1.read();   // flush stale
   b6c70:	f003 fbc2 	bl	ba3f8 <_Z22__fetch_global_Serial1v>
   b6c74:	6803      	ldr	r3, [r0, #0]
   b6c76:	691b      	ldr	r3, [r3, #16]
   b6c78:	4798      	blx	r3
   b6c7a:	4604      	mov	r4, r0
   b6c7c:	b128      	cbz	r0, b6c8a <_ZN7PicLink9doReceiveEP9PicSamplet+0x22>
   b6c7e:	f003 fbbb 	bl	ba3f8 <_Z22__fetch_global_Serial1v>
   b6c82:	6803      	ldr	r3, [r0, #0]
   b6c84:	695b      	ldr	r3, [r3, #20]
   b6c86:	4798      	blx	r3
   b6c88:	e7f2      	b.n	b6c70 <_ZN7PicLink9doReceiveEP9PicSamplet+0x8>

  Serial1.write(PIC_AA);
   b6c8a:	f003 fbb5 	bl	ba3f8 <_Z22__fetch_global_Serial1v>
  bool breakRx(void);

  inline size_t write(unsigned long n) { return write((uint16_t)n); }
  inline size_t write(long n) { return write((uint16_t)n); }
  inline size_t write(unsigned int n) { return write((uint16_t)n); }
  inline size_t write(int n) { return write((uint16_t)n); }
   b6c8e:	21aa      	movs	r1, #170	; 0xaa
   b6c90:	f003 f8ac 	bl	b9dec <_ZN11USARTSerial5writeEt>
  Serial1.flush();
   b6c94:	f003 fbb0 	bl	ba3f8 <_Z22__fetch_global_Serial1v>
   b6c98:	6803      	ldr	r3, [r0, #0]
   b6c9a:	69db      	ldr	r3, [r3, #28]
   b6c9c:	4798      	blx	r3

  uint32_t count = 0;
  if (!readCount(&count))      return PIC_ERR_COUNT_TIMEOUT;
   b6c9e:	a901      	add	r1, sp, #4
   b6ca0:	4630      	mov	r0, r6
  uint32_t count = 0;
   b6ca2:	9401      	str	r4, [sp, #4]
  if (!readCount(&count))      return PIC_ERR_COUNT_TIMEOUT;
   b6ca4:	f7ff ffd2 	bl	b6c4c <_ZN7PicLink9readCountEPm>
   b6ca8:	b350      	cbz	r0, b6d00 <_ZN7PicLink9doReceiveEP9PicSamplet+0x98>
  if (count == 0)              return 0;
   b6caa:	9b01      	ldr	r3, [sp, #4]
   b6cac:	b18b      	cbz	r3, b6cd2 <_ZN7PicLink9doReceiveEP9PicSamplet+0x6a>
  if (count > PIC_MAX_RECORDS || count > maxSamples) return PIC_ERR_BAD_COUNT;
   b6cae:	f5b3 6f80 	cmp.w	r3, #1024	; 0x400
   b6cb2:	d828      	bhi.n	b6d06 <_ZN7PicLink9doReceiveEP9PicSamplet+0x9e>
   b6cb4:	42bb      	cmp	r3, r7
   b6cb6:	d826      	bhi.n	b6d06 <_ZN7PicLink9doReceiveEP9PicSamplet+0x9e>

  for (uint32_t i = 0; i < count; i++) {
   b6cb8:	4627      	mov	r7, r4
   b6cba:	9c01      	ldr	r4, [sp, #4]
   b6cbc:	42bc      	cmp	r4, r7
   b6cbe:	d908      	bls.n	b6cd2 <_ZN7PicLink9doReceiveEP9PicSamplet+0x6a>
    uint8_t b[PIC_BYTES_PER_SAMPLE];
    if (!readBytes(b, PIC_BYTES_PER_SAMPLE, READ_TIMEOUT_MS))
   b6cc0:	23c8      	movs	r3, #200	; 0xc8
   b6cc2:	2203      	movs	r2, #3
   b6cc4:	4669      	mov	r1, sp
   b6cc6:	4630      	mov	r0, r6
   b6cc8:	f7ff ffae 	bl	b6c28 <_ZN7PicLink9readBytesEPhmm>
   b6ccc:	b920      	cbnz	r0, b6cd8 <_ZN7PicLink9doReceiveEP9PicSamplet+0x70>
      return PIC_ERR_BODY_TIMEOUT;
   b6cce:	f06f 0403 	mvn.w	r4, #3
    uint32_t word = ((uint32_t)b[0] << 16) | ((uint32_t)b[1] << 8) | b[2];
    out[i].index  = (uint16_t)((word >> 14) & 0x03FF);
    out[i].pulses = (uint16_t)( word        & 0x3FFF);
  }
  return (int)count;
}
   b6cd2:	4620      	mov	r0, r4
   b6cd4:	b003      	add	sp, #12
   b6cd6:	bdf0      	pop	{r4, r5, r6, r7, pc}
    uint32_t word = ((uint32_t)b[0] << 16) | ((uint32_t)b[1] << 8) | b[2];
   b6cd8:	f89d 3001 	ldrb.w	r3, [sp, #1]
   b6cdc:	f89d 2000 	ldrb.w	r2, [sp]
   b6ce0:	021b      	lsls	r3, r3, #8
   b6ce2:	ea43 4302 	orr.w	r3, r3, r2, lsl #16
   b6ce6:	f89d 2002 	ldrb.w	r2, [sp, #2]
    out[i].pulses = (uint16_t)( word        & 0x3FFF);
   b6cea:	1ca9      	adds	r1, r5, #2
    uint32_t word = ((uint32_t)b[0] << 16) | ((uint32_t)b[1] << 8) | b[2];
   b6cec:	431a      	orrs	r2, r3
    out[i].index  = (uint16_t)((word >> 14) & 0x03FF);
   b6cee:	0b9b      	lsrs	r3, r3, #14
   b6cf0:	f825 3027 	strh.w	r3, [r5, r7, lsl #2]
    out[i].pulses = (uint16_t)( word        & 0x3FFF);
   b6cf4:	f3c2 030d 	ubfx	r3, r2, #0, #14
   b6cf8:	f821 3027 	strh.w	r3, [r1, r7, lsl #2]
  for (uint32_t i = 0; i < count; i++) {
   b6cfc:	3701      	adds	r7, #1
   b6cfe:	e7dc      	b.n	b6cba <_ZN7PicLink9doReceiveEP9PicSamplet+0x52>
  if (!readCount(&count))      return PIC_ERR_COUNT_TIMEOUT;
   b6d00:	f06f 0401 	mvn.w	r4, #1
   b6d04:	e7e5      	b.n	b6cd2 <_ZN7PicLink9doReceiveEP9PicSamplet+0x6a>
  if (count > PIC_MAX_RECORDS || count > maxSamples) return PIC_ERR_BAD_COUNT;
   b6d06:	f06f 0402 	mvn.w	r4, #2
   b6d0a:	e7e2      	b.n	b6cd2 <_ZN7PicLink9doReceiveEP9PicSamplet+0x6a>

000b6d0c <_ZN7PicLink13receiveUploadEP9PicSamplet>:

int PicLink::receiveUpload(PicSample *out, uint16_t maxSamples) {
  // Caller confirmed WAKE HIGH (Case B).
  return doReceive(out, maxSamples);
   b6d0c:	f7ff bfac 	b.w	b6c68 <_ZN7PicLink9doReceiveEP9PicSamplet>

000b6d10 <_ZN7PicLink13requestUploadEP9PicSamplet>:
}

int PicLink::requestUpload(PicSample *out, uint16_t maxSamples) {
   b6d10:	b570      	push	{r4, r5, r6, lr}
   b6d12:	4604      	mov	r4, r0
   b6d14:	460d      	mov	r5, r1
   b6d16:	4616      	mov	r6, r2
  while (Serial1.available()) Serial1.read();   // flush stale
   b6d18:	f003 fb6e 	bl	ba3f8 <_Z22__fetch_global_Serial1v>
   b6d1c:	6803      	ldr	r3, [r0, #0]
   b6d1e:	691b      	ldr	r3, [r3, #16]
   b6d20:	4798      	blx	r3
   b6d22:	b128      	cbz	r0, b6d30 <_ZN7PicLink13requestUploadEP9PicSamplet+0x20>
   b6d24:	f003 fb68 	bl	ba3f8 <_Z22__fetch_global_Serial1v>
   b6d28:	6803      	ldr	r3, [r0, #0]
   b6d2a:	695b      	ldr	r3, [r3, #20]
   b6d2c:	4798      	blx	r3
   b6d2e:	e7f3      	b.n	b6d18 <_ZN7PicLink13requestUploadEP9PicSamplet+0x8>
  Serial1.write(PIC_F0);                        // may be lost on PIC clock start
   b6d30:	f003 fb62 	bl	ba3f8 <_Z22__fetch_global_Serial1v>
   b6d34:	21f0      	movs	r1, #240	; 0xf0
   b6d36:	f003 f859 	bl	b9dec <_ZN11USARTSerial5writeEt>
  Serial1.flush();
   b6d3a:	f003 fb5d 	bl	ba3f8 <_Z22__fetch_global_Serial1v>
   b6d3e:	6803      	ldr	r3, [r0, #0]
   b6d40:	69db      	ldr	r3, [r3, #28]
   b6d42:	4798      	blx	r3
  if (!waitWakeHigh(WAKE_HIGH_WAIT_MS)) return PIC_ERR_NO_WAKE;
   b6d44:	f44f 61fa 	mov.w	r1, #2000	; 0x7d0
   b6d48:	4620      	mov	r0, r4
   b6d4a:	f7ff ff37 	bl	b6bbc <_ZN7PicLink12waitWakeHighEm>
   b6d4e:	b130      	cbz	r0, b6d5e <_ZN7PicLink13requestUploadEP9PicSamplet+0x4e>
  return doReceive(out, maxSamples);            // Case A
   b6d50:	4632      	mov	r2, r6
   b6d52:	4629      	mov	r1, r5
   b6d54:	4620      	mov	r0, r4
}
   b6d56:	e8bd 4070 	ldmia.w	sp!, {r4, r5, r6, lr}
  return doReceive(out, maxSamples);            // Case A
   b6d5a:	f7ff bf85 	b.w	b6c68 <_ZN7PicLink9doReceiveEP9PicSamplet>
}
   b6d5e:	f06f 0009 	mvn.w	r0, #9
   b6d62:	bd70      	pop	{r4, r5, r6, pc}

000b6d64 <_ZN7PicLink10pushConfigERK9AppConfig>:
//   [3..4] shutoffVolGal * 10    (uint16 BE)
//   [5]    autoShutoff (0/1)
//   [6]    alertMode   (0..2)
//   [7]    XOR checksum of bytes [0..6]
// The PIC must reply 0x06 (ACK) on success; absence of ACK is logged, not fatal.
bool PicLink::pushConfig(const AppConfig &cfg) {
   b6d64:	b5f0      	push	{r4, r5, r6, r7, lr}
   b6d66:	4607      	mov	r7, r0
   b6d68:	b085      	sub	sp, #20
   b6d6a:	460d      	mov	r5, r1
  while (Serial1.available()) Serial1.read();
   b6d6c:	f003 fb44 	bl	ba3f8 <_Z22__fetch_global_Serial1v>
   b6d70:	6803      	ldr	r3, [r0, #0]
   b6d72:	691b      	ldr	r3, [r3, #16]
   b6d74:	4798      	blx	r3
   b6d76:	4604      	mov	r4, r0
   b6d78:	b128      	cbz	r0, b6d86 <_ZN7PicLink10pushConfigERK9AppConfig+0x22>
   b6d7a:	f003 fb3d 	bl	ba3f8 <_Z22__fetch_global_Serial1v>
   b6d7e:	6803      	ldr	r3, [r0, #0]
   b6d80:	695b      	ldr	r3, [r3, #20]
   b6d82:	4798      	blx	r3
   b6d84:	e7f2      	b.n	b6d6c <_ZN7PicLink10pushConfigERK9AppConfig+0x8>
  Serial1.write(PIC_F0);
   b6d86:	f003 fb37 	bl	ba3f8 <_Z22__fetch_global_Serial1v>
   b6d8a:	21f0      	movs	r1, #240	; 0xf0
   b6d8c:	f003 f82e 	bl	b9dec <_ZN11USARTSerial5writeEt>
  Serial1.flush();
   b6d90:	f003 fb32 	bl	ba3f8 <_Z22__fetch_global_Serial1v>
   b6d94:	6803      	ldr	r3, [r0, #0]
   b6d96:	69db      	ldr	r3, [r3, #28]
   b6d98:	4798      	blx	r3
  if (!waitWakeHigh(WAKE_HIGH_WAIT_MS)) return false;
   b6d9a:	f44f 61fa 	mov.w	r1, #2000	; 0x7d0
   b6d9e:	4638      	mov	r0, r7
   b6da0:	f7ff ff0c 	bl	b6bbc <_ZN7PicLink12waitWakeHighEm>
   b6da4:	4606      	mov	r6, r0
   b6da6:	2800      	cmp	r0, #0
   b6da8:	d05c      	beq.n	b6e64 <_ZN7PicLink10pushConfigERK9AppConfig+0x100>

  uint16_t leakCenti = (uint16_t)(cfg.leakThreshGpm * 100.0f + 0.5f);
   b6daa:	eddf 6a32 	vldr	s13, [pc, #200]	; b6e74 <_ZN7PicLink10pushConfigERK9AppConfig+0x110>
   b6dae:	ed95 6a00 	vldr	s12, [r5]
   b6db2:	eef6 7a00 	vmov.f32	s15, #96	; 0x3f000000  0.5
   b6db6:	eeb0 7a67 	vmov.f32	s14, s15
   b6dba:	eea6 7a26 	vfma.f32	s14, s12, s13
  uint16_t volDeci   = (uint16_t)(cfg.shutoffVolGal * 10.0f  + 0.5f);

  uint8_t f[8];
  f[0] = PIC_C0;
   b6dbe:	21c0      	movs	r1, #192	; 0xc0
   b6dc0:	f88d 1008 	strb.w	r1, [sp, #8]
  uint16_t volDeci   = (uint16_t)(cfg.shutoffVolGal * 10.0f  + 0.5f);
   b6dc4:	edd5 6a01 	vldr	s13, [r5, #4]
  uint16_t leakCenti = (uint16_t)(cfg.leakThreshGpm * 100.0f + 0.5f);
   b6dc8:	eebc 7ac7 	vcvt.u32.f32	s14, s14
   b6dcc:	ee17 2a10 	vmov	r2, s14
  uint16_t volDeci   = (uint16_t)(cfg.shutoffVolGal * 10.0f  + 0.5f);
   b6dd0:	eeb2 7a04 	vmov.f32	s14, #36	; 0x41200000  10.0
   b6dd4:	eee6 7a87 	vfma.f32	s15, s13, s14
  f[1] = (uint8_t)(leakCenti >> 8);
   b6dd8:	f3c2 2107 	ubfx	r1, r2, #8, #8
  f[2] = (uint8_t)(leakCenti & 0xFF);
   b6ddc:	f88d 200a 	strb.w	r2, [sp, #10]
  f[1] = (uint8_t)(leakCenti >> 8);
   b6de0:	f88d 1009 	strb.w	r1, [sp, #9]
  uint16_t volDeci   = (uint16_t)(cfg.shutoffVolGal * 10.0f  + 0.5f);
   b6de4:	eefc 7ae7 	vcvt.u32.f32	s15, s15
   b6de8:	ee17 3a90 	vmov	r3, s15
  f[3] = (uint8_t)(volDeci >> 8);
   b6dec:	f3c3 2207 	ubfx	r2, r3, #8, #8
  f[4] = (uint8_t)(volDeci & 0xFF);
   b6df0:	f88d 300c 	strb.w	r3, [sp, #12]
  f[5] = cfg.autoShutoff ? 1 : 0;
   b6df4:	7a2b      	ldrb	r3, [r5, #8]
  f[3] = (uint8_t)(volDeci >> 8);
   b6df6:	f88d 200b 	strb.w	r2, [sp, #11]
  f[5] = cfg.autoShutoff ? 1 : 0;
   b6dfa:	3b00      	subs	r3, #0
   b6dfc:	bf18      	it	ne
   b6dfe:	2301      	movne	r3, #1
   b6e00:	f88d 300d 	strb.w	r3, [sp, #13]
  f[6] = cfg.alertMode;
   b6e04:	7a6b      	ldrb	r3, [r5, #9]
   b6e06:	f88d 300e 	strb.w	r3, [sp, #14]
  uint8_t ck = 0;
  for (int i = 0; i < 7; i++) ck ^= f[i];
   b6e0a:	aa02      	add	r2, sp, #8
  uint8_t ck = 0;
   b6e0c:	4623      	mov	r3, r4
  for (int i = 0; i < 7; i++) ck ^= f[i];
   b6e0e:	f812 0b01 	ldrb.w	r0, [r2], #1
   b6e12:	3401      	adds	r4, #1
   b6e14:	2c07      	cmp	r4, #7
   b6e16:	ea83 0300 	eor.w	r3, r3, r0
   b6e1a:	d1f8      	bne.n	b6e0e <_ZN7PicLink10pushConfigERK9AppConfig+0xaa>
  f[7] = ck;
   b6e1c:	f88d 300f 	strb.w	r3, [sp, #15]

  Serial1.write(f, sizeof(f));
   b6e20:	f003 faea 	bl	ba3f8 <_Z22__fetch_global_Serial1v>
   b6e24:	6803      	ldr	r3, [r0, #0]
   b6e26:	2208      	movs	r2, #8
   b6e28:	eb0d 0102 	add.w	r1, sp, r2
   b6e2c:	68db      	ldr	r3, [r3, #12]
   b6e2e:	4798      	blx	r3
  Serial1.flush();
   b6e30:	f003 fae2 	bl	ba3f8 <_Z22__fetch_global_Serial1v>
   b6e34:	6803      	ldr	r3, [r0, #0]
   b6e36:	69db      	ldr	r3, [r3, #28]
   b6e38:	4798      	blx	r3

  uint8_t ack = 0;
   b6e3a:	2300      	movs	r3, #0
  if (readByte(&ack, ACK_TIMEOUT_MS) && ack == 0x06) {
   b6e3c:	f44f 72fa 	mov.w	r2, #500	; 0x1f4
   b6e40:	f10d 0107 	add.w	r1, sp, #7
   b6e44:	4638      	mov	r0, r7
  uint8_t ack = 0;
   b6e46:	f88d 3007 	strb.w	r3, [sp, #7]
  if (readByte(&ack, ACK_TIMEOUT_MS) && ack == 0x06) {
   b6e4a:	f7ff fed1 	bl	b6bf0 <_ZN7PicLink8readByteEPhm>
   b6e4e:	4604      	mov	r4, r0
   b6e50:	b158      	cbz	r0, b6e6a <_ZN7PicLink10pushConfigERK9AppConfig+0x106>
   b6e52:	f89d 3007 	ldrb.w	r3, [sp, #7]
   b6e56:	2b06      	cmp	r3, #6
   b6e58:	d107      	bne.n	b6e6a <_ZN7PicLink10pushConfigERK9AppConfig+0x106>
    Log.info("PIC: config ACK");
   b6e5a:	4907      	ldr	r1, [pc, #28]	; (b6e78 <_ZN7PicLink10pushConfigERK9AppConfig+0x114>)
   b6e5c:	4807      	ldr	r0, [pc, #28]	; (b6e7c <_ZN7PicLink10pushConfigERK9AppConfig+0x118>)
   b6e5e:	f7fe f994 	bl	b518a <_ZNK5spark6Logger4infoEPKcz>
    return true;
   b6e62:	4626      	mov	r6, r4
  }
  Log.warn("PIC: config sent, no ACK (frame delivered anyway)");
  return true;   // frame was sent; PIC may simply not ACK
}
   b6e64:	4630      	mov	r0, r6
   b6e66:	b005      	add	sp, #20
   b6e68:	bdf0      	pop	{r4, r5, r6, r7, pc}
  Log.warn("PIC: config sent, no ACK (frame delivered anyway)");
   b6e6a:	4905      	ldr	r1, [pc, #20]	; (b6e80 <_ZN7PicLink10pushConfigERK9AppConfig+0x11c>)
   b6e6c:	4803      	ldr	r0, [pc, #12]	; (b6e7c <_ZN7PicLink10pushConfigERK9AppConfig+0x118>)
   b6e6e:	f7fe f99a 	bl	b51a6 <_ZNK5spark6Logger4warnEPKcz>
  return true;   // frame was sent; PIC may simply not ACK
   b6e72:	e7f7      	b.n	b6e64 <_ZN7PicLink10pushConfigERK9AppConfig+0x100>
   b6e74:	42c80000 	.word	0x42c80000
   b6e78:	000bccf0 	.word	0x000bccf0
   b6e7c:	2003e658 	.word	0x2003e658
   b6e80:	000bcd00 	.word	0x000bcd00

000b6e84 <_ZN10JsonBufferD1Ev>:


JsonBuffer::JsonBuffer()  : buffer(0), bufferLen(0), offset(0), staticBuffers(false) {

}
JsonBuffer::~JsonBuffer() {
   b6e84:	b510      	push	{r4, lr}
   b6e86:	4b05      	ldr	r3, [pc, #20]	; (b6e9c <_ZN10JsonBufferD1Ev+0x18>)
   b6e88:	6003      	str	r3, [r0, #0]
	if (!staticBuffers && buffer) {
   b6e8a:	7c03      	ldrb	r3, [r0, #16]
JsonBuffer::~JsonBuffer() {
   b6e8c:	4604      	mov	r4, r0
	if (!staticBuffers && buffer) {
   b6e8e:	b91b      	cbnz	r3, b6e98 <_ZN10JsonBufferD1Ev+0x14>
   b6e90:	6840      	ldr	r0, [r0, #4]
   b6e92:	b108      	cbz	r0, b6e98 <_ZN10JsonBufferD1Ev+0x14>
		free(buffer);
   b6e94:	f000 fcde 	bl	b7854 <free>
	}
}
   b6e98:	4620      	mov	r0, r4
   b6e9a:	bd10      	pop	{r4, pc}
   b6e9c:	000bcd4c 	.word	0x000bcd4c

000b6ea0 <_ZN10JsonBufferD0Ev>:
JsonBuffer::~JsonBuffer() {
   b6ea0:	b510      	push	{r4, lr}
   b6ea2:	4604      	mov	r4, r0
}
   b6ea4:	f7ff ffee 	bl	b6e84 <_ZN10JsonBufferD1Ev>
   b6ea8:	4620      	mov	r0, r4
   b6eaa:	2114      	movs	r1, #20
   b6eac:	f7fd ffbb 	bl	b4e26 <_ZdlPvj>
   b6eb0:	4620      	mov	r0, r4
   b6eb2:	bd10      	pop	{r4, pc}

000b6eb4 <_ZN10JsonWriterD1Ev>:
//
JsonWriter::JsonWriter() : JsonBuffer(), floatPlaces(-1) {
	init();
}

JsonWriter::~JsonWriter() {
   b6eb4:	b510      	push	{r4, lr}
   b6eb6:	4b03      	ldr	r3, [pc, #12]	; (b6ec4 <_ZN10JsonWriterD1Ev+0x10>)
   b6eb8:	6003      	str	r3, [r0, #0]
   b6eba:	4604      	mov	r4, r0
   b6ebc:	f7ff ffe2 	bl	b6e84 <_ZN10JsonBufferD1Ev>

}
   b6ec0:	4620      	mov	r0, r4
   b6ec2:	bd10      	pop	{r4, pc}
   b6ec4:	000bcd5c 	.word	0x000bcd5c

000b6ec8 <_ZN10JsonWriterD0Ev>:
JsonWriter::~JsonWriter() {
   b6ec8:	b510      	push	{r4, lr}
   b6eca:	4604      	mov	r4, r0
}
   b6ecc:	f7ff fff2 	bl	b6eb4 <_ZN10JsonWriterD1Ev>
   b6ed0:	4620      	mov	r0, r4
   b6ed2:	2130      	movs	r1, #48	; 0x30
   b6ed4:	f7fd ffa7 	bl	b4e26 <_ZdlPvj>
   b6ed8:	4620      	mov	r0, r4
   b6eda:	bd10      	pop	{r4, pc}

000b6edc <_ZN10JsonWriter4initEv>:
	init();
}

void JsonWriter::init() {
	// Save start of insertion point for later
	offset = 0;
   b6edc:	2300      	movs	r3, #0

	contextIndex = 0;
	context[contextIndex].isFirst = true;
   b6ede:	2201      	movs	r2, #1
	offset = 0;
   b6ee0:	60c3      	str	r3, [r0, #12]
	contextIndex = 0;
   b6ee2:	6143      	str	r3, [r0, #20]
	context[contextIndex].isFirst = true;
   b6ee4:	8302      	strh	r2, [r0, #24]
	context[contextIndex].terminator = 0;

	truncated = false;
   b6ee6:	f880 302a 	strb.w	r3, [r0, #42]	; 0x2a

}
   b6eea:	4770      	bx	lr

000b6eec <_ZN10JsonWriterC1EPcj>:
JsonBuffer::JsonBuffer(char *buffer, size_t bufferLen)  : buffer(buffer), bufferLen(bufferLen), offset(0), staticBuffers(true) {
   b6eec:	e9c0 1201 	strd	r1, r2, [r0, #4]
JsonWriter::JsonWriter(char *buffer, size_t bufferLen) : JsonBuffer(buffer, bufferLen), floatPlaces(-1) {
   b6ef0:	b508      	push	{r3, lr}
JsonBuffer::JsonBuffer(char *buffer, size_t bufferLen)  : buffer(buffer), bufferLen(bufferLen), offset(0), staticBuffers(true) {
   b6ef2:	2200      	movs	r2, #0
   b6ef4:	60c2      	str	r2, [r0, #12]
   b6ef6:	2201      	movs	r2, #1
   b6ef8:	7402      	strb	r2, [r0, #16]
JsonWriter::JsonWriter(char *buffer, size_t bufferLen) : JsonBuffer(buffer, bufferLen), floatPlaces(-1) {
   b6efa:	4a04      	ldr	r2, [pc, #16]	; (b6f0c <_ZN10JsonWriterC1EPcj+0x20>)
   b6efc:	6002      	str	r2, [r0, #0]
   b6efe:	f04f 32ff 	mov.w	r2, #4294967295
   b6f02:	62c2      	str	r2, [r0, #44]	; 0x2c
	init();
   b6f04:	f7ff ffea 	bl	b6edc <_ZN10JsonWriter4initEv>
}
   b6f08:	bd08      	pop	{r3, pc}
   b6f0a:	bf00      	nop
   b6f0c:	000bcd5c 	.word	0x000bcd5c

000b6f10 <_ZN10JsonWriter10insertCharEc>:
	}
}


void JsonWriter::insertChar(char ch) {
	if (offset < bufferLen) {
   b6f10:	e9d0 2302 	ldrd	r2, r3, [r0, #8]
void JsonWriter::insertChar(char ch) {
   b6f14:	b510      	push	{r4, lr}
	if (offset < bufferLen) {
   b6f16:	4293      	cmp	r3, r2
		buffer[offset++] = ch;
   b6f18:	bf3f      	itttt	cc
   b6f1a:	6842      	ldrcc	r2, [r0, #4]
   b6f1c:	1c5c      	addcc	r4, r3, #1
   b6f1e:	60c4      	strcc	r4, [r0, #12]
   b6f20:	54d1      	strbcc	r1, [r2, r3]
	}
	else {
		truncated = true;
   b6f22:	bf24      	itt	cs
   b6f24:	2301      	movcs	r3, #1
   b6f26:	f880 302a 	strbcs.w	r3, [r0, #42]	; 0x2a
	}
}
   b6f2a:	bd10      	pop	{r4, pc}

000b6f2c <_ZN10JsonWriter19finishObjectOrArrayEv>:
void JsonWriter::finishObjectOrArray() {
   b6f2c:	b510      	push	{r4, lr}
	if (contextIndex > 0) {
   b6f2e:	6943      	ldr	r3, [r0, #20]
void JsonWriter::finishObjectOrArray() {
   b6f30:	4604      	mov	r4, r0
	if (contextIndex > 0) {
   b6f32:	b143      	cbz	r3, b6f46 <_ZN10JsonWriter19finishObjectOrArrayEv+0x1a>
		if (context[contextIndex].terminator != 0) {
   b6f34:	eb00 0343 	add.w	r3, r0, r3, lsl #1
   b6f38:	7e59      	ldrb	r1, [r3, #25]
   b6f3a:	b109      	cbz	r1, b6f40 <_ZN10JsonWriter19finishObjectOrArrayEv+0x14>
			insertChar(context[contextIndex].terminator);
   b6f3c:	f7ff ffe8 	bl	b6f10 <_ZN10JsonWriter10insertCharEc>
		contextIndex--;
   b6f40:	6963      	ldr	r3, [r4, #20]
   b6f42:	3b01      	subs	r3, #1
   b6f44:	6163      	str	r3, [r4, #20]
	if (offset < bufferLen) {
   b6f46:	e9d4 1002 	ldrd	r1, r0, [r4, #8]
		buffer[offset] = 0;
   b6f4a:	6863      	ldr	r3, [r4, #4]
	if (offset < bufferLen) {
   b6f4c:	4288      	cmp	r0, r1
   b6f4e:	f04f 0200 	mov.w	r2, #0
		buffer[bufferLen - 1] = 0;
   b6f52:	bf2a      	itet	cs
   b6f54:	185b      	addcs	r3, r3, r1
		buffer[offset] = 0;
   b6f56:	541a      	strbcc	r2, [r3, r0]
		buffer[bufferLen - 1] = 0;
   b6f58:	f803 2c01 	strbcs.w	r2, [r3, #-1]
}
   b6f5c:	bd10      	pop	{r4, pc}

000b6f5e <_ZN10JsonWriter14insertvsprintfEPKcSt9__va_list>:
	va_start(ap, fmt);
	insertvsprintf(fmt, ap);
	va_end(ap);
}

void JsonWriter::insertvsprintf(const char *fmt, va_list ap) {
   b6f5e:	b570      	push	{r4, r5, r6, lr}
   b6f60:	4604      	mov	r4, r0
	size_t spaceAvailable = bufferLen - offset;
   b6f62:	e9d0 5002 	ldrd	r5, r0, [r0, #8]

	size_t count = vsnprintf(&buffer[offset], spaceAvailable, fmt, ap);
   b6f66:	6866      	ldr	r6, [r4, #4]
	size_t spaceAvailable = bufferLen - offset;
   b6f68:	1a2d      	subs	r5, r5, r0
void JsonWriter::insertvsprintf(const char *fmt, va_list ap) {
   b6f6a:	4613      	mov	r3, r2
	size_t count = vsnprintf(&buffer[offset], spaceAvailable, fmt, ap);
   b6f6c:	4430      	add	r0, r6
   b6f6e:	460a      	mov	r2, r1
   b6f70:	4629      	mov	r1, r5
   b6f72:	f000 fc87 	bl	b7884 <vsnprintf>
	if (count <= spaceAvailable) {
   b6f76:	4285      	cmp	r5, r0
		offset += count;
   b6f78:	bf2d      	iteet	cs
   b6f7a:	68e3      	ldrcs	r3, [r4, #12]
	}
	else {
		// Truncated, no more space left
		offset = bufferLen;
   b6f7c:	68a3      	ldrcc	r3, [r4, #8]
   b6f7e:	60e3      	strcc	r3, [r4, #12]
		offset += count;
   b6f80:	18c0      	addcs	r0, r0, r3
		truncated = true;
   b6f82:	bf36      	itet	cc
   b6f84:	2301      	movcc	r3, #1
		offset += count;
   b6f86:	60e0      	strcs	r0, [r4, #12]
		truncated = true;
   b6f88:	f884 302a 	strbcc.w	r3, [r4, #42]	; 0x2a
	}
}
   b6f8c:	bd70      	pop	{r4, r5, r6, pc}

000b6f8e <_ZN10JsonWriter13insertsprintfEPKcz>:
void JsonWriter::insertsprintf(const char *fmt, ...) {
   b6f8e:	b40e      	push	{r1, r2, r3}
   b6f90:	b503      	push	{r0, r1, lr}
   b6f92:	aa03      	add	r2, sp, #12
   b6f94:	f852 1b04 	ldr.w	r1, [r2], #4
	va_start(ap, fmt);
   b6f98:	9201      	str	r2, [sp, #4]
	insertvsprintf(fmt, ap);
   b6f9a:	f7ff ffe0 	bl	b6f5e <_ZN10JsonWriter14insertvsprintfEPKcSt9__va_list>
}
   b6f9e:	b002      	add	sp, #8
   b6fa0:	f85d eb04 	ldr.w	lr, [sp], #4
   b6fa4:	b003      	add	sp, #12
   b6fa6:	4770      	bx	lr

000b6fa8 <_ZN10JsonWriter12insertStringEPKcb>:
void JsonWriter::insertString(const char *s, bool quoted) {
   b6fa8:	e92d 43f8 	stmdb	sp!, {r3, r4, r5, r6, r7, r8, r9, lr}
   b6fac:	4604      	mov	r4, r0
   b6fae:	460e      	mov	r6, r1
	if (quoted) {
   b6fb0:	4617      	mov	r7, r2
   b6fb2:	b112      	cbz	r2, b6fba <_ZN10JsonWriter12insertStringEPKcb+0x12>
		insertChar('"');
   b6fb4:	2122      	movs	r1, #34	; 0x22
   b6fb6:	f7ff ffab 	bl	b6f10 <_ZN10JsonWriter10insertCharEc>
				insertsprintf("\\u%04X", utf16);
   b6fba:	f8df 810c 	ldr.w	r8, [pc, #268]	; b70c8 <_ZN10JsonWriter12insertStringEPKcb+0x120>
void JsonWriter::insertString(const char *s, bool quoted) {
   b6fbe:	2500      	movs	r5, #0
	for(size_t ii = 0; s[ii] && offset < bufferLen; ii++) {
   b6fc0:	5d71      	ldrb	r1, [r6, r5]
   b6fc2:	eb06 0905 	add.w	r9, r6, r5
   b6fc6:	2900      	cmp	r1, #0
   b6fc8:	d074      	beq.n	b70b4 <_ZN10JsonWriter12insertStringEPKcb+0x10c>
   b6fca:	e9d4 3202 	ldrd	r3, r2, [r4, #8]
   b6fce:	429a      	cmp	r2, r3
   b6fd0:	d270      	bcs.n	b70b4 <_ZN10JsonWriter12insertStringEPKcb+0x10c>
		if (s[ii] & 0x80) {
   b6fd2:	060b      	lsls	r3, r1, #24
   b6fd4:	d534      	bpl.n	b7040 <_ZN10JsonWriter12insertStringEPKcb+0x98>
			if (((s[ii] & 0b11110000) == 0b11100000) && ((s[ii+1] & 0b11000000) == 0b10000000) && ((s[ii+2] & 0b11000000) == 0b10000000)) {
   b6fd6:	f001 03f0 	and.w	r3, r1, #240	; 0xf0
   b6fda:	2be0      	cmp	r3, #224	; 0xe0
   b6fdc:	f105 0901 	add.w	r9, r5, #1
   b6fe0:	d11d      	bne.n	b701e <_ZN10JsonWriter12insertStringEPKcb+0x76>
   b6fe2:	f816 2009 	ldrb.w	r2, [r6, r9]
   b6fe6:	f002 03c0 	and.w	r3, r2, #192	; 0xc0
   b6fea:	2b80      	cmp	r3, #128	; 0x80
   b6fec:	d139      	bne.n	b7062 <_ZN10JsonWriter12insertStringEPKcb+0xba>
   b6fee:	f105 0902 	add.w	r9, r5, #2
   b6ff2:	f816 3009 	ldrb.w	r3, [r6, r9]
   b6ff6:	f003 00c0 	and.w	r0, r3, #192	; 0xc0
   b6ffa:	2880      	cmp	r0, #128	; 0x80
   b6ffc:	d131      	bne.n	b7062 <_ZN10JsonWriter12insertStringEPKcb+0xba>
				uint16_t utf16 = ((s[ii] & 0b1111) << 12) | ((s[ii+1] & 0b111111) << 6) | (s[ii+2] & 0b111111);
   b6ffe:	f003 033f 	and.w	r3, r3, #63	; 0x3f
   b7002:	0192      	lsls	r2, r2, #6
   b7004:	ea43 3301 	orr.w	r3, r3, r1, lsl #12
   b7008:	f402 627c 	and.w	r2, r2, #4032	; 0xfc0
   b700c:	431a      	orrs	r2, r3
				insertsprintf("\\u%04X", utf16);
   b700e:	b292      	uxth	r2, r2
				insertsprintf("\\u%04X", utf16);
   b7010:	4641      	mov	r1, r8
   b7012:	4620      	mov	r0, r4
   b7014:	f7ff ffbb 	bl	b6f8e <_ZN10JsonWriter13insertsprintfEPKcz>
				ii++; // plus one more in loop increment
   b7018:	464d      	mov	r5, r9
	for(size_t ii = 0; s[ii] && offset < bufferLen; ii++) {
   b701a:	3501      	adds	r5, #1
   b701c:	e7d0      	b.n	b6fc0 <_ZN10JsonWriter12insertStringEPKcb+0x18>
			if (((s[ii] & 0b11100000) == 0b11000000) && ((s[ii+1] & 0b11000000) == 0b10000000)) {
   b701e:	f001 03e0 	and.w	r3, r1, #224	; 0xe0
   b7022:	2bc0      	cmp	r3, #192	; 0xc0
   b7024:	d11d      	bne.n	b7062 <_ZN10JsonWriter12insertStringEPKcb+0xba>
   b7026:	f816 3009 	ldrb.w	r3, [r6, r9]
   b702a:	f003 02c0 	and.w	r2, r3, #192	; 0xc0
   b702e:	2a80      	cmp	r2, #128	; 0x80
   b7030:	d117      	bne.n	b7062 <_ZN10JsonWriter12insertStringEPKcb+0xba>
				uint16_t utf16 = ((s[ii] & 0b11111) << 6) | (s[ii+1] & 0b111111);
   b7032:	0189      	lsls	r1, r1, #6
   b7034:	f401 62f8 	and.w	r2, r1, #1984	; 0x7c0
   b7038:	f003 033f 	and.w	r3, r3, #63	; 0x3f
				insertsprintf("\\u%04X", utf16);
   b703c:	431a      	orrs	r2, r3
   b703e:	e7e7      	b.n	b7010 <_ZN10JsonWriter12insertStringEPKcb+0x68>
			switch(s[ii]) {
   b7040:	290d      	cmp	r1, #13
   b7042:	d80a      	bhi.n	b705a <_ZN10JsonWriter12insertStringEPKcb+0xb2>
   b7044:	2907      	cmp	r1, #7
   b7046:	d90c      	bls.n	b7062 <_ZN10JsonWriter12insertStringEPKcb+0xba>
   b7048:	f1a1 0308 	sub.w	r3, r1, #8
   b704c:	2b05      	cmp	r3, #5
   b704e:	d808      	bhi.n	b7062 <_ZN10JsonWriter12insertStringEPKcb+0xba>
   b7050:	e8df f003 	tbb	[pc, r3]
   b7054:	07172309 	.word	0x07172309
   b7058:	1d11      	.short	0x1d11
   b705a:	2922      	cmp	r1, #34	; 0x22
   b705c:	d023      	beq.n	b70a6 <_ZN10JsonWriter12insertStringEPKcb+0xfe>
   b705e:	295c      	cmp	r1, #92	; 0x5c
   b7060:	d021      	beq.n	b70a6 <_ZN10JsonWriter12insertStringEPKcb+0xfe>
				insertChar(s[ii]);
   b7062:	4620      	mov	r0, r4
   b7064:	e004      	b.n	b7070 <_ZN10JsonWriter12insertStringEPKcb+0xc8>
				insertChar('\\');
   b7066:	215c      	movs	r1, #92	; 0x5c
   b7068:	4620      	mov	r0, r4
   b706a:	f7ff ff51 	bl	b6f10 <_ZN10JsonWriter10insertCharEc>
				insertChar('b');
   b706e:	2162      	movs	r1, #98	; 0x62
				insertChar(s[ii]);
   b7070:	f7ff ff4e 	bl	b6f10 <_ZN10JsonWriter10insertCharEc>
				break;
   b7074:	e7d1      	b.n	b701a <_ZN10JsonWriter12insertStringEPKcb+0x72>
				insertChar('\\');
   b7076:	215c      	movs	r1, #92	; 0x5c
   b7078:	4620      	mov	r0, r4
   b707a:	f7ff ff49 	bl	b6f10 <_ZN10JsonWriter10insertCharEc>
				insertChar('f');
   b707e:	2166      	movs	r1, #102	; 0x66
   b7080:	e7f6      	b.n	b7070 <_ZN10JsonWriter12insertStringEPKcb+0xc8>
				insertChar('\\');
   b7082:	215c      	movs	r1, #92	; 0x5c
   b7084:	4620      	mov	r0, r4
   b7086:	f7ff ff43 	bl	b6f10 <_ZN10JsonWriter10insertCharEc>
				insertChar('n');
   b708a:	216e      	movs	r1, #110	; 0x6e
   b708c:	e7f0      	b.n	b7070 <_ZN10JsonWriter12insertStringEPKcb+0xc8>
				insertChar('\\');
   b708e:	215c      	movs	r1, #92	; 0x5c
   b7090:	4620      	mov	r0, r4
   b7092:	f7ff ff3d 	bl	b6f10 <_ZN10JsonWriter10insertCharEc>
				insertChar('r');
   b7096:	2172      	movs	r1, #114	; 0x72
   b7098:	e7ea      	b.n	b7070 <_ZN10JsonWriter12insertStringEPKcb+0xc8>
				insertChar('\\');
   b709a:	215c      	movs	r1, #92	; 0x5c
   b709c:	4620      	mov	r0, r4
   b709e:	f7ff ff37 	bl	b6f10 <_ZN10JsonWriter10insertCharEc>
				insertChar('t');
   b70a2:	2174      	movs	r1, #116	; 0x74
   b70a4:	e7e4      	b.n	b7070 <_ZN10JsonWriter12insertStringEPKcb+0xc8>
				insertChar('\\');
   b70a6:	215c      	movs	r1, #92	; 0x5c
   b70a8:	4620      	mov	r0, r4
   b70aa:	f7ff ff31 	bl	b6f10 <_ZN10JsonWriter10insertCharEc>
				insertChar(s[ii]);
   b70ae:	f899 1000 	ldrb.w	r1, [r9]
   b70b2:	e7dd      	b.n	b7070 <_ZN10JsonWriter12insertStringEPKcb+0xc8>
	if (quoted) {
   b70b4:	b12f      	cbz	r7, b70c2 <_ZN10JsonWriter12insertStringEPKcb+0x11a>
		insertChar('"');
   b70b6:	4620      	mov	r0, r4
   b70b8:	2122      	movs	r1, #34	; 0x22
}
   b70ba:	e8bd 43f8 	ldmia.w	sp!, {r3, r4, r5, r6, r7, r8, r9, lr}
		insertChar('"');
   b70be:	f7ff bf27 	b.w	b6f10 <_ZN10JsonWriter10insertCharEc>
}
   b70c2:	e8bd 83f8 	ldmia.w	sp!, {r3, r4, r5, r6, r7, r8, r9, pc}
   b70c6:	bf00      	nop
   b70c8:	000bcd32 	.word	0x000bcd32

000b70cc <_ZN10JsonWriter20insertCheckSeparatorEv>:

void JsonWriter::insertCheckSeparator() {
	if (context[contextIndex].isFirst) {
   b70cc:	6942      	ldr	r2, [r0, #20]
   b70ce:	eb00 0342 	add.w	r3, r0, r2, lsl #1
   b70d2:	7e1a      	ldrb	r2, [r3, #24]
   b70d4:	b112      	cbz	r2, b70dc <_ZN10JsonWriter20insertCheckSeparatorEv+0x10>
		context[contextIndex].isFirst = false;
   b70d6:	2200      	movs	r2, #0
   b70d8:	761a      	strb	r2, [r3, #24]
	}
	else {
		insertChar(',');
	}
}
   b70da:	4770      	bx	lr
		insertChar(',');
   b70dc:	212c      	movs	r1, #44	; 0x2c
   b70de:	f7ff bf17 	b.w	b6f10 <_ZN10JsonWriter10insertCharEc>

000b70e2 <_ZN10JsonWriter18startObjectOrArrayEcc>:
bool JsonWriter::startObjectOrArray(char startChar, char endChar) {
   b70e2:	b573      	push	{r0, r1, r4, r5, r6, lr}
	if ((contextIndex + 1) >= MAX_NESTED_CONTEXT) {
   b70e4:	6943      	ldr	r3, [r0, #20]
bool JsonWriter::startObjectOrArray(char startChar, char endChar) {
   b70e6:	9101      	str	r1, [sp, #4]
	if ((contextIndex + 1) >= MAX_NESTED_CONTEXT) {
   b70e8:	3301      	adds	r3, #1
   b70ea:	2b08      	cmp	r3, #8
bool JsonWriter::startObjectOrArray(char startChar, char endChar) {
   b70ec:	4616      	mov	r6, r2
	if ((contextIndex + 1) >= MAX_NESTED_CONTEXT) {
   b70ee:	d80f      	bhi.n	b7110 <_ZN10JsonWriter18startObjectOrArrayEcc+0x2e>
	insertCheckSeparator();
   b70f0:	f7ff ffec 	bl	b70cc <_ZN10JsonWriter20insertCheckSeparatorEv>
	contextIndex++;
   b70f4:	6943      	ldr	r3, [r0, #20]
	insertChar(startChar);
   b70f6:	9901      	ldr	r1, [sp, #4]
   b70f8:	eb00 0443 	add.w	r4, r0, r3, lsl #1
	contextIndex++;
   b70fc:	1c5a      	adds	r2, r3, #1
	context[contextIndex].isFirst = true;
   b70fe:	2501      	movs	r5, #1
	contextIndex++;
   b7100:	6142      	str	r2, [r0, #20]
	context[contextIndex].isFirst = true;
   b7102:	76a5      	strb	r5, [r4, #26]
	context[contextIndex].terminator = endChar;
   b7104:	76e6      	strb	r6, [r4, #27]
	insertChar(startChar);
   b7106:	f7ff ff03 	bl	b6f10 <_ZN10JsonWriter10insertCharEc>
   b710a:	4628      	mov	r0, r5
}
   b710c:	b002      	add	sp, #8
   b710e:	bd70      	pop	{r4, r5, r6, pc}
		return false;
   b7110:	2000      	movs	r0, #0
   b7112:	e7fb      	b.n	b710c <_ZN10JsonWriter18startObjectOrArrayEcc+0x2a>

000b7114 <_ZN10JsonWriter11insertValueEf>:
	else {
		insertString("false");
	}
}

void JsonWriter::insertValue(float value) {
   b7114:	b537      	push	{r0, r1, r2, r4, r5, lr}
   b7116:	4604      	mov	r4, r0
   b7118:	ee10 0a10 	vmov	r0, s0
	if (floatPlaces >= 0) {
		insertsprintf("%.*f", floatPlaces, value);
   b711c:	f7fd f8e4 	bl	b42e8 <__aeabi_f2d>
	if (floatPlaces >= 0) {
   b7120:	6ae5      	ldr	r5, [r4, #44]	; 0x2c
   b7122:	2d00      	cmp	r5, #0
		insertsprintf("%.*f", floatPlaces, value);
   b7124:	4602      	mov	r2, r0
   b7126:	460b      	mov	r3, r1
	if (floatPlaces >= 0) {
   b7128:	db08      	blt.n	b713c <_ZN10JsonWriter11insertValueEf+0x28>
		insertsprintf("%.*f", floatPlaces, value);
   b712a:	e9cd 2300 	strd	r2, r3, [sp]
   b712e:	4907      	ldr	r1, [pc, #28]	; (b714c <_ZN10JsonWriter11insertValueEf+0x38>)
   b7130:	462a      	mov	r2, r5
   b7132:	4620      	mov	r0, r4
   b7134:	f7ff ff2b 	bl	b6f8e <_ZN10JsonWriter13insertsprintfEPKcz>
	}
	else {
		insertsprintf("%f", value);
	}
}
   b7138:	b003      	add	sp, #12
   b713a:	bd30      	pop	{r4, r5, pc}
		insertsprintf("%f", value);
   b713c:	4904      	ldr	r1, [pc, #16]	; (b7150 <_ZN10JsonWriter11insertValueEf+0x3c>)
   b713e:	4620      	mov	r0, r4
}
   b7140:	b003      	add	sp, #12
   b7142:	e8bd 4030 	ldmia.w	sp!, {r4, r5, lr}
		insertsprintf("%f", value);
   b7146:	f7ff bf22 	b.w	b6f8e <_ZN10JsonWriter13insertsprintfEPKcz>
   b714a:	bf00      	nop
   b714c:	000bcd39 	.word	0x000bcd39
   b7150:	000bcd3e 	.word	0x000bcd3e

000b7154 <_ZN10JsonWriter14insertKeyArrayEPKc>:
	insertChar(':');
	setIsFirst();
	startObject();
}

void JsonWriter::insertKeyArray(const char *key) {
   b7154:	b513      	push	{r0, r1, r4, lr}
   b7156:	4604      	mov	r4, r0
   b7158:	9101      	str	r1, [sp, #4]
	insertCheckSeparator();
   b715a:	f7ff ffb7 	bl	b70cc <_ZN10JsonWriter20insertCheckSeparatorEv>
	void insertValue(const char *value) { insertString(value, true); }
   b715e:	9901      	ldr	r1, [sp, #4]
   b7160:	2201      	movs	r2, #1
   b7162:	f7ff ff21 	bl	b6fa8 <_ZN10JsonWriter12insertStringEPKcb>
	insertValue(key);
	insertChar(':');
   b7166:	213a      	movs	r1, #58	; 0x3a
   b7168:	4620      	mov	r0, r4
   b716a:	f7ff fed1 	bl	b6f10 <_ZN10JsonWriter10insertCharEc>
	setIsFirst(false);
}


void JsonWriter::setIsFirst(bool isFirst /* = true */) {
	context[contextIndex].isFirst = isFirst;
   b716e:	6963      	ldr	r3, [r4, #20]
   b7170:	330c      	adds	r3, #12
   b7172:	2201      	movs	r2, #1
   b7174:	f804 2013 	strb.w	r2, [r4, r3, lsl #1]
	bool startArray() { return startObjectOrArray('[', ']'); };
   b7178:	215b      	movs	r1, #91	; 0x5b
   b717a:	225d      	movs	r2, #93	; 0x5d
}
   b717c:	b002      	add	sp, #8
   b717e:	e8bd 4010 	ldmia.w	sp!, {r4, lr}
   b7182:	f7ff bfae 	b.w	b70e2 <_ZN10JsonWriter18startObjectOrArrayEcc>
	...

000b7188 <netdb_freeaddrinfo>:

DYNALIB_BEGIN(hal_netdb)

DYNALIB_FN(0, hal_netdb, netdb_gethostbyname, struct hostent*(const char*))
DYNALIB_FN(1, hal_netdb, netdb_gethostbyname_r, int(const char*, struct hostent*, char*, size_t, struct hostent**, int*))
DYNALIB_FN(2, hal_netdb, netdb_freeaddrinfo, void(struct addrinfo*))
   b7188:	b508      	push	{r3, lr}
   b718a:	4b02      	ldr	r3, [pc, #8]	; (b7194 <netdb_freeaddrinfo+0xc>)
   b718c:	681b      	ldr	r3, [r3, #0]
   b718e:	689b      	ldr	r3, [r3, #8]
   b7190:	9301      	str	r3, [sp, #4]
   b7192:	bd08      	pop	{r3, pc}
   b7194:	00030268 	.word	0x00030268

000b7198 <netdb_getaddrinfo>:
DYNALIB_FN(3, hal_netdb, netdb_getaddrinfo, int(const char*, const char*, const struct addrinfo*, struct addrinfo**))
   b7198:	b508      	push	{r3, lr}
   b719a:	4b02      	ldr	r3, [pc, #8]	; (b71a4 <netdb_getaddrinfo+0xc>)
   b719c:	681b      	ldr	r3, [r3, #0]
   b719e:	68db      	ldr	r3, [r3, #12]
   b71a0:	9301      	str	r3, [sp, #4]
   b71a2:	bd08      	pop	{r3, pc}
   b71a4:	00030268 	.word	0x00030268

000b71a8 <hal_gpio_mode>:

DYNALIB_BEGIN(hal_gpio)

DYNALIB_FN(0, hal_gpio, hal_pin_map, hal_pin_info_t*(void))
DYNALIB_FN(1, hal_gpio, hal_pin_validate_function, PinFunction(hal_pin_t, PinFunction))
DYNALIB_FN(2, hal_gpio, hal_gpio_mode, void(hal_pin_t, PinMode))
   b71a8:	b508      	push	{r3, lr}
   b71aa:	4b02      	ldr	r3, [pc, #8]	; (b71b4 <hal_gpio_mode+0xc>)
   b71ac:	681b      	ldr	r3, [r3, #0]
   b71ae:	689b      	ldr	r3, [r3, #8]
   b71b0:	9301      	str	r3, [sp, #4]
   b71b2:	bd08      	pop	{r3, pc}
   b71b4:	0003022c 	.word	0x0003022c

000b71b8 <hal_gpio_get_mode>:
DYNALIB_FN(3, hal_gpio, hal_gpio_get_mode, PinMode(hal_pin_t))
   b71b8:	b508      	push	{r3, lr}
   b71ba:	4b02      	ldr	r3, [pc, #8]	; (b71c4 <hal_gpio_get_mode+0xc>)
   b71bc:	681b      	ldr	r3, [r3, #0]
   b71be:	68db      	ldr	r3, [r3, #12]
   b71c0:	9301      	str	r3, [sp, #4]
   b71c2:	bd08      	pop	{r3, pc}
   b71c4:	0003022c 	.word	0x0003022c

000b71c8 <hal_gpio_write>:
DYNALIB_FN(4, hal_gpio, hal_gpio_write, void(hal_pin_t, uint8_t))
   b71c8:	b508      	push	{r3, lr}
   b71ca:	4b02      	ldr	r3, [pc, #8]	; (b71d4 <hal_gpio_write+0xc>)
   b71cc:	681b      	ldr	r3, [r3, #0]
   b71ce:	691b      	ldr	r3, [r3, #16]
   b71d0:	9301      	str	r3, [sp, #4]
   b71d2:	bd08      	pop	{r3, pc}
   b71d4:	0003022c 	.word	0x0003022c

000b71d8 <hal_gpio_read>:
DYNALIB_FN(5, hal_gpio, hal_gpio_read, int32_t(hal_pin_t))
   b71d8:	b508      	push	{r3, lr}
   b71da:	4b02      	ldr	r3, [pc, #8]	; (b71e4 <hal_gpio_read+0xc>)
   b71dc:	681b      	ldr	r3, [r3, #0]
   b71de:	695b      	ldr	r3, [r3, #20]
   b71e0:	9301      	str	r3, [sp, #4]
   b71e2:	bd08      	pop	{r3, pc}
   b71e4:	0003022c 	.word	0x0003022c

000b71e8 <HAL_RNG_GetRandomNumber>:

DYNALIB_BEGIN(hal)

#if PLATFORM_ID > PLATFORM_GCC
DYNALIB_FN(0, hal, HAL_RNG_Configuration, void(void))
DYNALIB_FN(1, hal, HAL_RNG_GetRandomNumber, uint32_t(void))
   b71e8:	b508      	push	{r3, lr}
   b71ea:	4b02      	ldr	r3, [pc, #8]	; (b71f4 <HAL_RNG_GetRandomNumber+0xc>)
   b71ec:	681b      	ldr	r3, [r3, #0]
   b71ee:	685b      	ldr	r3, [r3, #4]
   b71f0:	9301      	str	r3, [sp, #4]
   b71f2:	bd08      	pop	{r3, pc}
   b71f4:	00030218 	.word	0x00030218

000b71f8 <HAL_Delay_Microseconds>:
#else
#define BASE_IDX 0
#endif // PLATFORM_ID > PLATFORM_GCC

DYNALIB_FN(BASE_IDX + 0, hal, HAL_Delay_Milliseconds, void(uint32_t))
DYNALIB_FN(BASE_IDX + 1, hal, HAL_Delay_Microseconds, void(uint32_t))
   b71f8:	b508      	push	{r3, lr}
   b71fa:	4b02      	ldr	r3, [pc, #8]	; (b7204 <HAL_Delay_Microseconds+0xc>)
   b71fc:	681b      	ldr	r3, [r3, #0]
   b71fe:	68db      	ldr	r3, [r3, #12]
   b7200:	9301      	str	r3, [sp, #4]
   b7202:	bd08      	pop	{r3, pc}
   b7204:	00030218 	.word	0x00030218

000b7208 <HAL_Timer_Get_Milli_Seconds>:
DYNALIB_FN(BASE_IDX + 2, hal, HAL_Timer_Get_Micro_Seconds, system_tick_t(void))
DYNALIB_FN(BASE_IDX + 3, hal, HAL_Timer_Get_Milli_Seconds, system_tick_t(void))
   b7208:	b508      	push	{r3, lr}
   b720a:	4b02      	ldr	r3, [pc, #8]	; (b7214 <HAL_Timer_Get_Milli_Seconds+0xc>)
   b720c:	681b      	ldr	r3, [r3, #0]
   b720e:	695b      	ldr	r3, [r3, #20]
   b7210:	9301      	str	r3, [sp, #4]
   b7212:	bd08      	pop	{r3, pc}
   b7214:	00030218 	.word	0x00030218

000b7218 <HAL_EEPROM_Init>:
DYNALIB_FN(BASE_IDX + 5, hal, hal_rtc_get_unixtime_deprecated, time32_t(void))
DYNALIB_FN(BASE_IDX + 6, hal, hal_rtc_set_unixtime_deprecated, void(time32_t))

DYNALIB_FN(BASE_IDX + 7, hal, hal_rtc_set_alarm, int(const struct timeval*, uint32_t, hal_rtc_alarm_handler, void*, void*))

DYNALIB_FN(BASE_IDX + 8, hal, HAL_EEPROM_Init, void(void))
   b7218:	b508      	push	{r3, lr}
   b721a:	4b02      	ldr	r3, [pc, #8]	; (b7224 <HAL_EEPROM_Init+0xc>)
   b721c:	681b      	ldr	r3, [r3, #0]
   b721e:	6a9b      	ldr	r3, [r3, #40]	; 0x28
   b7220:	9301      	str	r3, [sp, #4]
   b7222:	bd08      	pop	{r3, pc}
   b7224:	00030218 	.word	0x00030218

000b7228 <HAL_EEPROM_Get>:

DYNALIB_FN(BASE_IDX + 12, hal, HAL_disable_irq, int(void))
DYNALIB_FN(BASE_IDX + 13, hal, HAL_enable_irq, void(int))
DYNALIB_FN(BASE_IDX + 14, hal, hal_rtc_cancel_alarm, void(void))

DYNALIB_FN(BASE_IDX + 15, hal, HAL_EEPROM_Get, void(uint32_t, void *, size_t))
   b7228:	b508      	push	{r3, lr}
   b722a:	4b02      	ldr	r3, [pc, #8]	; (b7234 <HAL_EEPROM_Get+0xc>)
   b722c:	681b      	ldr	r3, [r3, #0]
   b722e:	6c5b      	ldr	r3, [r3, #68]	; 0x44
   b7230:	9301      	str	r3, [sp, #4]
   b7232:	bd08      	pop	{r3, pc}
   b7234:	00030218 	.word	0x00030218

000b7238 <HAL_EEPROM_Put>:
DYNALIB_FN(BASE_IDX + 16, hal, HAL_EEPROM_Put, void(uint32_t, const void *, size_t))
   b7238:	b508      	push	{r3, lr}
   b723a:	4b02      	ldr	r3, [pc, #8]	; (b7244 <HAL_EEPROM_Put+0xc>)
   b723c:	681b      	ldr	r3, [r3, #0]
   b723e:	6c9b      	ldr	r3, [r3, #72]	; 0x48
   b7240:	9301      	str	r3, [sp, #4]
   b7242:	bd08      	pop	{r3, pc}
   b7244:	00030218 	.word	0x00030218

000b7248 <hal_rtc_time_is_valid>:
DYNALIB_FN(BASE_IDX + 17, hal, HAL_EEPROM_Clear, void(void))
DYNALIB_FN(BASE_IDX + 18, hal, HAL_EEPROM_Has_Pending_Erase, bool(void))
DYNALIB_FN(BASE_IDX + 19, hal, HAL_EEPROM_Perform_Pending_Erase, void(void))
DYNALIB_FN(BASE_IDX + 20, hal, hal_rtc_time_is_valid, bool(void*))
   b7248:	b508      	push	{r3, lr}
   b724a:	4b02      	ldr	r3, [pc, #8]	; (b7254 <hal_rtc_time_is_valid+0xc>)
   b724c:	681b      	ldr	r3, [r3, #0]
   b724e:	6d9b      	ldr	r3, [r3, #88]	; 0x58
   b7250:	9301      	str	r3, [sp, #4]
   b7252:	bd08      	pop	{r3, pc}
   b7254:	00030218 	.word	0x00030218

000b7258 <hal_timer_millis>:

DYNALIB_FN(BASE_IDX + 21, hal, hal_timer_millis, uint64_t(void*))
   b7258:	b508      	push	{r3, lr}
   b725a:	4b02      	ldr	r3, [pc, #8]	; (b7264 <hal_timer_millis+0xc>)
   b725c:	681b      	ldr	r3, [r3, #0]
   b725e:	6ddb      	ldr	r3, [r3, #92]	; 0x5c
   b7260:	9301      	str	r3, [sp, #4]
   b7262:	bd08      	pop	{r3, pc}
   b7264:	00030218 	.word	0x00030218

000b7268 <hal_rtc_get_time>:
DYNALIB_FN(BASE_IDX + 22, hal, hal_timer_micros, uint64_t(void*))

DYNALIB_FN(BASE_IDX + 23, hal, hal_rtc_get_time, int(struct timeval*, void*))
   b7268:	b508      	push	{r3, lr}
   b726a:	4b02      	ldr	r3, [pc, #8]	; (b7274 <hal_rtc_get_time+0xc>)
   b726c:	681b      	ldr	r3, [r3, #0]
   b726e:	6e5b      	ldr	r3, [r3, #100]	; 0x64
   b7270:	9301      	str	r3, [sp, #4]
   b7272:	bd08      	pop	{r3, pc}
   b7274:	00030218 	.word	0x00030218

000b7278 <HAL_Core_Runtime_Info>:
DYNALIB_FN(16, hal_core, hal_watchdog_reset_flagged_deprecated, bool(void))
DYNALIB_FN(17, hal_core, hal_watchdog_refresh_deprecated, void(void))
DYNALIB_FN(18, hal_core, HAL_Bootloader_Get_Flag, uint16_t(BootloaderFlag))
DYNALIB_FN(19, hal_core, HAL_Bootloader_Lock, void(bool))
DYNALIB_FN(20, hal_core, HAL_Core_System_Reset_FlagSet, bool(RESET_TypeDef))
DYNALIB_FN(21, hal_core, HAL_Core_Runtime_Info, uint32_t(runtime_info_t*, void*))
   b7278:	b508      	push	{r3, lr}
   b727a:	4b02      	ldr	r3, [pc, #8]	; (b7284 <HAL_Core_Runtime_Info+0xc>)
   b727c:	681b      	ldr	r3, [r3, #0]
   b727e:	6d5b      	ldr	r3, [r3, #84]	; 0x54
   b7280:	9301      	str	r3, [sp, #4]
   b7282:	bd08      	pop	{r3, pc}
   b7284:	00030234 	.word	0x00030234

000b7288 <HAL_Feature_Set>:
DYNALIB_FN(22, hal_core, HAL_Set_System_Config, int(hal_system_config_t, const void*, unsigned))
DYNALIB_FN(23, hal_core, HAL_Core_Enter_Safe_Mode, void(void*))
DYNALIB_FN(24, hal_core, HAL_Feature_Get, bool(HAL_Feature))
DYNALIB_FN(25, hal_core, HAL_Feature_Set, int(HAL_Feature, bool))
   b7288:	b508      	push	{r3, lr}
   b728a:	4b02      	ldr	r3, [pc, #8]	; (b7294 <HAL_Feature_Set+0xc>)
   b728c:	681b      	ldr	r3, [r3, #0]
   b728e:	6e5b      	ldr	r3, [r3, #100]	; 0x64
   b7290:	9301      	str	r3, [sp, #4]
   b7292:	bd08      	pop	{r3, pc}
   b7294:	00030234 	.word	0x00030234

000b7298 <_open>:
// Function signatures shouldn't be changed other than changing pointer types.
// New HAL functions must be added to the end of this list.
// GNINRAW

DYNALIB_BEGIN(hal_posix_syscall)
DYNALIB_FN(0, hal_posix_syscall, _open, int(const char* pathname, int flags, ... /* arg */))
   b7298:	b508      	push	{r3, lr}
   b729a:	4b02      	ldr	r3, [pc, #8]	; (b72a4 <_open+0xc>)
   b729c:	681b      	ldr	r3, [r3, #0]
   b729e:	681b      	ldr	r3, [r3, #0]
   b72a0:	9301      	str	r3, [sp, #4]
   b72a2:	bd08      	pop	{r3, pc}
   b72a4:	00030284 	.word	0x00030284

000b72a8 <_write>:
DYNALIB_FN(1, hal_posix_syscall, _write, int(int fd, const void* buf, size_t count))
   b72a8:	b508      	push	{r3, lr}
   b72aa:	4b02      	ldr	r3, [pc, #8]	; (b72b4 <_write+0xc>)
   b72ac:	681b      	ldr	r3, [r3, #0]
   b72ae:	685b      	ldr	r3, [r3, #4]
   b72b0:	9301      	str	r3, [sp, #4]
   b72b2:	bd08      	pop	{r3, pc}
   b72b4:	00030284 	.word	0x00030284

000b72b8 <_read>:
DYNALIB_FN(2, hal_posix_syscall, _read, int(int fd, void* buf, size_t count))
   b72b8:	b508      	push	{r3, lr}
   b72ba:	4b02      	ldr	r3, [pc, #8]	; (b72c4 <_read+0xc>)
   b72bc:	681b      	ldr	r3, [r3, #0]
   b72be:	689b      	ldr	r3, [r3, #8]
   b72c0:	9301      	str	r3, [sp, #4]
   b72c2:	bd08      	pop	{r3, pc}
   b72c4:	00030284 	.word	0x00030284

000b72c8 <_close>:
DYNALIB_FN(3, hal_posix_syscall, _close, int(int fd))
   b72c8:	b508      	push	{r3, lr}
   b72ca:	4b02      	ldr	r3, [pc, #8]	; (b72d4 <_close+0xc>)
   b72cc:	681b      	ldr	r3, [r3, #0]
   b72ce:	68db      	ldr	r3, [r3, #12]
   b72d0:	9301      	str	r3, [sp, #4]
   b72d2:	bd08      	pop	{r3, pc}
   b72d4:	00030284 	.word	0x00030284

000b72d8 <os_thread_yield>:

#if PLATFORM_THREADING
DYNALIB_FN(0, hal_concurrent, __gthread_equal, bool(__gthread_t, __gthread_t))
DYNALIB_FN(1, hal_concurrent, os_thread_create, os_result_t(os_thread_t*, const char*, os_thread_prio_t, os_thread_fn_t, void*, size_t))
DYNALIB_FN(2, hal_concurrent, os_thread_is_current, bool(os_thread_t))
DYNALIB_FN(3, hal_concurrent, os_thread_yield, os_result_t(void))
   b72d8:	b508      	push	{r3, lr}
   b72da:	4b02      	ldr	r3, [pc, #8]	; (b72e4 <os_thread_yield+0xc>)
   b72dc:	681b      	ldr	r3, [r3, #0]
   b72de:	68db      	ldr	r3, [r3, #12]
   b72e0:	9301      	str	r3, [sp, #4]
   b72e2:	bd08      	pop	{r3, pc}
   b72e4:	00030248 	.word	0x00030248

000b72e8 <os_thread_scheduling>:
DYNALIB_FN(4, hal_concurrent, os_thread_join, os_result_t(os_thread_t))
DYNALIB_FN(5, hal_concurrent, os_thread_cleanup, os_result_t(os_thread_t))
DYNALIB_FN(6, hal_concurrent, os_thread_delay_until, os_result_t(system_tick_t*, system_tick_t))
DYNALIB_FN(7, hal_concurrent, os_thread_scheduling, void(bool, void*))
   b72e8:	b508      	push	{r3, lr}
   b72ea:	4b02      	ldr	r3, [pc, #8]	; (b72f4 <os_thread_scheduling+0xc>)
   b72ec:	681b      	ldr	r3, [r3, #0]
   b72ee:	69db      	ldr	r3, [r3, #28]
   b72f0:	9301      	str	r3, [sp, #4]
   b72f2:	bd08      	pop	{r3, pc}
   b72f4:	00030248 	.word	0x00030248

000b72f8 <os_timer_create>:

DYNALIB_FN(8, hal_concurrent, os_timer_create, int(os_timer_t*, unsigned, void(*)(os_timer_t), void*, bool, void*))
   b72f8:	b508      	push	{r3, lr}
   b72fa:	4b02      	ldr	r3, [pc, #8]	; (b7304 <os_timer_create+0xc>)
   b72fc:	681b      	ldr	r3, [r3, #0]
   b72fe:	6a1b      	ldr	r3, [r3, #32]
   b7300:	9301      	str	r3, [sp, #4]
   b7302:	bd08      	pop	{r3, pc}
   b7304:	00030248 	.word	0x00030248

000b7308 <os_timer_destroy>:
DYNALIB_FN(9, hal_concurrent, os_timer_destroy, int(os_timer_t, void*))
   b7308:	b508      	push	{r3, lr}
   b730a:	4b02      	ldr	r3, [pc, #8]	; (b7314 <os_timer_destroy+0xc>)
   b730c:	681b      	ldr	r3, [r3, #0]
   b730e:	6a5b      	ldr	r3, [r3, #36]	; 0x24
   b7310:	9301      	str	r3, [sp, #4]
   b7312:	bd08      	pop	{r3, pc}
   b7314:	00030248 	.word	0x00030248

000b7318 <os_timer_get_id>:
DYNALIB_FN(10, hal_concurrent, os_timer_get_id, int(os_timer_t, void**))
   b7318:	b508      	push	{r3, lr}
   b731a:	4b02      	ldr	r3, [pc, #8]	; (b7324 <os_timer_get_id+0xc>)
   b731c:	681b      	ldr	r3, [r3, #0]
   b731e:	6a9b      	ldr	r3, [r3, #40]	; 0x28
   b7320:	9301      	str	r3, [sp, #4]
   b7322:	bd08      	pop	{r3, pc}
   b7324:	00030248 	.word	0x00030248

000b7328 <os_timer_change>:
DYNALIB_FN(11, hal_concurrent, os_timer_change, int(os_timer_t, os_timer_change_t, bool, unsigned, unsigned, void*))
   b7328:	b508      	push	{r3, lr}
   b732a:	4b02      	ldr	r3, [pc, #8]	; (b7334 <os_timer_change+0xc>)
   b732c:	681b      	ldr	r3, [r3, #0]
   b732e:	6adb      	ldr	r3, [r3, #44]	; 0x2c
   b7330:	9301      	str	r3, [sp, #4]
   b7332:	bd08      	pop	{r3, pc}
   b7334:	00030248 	.word	0x00030248

000b7338 <os_mutex_recursive_create>:
DYNALIB_FN(13, hal_concurrent, os_mutex_destroy, int(os_mutex_t))
DYNALIB_FN(14, hal_concurrent, os_mutex_lock, int(os_mutex_t))
DYNALIB_FN(15, hal_concurrent, os_mutex_trylock, int(os_mutex_t))
DYNALIB_FN(16, hal_concurrent, os_mutex_unlock, int(os_mutex_t))

DYNALIB_FN(17, hal_concurrent, os_mutex_recursive_create, int(os_mutex_recursive_t*))
   b7338:	b508      	push	{r3, lr}
   b733a:	4b02      	ldr	r3, [pc, #8]	; (b7344 <os_mutex_recursive_create+0xc>)
   b733c:	681b      	ldr	r3, [r3, #0]
   b733e:	6c5b      	ldr	r3, [r3, #68]	; 0x44
   b7340:	9301      	str	r3, [sp, #4]
   b7342:	bd08      	pop	{r3, pc}
   b7344:	00030248 	.word	0x00030248

000b7348 <os_mutex_recursive_destroy>:
DYNALIB_FN(18, hal_concurrent, os_mutex_recursive_destroy, int(os_mutex_recursive_t))
   b7348:	b508      	push	{r3, lr}
   b734a:	4b02      	ldr	r3, [pc, #8]	; (b7354 <os_mutex_recursive_destroy+0xc>)
   b734c:	681b      	ldr	r3, [r3, #0]
   b734e:	6c9b      	ldr	r3, [r3, #72]	; 0x48
   b7350:	9301      	str	r3, [sp, #4]
   b7352:	bd08      	pop	{r3, pc}
   b7354:	00030248 	.word	0x00030248

000b7358 <os_mutex_recursive_lock>:
DYNALIB_FN(19, hal_concurrent, os_mutex_recursive_lock, int(os_mutex_recursive_t))
   b7358:	b508      	push	{r3, lr}
   b735a:	4b02      	ldr	r3, [pc, #8]	; (b7364 <os_mutex_recursive_lock+0xc>)
   b735c:	681b      	ldr	r3, [r3, #0]
   b735e:	6cdb      	ldr	r3, [r3, #76]	; 0x4c
   b7360:	9301      	str	r3, [sp, #4]
   b7362:	bd08      	pop	{r3, pc}
   b7364:	00030248 	.word	0x00030248

000b7368 <os_mutex_recursive_unlock>:
DYNALIB_FN(20, hal_concurrent, os_mutex_recursive_trylock, int(os_mutex_recursive_t))
DYNALIB_FN(21, hal_concurrent, os_mutex_recursive_unlock, int(os_mutex_recursive_t))
   b7368:	b508      	push	{r3, lr}
   b736a:	4b02      	ldr	r3, [pc, #8]	; (b7374 <os_mutex_recursive_unlock+0xc>)
   b736c:	681b      	ldr	r3, [r3, #0]
   b736e:	6d5b      	ldr	r3, [r3, #84]	; 0x54
   b7370:	9301      	str	r3, [sp, #4]
   b7372:	bd08      	pop	{r3, pc}
   b7374:	00030248 	.word	0x00030248

000b7378 <os_timer_set_id>:
DYNALIB_FN(24, hal_concurrent, os_queue_destroy, int(os_queue_t, void*))
DYNALIB_FN(25, hal_concurrent, os_queue_put, int(os_queue_t, const void* item, system_tick_t, void*))
DYNALIB_FN(26, hal_concurrent, os_queue_take, int(os_queue_t, void* item, system_tick_t, void*))
DYNALIB_FN(27, hal_concurrent, os_thread_exit, os_result_t(os_thread_t))

DYNALIB_FN(28, hal_concurrent, os_timer_set_id, int(os_timer_t, void*))
   b7378:	b508      	push	{r3, lr}
   b737a:	4b02      	ldr	r3, [pc, #8]	; (b7384 <os_timer_set_id+0xc>)
   b737c:	681b      	ldr	r3, [r3, #0]
   b737e:	6f1b      	ldr	r3, [r3, #112]	; 0x70
   b7380:	9301      	str	r3, [sp, #4]
   b7382:	bd08      	pop	{r3, pc}
   b7384:	00030248 	.word	0x00030248

000b7388 <inet_inet_ntop>:
DYNALIB_FN(0, hal_inet, inet_inet_addr, in_addr_t(const char*))
DYNALIB_FN(1, hal_inet, inet_inet_aton, int(const char*, struct in_addr*))
DYNALIB_FN(2, hal_inet, inet_inet_network, in_addr_t(const char*))
DYNALIB_FN(3, hal_inet, inet_inet_ntoa, char*(struct in_addr))
DYNALIB_FN(4, hal_inet, inet_inet_ntoa_r, char*(struct in_addr, char*, socklen_t))
DYNALIB_FN(5, hal_inet, inet_inet_ntop, const char*(int, const void*, char*, socklen_t))
   b7388:	b508      	push	{r3, lr}
   b738a:	4b02      	ldr	r3, [pc, #8]	; (b7394 <inet_inet_ntop+0xc>)
   b738c:	681b      	ldr	r3, [r3, #0]
   b738e:	695b      	ldr	r3, [r3, #20]
   b7390:	9301      	str	r3, [sp, #4]
   b7392:	bd08      	pop	{r3, pc}
   b7394:	00030264 	.word	0x00030264

000b7398 <hal_usart_end>:
#define BASE_IDX 0
#endif

DYNALIB_FN(BASE_IDX + 0, hal_usart, hal_usart_init, void(hal_usart_interface_t, hal_usart_ring_buffer_t*, hal_usart_ring_buffer_t*))
DYNALIB_FN(BASE_IDX + 1, hal_usart, hal_usart_begin, void(hal_usart_interface_t, uint32_t))
DYNALIB_FN(BASE_IDX + 2, hal_usart, hal_usart_end, void(hal_usart_interface_t))
   b7398:	b508      	push	{r3, lr}
   b739a:	4b02      	ldr	r3, [pc, #8]	; (b73a4 <hal_usart_end+0xc>)
   b739c:	681b      	ldr	r3, [r3, #0]
   b739e:	689b      	ldr	r3, [r3, #8]
   b73a0:	9301      	str	r3, [sp, #4]
   b73a2:	bd08      	pop	{r3, pc}
   b73a4:	0003023c 	.word	0x0003023c

000b73a8 <hal_usart_write>:
DYNALIB_FN(BASE_IDX + 3, hal_usart, hal_usart_write, uint32_t(hal_usart_interface_t, uint8_t))
   b73a8:	b508      	push	{r3, lr}
   b73aa:	4b02      	ldr	r3, [pc, #8]	; (b73b4 <hal_usart_write+0xc>)
   b73ac:	681b      	ldr	r3, [r3, #0]
   b73ae:	68db      	ldr	r3, [r3, #12]
   b73b0:	9301      	str	r3, [sp, #4]
   b73b2:	bd08      	pop	{r3, pc}
   b73b4:	0003023c 	.word	0x0003023c

000b73b8 <hal_usart_available>:
DYNALIB_FN(BASE_IDX + 4, hal_usart, hal_usart_available, int32_t(hal_usart_interface_t))
   b73b8:	b508      	push	{r3, lr}
   b73ba:	4b02      	ldr	r3, [pc, #8]	; (b73c4 <hal_usart_available+0xc>)
   b73bc:	681b      	ldr	r3, [r3, #0]
   b73be:	691b      	ldr	r3, [r3, #16]
   b73c0:	9301      	str	r3, [sp, #4]
   b73c2:	bd08      	pop	{r3, pc}
   b73c4:	0003023c 	.word	0x0003023c

000b73c8 <hal_usart_read>:
DYNALIB_FN(BASE_IDX + 5, hal_usart, hal_usart_read, int32_t(hal_usart_interface_t))
   b73c8:	b508      	push	{r3, lr}
   b73ca:	4b02      	ldr	r3, [pc, #8]	; (b73d4 <hal_usart_read+0xc>)
   b73cc:	681b      	ldr	r3, [r3, #0]
   b73ce:	695b      	ldr	r3, [r3, #20]
   b73d0:	9301      	str	r3, [sp, #4]
   b73d2:	bd08      	pop	{r3, pc}
   b73d4:	0003023c 	.word	0x0003023c

000b73d8 <hal_usart_peek>:
DYNALIB_FN(BASE_IDX + 6, hal_usart, hal_usart_peek, int32_t(hal_usart_interface_t))
   b73d8:	b508      	push	{r3, lr}
   b73da:	4b02      	ldr	r3, [pc, #8]	; (b73e4 <hal_usart_peek+0xc>)
   b73dc:	681b      	ldr	r3, [r3, #0]
   b73de:	699b      	ldr	r3, [r3, #24]
   b73e0:	9301      	str	r3, [sp, #4]
   b73e2:	bd08      	pop	{r3, pc}
   b73e4:	0003023c 	.word	0x0003023c

000b73e8 <hal_usart_flush>:
DYNALIB_FN(BASE_IDX + 7, hal_usart, hal_usart_flush, void(hal_usart_interface_t))
   b73e8:	b508      	push	{r3, lr}
   b73ea:	4b02      	ldr	r3, [pc, #8]	; (b73f4 <hal_usart_flush+0xc>)
   b73ec:	681b      	ldr	r3, [r3, #0]
   b73ee:	69db      	ldr	r3, [r3, #28]
   b73f0:	9301      	str	r3, [sp, #4]
   b73f2:	bd08      	pop	{r3, pc}
   b73f4:	0003023c 	.word	0x0003023c

000b73f8 <hal_usart_is_enabled>:
DYNALIB_FN(BASE_IDX + 8, hal_usart, hal_usart_is_enabled, bool(hal_usart_interface_t))
   b73f8:	b508      	push	{r3, lr}
   b73fa:	4b02      	ldr	r3, [pc, #8]	; (b7404 <hal_usart_is_enabled+0xc>)
   b73fc:	681b      	ldr	r3, [r3, #0]
   b73fe:	6a1b      	ldr	r3, [r3, #32]
   b7400:	9301      	str	r3, [sp, #4]
   b7402:	bd08      	pop	{r3, pc}
   b7404:	0003023c 	.word	0x0003023c

000b7408 <hal_usart_available_data_for_write>:
DYNALIB_FN(BASE_IDX + 9, hal_usart, hal_usart_half_duplex, void(hal_usart_interface_t, bool))
DYNALIB_FN(BASE_IDX + 10, hal_usart, hal_usart_available_data_for_write, int32_t(hal_usart_interface_t))
   b7408:	b508      	push	{r3, lr}
   b740a:	4b02      	ldr	r3, [pc, #8]	; (b7414 <hal_usart_available_data_for_write+0xc>)
   b740c:	681b      	ldr	r3, [r3, #0]
   b740e:	6a9b      	ldr	r3, [r3, #40]	; 0x28
   b7410:	9301      	str	r3, [sp, #4]
   b7412:	bd08      	pop	{r3, pc}
   b7414:	0003023c 	.word	0x0003023c

000b7418 <hal_usart_begin_config>:
#define BASE_IDX2 (BASE_IDX+13)
#else
#define BASE_IDX2 (BASE_IDX+11)
#endif

DYNALIB_FN(BASE_IDX2 + 0, hal_usart, hal_usart_begin_config, void(hal_usart_interface_t serial, uint32_t baud, uint32_t config, void *ptr))
   b7418:	b508      	push	{r3, lr}
   b741a:	4b02      	ldr	r3, [pc, #8]	; (b7424 <hal_usart_begin_config+0xc>)
   b741c:	681b      	ldr	r3, [r3, #0]
   b741e:	6adb      	ldr	r3, [r3, #44]	; 0x2c
   b7420:	9301      	str	r3, [sp, #4]
   b7422:	bd08      	pop	{r3, pc}
   b7424:	0003023c 	.word	0x0003023c

000b7428 <hal_usart_write_nine_bits>:
DYNALIB_FN(BASE_IDX2 + 1, hal_usart, hal_usart_write_nine_bits, uint32_t(hal_usart_interface_t serial, uint16_t data))
   b7428:	b508      	push	{r3, lr}
   b742a:	4b02      	ldr	r3, [pc, #8]	; (b7434 <hal_usart_write_nine_bits+0xc>)
   b742c:	681b      	ldr	r3, [r3, #0]
   b742e:	6b1b      	ldr	r3, [r3, #48]	; 0x30
   b7430:	9301      	str	r3, [sp, #4]
   b7432:	bd08      	pop	{r3, pc}
   b7434:	0003023c 	.word	0x0003023c

000b7438 <hal_usart_init_ex>:
DYNALIB_FN(BASE_IDX2 + 2, hal_usart, hal_usart_send_break, void(hal_usart_interface_t, void*))
DYNALIB_FN(BASE_IDX2 + 3, hal_usart, hal_usart_break_detected, uint8_t(hal_usart_interface_t))
DYNALIB_FN(BASE_IDX2 + 4, hal_usart, hal_usart_sleep, int(hal_usart_interface_t serial, bool, void*))
DYNALIB_FN(BASE_IDX2 + 5, hal_usart, hal_usart_init_ex, int(hal_usart_interface_t, const hal_usart_buffer_config_t*, void*))
   b7438:	b508      	push	{r3, lr}
   b743a:	4b02      	ldr	r3, [pc, #8]	; (b7444 <hal_usart_init_ex+0xc>)
   b743c:	681b      	ldr	r3, [r3, #0]
   b743e:	6c1b      	ldr	r3, [r3, #64]	; 0x40
   b7440:	9301      	str	r3, [sp, #4]
   b7442:	bd08      	pop	{r3, pc}
   b7444:	0003023c 	.word	0x0003023c

000b7448 <hal_i2c_begin_transmission>:
DYNALIB_FN(1, hal_i2c, hal_i2c_enable_dma_mode, void(hal_i2c_interface_t, bool, void*))
DYNALIB_FN(2, hal_i2c, hal_i2c_stretch_clock, void(hal_i2c_interface_t, bool, void*))
DYNALIB_FN(3, hal_i2c, hal_i2c_begin, void(hal_i2c_interface_t, hal_i2c_mode_t, uint8_t, void*))
DYNALIB_FN(4, hal_i2c, hal_i2c_end, void(hal_i2c_interface_t, void*))
DYNALIB_FN(5, hal_i2c, hal_i2c_request, uint32_t(hal_i2c_interface_t, uint8_t, uint8_t, uint8_t, void*))
DYNALIB_FN(6, hal_i2c, hal_i2c_begin_transmission, void(hal_i2c_interface_t, uint8_t, const hal_i2c_transmission_config_t*))
   b7448:	b508      	push	{r3, lr}
   b744a:	4b02      	ldr	r3, [pc, #8]	; (b7454 <hal_i2c_begin_transmission+0xc>)
   b744c:	681b      	ldr	r3, [r3, #0]
   b744e:	699b      	ldr	r3, [r3, #24]
   b7450:	9301      	str	r3, [sp, #4]
   b7452:	bd08      	pop	{r3, pc}
   b7454:	00030228 	.word	0x00030228

000b7458 <hal_i2c_end_transmission>:
DYNALIB_FN(7, hal_i2c, hal_i2c_end_transmission, uint8_t(hal_i2c_interface_t, uint8_t, void*))
   b7458:	b508      	push	{r3, lr}
   b745a:	4b02      	ldr	r3, [pc, #8]	; (b7464 <hal_i2c_end_transmission+0xc>)
   b745c:	681b      	ldr	r3, [r3, #0]
   b745e:	69db      	ldr	r3, [r3, #28]
   b7460:	9301      	str	r3, [sp, #4]
   b7462:	bd08      	pop	{r3, pc}
   b7464:	00030228 	.word	0x00030228

000b7468 <hal_i2c_write>:
DYNALIB_FN(8, hal_i2c, hal_i2c_write, uint32_t(hal_i2c_interface_t, uint8_t, void*))
   b7468:	b508      	push	{r3, lr}
   b746a:	4b02      	ldr	r3, [pc, #8]	; (b7474 <hal_i2c_write+0xc>)
   b746c:	681b      	ldr	r3, [r3, #0]
   b746e:	6a1b      	ldr	r3, [r3, #32]
   b7470:	9301      	str	r3, [sp, #4]
   b7472:	bd08      	pop	{r3, pc}
   b7474:	00030228 	.word	0x00030228

000b7478 <hal_i2c_available>:
DYNALIB_FN(9, hal_i2c, hal_i2c_available, int32_t(hal_i2c_interface_t, void*))
   b7478:	b508      	push	{r3, lr}
   b747a:	4b02      	ldr	r3, [pc, #8]	; (b7484 <hal_i2c_available+0xc>)
   b747c:	681b      	ldr	r3, [r3, #0]
   b747e:	6a5b      	ldr	r3, [r3, #36]	; 0x24
   b7480:	9301      	str	r3, [sp, #4]
   b7482:	bd08      	pop	{r3, pc}
   b7484:	00030228 	.word	0x00030228

000b7488 <hal_i2c_read>:
DYNALIB_FN(10, hal_i2c, hal_i2c_read, int32_t(hal_i2c_interface_t, void*))
   b7488:	b508      	push	{r3, lr}
   b748a:	4b02      	ldr	r3, [pc, #8]	; (b7494 <hal_i2c_read+0xc>)
   b748c:	681b      	ldr	r3, [r3, #0]
   b748e:	6a9b      	ldr	r3, [r3, #40]	; 0x28
   b7490:	9301      	str	r3, [sp, #4]
   b7492:	bd08      	pop	{r3, pc}
   b7494:	00030228 	.word	0x00030228

000b7498 <hal_i2c_peek>:
DYNALIB_FN(11, hal_i2c, hal_i2c_peek, int32_t(hal_i2c_interface_t, void*))
   b7498:	b508      	push	{r3, lr}
   b749a:	4b02      	ldr	r3, [pc, #8]	; (b74a4 <hal_i2c_peek+0xc>)
   b749c:	681b      	ldr	r3, [r3, #0]
   b749e:	6adb      	ldr	r3, [r3, #44]	; 0x2c
   b74a0:	9301      	str	r3, [sp, #4]
   b74a2:	bd08      	pop	{r3, pc}
   b74a4:	00030228 	.word	0x00030228

000b74a8 <hal_i2c_flush>:
DYNALIB_FN(12, hal_i2c, hal_i2c_flush, void(hal_i2c_interface_t, void*))
   b74a8:	b508      	push	{r3, lr}
   b74aa:	4b02      	ldr	r3, [pc, #8]	; (b74b4 <hal_i2c_flush+0xc>)
   b74ac:	681b      	ldr	r3, [r3, #0]
   b74ae:	6b1b      	ldr	r3, [r3, #48]	; 0x30
   b74b0:	9301      	str	r3, [sp, #4]
   b74b2:	bd08      	pop	{r3, pc}
   b74b4:	00030228 	.word	0x00030228

000b74b8 <hal_i2c_is_enabled>:
DYNALIB_FN(13, hal_i2c, hal_i2c_is_enabled, bool(hal_i2c_interface_t, void*))
   b74b8:	b508      	push	{r3, lr}
   b74ba:	4b02      	ldr	r3, [pc, #8]	; (b74c4 <hal_i2c_is_enabled+0xc>)
   b74bc:	681b      	ldr	r3, [r3, #0]
   b74be:	6b5b      	ldr	r3, [r3, #52]	; 0x34
   b74c0:	9301      	str	r3, [sp, #4]
   b74c2:	bd08      	pop	{r3, pc}
   b74c4:	00030228 	.word	0x00030228

000b74c8 <hal_i2c_init>:
DYNALIB_FN(14, hal_i2c, hal_i2c_set_callback_on_received, void(hal_i2c_interface_t, void(*)(int), void*))
DYNALIB_FN(15, hal_i2c, hal_i2c_set_callback_on_requested, void(hal_i2c_interface_t, void(*)(void), void*))
DYNALIB_FN(16, hal_i2c, hal_i2c_init, int(hal_i2c_interface_t, const hal_i2c_config_t*))
   b74c8:	b508      	push	{r3, lr}
   b74ca:	4b02      	ldr	r3, [pc, #8]	; (b74d4 <hal_i2c_init+0xc>)
   b74cc:	681b      	ldr	r3, [r3, #0]
   b74ce:	6c1b      	ldr	r3, [r3, #64]	; 0x40
   b74d0:	9301      	str	r3, [sp, #4]
   b74d2:	bd08      	pop	{r3, pc}
   b74d4:	00030228 	.word	0x00030228

000b74d8 <hal_i2c_lock>:
DYNALIB_FN(17, hal_i2c, hal_i2c_reset, int(hal_i2c_interface_t, uint32_t, void*))
DYNALIB_FN(18, hal_i2c, hal_i2c_lock, int32_t(hal_i2c_interface_t, void*))
   b74d8:	b508      	push	{r3, lr}
   b74da:	4b02      	ldr	r3, [pc, #8]	; (b74e4 <hal_i2c_lock+0xc>)
   b74dc:	681b      	ldr	r3, [r3, #0]
   b74de:	6c9b      	ldr	r3, [r3, #72]	; 0x48
   b74e0:	9301      	str	r3, [sp, #4]
   b74e2:	bd08      	pop	{r3, pc}
   b74e4:	00030228 	.word	0x00030228

000b74e8 <hal_i2c_unlock>:
DYNALIB_FN(19, hal_i2c, hal_i2c_unlock, int32_t(hal_i2c_interface_t, void*))
   b74e8:	b508      	push	{r3, lr}
   b74ea:	4b02      	ldr	r3, [pc, #8]	; (b74f4 <hal_i2c_unlock+0xc>)
   b74ec:	681b      	ldr	r3, [r3, #0]
   b74ee:	6cdb      	ldr	r3, [r3, #76]	; 0x4c
   b74f0:	9301      	str	r3, [sp, #4]
   b74f2:	bd08      	pop	{r3, pc}
   b74f4:	00030228 	.word	0x00030228

000b74f8 <hal_i2c_request_ex>:
DYNALIB_FN(20, hal_i2c, hal_i2c_request_ex, int32_t(hal_i2c_interface_t, const hal_i2c_transmission_config_t*, void*))
   b74f8:	b508      	push	{r3, lr}
   b74fa:	4b02      	ldr	r3, [pc, #8]	; (b7504 <hal_i2c_request_ex+0xc>)
   b74fc:	681b      	ldr	r3, [r3, #0]
   b74fe:	6d1b      	ldr	r3, [r3, #80]	; 0x50
   b7500:	9301      	str	r3, [sp, #4]
   b7502:	bd08      	pop	{r3, pc}
   b7504:	00030228 	.word	0x00030228

000b7508 <hal_spi_init>:
DYNALIB_FN(2, hal_spi, hal_spi_set_bit_order, void(hal_spi_interface_t, uint8_t))
DYNALIB_FN(3, hal_spi, hal_spi_set_data_mode, void(hal_spi_interface_t, uint8_t))
DYNALIB_FN(4, hal_spi, hal_spi_set_clock_divider, void(hal_spi_interface_t, uint8_t))
DYNALIB_FN(5, hal_spi, hal_spi_transfer, uint16_t(hal_spi_interface_t, uint16_t))
DYNALIB_FN(6, hal_spi, hal_spi_is_enabled_deprecated, bool(void))
DYNALIB_FN(7, hal_spi, hal_spi_init, void(hal_spi_interface_t))
   b7508:	b508      	push	{r3, lr}
   b750a:	4b02      	ldr	r3, [pc, #8]	; (b7514 <hal_spi_init+0xc>)
   b750c:	681b      	ldr	r3, [r3, #0]
   b750e:	69db      	ldr	r3, [r3, #28]
   b7510:	9301      	str	r3, [sp, #4]
   b7512:	bd08      	pop	{r3, pc}
   b7514:	00030230 	.word	0x00030230

000b7518 <hal_spi_is_enabled>:
DYNALIB_FN(8, hal_spi, hal_spi_is_enabled, bool(hal_spi_interface_t))
   b7518:	b508      	push	{r3, lr}
   b751a:	4b02      	ldr	r3, [pc, #8]	; (b7524 <hal_spi_is_enabled+0xc>)
   b751c:	681b      	ldr	r3, [r3, #0]
   b751e:	6a1b      	ldr	r3, [r3, #32]
   b7520:	9301      	str	r3, [sp, #4]
   b7522:	bd08      	pop	{r3, pc}
   b7524:	00030230 	.word	0x00030230

000b7528 <HAL_USB_USART_Init>:
// GNINRAW

DYNALIB_BEGIN(hal_usb)

#ifdef USB_CDC_ENABLE
DYNALIB_FN(0, hal_usb, HAL_USB_USART_Init, void(HAL_USB_USART_Serial, const HAL_USB_USART_Config*))
   b7528:	b508      	push	{r3, lr}
   b752a:	4b02      	ldr	r3, [pc, #8]	; (b7534 <HAL_USB_USART_Init+0xc>)
   b752c:	681b      	ldr	r3, [r3, #0]
   b752e:	681b      	ldr	r3, [r3, #0]
   b7530:	9301      	str	r3, [sp, #4]
   b7532:	bd08      	pop	{r3, pc}
   b7534:	0003024c 	.word	0x0003024c

000b7538 <HAL_USB_USART_Begin>:
DYNALIB_FN(1, hal_usb, HAL_USB_USART_Begin, void(HAL_USB_USART_Serial, uint32_t, void *))
   b7538:	b508      	push	{r3, lr}
   b753a:	4b02      	ldr	r3, [pc, #8]	; (b7544 <HAL_USB_USART_Begin+0xc>)
   b753c:	681b      	ldr	r3, [r3, #0]
   b753e:	685b      	ldr	r3, [r3, #4]
   b7540:	9301      	str	r3, [sp, #4]
   b7542:	bd08      	pop	{r3, pc}
   b7544:	0003024c 	.word	0x0003024c

000b7548 <HAL_USB_USART_End>:
DYNALIB_FN(2, hal_usb, HAL_USB_USART_End, void(HAL_USB_USART_Serial))
   b7548:	b508      	push	{r3, lr}
   b754a:	4b02      	ldr	r3, [pc, #8]	; (b7554 <HAL_USB_USART_End+0xc>)
   b754c:	681b      	ldr	r3, [r3, #0]
   b754e:	689b      	ldr	r3, [r3, #8]
   b7550:	9301      	str	r3, [sp, #4]
   b7552:	bd08      	pop	{r3, pc}
   b7554:	0003024c 	.word	0x0003024c

000b7558 <HAL_USB_USART_Available_Data>:
DYNALIB_FN(3, hal_usb, HAL_USB_USART_Baud_Rate, unsigned int(HAL_USB_USART_Serial))
DYNALIB_FN_WRAP(4, hal_usb, HAL_USB_USART_Available_Data, protected, int32_t(HAL_USB_USART_Serial))
   b7558:	b508      	push	{r3, lr}
   b755a:	4b02      	ldr	r3, [pc, #8]	; (b7564 <HAL_USB_USART_Available_Data+0xc>)
   b755c:	681b      	ldr	r3, [r3, #0]
   b755e:	691b      	ldr	r3, [r3, #16]
   b7560:	9301      	str	r3, [sp, #4]
   b7562:	bd08      	pop	{r3, pc}
   b7564:	0003024c 	.word	0x0003024c

000b7568 <HAL_USB_USART_Available_Data_For_Write>:
DYNALIB_FN_WRAP(5, hal_usb, HAL_USB_USART_Available_Data_For_Write, protected, int32_t(HAL_USB_USART_Serial))
   b7568:	b508      	push	{r3, lr}
   b756a:	4b02      	ldr	r3, [pc, #8]	; (b7574 <HAL_USB_USART_Available_Data_For_Write+0xc>)
   b756c:	681b      	ldr	r3, [r3, #0]
   b756e:	695b      	ldr	r3, [r3, #20]
   b7570:	9301      	str	r3, [sp, #4]
   b7572:	bd08      	pop	{r3, pc}
   b7574:	0003024c 	.word	0x0003024c

000b7578 <HAL_USB_USART_Receive_Data>:
DYNALIB_FN_WRAP(6, hal_usb, HAL_USB_USART_Receive_Data, protected, int32_t(HAL_USB_USART_Serial, uint8_t))
   b7578:	b508      	push	{r3, lr}
   b757a:	4b02      	ldr	r3, [pc, #8]	; (b7584 <HAL_USB_USART_Receive_Data+0xc>)
   b757c:	681b      	ldr	r3, [r3, #0]
   b757e:	699b      	ldr	r3, [r3, #24]
   b7580:	9301      	str	r3, [sp, #4]
   b7582:	bd08      	pop	{r3, pc}
   b7584:	0003024c 	.word	0x0003024c

000b7588 <HAL_USB_USART_Send_Data>:
DYNALIB_FN_WRAP(7, hal_usb, HAL_USB_USART_Send_Data, protected, int32_t(HAL_USB_USART_Serial, uint8_t))
   b7588:	b508      	push	{r3, lr}
   b758a:	4b02      	ldr	r3, [pc, #8]	; (b7594 <HAL_USB_USART_Send_Data+0xc>)
   b758c:	681b      	ldr	r3, [r3, #0]
   b758e:	69db      	ldr	r3, [r3, #28]
   b7590:	9301      	str	r3, [sp, #4]
   b7592:	bd08      	pop	{r3, pc}
   b7594:	0003024c 	.word	0x0003024c

000b7598 <HAL_USB_USART_Flush_Data>:
DYNALIB_FN_WRAP(8, hal_usb, HAL_USB_USART_Flush_Data, protected, void(HAL_USB_USART_Serial))
   b7598:	b508      	push	{r3, lr}
   b759a:	4b02      	ldr	r3, [pc, #8]	; (b75a4 <HAL_USB_USART_Flush_Data+0xc>)
   b759c:	681b      	ldr	r3, [r3, #0]
   b759e:	6a1b      	ldr	r3, [r3, #32]
   b75a0:	9301      	str	r3, [sp, #4]
   b75a2:	bd08      	pop	{r3, pc}
   b75a4:	0003024c 	.word	0x0003024c

000b75a8 <HAL_USB_USART_Is_Connected>:
DYNALIB_FN(9, hal_usb, HAL_USB_USART_Is_Enabled, bool(HAL_USB_USART_Serial))
DYNALIB_FN(10, hal_usb, HAL_USB_USART_Is_Connected, bool(HAL_USB_USART_Serial))
   b75a8:	b508      	push	{r3, lr}
   b75aa:	4b02      	ldr	r3, [pc, #8]	; (b75b4 <HAL_USB_USART_Is_Connected+0xc>)
   b75ac:	681b      	ldr	r3, [r3, #0]
   b75ae:	6a9b      	ldr	r3, [r3, #40]	; 0x28
   b75b0:	9301      	str	r3, [sp, #4]
   b75b2:	bd08      	pop	{r3, pc}
   b75b4:	0003024c 	.word	0x0003024c

000b75b8 <wlan_connected_info>:
DYNALIB_FN(24, hal_wlan, wlan_get_credentials, int(wlan_scan_result_t, void*))
DYNALIB_FN(25, hal_wlan, softap_set_application_page_handler, int(PageProvider* provider, void* reserved))
DYNALIB_FN(26, hal_wlan, wlan_restart, int(void*))
DYNALIB_FN(27, hal_wlan, wlan_set_hostname, int(const char*, void*))
DYNALIB_FN(28, hal_wlan, wlan_get_hostname, int(char*, size_t, void*))
DYNALIB_FN(29, hal_wlan, wlan_connected_info, int(void*, wlan_connected_info_t*, void*))
   b75b8:	b508      	push	{r3, lr}
   b75ba:	4b02      	ldr	r3, [pc, #8]	; (b75c4 <wlan_connected_info+0xc>)
   b75bc:	681b      	ldr	r3, [r3, #0]
   b75be:	6f5b      	ldr	r3, [r3, #116]	; 0x74
   b75c0:	9301      	str	r3, [sp, #4]
   b75c2:	bd08      	pop	{r3, pc}
   b75c4:	00030274 	.word	0x00030274

000b75c8 <panic_>:
DYNALIB_FN(9, services, LED_Toggle, void(Led_TypeDef))
DYNALIB_FN(10, services, LED_Fade, void(Led_TypeDef))
DYNALIB_FN(11, services, Get_LED_Brightness, uint8_t(void))

DYNALIB_FN(12, services, set_logger_output, void(debug_output_fn, LoggerOutputLevel)) // Deprecated
DYNALIB_FN(13, services, panic_, void(ePanicCode, void*, void(*)(uint32_t)))
   b75c8:	b508      	push	{r3, lr}
   b75ca:	4b02      	ldr	r3, [pc, #8]	; (b75d4 <panic_+0xc>)
   b75cc:	681b      	ldr	r3, [r3, #0]
   b75ce:	6b5b      	ldr	r3, [r3, #52]	; 0x34
   b75d0:	9301      	str	r3, [sp, #4]
   b75d2:	bd08      	pop	{r3, pc}
   b75d4:	00030260 	.word	0x00030260

000b75d8 <log_message>:
DYNALIB_FN(16, services, log_print_, void(int, int, const char*, const char*, const char*, ...)) // Deprecated
DYNALIB_FN(17, services, LED_RGB_SetChangeHandler, void(led_update_handler_fn, void*))
DYNALIB_FN(18, services, log_print_direct_, void(int, void*, const char*, ...)) // Deprecated
DYNALIB_FN(19, services, LED_GetColor, uint32_t(uint32_t, void*))

DYNALIB_FN(20, services, log_message, void(int, const char*, LogAttributes*, void*, const char*, ...))
   b75d8:	b508      	push	{r3, lr}
   b75da:	4b02      	ldr	r3, [pc, #8]	; (b75e4 <log_message+0xc>)
   b75dc:	681b      	ldr	r3, [r3, #0]
   b75de:	6d1b      	ldr	r3, [r3, #80]	; 0x50
   b75e0:	9301      	str	r3, [sp, #4]
   b75e2:	bd08      	pop	{r3, pc}
   b75e4:	00030260 	.word	0x00030260

000b75e8 <log_message_v>:
DYNALIB_FN(21, services, log_message_v, void(int, const char*, LogAttributes*, void*, const char*, va_list))
   b75e8:	b508      	push	{r3, lr}
   b75ea:	4b02      	ldr	r3, [pc, #8]	; (b75f4 <log_message_v+0xc>)
   b75ec:	681b      	ldr	r3, [r3, #0]
   b75ee:	6d5b      	ldr	r3, [r3, #84]	; 0x54
   b75f0:	9301      	str	r3, [sp, #4]
   b75f2:	bd08      	pop	{r3, pc}
   b75f4:	00030260 	.word	0x00030260

000b75f8 <log_level_name>:
DYNALIB_FN(22, services, log_write, void(int, const char*, const char*, size_t, void*))
DYNALIB_FN(23, services, log_printf, void(int, const char*, void*, const char*, ...))
DYNALIB_FN(24, services, log_printf_v, void(int, const char*, void*, const char*, va_list))
DYNALIB_FN(25, services, log_dump, void(int, const char*, const void*, size_t, int, void*))
DYNALIB_FN(26, services, log_enabled, int(int, const char*, void*))
DYNALIB_FN(27, services, log_level_name, const char*(int, void*))
   b75f8:	b508      	push	{r3, lr}
   b75fa:	4b02      	ldr	r3, [pc, #8]	; (b7604 <log_level_name+0xc>)
   b75fc:	681b      	ldr	r3, [r3, #0]
   b75fe:	6edb      	ldr	r3, [r3, #108]	; 0x6c
   b7600:	9301      	str	r3, [sp, #4]
   b7602:	bd08      	pop	{r3, pc}
   b7604:	00030260 	.word	0x00030260

000b7608 <log_set_callbacks>:
DYNALIB_FN(28, services, log_set_callbacks, void(log_message_callback_type, log_write_callback_type, log_enabled_callback_type, void*))
   b7608:	b508      	push	{r3, lr}
   b760a:	4b02      	ldr	r3, [pc, #8]	; (b7614 <log_set_callbacks+0xc>)
   b760c:	681b      	ldr	r3, [r3, #0]
   b760e:	6f1b      	ldr	r3, [r3, #112]	; 0x70
   b7610:	9301      	str	r3, [sp, #4]
   b7612:	bd08      	pop	{r3, pc}
   b7614:	00030260 	.word	0x00030260

000b7618 <system_mode>:
#include "system_ble_prov.h"
#endif

DYNALIB_BEGIN(system)

DYNALIB_FN(0, system, system_mode, System_Mode_TypeDef(void))
   b7618:	b508      	push	{r3, lr}
   b761a:	4b02      	ldr	r3, [pc, #8]	; (b7624 <system_mode+0xc>)
   b761c:	681b      	ldr	r3, [r3, #0]
   b761e:	681b      	ldr	r3, [r3, #0]
   b7620:	9301      	str	r3, [sp, #4]
   b7622:	bd08      	pop	{r3, pc}
   b7624:	00030220 	.word	0x00030220

000b7628 <set_system_mode>:
DYNALIB_FN(1, system, set_system_mode, void(System_Mode_TypeDef))
   b7628:	b508      	push	{r3, lr}
   b762a:	4b02      	ldr	r3, [pc, #8]	; (b7634 <set_system_mode+0xc>)
   b762c:	681b      	ldr	r3, [r3, #0]
   b762e:	685b      	ldr	r3, [r3, #4]
   b7630:	9301      	str	r3, [sp, #4]
   b7632:	bd08      	pop	{r3, pc}
   b7634:	00030220 	.word	0x00030220

000b7638 <system_delay_ms>:

DYNALIB_FN(2, system, set_ymodem_serial_flash_update_handler_deprecated, void(void*))
DYNALIB_FN(3, system, system_firmwareUpdate_deprecated, bool(Stream*, void*))
DYNALIB_FN(4, system, system_fileTransfer_deprecated, bool(system_file_transfer_t*, void*))

DYNALIB_FN(5, system, system_delay_ms, void(unsigned long, bool))
   b7638:	b508      	push	{r3, lr}
   b763a:	4b02      	ldr	r3, [pc, #8]	; (b7644 <system_delay_ms+0xc>)
   b763c:	681b      	ldr	r3, [r3, #0]
   b763e:	695b      	ldr	r3, [r3, #20]
   b7640:	9301      	str	r3, [sp, #4]
   b7642:	bd08      	pop	{r3, pc}
   b7644:	00030220 	.word	0x00030220

000b7648 <system_button_pushed_duration>:
DYNALIB_FN(6, system, system_sleep, int(Spark_Sleep_TypeDef, long, uint32_t, void*))
DYNALIB_FN(7, system, system_sleep_pin, int(uint16_t, uint16_t, long, uint32_t, void*))
DYNALIB_FN(8, system, system_subscribe_event, int(system_event_t, system_event_handler_t*, SystemEventContext*))
DYNALIB_FN(9, system, system_unsubscribe_event, void(system_event_t, system_event_handler_t*, const SystemEventContext*))
DYNALIB_FN(10, system, system_button_pushed_duration, uint16_t(uint8_t, void*))
   b7648:	b508      	push	{r3, lr}
   b764a:	4b02      	ldr	r3, [pc, #8]	; (b7654 <system_button_pushed_duration+0xc>)
   b764c:	681b      	ldr	r3, [r3, #0]
   b764e:	6a9b      	ldr	r3, [r3, #40]	; 0x28
   b7650:	9301      	str	r3, [sp, #4]
   b7652:	bd08      	pop	{r3, pc}
   b7654:	00030220 	.word	0x00030220

000b7658 <application_thread_current>:
DYNALIB_FN(15, system, system_get_flag, int(system_flag_t, uint8_t*, void*))
DYNALIB_FN_WRAP(16, system, Spark_Prepare_For_Firmware_Update, protected, int(FileTransfer::Descriptor&, uint32_t, void*))
DYNALIB_FN_WRAP(17, system, Spark_Save_Firmware_Chunk, protected, int(FileTransfer::Descriptor&, const uint8_t*, void*))
DYNALIB_FN_WRAP(18, system, Spark_Finish_Firmware_Update, protected, int(FileTransfer::Descriptor&, uint32_t, void*))

DYNALIB_FN(19, system, application_thread_current, uint8_t(void*))
   b7658:	b508      	push	{r3, lr}
   b765a:	4b02      	ldr	r3, [pc, #8]	; (b7664 <application_thread_current+0xc>)
   b765c:	681b      	ldr	r3, [r3, #0]
   b765e:	6cdb      	ldr	r3, [r3, #76]	; 0x4c
   b7660:	9301      	str	r3, [sp, #4]
   b7662:	bd08      	pop	{r3, pc}
   b7664:	00030220 	.word	0x00030220

000b7668 <application_thread_invoke>:
DYNALIB_FN(20, system, system_thread_current, uint8_t(void*))
DYNALIB_FN(21, system, application_thread_invoke, uint8_t(void(*)(void*), void*, void*))
   b7668:	b508      	push	{r3, lr}
   b766a:	4b02      	ldr	r3, [pc, #8]	; (b7674 <application_thread_invoke+0xc>)
   b766c:	681b      	ldr	r3, [r3, #0]
   b766e:	6d5b      	ldr	r3, [r3, #84]	; 0x54
   b7670:	9301      	str	r3, [sp, #4]
   b7672:	bd08      	pop	{r3, pc}
   b7674:	00030220 	.word	0x00030220

000b7678 <system_thread_get_state>:
DYNALIB_FN(22, system, system_thread_get_state, spark::feature::State(void*))
   b7678:	b508      	push	{r3, lr}
   b767a:	4b02      	ldr	r3, [pc, #8]	; (b7684 <system_thread_get_state+0xc>)
   b767c:	681b      	ldr	r3, [r3, #0]
   b767e:	6d9b      	ldr	r3, [r3, #88]	; 0x58
   b7680:	9301      	str	r3, [sp, #4]
   b7682:	bd08      	pop	{r3, pc}
   b7684:	00030220 	.word	0x00030220

000b7688 <system_ctrl_set_app_request_handler>:
DYNALIB_FN(BASE_IDX + 6, system, led_pattern_period, uint16_t(int, int, void*))
DYNALIB_FN(BASE_IDX + 7, system, system_set_tester_handlers, int(system_tester_handlers_t*, void*))
DYNALIB_FN(BASE_IDX + 8, system, system_format_diag_data, int(const uint16_t*, size_t, unsigned, appender_fn, void*, void*))

// Control requests
DYNALIB_FN(BASE_IDX + 9, system, system_ctrl_set_app_request_handler, int(ctrl_request_handler_fn, void*))
   b7688:	b508      	push	{r3, lr}
   b768a:	4b03      	ldr	r3, [pc, #12]	; (b7698 <system_ctrl_set_app_request_handler+0x10>)
   b768c:	681b      	ldr	r3, [r3, #0]
   b768e:	f8d3 3088 	ldr.w	r3, [r3, #136]	; 0x88
   b7692:	9301      	str	r3, [sp, #4]
   b7694:	bd08      	pop	{r3, pc}
   b7696:	0000      	.short	0x0000
   b7698:	00030220 	.word	0x00030220

000b769c <system_ctrl_set_result>:
DYNALIB_FN(BASE_IDX + 10, system, system_ctrl_alloc_reply_data, int(ctrl_request*, size_t, void*))
DYNALIB_FN(BASE_IDX + 11, system, system_ctrl_free_request_data, void(ctrl_request*, void*))
DYNALIB_FN(BASE_IDX + 12, system, system_ctrl_set_result, void(ctrl_request*, int, ctrl_completion_handler_fn, void*, void*))
   b769c:	b508      	push	{r3, lr}
   b769e:	4b03      	ldr	r3, [pc, #12]	; (b76ac <system_ctrl_set_result+0x10>)
   b76a0:	681b      	ldr	r3, [r3, #0]
   b76a2:	f8d3 3094 	ldr.w	r3, [r3, #148]	; 0x94
   b76a6:	9301      	str	r3, [sp, #4]
   b76a8:	bd08      	pop	{r3, pc}
   b76aa:	0000      	.short	0x0000
   b76ac:	00030220 	.word	0x00030220

000b76b0 <system_sleep_ext>:
#define BASE_IDX1 (BASE_IDX + 18)
#else
#define BASE_IDX1 (BASE_IDX + 17)
#endif // HAL_PLATFORM_POWER_MANAGEMENT

DYNALIB_FN(BASE_IDX1 + 0, system, system_sleep_ext, int(const hal_sleep_config_t*, hal_wakeup_source_base_t**, void*))
   b76b0:	b508      	push	{r3, lr}
   b76b2:	4b03      	ldr	r3, [pc, #12]	; (b76c0 <system_sleep_ext+0x10>)
   b76b4:	681b      	ldr	r3, [r3, #0]
   b76b6:	f8d3 30a8 	ldr.w	r3, [r3, #168]	; 0xa8
   b76ba:	9301      	str	r3, [sp, #4]
   b76bc:	bd08      	pop	{r3, pc}
   b76be:	0000      	.short	0x0000
   b76c0:	00030220 	.word	0x00030220

000b76c4 <network_connect>:
#endif

DYNALIB_BEGIN(system_net)

DYNALIB_FN(0, system_net, network_config, const void*(network_handle_t, uint32_t, void*))
DYNALIB_FN(1, system_net, network_connect, void(network_handle_t, uint32_t, uint32_t, void*))
   b76c4:	b508      	push	{r3, lr}
   b76c6:	4b02      	ldr	r3, [pc, #8]	; (b76d0 <network_connect+0xc>)
   b76c8:	681b      	ldr	r3, [r3, #0]
   b76ca:	685b      	ldr	r3, [r3, #4]
   b76cc:	9301      	str	r3, [sp, #4]
   b76ce:	bd08      	pop	{r3, pc}
   b76d0:	00030240 	.word	0x00030240

000b76d4 <network_connecting>:
DYNALIB_FN(2, system_net, network_connecting, bool(network_handle_t, uint32_t, void*))
   b76d4:	b508      	push	{r3, lr}
   b76d6:	4b02      	ldr	r3, [pc, #8]	; (b76e0 <network_connecting+0xc>)
   b76d8:	681b      	ldr	r3, [r3, #0]
   b76da:	689b      	ldr	r3, [r3, #8]
   b76dc:	9301      	str	r3, [sp, #4]
   b76de:	bd08      	pop	{r3, pc}
   b76e0:	00030240 	.word	0x00030240

000b76e4 <network_disconnect>:
DYNALIB_FN(3, system_net, network_disconnect, void(network_handle_t, uint32_t, void*))
   b76e4:	b508      	push	{r3, lr}
   b76e6:	4b02      	ldr	r3, [pc, #8]	; (b76f0 <network_disconnect+0xc>)
   b76e8:	681b      	ldr	r3, [r3, #0]
   b76ea:	68db      	ldr	r3, [r3, #12]
   b76ec:	9301      	str	r3, [sp, #4]
   b76ee:	bd08      	pop	{r3, pc}
   b76f0:	00030240 	.word	0x00030240

000b76f4 <network_ready>:
DYNALIB_FN(4, system_net, network_ready, bool(network_handle_t, uint32_t, void*))
   b76f4:	b508      	push	{r3, lr}
   b76f6:	4b02      	ldr	r3, [pc, #8]	; (b7700 <network_ready+0xc>)
   b76f8:	681b      	ldr	r3, [r3, #0]
   b76fa:	691b      	ldr	r3, [r3, #16]
   b76fc:	9301      	str	r3, [sp, #4]
   b76fe:	bd08      	pop	{r3, pc}
   b7700:	00030240 	.word	0x00030240

000b7704 <network_on>:
DYNALIB_FN(5, system_net, network_on, void(network_handle_t, uint32_t, uint32_t, void*))
   b7704:	b508      	push	{r3, lr}
   b7706:	4b02      	ldr	r3, [pc, #8]	; (b7710 <network_on+0xc>)
   b7708:	681b      	ldr	r3, [r3, #0]
   b770a:	695b      	ldr	r3, [r3, #20]
   b770c:	9301      	str	r3, [sp, #4]
   b770e:	bd08      	pop	{r3, pc}
   b7710:	00030240 	.word	0x00030240

000b7714 <network_off>:
DYNALIB_FN(6, system_net, network_off, void(network_handle_t, uint32_t, uint32_t, void*))
   b7714:	b508      	push	{r3, lr}
   b7716:	4b02      	ldr	r3, [pc, #8]	; (b7720 <network_off+0xc>)
   b7718:	681b      	ldr	r3, [r3, #0]
   b771a:	699b      	ldr	r3, [r3, #24]
   b771c:	9301      	str	r3, [sp, #4]
   b771e:	bd08      	pop	{r3, pc}
   b7720:	00030240 	.word	0x00030240

000b7724 <network_listen>:
DYNALIB_FN(7, system_net, network_listen, void(network_handle_t, uint32_t, void*))
   b7724:	b508      	push	{r3, lr}
   b7726:	4b02      	ldr	r3, [pc, #8]	; (b7730 <network_listen+0xc>)
   b7728:	681b      	ldr	r3, [r3, #0]
   b772a:	69db      	ldr	r3, [r3, #28]
   b772c:	9301      	str	r3, [sp, #4]
   b772e:	bd08      	pop	{r3, pc}
   b7730:	00030240 	.word	0x00030240

000b7734 <network_listening>:
DYNALIB_FN(8, system_net, network_listening, bool(network_handle_t, uint32_t, void*))
   b7734:	b508      	push	{r3, lr}
   b7736:	4b02      	ldr	r3, [pc, #8]	; (b7740 <network_listening+0xc>)
   b7738:	681b      	ldr	r3, [r3, #0]
   b773a:	6a1b      	ldr	r3, [r3, #32]
   b773c:	9301      	str	r3, [sp, #4]
   b773e:	bd08      	pop	{r3, pc}
   b7740:	00030240 	.word	0x00030240

000b7744 <network_set_credentials>:
DYNALIB_FN(9, system_net, network_has_credentials, bool(network_handle_t, uint32_t, void*))
DYNALIB_FN(10, system_net, network_set_credentials, int(network_handle_t, uint32_t, NetworkCredentials*, void*))
   b7744:	b508      	push	{r3, lr}
   b7746:	4b02      	ldr	r3, [pc, #8]	; (b7750 <network_set_credentials+0xc>)
   b7748:	681b      	ldr	r3, [r3, #0]
   b774a:	6a9b      	ldr	r3, [r3, #40]	; 0x28
   b774c:	9301      	str	r3, [sp, #4]
   b774e:	bd08      	pop	{r3, pc}
   b7750:	00030240 	.word	0x00030240

000b7754 <network_clear_credentials>:
DYNALIB_FN(11, system_net, network_clear_credentials, bool(network_handle_t, uint32_t, NetworkCredentials*, void*))
   b7754:	b508      	push	{r3, lr}
   b7756:	4b02      	ldr	r3, [pc, #8]	; (b7760 <network_clear_credentials+0xc>)
   b7758:	681b      	ldr	r3, [r3, #0]
   b775a:	6adb      	ldr	r3, [r3, #44]	; 0x2c
   b775c:	9301      	str	r3, [sp, #4]
   b775e:	bd08      	pop	{r3, pc}
   b7760:	00030240 	.word	0x00030240

000b7764 <network_set_listen_timeout>:
DYNALIB_FN(12, system_net, network_set_listen_timeout, void(network_handle_t, uint16_t, void*))
   b7764:	b508      	push	{r3, lr}
   b7766:	4b02      	ldr	r3, [pc, #8]	; (b7770 <network_set_listen_timeout+0xc>)
   b7768:	681b      	ldr	r3, [r3, #0]
   b776a:	6b1b      	ldr	r3, [r3, #48]	; 0x30
   b776c:	9301      	str	r3, [sp, #4]
   b776e:	bd08      	pop	{r3, pc}
   b7770:	00030240 	.word	0x00030240

000b7774 <network_get_listen_timeout>:
DYNALIB_FN(13, system_net, network_get_listen_timeout, uint16_t(network_handle_t, uint32_t, void*))
   b7774:	b508      	push	{r3, lr}
   b7776:	4b02      	ldr	r3, [pc, #8]	; (b7780 <network_get_listen_timeout+0xc>)
   b7778:	681b      	ldr	r3, [r3, #0]
   b777a:	6b5b      	ldr	r3, [r3, #52]	; 0x34
   b777c:	9301      	str	r3, [sp, #4]
   b777e:	bd08      	pop	{r3, pc}
   b7780:	00030240 	.word	0x00030240

000b7784 <network_is_on>:
DYNALIB_FN(14, system_net, network_set_hostname, int(network_handle_t, uint32_t, const char*, void*))
DYNALIB_FN(15, system_net, network_get_hostname, int(network_handle_t, uint32_t, char*, size_t, void*))
DYNALIB_FN(16, system_net, network_is_on, bool(network_handle_t, void*))
   b7784:	b508      	push	{r3, lr}
   b7786:	4b02      	ldr	r3, [pc, #8]	; (b7790 <network_is_on+0xc>)
   b7788:	681b      	ldr	r3, [r3, #0]
   b778a:	6c1b      	ldr	r3, [r3, #64]	; 0x40
   b778c:	9301      	str	r3, [sp, #4]
   b778e:	bd08      	pop	{r3, pc}
   b7790:	00030240 	.word	0x00030240

000b7794 <network_is_off>:
DYNALIB_FN(17, system_net, network_is_off, bool(network_handle_t, void*))
   b7794:	b508      	push	{r3, lr}
   b7796:	4b02      	ldr	r3, [pc, #8]	; (b77a0 <network_is_off+0xc>)
   b7798:	681b      	ldr	r3, [r3, #0]
   b779a:	6c5b      	ldr	r3, [r3, #68]	; 0x44
   b779c:	9301      	str	r3, [sp, #4]
   b779e:	bd08      	pop	{r3, pc}
   b77a0:	00030240 	.word	0x00030240

000b77a4 <network_prefer>:
DYNALIB_FN(18, system_net, network_set_configuration, int(network_handle_t, const network_configuration_t*, void*))
DYNALIB_FN(19, system_net, network_get_configuration, int(network_handle_t, network_configuration_t**, size_t*, const char*, size_t, void*))
DYNALIB_FN(20, system_net, network_free_configuration, int(network_configuration_t*, size_t, void*))
DYNALIB_FN(21, system_net, network_prefer, network_handle_t(network_handle_t, bool, void*))
   b77a4:	b508      	push	{r3, lr}
   b77a6:	4b02      	ldr	r3, [pc, #8]	; (b77b0 <network_prefer+0xc>)
   b77a8:	681b      	ldr	r3, [r3, #0]
   b77aa:	6d5b      	ldr	r3, [r3, #84]	; 0x54
   b77ac:	9301      	str	r3, [sp, #4]
   b77ae:	bd08      	pop	{r3, pc}
   b77b0:	00030240 	.word	0x00030240

000b77b4 <network_is_preferred>:
DYNALIB_FN(22, system_net, network_is_preferred, bool(network_handle_t, void*))
   b77b4:	b508      	push	{r3, lr}
   b77b6:	4b02      	ldr	r3, [pc, #8]	; (b77c0 <network_is_preferred+0xc>)
   b77b8:	681b      	ldr	r3, [r3, #0]
   b77ba:	6d9b      	ldr	r3, [r3, #88]	; 0x58
   b77bc:	9301      	str	r3, [sp, #4]
   b77be:	bd08      	pop	{r3, pc}
   b77c0:	00030240 	.word	0x00030240

000b77c4 <spark_function>:


DYNALIB_BEGIN(system_cloud)

DYNALIB_FN(0, system_cloud, spark_variable, bool(const char*, const void*, Spark_Data_TypeDef, spark_variable_t*))
DYNALIB_FN(1, system_cloud, spark_function, bool(const char*, p_user_function_int_str_t, void*))
   b77c4:	b508      	push	{r3, lr}
   b77c6:	4b02      	ldr	r3, [pc, #8]	; (b77d0 <spark_function+0xc>)
   b77c8:	681b      	ldr	r3, [r3, #0]
   b77ca:	685b      	ldr	r3, [r3, #4]
   b77cc:	9301      	str	r3, [sp, #4]
   b77ce:	bd08      	pop	{r3, pc}
   b77d0:	00030244 	.word	0x00030244

000b77d4 <spark_process>:
DYNALIB_FN(2, system_cloud, spark_process, bool(void))
   b77d4:	b508      	push	{r3, lr}
   b77d6:	4b02      	ldr	r3, [pc, #8]	; (b77e0 <spark_process+0xc>)
   b77d8:	681b      	ldr	r3, [r3, #0]
   b77da:	689b      	ldr	r3, [r3, #8]
   b77dc:	9301      	str	r3, [sp, #4]
   b77de:	bd08      	pop	{r3, pc}
   b77e0:	00030244 	.word	0x00030244

000b77e4 <spark_cloud_flag_connect>:
DYNALIB_FN(3, system_cloud, spark_cloud_flag_connect, void(void))
   b77e4:	b508      	push	{r3, lr}
   b77e6:	4b02      	ldr	r3, [pc, #8]	; (b77f0 <spark_cloud_flag_connect+0xc>)
   b77e8:	681b      	ldr	r3, [r3, #0]
   b77ea:	68db      	ldr	r3, [r3, #12]
   b77ec:	9301      	str	r3, [sp, #4]
   b77ee:	bd08      	pop	{r3, pc}
   b77f0:	00030244 	.word	0x00030244

000b77f4 <spark_cloud_flag_connected>:
DYNALIB_FN(4, system_cloud, spark_cloud_flag_disconnect, void(void))
DYNALIB_FN(5, system_cloud, spark_cloud_flag_connected, bool(void))
   b77f4:	b508      	push	{r3, lr}
   b77f6:	4b02      	ldr	r3, [pc, #8]	; (b7800 <spark_cloud_flag_connected+0xc>)
   b77f8:	681b      	ldr	r3, [r3, #0]
   b77fa:	695b      	ldr	r3, [r3, #20]
   b77fc:	9301      	str	r3, [sp, #4]
   b77fe:	bd08      	pop	{r3, pc}
   b7800:	00030244 	.word	0x00030244

000b7804 <spark_send_event>:
DYNALIB_FN(6, system_cloud, system_cloud_protocol_instance, ProtocolFacade*(void))
DYNALIB_FN(7, system_cloud, spark_deviceID, String(void))
DYNALIB_FN(8, system_cloud, spark_send_event, bool(const char*, const char*, int, uint32_t, void*))
   b7804:	b508      	push	{r3, lr}
   b7806:	4b02      	ldr	r3, [pc, #8]	; (b7810 <spark_send_event+0xc>)
   b7808:	681b      	ldr	r3, [r3, #0]
   b780a:	6a1b      	ldr	r3, [r3, #32]
   b780c:	9301      	str	r3, [sp, #4]
   b780e:	bd08      	pop	{r3, pc}
   b7810:	00030244 	.word	0x00030244

000b7814 <spark_sync_time_pending>:
DYNALIB_FN(9, system_cloud, spark_subscribe, bool(const char*, EventHandler, void*, Spark_Subscription_Scope_TypeDef, const char*, spark_subscribe_param*))
DYNALIB_FN(10, system_cloud, spark_unsubscribe, void(void*))
DYNALIB_FN(11, system_cloud, spark_sync_time, bool(void*))
DYNALIB_FN(12, system_cloud, spark_sync_time_pending, bool(void*))
   b7814:	b508      	push	{r3, lr}
   b7816:	4b02      	ldr	r3, [pc, #8]	; (b7820 <spark_sync_time_pending+0xc>)
   b7818:	681b      	ldr	r3, [r3, #0]
   b781a:	6b1b      	ldr	r3, [r3, #48]	; 0x30
   b781c:	9301      	str	r3, [sp, #4]
   b781e:	bd08      	pop	{r3, pc}
   b7820:	00030244 	.word	0x00030244

000b7824 <spark_set_random_seed_from_cloud_handler>:
DYNALIB_FN(13, system_cloud, spark_sync_time_last, system_tick_t(time32_t*, time_t*))
DYNALIB_FN(14, system_cloud, spark_set_connection_property, int(unsigned, unsigned, const void*, void*))
DYNALIB_FN(15, system_cloud, spark_set_random_seed_from_cloud_handler, int(void (*handler)(unsigned int), void*))
   b7824:	b508      	push	{r3, lr}
   b7826:	4b02      	ldr	r3, [pc, #8]	; (b7830 <spark_set_random_seed_from_cloud_handler+0xc>)
   b7828:	681b      	ldr	r3, [r3, #0]
   b782a:	6bdb      	ldr	r3, [r3, #60]	; 0x3c
   b782c:	9301      	str	r3, [sp, #4]
   b782e:	bd08      	pop	{r3, pc}
   b7830:	00030244 	.word	0x00030244

000b7834 <spark_cloud_disconnect>:
DYNALIB_FN(16, system_cloud, spark_publish_vitals, int(system_tick_t, void*))
DYNALIB_FN(17, system_cloud, spark_cloud_disconnect, int(const spark_cloud_disconnect_options*, void*))
   b7834:	b508      	push	{r3, lr}
   b7836:	4b02      	ldr	r3, [pc, #8]	; (b7840 <spark_cloud_disconnect+0xc>)
   b7838:	681b      	ldr	r3, [r3, #0]
   b783a:	6c5b      	ldr	r3, [r3, #68]	; 0x44
   b783c:	9301      	str	r3, [sp, #4]
   b783e:	bd08      	pop	{r3, pc}
   b7840:	00030244 	.word	0x00030244

000b7844 <malloc>:
#include "hal_platform.h"
#endif // defined(DYNALIB_EXPORT) || (defined(DYNALIB_IMPORT) && !defined(RT_DYNALIB_NO_DEPENDENCY_BREAKING_IMPORTS))

DYNALIB_BEGIN(rt)

DYNALIB_FN(0, rt, malloc, void*(size_t))
   b7844:	b508      	push	{r3, lr}
   b7846:	4b02      	ldr	r3, [pc, #8]	; (b7850 <malloc+0xc>)
   b7848:	681b      	ldr	r3, [r3, #0]
   b784a:	681b      	ldr	r3, [r3, #0]
   b784c:	9301      	str	r3, [sp, #4]
   b784e:	bd08      	pop	{r3, pc}
   b7850:	0003021c 	.word	0x0003021c

000b7854 <free>:
DYNALIB_FN(1, rt, free, void(void*))
   b7854:	b508      	push	{r3, lr}
   b7856:	4b02      	ldr	r3, [pc, #8]	; (b7860 <free+0xc>)
   b7858:	681b      	ldr	r3, [r3, #0]
   b785a:	685b      	ldr	r3, [r3, #4]
   b785c:	9301      	str	r3, [sp, #4]
   b785e:	bd08      	pop	{r3, pc}
   b7860:	0003021c 	.word	0x0003021c

000b7864 <realloc>:
DYNALIB_FN(2, rt, realloc, void*(void*, size_t))
   b7864:	b508      	push	{r3, lr}
   b7866:	4b02      	ldr	r3, [pc, #8]	; (b7870 <realloc+0xc>)
   b7868:	681b      	ldr	r3, [r3, #0]
   b786a:	689b      	ldr	r3, [r3, #8]
   b786c:	9301      	str	r3, [sp, #4]
   b786e:	bd08      	pop	{r3, pc}
   b7870:	0003021c 	.word	0x0003021c

000b7874 <snprintf>:
DYNALIB_FN(3, rt, sprintf, int(char*, const char*, ...))
DYNALIB_FN(4, rt, siprintf, int(char*, const char*, ...))
DYNALIB_FN(5, rt, sscanf, int(const char*, const char*, ...))
DYNALIB_FN(6, rt, siscanf, int(const char*, const char*, ...))
DYNALIB_FN(7, rt, snprintf, int(char*, size_t, const char*, ...))
   b7874:	b508      	push	{r3, lr}
   b7876:	4b02      	ldr	r3, [pc, #8]	; (b7880 <snprintf+0xc>)
   b7878:	681b      	ldr	r3, [r3, #0]
   b787a:	69db      	ldr	r3, [r3, #28]
   b787c:	9301      	str	r3, [sp, #4]
   b787e:	bd08      	pop	{r3, pc}
   b7880:	0003021c 	.word	0x0003021c

000b7884 <vsnprintf>:
DYNALIB_FN(8, rt, sniprintf, int(char*, size_t, const char*, ...))
DYNALIB_FN(9, rt, vsnprintf, int(char*, size_t, const char*, va_list))
   b7884:	b508      	push	{r3, lr}
   b7886:	4b02      	ldr	r3, [pc, #8]	; (b7890 <vsnprintf+0xc>)
   b7888:	681b      	ldr	r3, [r3, #0]
   b788a:	6a5b      	ldr	r3, [r3, #36]	; 0x24
   b788c:	9301      	str	r3, [sp, #4]
   b788e:	bd08      	pop	{r3, pc}
   b7890:	0003021c 	.word	0x0003021c

000b7894 <abort>:
DYNALIB_FN(10, rt, vsniprintf, int(char*, size_t, const char*, va_list))
DYNALIB_FN(11, rt, abort, void(void))
   b7894:	b508      	push	{r3, lr}
   b7896:	4b02      	ldr	r3, [pc, #8]	; (b78a0 <abort+0xc>)
   b7898:	681b      	ldr	r3, [r3, #0]
   b789a:	6adb      	ldr	r3, [r3, #44]	; 0x2c
   b789c:	9301      	str	r3, [sp, #4]
   b789e:	bd08      	pop	{r3, pc}
   b78a0:	0003021c 	.word	0x0003021c

000b78a4 <_malloc_r>:
DYNALIB_FN(12, rt, _malloc_r, void*(struct _reent*, size_t))
   b78a4:	b508      	push	{r3, lr}
   b78a6:	4b02      	ldr	r3, [pc, #8]	; (b78b0 <_malloc_r+0xc>)
   b78a8:	681b      	ldr	r3, [r3, #0]
   b78aa:	6b1b      	ldr	r3, [r3, #48]	; 0x30
   b78ac:	9301      	str	r3, [sp, #4]
   b78ae:	bd08      	pop	{r3, pc}
   b78b0:	0003021c 	.word	0x0003021c

000b78b4 <__errno>:
DYNALIB_FN(13, rt, _free_r, void(struct _reent*, void*))
DYNALIB_FN(14, rt, _realloc_r, void*(struct _reent*, void*, size_t))
DYNALIB_FN(15, rt, __errno, int*())
   b78b4:	b508      	push	{r3, lr}
   b78b6:	4b02      	ldr	r3, [pc, #8]	; (b78c0 <__errno+0xc>)
   b78b8:	681b      	ldr	r3, [r3, #0]
   b78ba:	6bdb      	ldr	r3, [r3, #60]	; 0x3c
   b78bc:	9301      	str	r3, [sp, #4]
   b78be:	bd08      	pop	{r3, pc}
   b78c0:	0003021c 	.word	0x0003021c

000b78c4 <__assert_func>:

#if defined(DYNALIB_EXPORT) || (defined(DYNALIB_IMPORT) && !defined(RT_DYNALIB_NO_DEPENDENCY_BREAKING_IMPORTS))
DYNALIB_FN(16, rt, __assert_func, void(const char*, int, const char*, const char*))
   b78c4:	b508      	push	{r3, lr}
   b78c6:	4b02      	ldr	r3, [pc, #8]	; (b78d0 <__assert_func+0xc>)
   b78c8:	681b      	ldr	r3, [r3, #0]
   b78ca:	6c1b      	ldr	r3, [r3, #64]	; 0x40
   b78cc:	9301      	str	r3, [sp, #4]
   b78ce:	bd08      	pop	{r3, pc}
   b78d0:	0003021c 	.word	0x0003021c

000b78d4 <newlib_impure_ptr_callback>:
DYNALIB_FN(17, rt, newlib_impure_ptr_callback, void(void (*)(struct _reent*, size_t, uint32_t, void*), void*))
   b78d4:	b508      	push	{r3, lr}
   b78d6:	4b02      	ldr	r3, [pc, #8]	; (b78e0 <newlib_impure_ptr_callback+0xc>)
   b78d8:	681b      	ldr	r3, [r3, #0]
   b78da:	6c5b      	ldr	r3, [r3, #68]	; 0x44
   b78dc:	9301      	str	r3, [sp, #4]
   b78de:	bd08      	pop	{r3, pc}
   b78e0:	0003021c 	.word	0x0003021c

000b78e4 <localtime_r>:

#if HAL_PLATFORM_EXPORT_STDLIB_RT_DYNALIB
DYNALIB_FN(18, rt, strftime, size_t(char* __restrict, size_t, const char* __restrict, const struct tm* __restrict))
DYNALIB_FN(19, rt, localtime_r, struct tm*(const time_t* __restrict, struct tm* __restrict))
   b78e4:	b508      	push	{r3, lr}
   b78e6:	4b02      	ldr	r3, [pc, #8]	; (b78f0 <localtime_r+0xc>)
   b78e8:	681b      	ldr	r3, [r3, #0]
   b78ea:	6cdb      	ldr	r3, [r3, #76]	; 0x4c
   b78ec:	9301      	str	r3, [sp, #4]
   b78ee:	bd08      	pop	{r3, pc}
   b78f0:	0003021c 	.word	0x0003021c

000b78f4 <_ZN5spark13EthernetClass9listeningEv>:
    uint16_t getListenTimeout(void) {
        return network_get_listen_timeout(*this, 0, NULL);
    }

    bool listening(void) {
        return network_listening(*this, 0, NULL);
   b78f4:	2200      	movs	r2, #0
   b78f6:	6840      	ldr	r0, [r0, #4]
   b78f8:	4611      	mov	r1, r2
   b78fa:	f7ff bf1b 	b.w	b7734 <network_listening>

000b78fe <_ZN5spark13EthernetClass16getListenTimeoutEv>:
        return network_get_listen_timeout(*this, 0, NULL);
   b78fe:	2200      	movs	r2, #0
   b7900:	6840      	ldr	r0, [r0, #4]
   b7902:	4611      	mov	r1, r2
   b7904:	f7ff bf36 	b.w	b7774 <network_get_listen_timeout>

000b7908 <_ZN5spark13EthernetClass16setListenTimeoutEt>:
        network_set_listen_timeout(*this, timeout, NULL);
   b7908:	6840      	ldr	r0, [r0, #4]
   b790a:	2200      	movs	r2, #0
   b790c:	f7ff bf2a 	b.w	b7764 <network_set_listen_timeout>

000b7910 <_ZN5spark13EthernetClass6listenEb>:
        network_listen(*this, begin ? 0 : 1, NULL);
   b7910:	6840      	ldr	r0, [r0, #4]
   b7912:	2200      	movs	r2, #0
   b7914:	f081 0101 	eor.w	r1, r1, #1
   b7918:	f7ff bf04 	b.w	b7724 <network_listen>

000b791c <_ZN5spark13EthernetClass3offEv>:
        network_off(*this, 0, 0, NULL);
   b791c:	2300      	movs	r3, #0
   b791e:	6840      	ldr	r0, [r0, #4]
   b7920:	461a      	mov	r2, r3
   b7922:	4619      	mov	r1, r3
   b7924:	f7ff bef6 	b.w	b7714 <network_off>

000b7928 <_ZN5spark13EthernetClass2onEv>:
        network_on(*this, 0, 0, NULL);
   b7928:	2300      	movs	r3, #0
   b792a:	6840      	ldr	r0, [r0, #4]
   b792c:	461a      	mov	r2, r3
   b792e:	4619      	mov	r1, r3
   b7930:	f7ff bee8 	b.w	b7704 <network_on>

000b7934 <_ZN5spark13EthernetClass5readyEv>:
    }

    bool ready() {
        return network_ready(*this, 0,  NULL);
   b7934:	2200      	movs	r2, #0
   b7936:	6840      	ldr	r0, [r0, #4]
   b7938:	4611      	mov	r1, r2
   b793a:	f7ff bedb 	b.w	b76f4 <network_ready>

000b793e <_ZN5spark13EthernetClass10connectingEv>:
        return network_connecting(*this, 0, NULL);
   b793e:	2200      	movs	r2, #0
   b7940:	6840      	ldr	r0, [r0, #4]
   b7942:	4611      	mov	r1, r2
   b7944:	f7ff bec6 	b.w	b76d4 <network_connecting>

000b7948 <_ZN5spark13EthernetClass10disconnectEv>:
        network_disconnect(*this, NETWORK_DISCONNECT_REASON_USER, NULL);
   b7948:	6840      	ldr	r0, [r0, #4]
   b794a:	2200      	movs	r2, #0
   b794c:	2102      	movs	r1, #2
   b794e:	f7ff bec9 	b.w	b76e4 <network_disconnect>

000b7952 <_ZN5spark13EthernetClass7connectEj>:
        network_connect(*this, flags, 0, NULL);
   b7952:	2300      	movs	r3, #0
   b7954:	6840      	ldr	r0, [r0, #4]
   b7956:	461a      	mov	r2, r3
   b7958:	f7ff beb4 	b.w	b76c4 <network_connect>

000b795c <_GLOBAL__sub_I__ZN5spark8EthernetE>:
    static NetworkClass& from(network_interface_t nif);

    virtual IPAddress resolve(const char* name);

    explicit NetworkClass(network_interface_t iface)
            : iface_(iface) {
   b795c:	4b02      	ldr	r3, [pc, #8]	; (b7968 <_GLOBAL__sub_I__ZN5spark8EthernetE+0xc>)
   b795e:	2203      	movs	r2, #3
   b7960:	605a      	str	r2, [r3, #4]
            NetworkClass(NETWORK_INTERFACE_ETHERNET) {
   b7962:	4a02      	ldr	r2, [pc, #8]	; (b796c <_GLOBAL__sub_I__ZN5spark8EthernetE+0x10>)
   b7964:	601a      	str	r2, [r3, #0]

namespace spark {

EthernetClass Ethernet;

} // spark
   b7966:	4770      	bx	lr
   b7968:	2003e630 	.word	0x2003e630
   b796c:	000bcd6c 	.word	0x000bcd6c

000b7970 <_ZNSt12__shared_ptrIN5spark6detail8JSONDataELN9__gnu_cxx12_Lock_policyE0EEC1ERKS5_>:
      __shared_ptr(const __shared_ptr&) noexcept = default;
   b7970:	680b      	ldr	r3, [r1, #0]
   b7972:	6003      	str	r3, [r0, #0]
      : _M_pi(__r._M_pi)
   b7974:	684b      	ldr	r3, [r1, #4]
   b7976:	6043      	str	r3, [r0, #4]
	if (_M_pi != 0)
   b7978:	b113      	cbz	r3, b7980 <_ZNSt12__shared_ptrIN5spark6detail8JSONDataELN9__gnu_cxx12_Lock_policyE0EEC1ERKS5_+0x10>
    { ++_M_use_count; }
   b797a:	685a      	ldr	r2, [r3, #4]
   b797c:	3201      	adds	r2, #1
   b797e:	605a      	str	r2, [r3, #4]
      __shared_ptr(const __shared_ptr&) noexcept = default;
   b7980:	4770      	bx	lr

000b7982 <_ZN8SPIClassC1E19hal_spi_interface_t>:
    }
    return particle::SPISettings(info->clock, info->bit_order, info->data_mode);
}
} // namespace

SPIClass::SPIClass(hal_spi_interface_t spi)
   b7982:	b510      	push	{r4, lr}
   b7984:	4604      	mov	r4, r0
   b7986:	4608      	mov	r0, r1
{
    _spi = spi;
   b7988:	7021      	strb	r1, [r4, #0]
    hal_spi_init(_spi);
   b798a:	f7ff fdbd 	bl	b7508 <hal_spi_init>
    _dividerReference = SPI_CLK_SYSTEM; // 0 indicates the system clock
   b798e:	2300      	movs	r3, #0
   b7990:	6063      	str	r3, [r4, #4]
}
   b7992:	4620      	mov	r0, r4
   b7994:	bd10      	pop	{r4, pc}

000b7996 <_ZN17SystemSleepResult22freeWakeupSourceMemoryEv>:
    operator SleepResult() {
        return toSleepResult();
    }

private:
    void freeWakeupSourceMemory() {
   b7996:	b510      	push	{r4, lr}
   b7998:	4604      	mov	r4, r0
        if (wakeupSource_) {
   b799a:	6800      	ldr	r0, [r0, #0]
   b799c:	b118      	cbz	r0, b79a6 <_ZN17SystemSleepResult22freeWakeupSourceMemoryEv+0x10>
            free(wakeupSource_);
   b799e:	f7ff ff59 	bl	b7854 <free>
            wakeupSource_ = nullptr;
   b79a2:	2300      	movs	r3, #0
   b79a4:	6023      	str	r3, [r4, #0]
        }
    }
   b79a6:	bd10      	pop	{r4, pc}

000b79a8 <_ZN17SystemSleepResult16copyWakeupSourceEP24hal_wakeup_source_base_t.isra.0>:

    int copyWakeupSource(hal_wakeup_source_base_t* source) {
   b79a8:	b538      	push	{r3, r4, r5, lr}
   b79aa:	460c      	mov	r4, r1
   b79ac:	4605      	mov	r5, r0
        freeWakeupSourceMemory();
   b79ae:	f7ff fff2 	bl	b7996 <_ZN17SystemSleepResult22freeWakeupSourceMemoryEv>
        if (source) {
   b79b2:	b154      	cbz	r4, b79ca <_ZN17SystemSleepResult16copyWakeupSourceEP24hal_wakeup_source_base_t.isra.0+0x22>
            wakeupSource_ = (hal_wakeup_source_base_t*)malloc(source->size);
   b79b4:	8820      	ldrh	r0, [r4, #0]
   b79b6:	f7ff ff45 	bl	b7844 <malloc>
   b79ba:	6028      	str	r0, [r5, #0]
            if (wakeupSource_) {
   b79bc:	b128      	cbz	r0, b79ca <_ZN17SystemSleepResult16copyWakeupSourceEP24hal_wakeup_source_base_t.isra.0+0x22>
                memcpy(wakeupSource_, source, source->size);
   b79be:	8822      	ldrh	r2, [r4, #0]
   b79c0:	4621      	mov	r1, r4
            } else {
                return SYSTEM_ERROR_NO_MEMORY;
            }
        }
        return SYSTEM_ERROR_NONE;
    }
   b79c2:	e8bd 4038 	ldmia.w	sp!, {r3, r4, r5, lr}
                memcpy(wakeupSource_, source, source->size);
   b79c6:	f002 be29 	b.w	ba61c <memcpy>
    }
   b79ca:	bd38      	pop	{r3, r4, r5, pc}

000b79cc <_ZN17SystemSleepResultaSEOS_.isra.0>:
    SystemSleepResult& operator=(SystemSleepResult&& result) {
   b79cc:	b538      	push	{r3, r4, r5, lr}
        error_ = result.error_;
   b79ce:	f9b1 3004 	ldrsh.w	r3, [r1, #4]
   b79d2:	8083      	strh	r3, [r0, #4]
        compatResult_ = result.compatResult_;
   b79d4:	f8d1 3006 	ldr.w	r3, [r1, #6]
   b79d8:	f8c0 3006 	str.w	r3, [r0, #6]
   b79dc:	894b      	ldrh	r3, [r1, #10]
   b79de:	8143      	strh	r3, [r0, #10]
    SystemSleepResult& operator=(SystemSleepResult&& result) {
   b79e0:	460c      	mov	r4, r1
   b79e2:	4605      	mov	r5, r0
        freeWakeupSourceMemory();
   b79e4:	f7ff ffd7 	bl	b7996 <_ZN17SystemSleepResult22freeWakeupSourceMemoryEv>
        if (result.wakeupSource_) {
   b79e8:	6823      	ldr	r3, [r4, #0]
   b79ea:	b113      	cbz	r3, b79f2 <_ZN17SystemSleepResultaSEOS_.isra.0+0x26>
            wakeupSource_ = result.wakeupSource_;
   b79ec:	602b      	str	r3, [r5, #0]
            result.wakeupSource_ = nullptr;
   b79ee:	2300      	movs	r3, #0
   b79f0:	6023      	str	r3, [r4, #0]
    }
   b79f2:	bd38      	pop	{r3, r4, r5, pc}

000b79f4 <_ZN11SystemClass5sleepERKN8particle24SystemSleepConfigurationE>:
void SystemClass::enterSafeMode(SystemResetFlags flags)
{
    system_reset(SYSTEM_RESET_MODE_SAFE, 0, 0, flags.value(), nullptr);
}

SystemSleepResult SystemClass::sleep(const particle::SystemSleepConfiguration& config) {
   b79f4:	b5f0      	push	{r4, r5, r6, r7, lr}
   b79f6:	4d2b      	ldr	r5, [pc, #172]	; (b7aa4 <_ZN11SystemClass5sleepERKN8particle24SystemSleepConfigurationE+0xb0>)
    }

    // It doesn't guarantee the combination of sleep mode and
    // wakeup sources that the platform supports.
    bool valid() const {
        if (!valid_) {
   b79f8:	7d0b      	ldrb	r3, [r1, #20]
   b79fa:	4604      	mov	r4, r0
   b79fc:	b08b      	sub	sp, #44	; 0x2c
   b79fe:	4608      	mov	r0, r1
   b7a00:	1daf      	adds	r7, r5, #6
   b7a02:	2b00      	cmp	r3, #0
   b7a04:	d036      	beq.n	b7a74 <_ZN11SystemClass5sleepERKN8particle24SystemSleepConfigurationE+0x80>
        return static_cast<SystemSleepMode>(config_->mode);
   b7a06:	680b      	ldr	r3, [r1, #0]
            return valid_;
        }
        if (sleepMode() == SystemSleepMode::NONE) {
   b7a08:	791b      	ldrb	r3, [r3, #4]
   b7a0a:	2b00      	cmp	r3, #0
   b7a0c:	d032      	beq.n	b7a74 <_ZN11SystemClass5sleepERKN8particle24SystemSleepConfigurationE+0x80>
    SleepResult() {}
   b7a0e:	4b26      	ldr	r3, [pc, #152]	; (b7aa8 <_ZN11SystemClass5sleepERKN8particle24SystemSleepConfigurationE+0xb4>)
   b7a10:	9304      	str	r3, [sp, #16]
              error_(SYSTEM_ERROR_NONE) {
   b7a12:	2200      	movs	r2, #0
    if (!config.valid()) {
        LOG(ERROR, "System sleep configuration is invalid.");
        System.systemSleepResult_ = SystemSleepResult(SYSTEM_ERROR_INVALID_ARGUMENT);
    } else {
        SystemSleepResult result;
        int ret = system_sleep_ext(config.halConfig(), result.halWakeupSource(), nullptr);
   b7a14:	a902      	add	r1, sp, #8
   b7a16:	3004      	adds	r0, #4
   b7a18:	e9cd 2202 	strd	r2, r2, [sp, #8]
   b7a1c:	f7ff fe48 	bl	b76b0 <system_sleep_ext>
        compatResult_ = result.compatResult_;
   b7a20:	f8dd 300e 	ldr.w	r3, [sp, #14]
   b7a24:	f8c5 3006 	str.w	r3, [r5, #6]
        result.setError(static_cast<system_error_t>(ret));
   b7a28:	b200      	sxth	r0, r0
   b7a2a:	f8bd 3012 	ldrh.w	r3, [sp, #18]
        error_ = error;
   b7a2e:	f8ad 000c 	strh.w	r0, [sp, #12]
        error_ = result.error_;
   b7a32:	80a8      	strh	r0, [r5, #4]
        copyWakeupSource(result.wakeupSource_);
   b7a34:	9902      	ldr	r1, [sp, #8]
        compatResult_ = result.compatResult_;
   b7a36:	80bb      	strh	r3, [r7, #4]
        copyWakeupSource(result.wakeupSource_);
   b7a38:	4628      	mov	r0, r5
   b7a3a:	f7ff ffb5 	bl	b79a8 <_ZN17SystemSleepResult16copyWakeupSourceEP24hal_wakeup_source_base_t.isra.0>
        freeWakeupSourceMemory();
   b7a3e:	a802      	add	r0, sp, #8
   b7a40:	f7ff ffa9 	bl	b7996 <_ZN17SystemSleepResult22freeWakeupSourceMemoryEv>
              error_(SYSTEM_ERROR_NONE) {
   b7a44:	2300      	movs	r3, #0
   b7a46:	6023      	str	r3, [r4, #0]
   b7a48:	80a3      	strh	r3, [r4, #4]
    SleepResult() {}
   b7a4a:	71a3      	strb	r3, [r4, #6]
   b7a4c:	8123      	strh	r3, [r4, #8]
   b7a4e:	f64f 73ff 	movw	r3, #65535	; 0xffff
   b7a52:	8163      	strh	r3, [r4, #10]
        error_ = result.error_;
   b7a54:	f9b5 3004 	ldrsh.w	r3, [r5, #4]
   b7a58:	80a3      	strh	r3, [r4, #4]
        compatResult_ = result.compatResult_;
   b7a5a:	f8d5 3006 	ldr.w	r3, [r5, #6]
   b7a5e:	f8c4 3006 	str.w	r3, [r4, #6]
   b7a62:	88bb      	ldrh	r3, [r7, #4]
        copyWakeupSource(result.wakeupSource_);
   b7a64:	6829      	ldr	r1, [r5, #0]
        compatResult_ = result.compatResult_;
   b7a66:	8163      	strh	r3, [r4, #10]
        copyWakeupSource(result.wakeupSource_);
   b7a68:	4620      	mov	r0, r4
   b7a6a:	f7ff ff9d 	bl	b79a8 <_ZN17SystemSleepResult16copyWakeupSourceEP24hal_wakeup_source_base_t.isra.0>
        System.systemSleepResult_ = result;
    }
    return System.systemSleepResult_;
}
   b7a6e:	4620      	mov	r0, r4
   b7a70:	b00b      	add	sp, #44	; 0x2c
   b7a72:	bdf0      	pop	{r4, r5, r6, r7, pc}
        LOG(ERROR, "System sleep configuration is invalid.");
   b7a74:	2600      	movs	r6, #0
   b7a76:	2320      	movs	r3, #32
   b7a78:	e9cd 3602 	strd	r3, r6, [sp, #8]
   b7a7c:	4b0b      	ldr	r3, [pc, #44]	; (b7aac <_ZN11SystemClass5sleepERKN8particle24SystemSleepConfigurationE+0xb8>)
   b7a7e:	9300      	str	r3, [sp, #0]
   b7a80:	aa02      	add	r2, sp, #8
   b7a82:	4633      	mov	r3, r6
   b7a84:	490a      	ldr	r1, [pc, #40]	; (b7ab0 <_ZN11SystemClass5sleepERKN8particle24SystemSleepConfigurationE+0xbc>)
   b7a86:	2032      	movs	r0, #50	; 0x32
   b7a88:	f7ff fda6 	bl	b75d8 <log_message>
            : wakeupSource_(nullptr),
   b7a8c:	4b06      	ldr	r3, [pc, #24]	; (b7aa8 <_ZN11SystemClass5sleepERKN8particle24SystemSleepConfigurationE+0xb4>)
        System.systemSleepResult_ = SystemSleepResult(SYSTEM_ERROR_INVALID_ARGUMENT);
   b7a8e:	4805      	ldr	r0, [pc, #20]	; (b7aa4 <_ZN11SystemClass5sleepERKN8particle24SystemSleepConfigurationE+0xb0>)
              error_(SYSTEM_ERROR_NONE) {
   b7a90:	9602      	str	r6, [sp, #8]
            : wakeupSource_(nullptr),
   b7a92:	f64f 62f2 	movw	r2, #65266	; 0xfef2
   b7a96:	a902      	add	r1, sp, #8
   b7a98:	e9cd 2303 	strd	r2, r3, [sp, #12]
   b7a9c:	f7ff ff96 	bl	b79cc <_ZN17SystemSleepResultaSEOS_.isra.0>
   b7aa0:	e7cd      	b.n	b7a3e <_ZN11SystemClass5sleepERKN8particle24SystemSleepConfigurationE+0x4a>
   b7aa2:	bf00      	nop
   b7aa4:	2003e638 	.word	0x2003e638
   b7aa8:	ffff0000 	.word	0xffff0000
   b7aac:	000bcdaf 	.word	0x000bcdaf
   b7ab0:	000bcda8 	.word	0x000bcda8

000b7ab4 <_ZN11SystemClass10freeMemoryEv>:
    System.systemSleepResult_ = SystemSleepResult(SleepResult(ret, pins, pins_count));
    return System.systemSleepResult_;
}

uint32_t SystemClass::freeMemory()
{
   b7ab4:	b510      	push	{r4, lr}
    runtime_info_t info;
    memset(&info, 0, sizeof(info));
   b7ab6:	2420      	movs	r4, #32
{
   b7ab8:	b088      	sub	sp, #32
    memset(&info, 0, sizeof(info));
   b7aba:	4622      	mov	r2, r4
   b7abc:	2100      	movs	r1, #0
   b7abe:	4668      	mov	r0, sp
   b7ac0:	f002 fdd4 	bl	ba66c <memset>
    info.size = sizeof(info);
    HAL_Core_Runtime_Info(&info, NULL);
   b7ac4:	2100      	movs	r1, #0
   b7ac6:	4668      	mov	r0, sp
    info.size = sizeof(info);
   b7ac8:	f8ad 4000 	strh.w	r4, [sp]
    HAL_Core_Runtime_Info(&info, NULL);
   b7acc:	f7ff fbd4 	bl	b7278 <HAL_Core_Runtime_Info>
    return info.freeheap;
}
   b7ad0:	9801      	ldr	r0, [sp, #4]
   b7ad2:	b008      	add	sp, #32
   b7ad4:	bd10      	pop	{r4, pc}
	...

000b7ad8 <_GLOBAL__sub_I_System>:
} // namespace particle

// particle::Flag<TagT, ValueT>
template<typename TagT, typename ValueT>
inline particle::Flag<TagT, ValueT>::Flag(ValueT val) :
        val_(val) {
   b7ad8:	4b05      	ldr	r3, [pc, #20]	; (b7af0 <_GLOBAL__sub_I_System+0x18>)
   b7ada:	2202      	movs	r2, #2
   b7adc:	601a      	str	r2, [r3, #0]
              error_(SYSTEM_ERROR_NONE) {
   b7ade:	4b05      	ldr	r3, [pc, #20]	; (b7af4 <_GLOBAL__sub_I_System+0x1c>)
    SleepResult() {}
   b7ae0:	4a05      	ldr	r2, [pc, #20]	; (b7af8 <_GLOBAL__sub_I_System+0x20>)
   b7ae2:	609a      	str	r2, [r3, #8]
              error_(SYSTEM_ERROR_NONE) {
   b7ae4:	2000      	movs	r0, #0
   b7ae6:	e9c3 0000 	strd	r0, r0, [r3]

class SystemClass {
public:

    SystemClass(System_Mode_TypeDef mode = DEFAULT) {
        set_system_mode(mode);
   b7aea:	f7ff bd9d 	b.w	b7628 <set_system_mode>
   b7aee:	bf00      	nop
   b7af0:	2003e644 	.word	0x2003e644
   b7af4:	2003e638 	.word	0x2003e638
   b7af8:	ffff0000 	.word	0xffff0000

000b7afc <_ZN6StringD1Ev>:
    init();
    char buf[33] = {};
    dtoa(value, decimalPlaces, buf);
  *this = buf;
}
String::~String()
   b7afc:	b510      	push	{r4, lr}
   b7afe:	4604      	mov	r4, r0
{
    free(buffer);
   b7b00:	6800      	ldr	r0, [r0, #0]
   b7b02:	f7ff fea7 	bl	b7854 <free>
}
   b7b06:	4620      	mov	r0, r4
   b7b08:	bd10      	pop	{r4, pc}

000b7b0a <_ZN6String10invalidateEv>:
    len = 0;
    flags = 0;
}

void String::invalidate(void)
{
   b7b0a:	b510      	push	{r4, lr}
   b7b0c:	4604      	mov	r4, r0
    if (buffer) {
   b7b0e:	6800      	ldr	r0, [r0, #0]
   b7b10:	b108      	cbz	r0, b7b16 <_ZN6String10invalidateEv+0xc>
        free(buffer);
   b7b12:	f7ff fe9f 	bl	b7854 <free>
    }
    buffer = nullptr;
   b7b16:	2300      	movs	r3, #0
    capacity_ = len = 0;
   b7b18:	e9c4 3301 	strd	r3, r3, [r4, #4]
    buffer = nullptr;
   b7b1c:	6023      	str	r3, [r4, #0]
}
   b7b1e:	bd10      	pop	{r4, pc}

000b7b20 <_ZN6String12changeBufferEj>:
    len = size;
    return true;
}

unsigned char String::changeBuffer(unsigned int maxStrLen)
{
   b7b20:	b538      	push	{r3, r4, r5, lr}
   b7b22:	4604      	mov	r4, r0
   b7b24:	460d      	mov	r5, r1
    char *newbuffer = (char *)realloc(buffer, maxStrLen + 1);
   b7b26:	6800      	ldr	r0, [r0, #0]
   b7b28:	3101      	adds	r1, #1
   b7b2a:	f7ff fe9b 	bl	b7864 <realloc>
    if (newbuffer) {
   b7b2e:	b110      	cbz	r0, b7b36 <_ZN6String12changeBufferEj+0x16>
        buffer = newbuffer;
        capacity_ = maxStrLen;
   b7b30:	e9c4 0500 	strd	r0, r5, [r4]
        return 1;
   b7b34:	2001      	movs	r0, #1
    }
    return 0;
}
   b7b36:	bd38      	pop	{r3, r4, r5, pc}

000b7b38 <_ZN6String7reserveEj>:
{
   b7b38:	b510      	push	{r4, lr}
    if (buffer && capacity_ >= size) {
   b7b3a:	6803      	ldr	r3, [r0, #0]
{
   b7b3c:	4604      	mov	r4, r0
    if (buffer && capacity_ >= size) {
   b7b3e:	b123      	cbz	r3, b7b4a <_ZN6String7reserveEj+0x12>
   b7b40:	6843      	ldr	r3, [r0, #4]
   b7b42:	428b      	cmp	r3, r1
   b7b44:	d301      	bcc.n	b7b4a <_ZN6String7reserveEj+0x12>
   b7b46:	2001      	movs	r0, #1
}
   b7b48:	bd10      	pop	{r4, pc}
    if (changeBuffer(size)) {
   b7b4a:	4620      	mov	r0, r4
   b7b4c:	f7ff ffe8 	bl	b7b20 <_ZN6String12changeBufferEj>
   b7b50:	2800      	cmp	r0, #0
   b7b52:	d0f9      	beq.n	b7b48 <_ZN6String7reserveEj+0x10>
        if (len == 0) {
   b7b54:	68a3      	ldr	r3, [r4, #8]
   b7b56:	2b00      	cmp	r3, #0
   b7b58:	d1f5      	bne.n	b7b46 <_ZN6String7reserveEj+0xe>
            buffer[0] = 0;
   b7b5a:	6822      	ldr	r2, [r4, #0]
   b7b5c:	7013      	strb	r3, [r2, #0]
   b7b5e:	e7f2      	b.n	b7b46 <_ZN6String7reserveEj+0xe>

000b7b60 <_ZN6String4copyEPKcj>:
/*********************************************/
/*  Copy and Move                            */
/*********************************************/

String & String::copy(const char *cstr, unsigned int length)
{
   b7b60:	b537      	push	{r0, r1, r2, r4, r5, lr}
   b7b62:	460d      	mov	r5, r1
    if (!reserve(length)) {
   b7b64:	4611      	mov	r1, r2
   b7b66:	9201      	str	r2, [sp, #4]
{
   b7b68:	4604      	mov	r4, r0
    if (!reserve(length)) {
   b7b6a:	f7ff ffe5 	bl	b7b38 <_ZN6String7reserveEj>
   b7b6e:	9a01      	ldr	r2, [sp, #4]
   b7b70:	b928      	cbnz	r0, b7b7e <_ZN6String4copyEPKcj+0x1e>
        invalidate();
   b7b72:	4620      	mov	r0, r4
   b7b74:	f7ff ffc9 	bl	b7b0a <_ZN6String10invalidateEv>
    }
    len = length;
    memcpy(buffer, cstr, length);
    buffer[len] = 0;
    return *this;
}
   b7b78:	4620      	mov	r0, r4
   b7b7a:	b003      	add	sp, #12
   b7b7c:	bd30      	pop	{r4, r5, pc}
    len = length;
   b7b7e:	60a2      	str	r2, [r4, #8]
    memcpy(buffer, cstr, length);
   b7b80:	4629      	mov	r1, r5
   b7b82:	6820      	ldr	r0, [r4, #0]
   b7b84:	f002 fd4a 	bl	ba61c <memcpy>
    buffer[len] = 0;
   b7b88:	6822      	ldr	r2, [r4, #0]
   b7b8a:	68a3      	ldr	r3, [r4, #8]
   b7b8c:	2100      	movs	r1, #0
   b7b8e:	54d1      	strb	r1, [r2, r3]
    return *this;
   b7b90:	e7f2      	b.n	b7b78 <_ZN6String4copyEPKcj+0x18>

000b7b92 <_ZN6StringC1EPK19__FlashStringHelper>:
    buffer = nullptr;
   b7b92:	2300      	movs	r3, #0
String::String(const __FlashStringHelper *pstr)
   b7b94:	b513      	push	{r0, r1, r4, lr}
    capacity_ = 0;
   b7b96:	e9c0 3300 	strd	r3, r3, [r0]
String::String(const __FlashStringHelper *pstr)
   b7b9a:	4604      	mov	r4, r0
    len = 0;
   b7b9c:	6083      	str	r3, [r0, #8]
    flags = 0;
   b7b9e:	7303      	strb	r3, [r0, #12]
    if (cstr) {
   b7ba0:	b141      	cbz	r1, b7bb4 <_ZN6StringC1EPK19__FlashStringHelper+0x22>
        copy(cstr, strlen(cstr));
   b7ba2:	4608      	mov	r0, r1
   b7ba4:	9101      	str	r1, [sp, #4]
   b7ba6:	f7fd f8df 	bl	b4d68 <strlen>
   b7baa:	9901      	ldr	r1, [sp, #4]
   b7bac:	4602      	mov	r2, r0
   b7bae:	4620      	mov	r0, r4
   b7bb0:	f7ff ffd6 	bl	b7b60 <_ZN6String4copyEPKcj>
}
   b7bb4:	4620      	mov	r0, r4
   b7bb6:	b002      	add	sp, #8
   b7bb8:	bd10      	pop	{r4, pc}

000b7bba <_ZN6String4moveERS_>:
    return copy(reinterpret_cast<const char*>(pstr), length);
}

#ifdef __GXX_EXPERIMENTAL_CXX0X__
void String::move(String &rhs)
{
   b7bba:	b538      	push	{r3, r4, r5, lr}
   b7bbc:	4605      	mov	r5, r0
    if (buffer) {
   b7bbe:	6800      	ldr	r0, [r0, #0]
{
   b7bc0:	460c      	mov	r4, r1
    if (buffer) {
   b7bc2:	b170      	cbz	r0, b7be2 <_ZN6String4moveERS_+0x28>
        if (capacity_ >= rhs.len && rhs.buffer) {
   b7bc4:	686a      	ldr	r2, [r5, #4]
   b7bc6:	688b      	ldr	r3, [r1, #8]
   b7bc8:	429a      	cmp	r2, r3
   b7bca:	d308      	bcc.n	b7bde <_ZN6String4moveERS_+0x24>
   b7bcc:	6809      	ldr	r1, [r1, #0]
   b7bce:	b131      	cbz	r1, b7bde <_ZN6String4moveERS_+0x24>
            strcpy(buffer, rhs.buffer);
   b7bd0:	f002 fd99 	bl	ba706 <strcpy>
            len = rhs.len;
   b7bd4:	68a3      	ldr	r3, [r4, #8]
   b7bd6:	60ab      	str	r3, [r5, #8]
            rhs.len = 0;
   b7bd8:	2300      	movs	r3, #0
    buffer = rhs.buffer;
    capacity_ = rhs.capacity_;
    len = rhs.len;
    rhs.buffer = nullptr;
    rhs.capacity_ = 0;
    rhs.len = 0;
   b7bda:	60a3      	str	r3, [r4, #8]
}
   b7bdc:	bd38      	pop	{r3, r4, r5, pc}
            free(buffer);
   b7bde:	f7ff fe39 	bl	b7854 <free>
    buffer = rhs.buffer;
   b7be2:	6823      	ldr	r3, [r4, #0]
   b7be4:	602b      	str	r3, [r5, #0]
    capacity_ = rhs.capacity_;
   b7be6:	6863      	ldr	r3, [r4, #4]
   b7be8:	606b      	str	r3, [r5, #4]
    len = rhs.len;
   b7bea:	68a3      	ldr	r3, [r4, #8]
   b7bec:	60ab      	str	r3, [r5, #8]
    rhs.buffer = nullptr;
   b7bee:	2300      	movs	r3, #0
    rhs.capacity_ = 0;
   b7bf0:	e9c4 3300 	strd	r3, r3, [r4]
   b7bf4:	e7f1      	b.n	b7bda <_ZN6String4moveERS_+0x20>

000b7bf6 <_ZN6StringC1EOS_>:
String::String(String &&rval)
   b7bf6:	b510      	push	{r4, lr}
    buffer = nullptr;
   b7bf8:	2300      	movs	r3, #0
    capacity_ = 0;
   b7bfa:	e9c0 3300 	strd	r3, r3, [r0]
String::String(String &&rval)
   b7bfe:	4604      	mov	r4, r0
    len = 0;
   b7c00:	6083      	str	r3, [r0, #8]
    flags = 0;
   b7c02:	7303      	strb	r3, [r0, #12]
    move(rval);
   b7c04:	f7ff ffd9 	bl	b7bba <_ZN6String4moveERS_>
}
   b7c08:	4620      	mov	r0, r4
   b7c0a:	bd10      	pop	{r4, pc}

000b7c0c <_ZN6StringaSERKS_>:
#endif

String & String::operator = (const String &rhs)
{
    if (this == &rhs) {
   b7c0c:	4288      	cmp	r0, r1
{
   b7c0e:	b510      	push	{r4, lr}
   b7c10:	4604      	mov	r4, r0
    if (this == &rhs) {
   b7c12:	d005      	beq.n	b7c20 <_ZN6StringaSERKS_+0x14>
        return *this;
    }

    if (rhs.buffer) {
   b7c14:	680b      	ldr	r3, [r1, #0]
   b7c16:	b12b      	cbz	r3, b7c24 <_ZN6StringaSERKS_+0x18>
        copy(rhs.buffer, rhs.len);
   b7c18:	688a      	ldr	r2, [r1, #8]
   b7c1a:	4619      	mov	r1, r3
   b7c1c:	f7ff ffa0 	bl	b7b60 <_ZN6String4copyEPKcj>
    else {
        invalidate();
    }

    return *this;
}
   b7c20:	4620      	mov	r0, r4
   b7c22:	bd10      	pop	{r4, pc}
        invalidate();
   b7c24:	f7ff ff71 	bl	b7b0a <_ZN6String10invalidateEv>
   b7c28:	e7fa      	b.n	b7c20 <_ZN6StringaSERKS_+0x14>

000b7c2a <_ZN6StringC1ERKS_>:
String::String(const String &value)
   b7c2a:	b510      	push	{r4, lr}
    buffer = nullptr;
   b7c2c:	2300      	movs	r3, #0
String::String(const String &value)
   b7c2e:	4604      	mov	r4, r0
    capacity_ = 0;
   b7c30:	e9c0 3300 	strd	r3, r3, [r0]
    len = 0;
   b7c34:	6083      	str	r3, [r0, #8]
    flags = 0;
   b7c36:	7303      	strb	r3, [r0, #12]
    *this = value;
   b7c38:	f7ff ffe8 	bl	b7c0c <_ZN6StringaSERKS_>
}
   b7c3c:	4620      	mov	r0, r4
   b7c3e:	bd10      	pop	{r4, pc}

000b7c40 <_ZNK6String6equalsEPKc>:
{
    return (len == s2.len && compareTo(s2) == 0);
}

unsigned char String::equals(const char *cstr) const
{
   b7c40:	b508      	push	{r3, lr}
    if (len == 0) {
   b7c42:	6882      	ldr	r2, [r0, #8]
   b7c44:	b93a      	cbnz	r2, b7c56 <_ZNK6String6equalsEPKc+0x16>
        return (cstr == nullptr || *cstr == 0);
   b7c46:	b121      	cbz	r1, b7c52 <_ZNK6String6equalsEPKc+0x12>
   b7c48:	7808      	ldrb	r0, [r1, #0]
    }
    if (cstr == nullptr) {
        return buffer[0] == 0;
    }
    return strcmp(buffer, cstr) == 0;
   b7c4a:	fab0 f080 	clz	r0, r0
   b7c4e:	0940      	lsrs	r0, r0, #5
   b7c50:	e000      	b.n	b7c54 <_ZNK6String6equalsEPKc+0x14>
        return (cstr == nullptr || *cstr == 0);
   b7c52:	2001      	movs	r0, #1
}
   b7c54:	bd08      	pop	{r3, pc}
        return buffer[0] == 0;
   b7c56:	6800      	ldr	r0, [r0, #0]
    if (cstr == nullptr) {
   b7c58:	b909      	cbnz	r1, b7c5e <_ZNK6String6equalsEPKc+0x1e>
        return buffer[0] == 0;
   b7c5a:	7800      	ldrb	r0, [r0, #0]
   b7c5c:	e7f5      	b.n	b7c4a <_ZNK6String6equalsEPKc+0xa>
    return strcmp(buffer, cstr) == 0;
   b7c5e:	f7fd f879 	bl	b4d54 <strcmp>
   b7c62:	e7f2      	b.n	b7c4a <_ZNK6String6equalsEPKc+0xa>

000b7c64 <_ZNK6String7indexOfEcj>:
{
    return indexOf(c, 0);
}

int String::indexOf( char ch, unsigned int fromIndex ) const
{
   b7c64:	b510      	push	{r4, lr}
    if (fromIndex >= len) {
   b7c66:	6883      	ldr	r3, [r0, #8]
   b7c68:	4293      	cmp	r3, r2
   b7c6a:	d906      	bls.n	b7c7a <_ZNK6String7indexOfEcj+0x16>
        return -1;
    }
    const char* temp = strchr(buffer + fromIndex, ch);
   b7c6c:	6804      	ldr	r4, [r0, #0]
   b7c6e:	18a0      	adds	r0, r4, r2
   b7c70:	f002 fd32 	bl	ba6d8 <strchr>
    if (temp == nullptr) {
   b7c74:	b108      	cbz	r0, b7c7a <_ZNK6String7indexOfEcj+0x16>
        return -1;
    }
    return temp - buffer;
   b7c76:	1b00      	subs	r0, r0, r4
}
   b7c78:	bd10      	pop	{r4, pc}
        return -1;
   b7c7a:	f04f 30ff 	mov.w	r0, #4294967295
   b7c7e:	e7fb      	b.n	b7c78 <_ZNK6String7indexOfEcj+0x14>

000b7c80 <_ZNK6String7indexOfEc>:
    return indexOf(c, 0);
   b7c80:	2200      	movs	r2, #0
   b7c82:	f7ff bfef 	b.w	b7c64 <_ZNK6String7indexOfEcj>
	...

000b7c88 <_ZNK6String9substringEjj>:
{
    return substring(left, len);
}

String String::substring(unsigned int left, unsigned int right) const
{
   b7c88:	b5f8      	push	{r3, r4, r5, r6, r7, lr}
    if (left > right) {
   b7c8a:	429a      	cmp	r2, r3
{
   b7c8c:	460f      	mov	r7, r1
   b7c8e:	461d      	mov	r5, r3
        unsigned int temp = right;
        right = left;
        left = temp;
    }
    String out;
   b7c90:	490c      	ldr	r1, [pc, #48]	; (b7cc4 <_ZNK6String9substringEjj+0x3c>)
    if (left > right) {
   b7c92:	bf88      	it	hi
   b7c94:	4613      	movhi	r3, r2
{
   b7c96:	4614      	mov	r4, r2
   b7c98:	4606      	mov	r6, r0
    if (left > right) {
   b7c9a:	bf84      	itt	hi
   b7c9c:	462c      	movhi	r4, r5
   b7c9e:	461d      	movhi	r5, r3
    String out;
   b7ca0:	f7ff ff77 	bl	b7b92 <_ZN6StringC1EPK19__FlashStringHelper>
    if (left > len) {
   b7ca4:	68bb      	ldr	r3, [r7, #8]
   b7ca6:	42a3      	cmp	r3, r4
   b7ca8:	d30a      	bcc.n	b7cc0 <_ZNK6String9substringEjj+0x38>
        return out;
    }
    if (right > len) {
        right = len;
    }
    out.copy(&buffer[left], right - left);
   b7caa:	6839      	ldr	r1, [r7, #0]
   b7cac:	42ab      	cmp	r3, r5
   b7cae:	bf94      	ite	ls
   b7cb0:	ebc4 0203 	rsbls	r2, r4, r3
   b7cb4:	ebc4 0205 	rsbhi	r2, r4, r5
   b7cb8:	4421      	add	r1, r4
   b7cba:	4630      	mov	r0, r6
   b7cbc:	f7ff ff50 	bl	b7b60 <_ZN6String4copyEPKcj>
    return out;
}
   b7cc0:	4630      	mov	r0, r6
   b7cc2:	bdf8      	pop	{r3, r4, r5, r6, r7, pc}
   b7cc4:	000bce4a 	.word	0x000bce4a

000b7cc8 <_ZNK6String9substringEj>:
{
   b7cc8:	b510      	push	{r4, lr}
   b7cca:	4604      	mov	r4, r0
    return substring(left, len);
   b7ccc:	688b      	ldr	r3, [r1, #8]
   b7cce:	f7ff ffdb 	bl	b7c88 <_ZNK6String9substringEjj>
}
   b7cd2:	4620      	mov	r0, r4
   b7cd4:	bd10      	pop	{r4, pc}

000b7cd6 <_ZN6String11toLowerCaseEv>:
    buffer[len] = 0;
    return *this;
}

String& String::toLowerCase(void)
{
   b7cd6:	b538      	push	{r3, r4, r5, lr}
    if (buffer) {
   b7cd8:	6804      	ldr	r4, [r0, #0]
{
   b7cda:	4605      	mov	r5, r0
    if (buffer) {
   b7cdc:	b13c      	cbz	r4, b7cee <_ZN6String11toLowerCaseEv+0x18>
   b7cde:	3c01      	subs	r4, #1
        for (char *p = buffer; *p; p++) {
   b7ce0:	f814 0f01 	ldrb.w	r0, [r4, #1]!
   b7ce4:	b118      	cbz	r0, b7cee <_ZN6String11toLowerCaseEv+0x18>
            *p = tolower(*p);
   b7ce6:	f003 fc49 	bl	bb57c <tolower>
   b7cea:	7020      	strb	r0, [r4, #0]
        for (char *p = buffer; *p; p++) {
   b7cec:	e7f8      	b.n	b7ce0 <_ZN6String11toLowerCaseEv+0xa>
        }
    }
    return *this;
}
   b7cee:	4628      	mov	r0, r5
   b7cf0:	bd38      	pop	{r3, r4, r5, pc}

000b7cf2 <_ZN6String4trimEv>:
    }
    return *this;
}

String& String::trim(void)
{
   b7cf2:	e92d 41f0 	stmdb	sp!, {r4, r5, r6, r7, r8, lr}
    if (!buffer || len == 0) {
   b7cf6:	6806      	ldr	r6, [r0, #0]
{
   b7cf8:	4605      	mov	r5, r0
    if (!buffer || len == 0) {
   b7cfa:	b306      	cbz	r6, b7d3e <_ZN6String4trimEv+0x4c>
   b7cfc:	6884      	ldr	r4, [r0, #8]
   b7cfe:	b1f4      	cbz	r4, b7d3e <_ZN6String4trimEv+0x4c>
   b7d00:	46b0      	mov	r8, r6
   b7d02:	4647      	mov	r7, r8
        return *this;
    }
    char *begin = buffer;
    while (isspace(*begin)) {
   b7d04:	f818 0b01 	ldrb.w	r0, [r8], #1
   b7d08:	f002 fc80 	bl	ba60c <isspace>
   b7d0c:	2800      	cmp	r0, #0
   b7d0e:	d1f8      	bne.n	b7d02 <_ZN6String4trimEv+0x10>
        begin++;
    }
    char *end = buffer + len - 1;
   b7d10:	3c01      	subs	r4, #1
   b7d12:	4434      	add	r4, r6
    while (isspace(*end) && end >= begin) {
   b7d14:	7820      	ldrb	r0, [r4, #0]
   b7d16:	f002 fc79 	bl	ba60c <isspace>
   b7d1a:	b118      	cbz	r0, b7d24 <_ZN6String4trimEv+0x32>
   b7d1c:	42a7      	cmp	r7, r4
   b7d1e:	d801      	bhi.n	b7d24 <_ZN6String4trimEv+0x32>
        end--;
   b7d20:	3c01      	subs	r4, #1
    while (isspace(*end) && end >= begin) {
   b7d22:	e7f7      	b.n	b7d14 <_ZN6String4trimEv+0x22>
    }
    len = end + 1 - begin;
   b7d24:	1c62      	adds	r2, r4, #1
   b7d26:	1bd2      	subs	r2, r2, r7
    if (begin > buffer) {
   b7d28:	42be      	cmp	r6, r7
    len = end + 1 - begin;
   b7d2a:	60aa      	str	r2, [r5, #8]
    if (begin > buffer) {
   b7d2c:	d203      	bcs.n	b7d36 <_ZN6String4trimEv+0x44>
        memcpy(buffer, begin, len);
   b7d2e:	4639      	mov	r1, r7
   b7d30:	4630      	mov	r0, r6
   b7d32:	f002 fc73 	bl	ba61c <memcpy>
    }
    buffer[len] = 0;
   b7d36:	682a      	ldr	r2, [r5, #0]
   b7d38:	68ab      	ldr	r3, [r5, #8]
   b7d3a:	2100      	movs	r1, #0
   b7d3c:	54d1      	strb	r1, [r2, r3]
  return *this;
}
   b7d3e:	4628      	mov	r0, r5
   b7d40:	e8bd 81f0 	ldmia.w	sp!, {r4, r5, r6, r7, r8, pc}

000b7d44 <_ZNSt16_Sp_counted_baseILN9__gnu_cxx12_Lock_policyE0EE10_M_releaseEv>:
    {
   b7d44:	b510      	push	{r4, lr}
      if (--_M_use_count == 0)
   b7d46:	6843      	ldr	r3, [r0, #4]
   b7d48:	3b01      	subs	r3, #1
    {
   b7d4a:	4604      	mov	r4, r0
      if (--_M_use_count == 0)
   b7d4c:	6043      	str	r3, [r0, #4]
   b7d4e:	b963      	cbnz	r3, b7d6a <_ZNSt16_Sp_counted_baseILN9__gnu_cxx12_Lock_policyE0EE10_M_releaseEv+0x26>
          _M_dispose();
   b7d50:	6803      	ldr	r3, [r0, #0]
   b7d52:	689b      	ldr	r3, [r3, #8]
   b7d54:	4798      	blx	r3
          if (--_M_weak_count == 0)
   b7d56:	68a3      	ldr	r3, [r4, #8]
   b7d58:	3b01      	subs	r3, #1
   b7d5a:	60a3      	str	r3, [r4, #8]
   b7d5c:	b92b      	cbnz	r3, b7d6a <_ZNSt16_Sp_counted_baseILN9__gnu_cxx12_Lock_policyE0EE10_M_releaseEv+0x26>
            _M_destroy();
   b7d5e:	6823      	ldr	r3, [r4, #0]
   b7d60:	4620      	mov	r0, r4
   b7d62:	68db      	ldr	r3, [r3, #12]
    }
   b7d64:	e8bd 4010 	ldmia.w	sp!, {r4, lr}
            _M_destroy();
   b7d68:	4718      	bx	r3
    }
   b7d6a:	bd10      	pop	{r4, pc}

000b7d6c <_ZN5spark6VectorI6StringNS_16DefaultAllocatorEED1Ev>:
inline spark::Vector<T, AllocatorT>::Vector(Vector<T, AllocatorT>&& vector) : Vector() {
    swap(*this, vector);
}

template<typename T, typename AllocatorT>
inline spark::Vector<T, AllocatorT>::~Vector() {
   b7d6c:	b570      	push	{r4, r5, r6, lr}
    destruct(data_, data_ + size_);
   b7d6e:	e9d0 5300 	ldrd	r5, r3, [r0]
inline spark::Vector<T, AllocatorT>::~Vector() {
   b7d72:	4604      	mov	r4, r0
    destruct(data_, data_ + size_);
   b7d74:	eb05 1603 	add.w	r6, r5, r3, lsl #4
        for (; p != end; ++p) {
   b7d78:	42ae      	cmp	r6, r5
   b7d7a:	d004      	beq.n	b7d86 <_ZN5spark6VectorI6StringNS_16DefaultAllocatorEED1Ev+0x1a>
            p->~T();
   b7d7c:	4628      	mov	r0, r5
   b7d7e:	f7ff febd 	bl	b7afc <_ZN6StringD1Ev>
        for (; p != end; ++p) {
   b7d82:	3510      	adds	r5, #16
   b7d84:	e7f8      	b.n	b7d78 <_ZN5spark6VectorI6StringNS_16DefaultAllocatorEED1Ev+0xc>
    ::free(ptr);
   b7d86:	6820      	ldr	r0, [r4, #0]
   b7d88:	f7ff fd64 	bl	b7854 <free>
    AllocatorT::free(data_);
}
   b7d8c:	4620      	mov	r0, r4
   b7d8e:	bd70      	pop	{r4, r5, r6, pc}

000b7d90 <_ZSt4swapISt9_Any_dataENSt9enable_ifIXsrSt6__and_IJSt6__not_ISt15__is_tuple_likeIT_EESt21is_move_constructibleIS5_ESt18is_move_assignableIS5_EEE5valueEvE4typeERS5_SF_>:
    swap(_Tp& __a, _Tp& __b)
   b7d90:	b513      	push	{r0, r1, r4, lr}
   b7d92:	460b      	mov	r3, r1
   b7d94:	4602      	mov	r2, r0
      _Tp __tmp = _GLIBCXX_MOVE(__a);
   b7d96:	e9d0 0100 	ldrd	r0, r1, [r0]
   b7d9a:	466c      	mov	r4, sp
   b7d9c:	e884 0003 	stmia.w	r4, {r0, r1}
      __a = _GLIBCXX_MOVE(__b);
   b7da0:	e893 0003 	ldmia.w	r3, {r0, r1}
   b7da4:	e882 0003 	stmia.w	r2, {r0, r1}
      __b = _GLIBCXX_MOVE(__tmp);
   b7da8:	e894 0003 	ldmia.w	r4, {r0, r1}
   b7dac:	e883 0003 	stmia.w	r3, {r0, r1}
    }
   b7db0:	b002      	add	sp, #8
   b7db2:	bd10      	pop	{r4, pc}

000b7db4 <_GLOBAL__sub_I__ZN8particle3ble13WiringBleLock6mutex_E>:
    /**
     * Creates a shared mutex.
     */
    RecursiveMutex(os_mutex_recursive_t handle) : handle_(handle) {}

    RecursiveMutex() : handle_(nullptr)
   b7db4:	4802      	ldr	r0, [pc, #8]	; (b7dc0 <_GLOBAL__sub_I__ZN8particle3ble13WiringBleLock6mutex_E+0xc>)
   b7db6:	2300      	movs	r3, #0
   b7db8:	6003      	str	r3, [r0, #0]
    {
        os_mutex_recursive_create(&handle_);
   b7dba:	f7ff babd 	b.w	b7338 <os_mutex_recursive_create>
   b7dbe:	bf00      	nop
   b7dc0:	2003e648 	.word	0x2003e648

000b7dc4 <_ZN5spark16JSONStreamWriter5writeEPKcj>:

inline Print* spark::JSONStreamWriter::stream() const {
    return &strm_;
}

inline void spark::JSONStreamWriter::write(const char *data, size_t size) {
   b7dc4:	b510      	push	{r4, lr}
   b7dc6:	4604      	mov	r4, r0
    bytesWritten_ += strm_.write((const uint8_t*)data, size);
   b7dc8:	6880      	ldr	r0, [r0, #8]
   b7dca:	6803      	ldr	r3, [r0, #0]
   b7dcc:	68db      	ldr	r3, [r3, #12]
   b7dce:	4798      	blx	r3
   b7dd0:	68e3      	ldr	r3, [r4, #12]
   b7dd2:	4418      	add	r0, r3
   b7dd4:	60e0      	str	r0, [r4, #12]
}
   b7dd6:	bd10      	pop	{r4, pc}

000b7dd8 <_ZN5Print5writeEPKhj>:

// Public Methods //////////////////////////////////////////////////////////////

/* default implementation: may be overridden */
size_t Print::write(const uint8_t *buffer, size_t size)
{
   b7dd8:	b5f8      	push	{r3, r4, r5, r6, r7, lr}
   b7dda:	4606      	mov	r6, r0
   b7ddc:	460d      	mov	r5, r1
  size_t n = 0;
   b7dde:	188f      	adds	r7, r1, r2
   b7de0:	2400      	movs	r4, #0
  while (size--) {
   b7de2:	42bd      	cmp	r5, r7
   b7de4:	d00c      	beq.n	b7e00 <_ZN5Print5writeEPKhj+0x28>
     int chunk = write(*buffer++);
   b7de6:	6833      	ldr	r3, [r6, #0]
   b7de8:	f815 1b01 	ldrb.w	r1, [r5], #1
   b7dec:	689b      	ldr	r3, [r3, #8]
   b7dee:	4630      	mov	r0, r6
   b7df0:	4798      	blx	r3
     if (chunk>=0)
   b7df2:	1e03      	subs	r3, r0, #0
   b7df4:	db01      	blt.n	b7dfa <_ZN5Print5writeEPKhj+0x22>
         n += chunk;
   b7df6:	441c      	add	r4, r3
  while (size--) {
   b7df8:	e7f3      	b.n	b7de2 <_ZN5Print5writeEPKhj+0xa>
     int chunk = write(*buffer++);
   b7dfa:	2c00      	cmp	r4, #0
   b7dfc:	bf08      	it	eq
   b7dfe:	461c      	moveq	r4, r3
             n = chunk;
         break;
     }
  }
  return n;
}
   b7e00:	4620      	mov	r0, r4
   b7e02:	bdf8      	pop	{r3, r4, r5, r6, r7, pc}

000b7e04 <_ZN5spark16JSONStreamWriterD1Ev>:
class JSONStreamWriter: public JSONWriter {
   b7e04:	4770      	bx	lr

000b7e06 <_ZN5spark16JSONStreamWriterD0Ev>:
   b7e06:	b510      	push	{r4, lr}
   b7e08:	2110      	movs	r1, #16
   b7e0a:	4604      	mov	r4, r0
   b7e0c:	f7fd f80b 	bl	b4e26 <_ZdlPvj>
   b7e10:	4620      	mov	r0, r4
   b7e12:	bd10      	pop	{r4, pc}

000b7e14 <_ZN5Print5writeEPKc>:

    int getWriteError() const { return write_error; }
    void clearWriteError() { setWriteError(0); }

    virtual size_t write(uint8_t) = 0;
    size_t write(const char *str) {
   b7e14:	b513      	push	{r0, r1, r4, lr}
   b7e16:	4604      	mov	r4, r0
      if (str == NULL) return 0;
      return write((const uint8_t *)str, strlen(str));
    }
   b7e18:	4608      	mov	r0, r1
      if (str == NULL) return 0;
   b7e1a:	b159      	cbz	r1, b7e34 <_ZN5Print5writeEPKc+0x20>
      return write((const uint8_t *)str, strlen(str));
   b7e1c:	9101      	str	r1, [sp, #4]
   b7e1e:	f7fc ffa3 	bl	b4d68 <strlen>
   b7e22:	6823      	ldr	r3, [r4, #0]
   b7e24:	9901      	ldr	r1, [sp, #4]
   b7e26:	68db      	ldr	r3, [r3, #12]
   b7e28:	4602      	mov	r2, r0
   b7e2a:	4620      	mov	r0, r4
    }
   b7e2c:	b002      	add	sp, #8
   b7e2e:	e8bd 4010 	ldmia.w	sp!, {r4, lr}
      return write((const uint8_t *)str, strlen(str));
   b7e32:	4718      	bx	r3
    }
   b7e34:	b002      	add	sp, #8
   b7e36:	bd10      	pop	{r4, pc}

000b7e38 <_ZN5Print5printEc>:
  return write(str);
}

size_t Print::print(char c)
{
  return write(c);
   b7e38:	6803      	ldr	r3, [r0, #0]
   b7e3a:	689b      	ldr	r3, [r3, #8]
   b7e3c:	4718      	bx	r3

000b7e3e <_ZN5Print11printNumberEmh>:
  return println(reinterpret_cast<const char*>(str));
}

// Private Methods /////////////////////////////////////////////////////////////

size_t Print::printNumber(unsigned long n, uint8_t base) {
   b7e3e:	b530      	push	{r4, r5, lr}
   b7e40:	b08b      	sub	sp, #44	; 0x2c
  char buf[8 * sizeof(n) + 1]; // Assumes 8-bit chars plus zero byte.
  char *str = &buf[sizeof(buf) - 1];

  *str = '\0';
   b7e42:	2300      	movs	r3, #0

  // prevent crash if called with base == 1
  if (base < 2) base = 10;
   b7e44:	2a01      	cmp	r2, #1
  *str = '\0';
   b7e46:	f88d 3024 	strb.w	r3, [sp, #36]	; 0x24
  if (base < 2) base = 10;
   b7e4a:	bf98      	it	ls
   b7e4c:	220a      	movls	r2, #10
   b7e4e:	ac09      	add	r4, sp, #36	; 0x24

  do {
   decltype(n) m = n;
   n /= base;
   b7e50:	460d      	mov	r5, r1
   b7e52:	fbb1 f1f2 	udiv	r1, r1, r2
   char c = m - base * n;
   b7e56:	fb01 5312 	mls	r3, r1, r2, r5
   b7e5a:	f003 03ff 	and.w	r3, r3, #255	; 0xff
   *--str = c < 10 ? c + '0' : c + 'A' - 10;
   b7e5e:	2b09      	cmp	r3, #9
   b7e60:	bf94      	ite	ls
   b7e62:	3330      	addls	r3, #48	; 0x30
   b7e64:	3337      	addhi	r3, #55	; 0x37
   b7e66:	b2db      	uxtb	r3, r3
  } while(n);
   b7e68:	42aa      	cmp	r2, r5
   *--str = c < 10 ? c + '0' : c + 'A' - 10;
   b7e6a:	f804 3d01 	strb.w	r3, [r4, #-1]!
  } while(n);
   b7e6e:	d9ef      	bls.n	b7e50 <_ZN5Print11printNumberEmh+0x12>

  return write(str);
   b7e70:	4621      	mov	r1, r4
   b7e72:	f7ff ffcf 	bl	b7e14 <_ZN5Print5writeEPKc>
}
   b7e76:	b00b      	add	sp, #44	; 0x2c
   b7e78:	bd30      	pop	{r4, r5, pc}

000b7e7a <_ZN6Stream9timedReadEv>:
#define PARSE_TIMEOUT 1000  // default number of milli-seconds to wait
#define NO_SKIP_CHAR  1  // a magic char not found in a valid ASCII numeric field

// private method to read stream with timeout
int Stream::timedRead()
{
   b7e7a:	b510      	push	{r4, lr}
   b7e7c:	4604      	mov	r4, r0

#ifdef __cplusplus
extern "C" {
#endif

inline system_tick_t millis(void) { return HAL_Timer_Get_Milli_Seconds(); }
   b7e7e:	f7ff f9c3 	bl	b7208 <HAL_Timer_Get_Milli_Seconds>
  int c;
  _startMillis = millis();
   b7e82:	60e0      	str	r0, [r4, #12]
  do {
    c = read();
   b7e84:	6823      	ldr	r3, [r4, #0]
   b7e86:	4620      	mov	r0, r4
   b7e88:	695b      	ldr	r3, [r3, #20]
   b7e8a:	4798      	blx	r3
    if (c >= 0) return c;
   b7e8c:	2800      	cmp	r0, #0
   b7e8e:	da08      	bge.n	b7ea2 <_ZN6Stream9timedReadEv+0x28>
   b7e90:	f7ff f9ba 	bl	b7208 <HAL_Timer_Get_Milli_Seconds>
  } while(millis() - _startMillis < _timeout);
   b7e94:	68e3      	ldr	r3, [r4, #12]
   b7e96:	1ac0      	subs	r0, r0, r3
   b7e98:	68a3      	ldr	r3, [r4, #8]
   b7e9a:	4298      	cmp	r0, r3
   b7e9c:	d3f2      	bcc.n	b7e84 <_ZN6Stream9timedReadEv+0xa>
  return -1;     // -1 indicates timeout
   b7e9e:	f04f 30ff 	mov.w	r0, #4294967295
}
   b7ea2:	bd10      	pop	{r4, pc}

000b7ea4 <_ZN6Stream9readBytesEPcj>:
// terminates if length characters have been read, or timeout (see setTimeout)
// returns the number of characters placed in the buffer
// the buffer is NOT null terminated.
//
size_t Stream::readBytes(char *buffer, size_t length)
{
   b7ea4:	e92d 41f0 	stmdb	sp!, {r4, r5, r6, r7, r8, lr}
   b7ea8:	4607      	mov	r7, r0
   b7eaa:	460c      	mov	r4, r1
   b7eac:	188e      	adds	r6, r1, r2
   b7eae:	460d      	mov	r5, r1
  size_t count = 0;
  while (count < length) {
   b7eb0:	42b5      	cmp	r5, r6
   b7eb2:	eba5 0804 	sub.w	r8, r5, r4
   b7eb6:	d007      	beq.n	b7ec8 <_ZN6Stream9readBytesEPcj+0x24>
    int c = timedRead();
   b7eb8:	4638      	mov	r0, r7
   b7eba:	f7ff ffde 	bl	b7e7a <_ZN6Stream9timedReadEv>
    if (c < 0) break;
   b7ebe:	1e03      	subs	r3, r0, #0
   b7ec0:	db02      	blt.n	b7ec8 <_ZN6Stream9readBytesEPcj+0x24>
    *buffer++ = (char)c;
   b7ec2:	f805 3b01 	strb.w	r3, [r5], #1
  while (count < length) {
   b7ec6:	e7f3      	b.n	b7eb0 <_ZN6Stream9readBytesEPcj+0xc>
    count++;
  }
  return count;
}
   b7ec8:	4640      	mov	r0, r8
   b7eca:	e8bd 81f0 	ldmia.w	sp!, {r4, r5, r6, r7, r8, pc}

000b7ece <_ZN5spark20JSONStreamLogHandler5writeEPKcj>:
}

// spark::JSONStreamLogHandler
inline void spark::JSONStreamLogHandler::write(const char *data, size_t size) {
    // This handler doesn't support direct logging
}
   b7ece:	4770      	bx	lr

000b7ed0 <_ZN5spark17LogHandlerFactory14destroyHandlerEPNS_10LogHandlerE>:

#if Wiring_LogConfig

// spark::LogHandlerFactory
inline void spark::LogHandlerFactory::destroyHandler(LogHandler *handler) {
    delete handler;
   b7ed0:	4608      	mov	r0, r1
   b7ed2:	b111      	cbz	r1, b7eda <_ZN5spark17LogHandlerFactory14destroyHandlerEPNS_10LogHandlerE+0xa>
   b7ed4:	680b      	ldr	r3, [r1, #0]
   b7ed6:	685b      	ldr	r3, [r3, #4]
   b7ed8:	4718      	bx	r3
}
   b7eda:	4770      	bx	lr

000b7edc <__tcf_0>:
    }
    return nullptr; // Unknown handler type
}

spark::DefaultLogHandlerFactory* spark::DefaultLogHandlerFactory::instance() {
    static DefaultLogHandlerFactory factory;
   b7edc:	4770      	bx	lr

000b7ede <_ZN5spark26DefaultOutputStreamFactoryD1Ev>:
class DefaultOutputStreamFactory: public OutputStreamFactory {
   b7ede:	4770      	bx	lr

000b7ee0 <_ZN5spark24DefaultLogHandlerFactoryD1Ev>:
class DefaultLogHandlerFactory: public LogHandlerFactory {
   b7ee0:	4770      	bx	lr

000b7ee2 <_ZN12_GLOBAL__N_119nextSubcategoryNameERPKcRj>:
const char* nextSubcategoryName(const char* &category, size_t &size) {
   b7ee2:	b538      	push	{r3, r4, r5, lr}
   b7ee4:	4604      	mov	r4, r0
   b7ee6:	460d      	mov	r5, r1
    const char *s = strchrnul(category, '.');
   b7ee8:	6800      	ldr	r0, [r0, #0]
   b7eea:	212e      	movs	r1, #46	; 0x2e
   b7eec:	f002 fc01 	bl	ba6f2 <strchrnul>
    size = s - category;
   b7ef0:	6823      	ldr	r3, [r4, #0]
   b7ef2:	1ac3      	subs	r3, r0, r3
   b7ef4:	602b      	str	r3, [r5, #0]
    if (size) {
   b7ef6:	b123      	cbz	r3, b7f02 <_ZN12_GLOBAL__N_119nextSubcategoryNameERPKcRj+0x20>
        if (*s) {
   b7ef8:	7803      	ldrb	r3, [r0, #0]
   b7efa:	b103      	cbz	r3, b7efe <_ZN12_GLOBAL__N_119nextSubcategoryNameERPKcRj+0x1c>
            ++s;
   b7efc:	3001      	adds	r0, #1
      __a = _GLIBCXX_MOVE(__b);
   b7efe:	6823      	ldr	r3, [r4, #0]
      __b = _GLIBCXX_MOVE(__tmp);
   b7f00:	6020      	str	r0, [r4, #0]
}
   b7f02:	4618      	mov	r0, r3
   b7f04:	bd38      	pop	{r3, r4, r5, pc}

000b7f06 <_ZN5spark24DefaultLogHandlerFactoryD0Ev>:
   b7f06:	b510      	push	{r4, lr}
   b7f08:	2104      	movs	r1, #4
   b7f0a:	4604      	mov	r4, r0
   b7f0c:	f7fc ff8b 	bl	b4e26 <_ZdlPvj>
   b7f10:	4620      	mov	r0, r4
   b7f12:	bd10      	pop	{r4, pc}

000b7f14 <_ZN5spark26DefaultOutputStreamFactoryD0Ev>:
class DefaultOutputStreamFactory: public OutputStreamFactory {
   b7f14:	b510      	push	{r4, lr}
   b7f16:	2104      	movs	r1, #4
   b7f18:	4604      	mov	r4, r0
   b7f1a:	f7fc ff84 	bl	b4e26 <_ZdlPvj>
   b7f1e:	4620      	mov	r0, r4
   b7f20:	bd10      	pop	{r4, pc}

000b7f22 <_ZN14RecursiveMutex4lockEv.isra.0>:
            os_mutex_recursive_destroy(handle_);
            handle_ = nullptr;
        }
    }

    void lock() { os_mutex_recursive_lock(handle_); }
   b7f22:	f7ff ba19 	b.w	b7358 <os_mutex_recursive_lock>

000b7f26 <_ZNK5spark10JSONStringeqEPKc.isra.0>:
inline bool spark::JSONString::operator==(const char *str) const {
   b7f26:	b508      	push	{r3, lr}
    return strcmp(s_, str) == 0;
   b7f28:	f7fc ff14 	bl	b4d54 <strcmp>
}
   b7f2c:	fab0 f080 	clz	r0, r0
   b7f30:	0940      	lsrs	r0, r0, #5
   b7f32:	bd08      	pop	{r3, pc}

000b7f34 <__tcf_1>:
   b7f34:	4770      	bx	lr

000b7f36 <_ZN5spark26DefaultOutputStreamFactory13destroyStreamEP5Print>:
    }
#endif // PLATFORM_ID != PLATFORM_GCC
    return nullptr;
}

void spark::DefaultOutputStreamFactory::destroyStream(Print *stream) {
   b7f36:	b510      	push	{r4, lr}
   b7f38:	460c      	mov	r4, r1
#if PLATFORM_ID != PLATFORM_GCC
    if (stream == &Serial) {
   b7f3a:	f001 fcfd 	bl	b9938 <_Z16_fetch_usbserialv>
   b7f3e:	4284      	cmp	r4, r0
   b7f40:	d010      	beq.n	b7f64 <_ZN5spark26DefaultOutputStreamFactory13destroyStreamEP5Print+0x2e>
    if (stream == &USBSerial1) {
        USBSerial1.end();
        return;
    }
#endif
    if (stream == &Serial1) {
   b7f42:	f002 fa59 	bl	ba3f8 <_Z22__fetch_global_Serial1v>
   b7f46:	4284      	cmp	r4, r0
   b7f48:	d105      	bne.n	b7f56 <_ZN5spark26DefaultOutputStreamFactory13destroyStreamEP5Print+0x20>
        Serial1.end();
   b7f4a:	f002 fa55 	bl	ba3f8 <_Z22__fetch_global_Serial1v>
        return;
    }
#endif // PLATFORM_ID != PLATFORM_GCC
    OutputStreamFactory::destroyStream(stream);
}
   b7f4e:	e8bd 4010 	ldmia.w	sp!, {r4, lr}
        Serial1.end();
   b7f52:	f001 bf48 	b.w	b9de6 <_ZN11USARTSerial3endEv>

// spark::OutputStreamFactory
inline void spark::OutputStreamFactory::destroyStream(Print *stream) {
    delete stream;
   b7f56:	b12c      	cbz	r4, b7f64 <_ZN5spark26DefaultOutputStreamFactory13destroyStreamEP5Print+0x2e>
   b7f58:	6823      	ldr	r3, [r4, #0]
   b7f5a:	4620      	mov	r0, r4
   b7f5c:	685b      	ldr	r3, [r3, #4]
}
   b7f5e:	e8bd 4010 	ldmia.w	sp!, {r4, lr}
   b7f62:	4718      	bx	r3
   b7f64:	bd10      	pop	{r4, pc}

000b7f66 <_ZN5spark10JSONWriter5valueEPKc>:
inline spark::JSONWriter& spark::JSONWriter::value(const char *val) {
   b7f66:	b513      	push	{r0, r1, r4, lr}
   b7f68:	4604      	mov	r4, r0
    return value(val, strlen(val));
   b7f6a:	4608      	mov	r0, r1
   b7f6c:	9101      	str	r1, [sp, #4]
   b7f6e:	f7fc fefb 	bl	b4d68 <strlen>
   b7f72:	9901      	ldr	r1, [sp, #4]
   b7f74:	4602      	mov	r2, r0
   b7f76:	4620      	mov	r0, r4
}
   b7f78:	b002      	add	sp, #8
   b7f7a:	e8bd 4010 	ldmia.w	sp!, {r4, lr}
    return value(val, strlen(val));
   b7f7e:	f001 bec9 	b.w	b9d14 <_ZN5spark10JSONWriter5valueEPKcj>

000b7f82 <_ZN5spark16StreamLogHandler5writeEPKc>:
inline void spark::StreamLogHandler::write(const char *str) {
   b7f82:	b513      	push	{r0, r1, r4, lr}
   b7f84:	4604      	mov	r4, r0
    write(str, strlen(str));
   b7f86:	4608      	mov	r0, r1
   b7f88:	9101      	str	r1, [sp, #4]
   b7f8a:	f7fc feed 	bl	b4d68 <strlen>
   b7f8e:	6823      	ldr	r3, [r4, #0]
   b7f90:	9901      	ldr	r1, [sp, #4]
   b7f92:	68db      	ldr	r3, [r3, #12]
   b7f94:	4602      	mov	r2, r0
   b7f96:	4620      	mov	r0, r4
}
   b7f98:	b002      	add	sp, #8
   b7f9a:	e8bd 4010 	ldmia.w	sp!, {r4, lr}
    write(str, strlen(str));
   b7f9e:	4718      	bx	r3

000b7fa0 <_ZN5spark16StreamLogHandler5writeEc>:
inline void spark::StreamLogHandler::write(char c) {
   b7fa0:	b507      	push	{r0, r1, r2, lr}
    write(&c, 1);
   b7fa2:	6803      	ldr	r3, [r0, #0]
inline void spark::StreamLogHandler::write(char c) {
   b7fa4:	f88d 1007 	strb.w	r1, [sp, #7]
    write(&c, 1);
   b7fa8:	68db      	ldr	r3, [r3, #12]
   b7faa:	2201      	movs	r2, #1
   b7fac:	f10d 0107 	add.w	r1, sp, #7
   b7fb0:	4798      	blx	r3
}
   b7fb2:	b003      	add	sp, #12
   b7fb4:	f85d fb04 	ldr.w	pc, [sp], #4

000b7fb8 <_ZN5spark6detail9LogFilter9nodeIndexERKNS_6VectorINS1_4NodeENS_16DefaultAllocatorEEEPKcjRb>:
int spark::detail::LogFilter::nodeIndex(const Vector<Node> &nodes, const char *name, size_t size, bool &found) {
   b7fb8:	e92d 4ff7 	stmdb	sp!, {r0, r1, r2, r4, r5, r6, r7, r8, r9, sl, fp, lr}
    return data_ + size_;
}

template<typename T, typename AllocatorT>
inline typename spark::Vector<T, AllocatorT>::ConstIterator spark::Vector<T, AllocatorT>::end() const {
    return data_ + size_;
   b7fbc:	e9d0 8400 	ldrd	r8, r4, [r0]
   b7fc0:	f04f 0a14 	mov.w	sl, #20
   b7fc4:	9300      	str	r3, [sp, #0]
   b7fc6:	fb0a f404 	mul.w	r4, sl, r4
               random_access_iterator_tag)
    {
      // concept requirements
      __glibcxx_function_requires(_RandomAccessIteratorConcept<
				  _RandomAccessIterator>)
      return __last - __first;
   b7fca:	4b18      	ldr	r3, [pc, #96]	; (b802c <_ZN5spark6detail9LogFilter9nodeIndexERKNS_6VectorINS1_4NodeENS_16DefaultAllocatorEEEPKcjRb+0x74>)
   b7fcc:	10a4      	asrs	r4, r4, #2
   b7fce:	4617      	mov	r7, r2
   b7fd0:	435c      	muls	r4, r3
   b7fd2:	4645      	mov	r5, r8
      typedef typename iterator_traits<_ForwardIterator>::difference_type
	_DistanceType;

      _DistanceType __len = std::distance(__first, __last);

      while (__len > 0)
   b7fd4:	2c00      	cmp	r4, #0
   b7fd6:	dd21      	ble.n	b801c <_ZN5spark6detail9LogFilter9nodeIndexERKNS_6VectorINS1_4NodeENS_16DefaultAllocatorEEEPKcjRb+0x64>
	{
	  _DistanceType __half = __len >> 1;
   b7fd8:	1066      	asrs	r6, r4, #1
      if (__builtin_constant_p(__n) && __n == 1)
	++__i;
      else if (__builtin_constant_p(__n) && __n == -1)
	--__i;
      else
	__i += __n;
   b7fda:	fb0a f006 	mul.w	r0, sl, r6
   b7fde:	eb05 0900 	add.w	r9, r5, r0
                const int cmp = strncmp(node.name, value.first, std::min<size_t>(node.size, value.second));
   b7fe2:	463a      	mov	r2, r7
   b7fe4:	f8b9 b004 	ldrh.w	fp, [r9, #4]
   b7fe8:	5828      	ldr	r0, [r5, r0]
   b7fea:	9101      	str	r1, [sp, #4]
   b7fec:	455f      	cmp	r7, fp
   b7fee:	bf28      	it	cs
   b7ff0:	465a      	movcs	r2, fp
   b7ff2:	f002 fbae 	bl	ba752 <strncmp>
                if (cmp == 0) {
   b7ff6:	2800      	cmp	r0, #0
   b7ff8:	9901      	ldr	r1, [sp, #4]
   b7ffa:	f04f 0301 	mov.w	r3, #1
   b7ffe:	d10b      	bne.n	b8018 <_ZN5spark6detail9LogFilter9nodeIndexERKNS_6VectorINS1_4NodeENS_16DefaultAllocatorEEEPKcjRb+0x60>
                    if (node.size == value.second) { // Lengths are equal
   b8000:	455f      	cmp	r7, fp
   b8002:	d103      	bne.n	b800c <_ZN5spark6detail9LogFilter9nodeIndexERKNS_6VectorINS1_4NodeENS_16DefaultAllocatorEEEPKcjRb+0x54>
                        found = true; // Allows caller code to avoid extra call to strncmp()
   b8004:	9a00      	ldr	r2, [sp, #0]
   b8006:	7013      	strb	r3, [r2, #0]
int spark::detail::LogFilter::nodeIndex(const Vector<Node> &nodes, const char *name, size_t size, bool &found) {
   b8008:	4634      	mov	r4, r6
   b800a:	e7e3      	b.n	b7fd4 <_ZN5spark6detail9LogFilter9nodeIndexERKNS_6VectorINS1_4NodeENS_16DefaultAllocatorEEEPKcjRb+0x1c>
	  _ForwardIterator __middle = __first;
	  std::advance(__middle, __half);
	  if (__comp(__middle, __val))
   b800c:	d9fc      	bls.n	b8008 <_ZN5spark6detail9LogFilter9nodeIndexERKNS_6VectorINS1_4NodeENS_16DefaultAllocatorEEEPKcjRb+0x50>
	    {
	      __first = __middle;
	      ++__first;
	      __len = __len - __half - 1;
   b800e:	1ba6      	subs	r6, r4, r6
	      ++__first;
   b8010:	f109 0514 	add.w	r5, r9, #20
	      __len = __len - __half - 1;
   b8014:	3e01      	subs	r6, #1
   b8016:	e7f7      	b.n	b8008 <_ZN5spark6detail9LogFilter9nodeIndexERKNS_6VectorINS1_4NodeENS_16DefaultAllocatorEEEPKcjRb+0x50>
	  if (__comp(__middle, __val))
   b8018:	dbf9      	blt.n	b800e <_ZN5spark6detail9LogFilter9nodeIndexERKNS_6VectorINS1_4NodeENS_16DefaultAllocatorEEEPKcjRb+0x56>
   b801a:	e7f5      	b.n	b8008 <_ZN5spark6detail9LogFilter9nodeIndexERKNS_6VectorINS1_4NodeENS_16DefaultAllocatorEEEPKcjRb+0x50>
      return __last - __first;
   b801c:	eba5 0508 	sub.w	r5, r5, r8
}
   b8020:	4802      	ldr	r0, [pc, #8]	; (b802c <_ZN5spark6detail9LogFilter9nodeIndexERKNS_6VectorINS1_4NodeENS_16DefaultAllocatorEEEPKcjRb+0x74>)
   b8022:	10ad      	asrs	r5, r5, #2
   b8024:	4368      	muls	r0, r5
   b8026:	b003      	add	sp, #12
   b8028:	e8bd 8ff0 	ldmia.w	sp!, {r4, r5, r6, r7, r8, r9, sl, fp, pc}
   b802c:	cccccccd 	.word	0xcccccccd

000b8030 <_ZNK5spark6detail9LogFilter5levelEPKc>:
LogLevel spark::detail::LogFilter::level(const char *category) const {
   b8030:	b57f      	push	{r0, r1, r2, r3, r4, r5, r6, lr}
    if (!nodes_.isEmpty() && category) {
   b8032:	6903      	ldr	r3, [r0, #16]
    LogLevel level = level_; // Default level
   b8034:	7e05      	ldrb	r5, [r0, #24]
LogLevel spark::detail::LogFilter::level(const char *category) const {
   b8036:	9101      	str	r1, [sp, #4]
    if (!nodes_.isEmpty() && category) {
   b8038:	b303      	cbz	r3, b807c <_ZNK5spark6detail9LogFilter5levelEPKc+0x4c>
   b803a:	b1f9      	cbz	r1, b807c <_ZNK5spark6detail9LogFilter5levelEPKc+0x4c>
        size_t size = 0; // Name length
   b803c:	2600      	movs	r6, #0
        const Vector<Node> *pNodes = &nodes_; // Root nodes
   b803e:	f100 040c 	add.w	r4, r0, #12
        size_t size = 0; // Name length
   b8042:	9603      	str	r6, [sp, #12]
        while ((name = nextSubcategoryName(category, size))) {
   b8044:	a903      	add	r1, sp, #12
   b8046:	a801      	add	r0, sp, #4
   b8048:	f7ff ff4b 	bl	b7ee2 <_ZN12_GLOBAL__N_119nextSubcategoryNameERPKcRj>
   b804c:	4601      	mov	r1, r0
   b804e:	b1a8      	cbz	r0, b807c <_ZNK5spark6detail9LogFilter5levelEPKc+0x4c>
            const int index = nodeIndex(*pNodes, name, size, found);
   b8050:	f10d 030b 	add.w	r3, sp, #11
   b8054:	9a03      	ldr	r2, [sp, #12]
            bool found = false;
   b8056:	f88d 600b 	strb.w	r6, [sp, #11]
            const int index = nodeIndex(*pNodes, name, size, found);
   b805a:	4620      	mov	r0, r4
   b805c:	f7ff ffac 	bl	b7fb8 <_ZN5spark6detail9LogFilter9nodeIndexERKNS_6VectorINS1_4NodeENS_16DefaultAllocatorEEEPKcjRb>
            if (!found) {
   b8060:	f89d 300b 	ldrb.w	r3, [sp, #11]
   b8064:	b153      	cbz	r3, b807c <_ZNK5spark6detail9LogFilter5levelEPKc+0x4c>
    return data_[i];
   b8066:	6823      	ldr	r3, [r4, #0]
   b8068:	2414      	movs	r4, #20
   b806a:	fb04 3400 	mla	r4, r4, r0, r3
            pNodes = &node.nodes;
   b806e:	3408      	adds	r4, #8
            if (node.level >= 0) {
   b8070:	f934 3c02 	ldrsh.w	r3, [r4, #-2]
   b8074:	2b00      	cmp	r3, #0
                level = (LogLevel)node.level;
   b8076:	bfa8      	it	ge
   b8078:	b2dd      	uxtbge	r5, r3
        while ((name = nextSubcategoryName(category, size))) {
   b807a:	e7e3      	b.n	b8044 <_ZNK5spark6detail9LogFilter5levelEPKc+0x14>
}
   b807c:	4628      	mov	r0, r5
   b807e:	b004      	add	sp, #16
   b8080:	bd70      	pop	{r4, r5, r6, pc}

000b8082 <_ZN5spark16StreamLogHandler6printfEPKcz>:
void spark::StreamLogHandler::printf(const char *fmt, ...) {
   b8082:	b40e      	push	{r1, r2, r3}
   b8084:	b5f0      	push	{r4, r5, r6, r7, lr}
   b8086:	b08c      	sub	sp, #48	; 0x30
   b8088:	af00      	add	r7, sp, #0
   b808a:	f107 0544 	add.w	r5, r7, #68	; 0x44
   b808e:	4604      	mov	r4, r0
   b8090:	f855 2b04 	ldr.w	r2, [r5], #4
    int n = vsnprintf(buf, sizeof(buf), fmt, args);
   b8094:	607a      	str	r2, [r7, #4]
   b8096:	462b      	mov	r3, r5
   b8098:	2120      	movs	r1, #32
   b809a:	f107 0010 	add.w	r0, r7, #16
    va_start(args, fmt);
   b809e:	60fd      	str	r5, [r7, #12]
    int n = vsnprintf(buf, sizeof(buf), fmt, args);
   b80a0:	f7ff fbf0 	bl	b7884 <vsnprintf>
    if ((size_t)n >= sizeof(buf)) {
   b80a4:	281f      	cmp	r0, #31
   b80a6:	687a      	ldr	r2, [r7, #4]
   b80a8:	d91a      	bls.n	b80e0 <_ZN5spark16StreamLogHandler6printfEPKcz+0x5e>
        char buf[n + 1]; // Use a larger buffer
   b80aa:	f100 0308 	add.w	r3, r0, #8
   b80ae:	f023 0307 	bic.w	r3, r3, #7
        }
   b80b2:	466e      	mov	r6, sp
        char buf[n + 1]; // Use a larger buffer
   b80b4:	ebad 0d03 	sub.w	sp, sp, r3
        n = vsnprintf(buf, sizeof(buf), fmt, args);
   b80b8:	1c41      	adds	r1, r0, #1
   b80ba:	462b      	mov	r3, r5
   b80bc:	4668      	mov	r0, sp
        va_start(args, fmt);
   b80be:	60fd      	str	r5, [r7, #12]
        n = vsnprintf(buf, sizeof(buf), fmt, args);
   b80c0:	f7ff fbe0 	bl	b7884 <vsnprintf>
        if (n > 0) {
   b80c4:	1e02      	subs	r2, r0, #0
   b80c6:	dd04      	ble.n	b80d2 <_ZN5spark16StreamLogHandler6printfEPKcz+0x50>
            write(buf, n);
   b80c8:	6823      	ldr	r3, [r4, #0]
   b80ca:	4669      	mov	r1, sp
   b80cc:	68db      	ldr	r3, [r3, #12]
   b80ce:	4620      	mov	r0, r4
   b80d0:	4798      	blx	r3
   b80d2:	46b5      	mov	sp, r6
}
   b80d4:	3730      	adds	r7, #48	; 0x30
   b80d6:	46bd      	mov	sp, r7
   b80d8:	e8bd 40f0 	ldmia.w	sp!, {r4, r5, r6, r7, lr}
   b80dc:	b003      	add	sp, #12
   b80de:	4770      	bx	lr
    } else if (n > 0) {
   b80e0:	2800      	cmp	r0, #0
   b80e2:	d0f7      	beq.n	b80d4 <_ZN5spark16StreamLogHandler6printfEPKcz+0x52>
        write(buf, n);
   b80e4:	6823      	ldr	r3, [r4, #0]
   b80e6:	4602      	mov	r2, r0
   b80e8:	68db      	ldr	r3, [r3, #12]
   b80ea:	f107 0110 	add.w	r1, r7, #16
   b80ee:	4620      	mov	r0, r4
   b80f0:	4798      	blx	r3
}
   b80f2:	e7ef      	b.n	b80d4 <_ZN5spark16StreamLogHandler6printfEPKcz+0x52>

000b80f4 <_ZN5spark24DefaultLogHandlerFactory8instanceEv>:
spark::DefaultLogHandlerFactory* spark::DefaultLogHandlerFactory::instance() {
   b80f4:	b510      	push	{r4, lr}
    static DefaultLogHandlerFactory factory;
   b80f6:	4c09      	ldr	r4, [pc, #36]	; (b811c <_ZN5spark24DefaultLogHandlerFactory8instanceEv+0x28>)
   b80f8:	7823      	ldrb	r3, [r4, #0]
   b80fa:	f3bf 8f5b 	dmb	ish
   b80fe:	07db      	lsls	r3, r3, #31
   b8100:	d409      	bmi.n	b8116 <_ZN5spark24DefaultLogHandlerFactory8instanceEv+0x22>
   b8102:	4620      	mov	r0, r4
   b8104:	f7fc fe9e 	bl	b4e44 <__cxa_guard_acquire>
   b8108:	b128      	cbz	r0, b8116 <_ZN5spark24DefaultLogHandlerFactory8instanceEv+0x22>
   b810a:	4620      	mov	r0, r4
   b810c:	f7fc fe9f 	bl	b4e4e <__cxa_guard_release>
   b8110:	4803      	ldr	r0, [pc, #12]	; (b8120 <_ZN5spark24DefaultLogHandlerFactory8instanceEv+0x2c>)
   b8112:	f002 fa65 	bl	ba5e0 <atexit>
}
   b8116:	4803      	ldr	r0, [pc, #12]	; (b8124 <_ZN5spark24DefaultLogHandlerFactory8instanceEv+0x30>)
   b8118:	bd10      	pop	{r4, pc}
   b811a:	bf00      	nop
   b811c:	2003e650 	.word	0x2003e650
   b8120:	000b7edd 	.word	0x000b7edd
   b8124:	2003705c 	.word	0x2003705c

000b8128 <_ZN5spark26DefaultOutputStreamFactory8instanceEv>:

spark::DefaultOutputStreamFactory* spark::DefaultOutputStreamFactory::instance() {
   b8128:	b510      	push	{r4, lr}
    static DefaultOutputStreamFactory factory;
   b812a:	4c09      	ldr	r4, [pc, #36]	; (b8150 <_ZN5spark26DefaultOutputStreamFactory8instanceEv+0x28>)
   b812c:	7823      	ldrb	r3, [r4, #0]
   b812e:	f3bf 8f5b 	dmb	ish
   b8132:	07db      	lsls	r3, r3, #31
   b8134:	d409      	bmi.n	b814a <_ZN5spark26DefaultOutputStreamFactory8instanceEv+0x22>
   b8136:	4620      	mov	r0, r4
   b8138:	f7fc fe84 	bl	b4e44 <__cxa_guard_acquire>
   b813c:	b128      	cbz	r0, b814a <_ZN5spark26DefaultOutputStreamFactory8instanceEv+0x22>
   b813e:	4620      	mov	r0, r4
   b8140:	f7fc fe85 	bl	b4e4e <__cxa_guard_release>
   b8144:	4803      	ldr	r0, [pc, #12]	; (b8154 <_ZN5spark26DefaultOutputStreamFactory8instanceEv+0x2c>)
   b8146:	f002 fa4b 	bl	ba5e0 <atexit>
    return &factory;
}
   b814a:	4803      	ldr	r0, [pc, #12]	; (b8158 <_ZN5spark26DefaultOutputStreamFactory8instanceEv+0x30>)
   b814c:	bd10      	pop	{r4, pc}
   b814e:	bf00      	nop
   b8150:	2003e654 	.word	0x2003e654
   b8154:	000b7f35 	.word	0x000b7f35
   b8158:	20037060 	.word	0x20037060

000b815c <_ZN5spark10LogManagerC1Ev>:
    Print *stream;
};

#endif // Wiring_LogConfig

spark::LogManager::LogManager() {
   b815c:	b538      	push	{r3, r4, r5, lr}
        capacity_(0) {
   b815e:	2500      	movs	r5, #0
   b8160:	4604      	mov	r4, r0
   b8162:	e9c0 5500 	strd	r5, r5, [r0]
   b8166:	e9c0 5504 	strd	r5, r5, [r0, #16]
   b816a:	6085      	str	r5, [r0, #8]
   b816c:	6185      	str	r5, [r0, #24]
    RecursiveMutex() : handle_(nullptr)
   b816e:	f840 5f24 	str.w	r5, [r0, #36]!
        os_mutex_recursive_create(&handle_);
   b8172:	f7ff f8e1 	bl	b7338 <os_mutex_recursive_create>
#if Wiring_LogConfig
    handlerFactory_ = DefaultLogHandlerFactory::instance();
   b8176:	f7ff ffbd 	bl	b80f4 <_ZN5spark24DefaultLogHandlerFactory8instanceEv>
   b817a:	61e0      	str	r0, [r4, #28]
    streamFactory_ = DefaultOutputStreamFactory::instance();
   b817c:	f7ff ffd4 	bl	b8128 <_ZN5spark26DefaultOutputStreamFactory8instanceEv>
#endif
    outputActive_ = false;
   b8180:	7325      	strb	r5, [r4, #12]
    streamFactory_ = DefaultOutputStreamFactory::instance();
   b8182:	6220      	str	r0, [r4, #32]
}
   b8184:	4620      	mov	r0, r4
   b8186:	bd38      	pop	{r3, r4, r5, pc}

000b8188 <_ZN5spark10LogManager8instanceEv>:
            resetSystemCallbacks();
        }
    }
}

spark::LogManager* spark::LogManager::instance() {
   b8188:	b510      	push	{r4, lr}
    static LogManager mgr;
   b818a:	4c0a      	ldr	r4, [pc, #40]	; (b81b4 <_ZN5spark10LogManager8instanceEv+0x2c>)
   b818c:	7823      	ldrb	r3, [r4, #0]
   b818e:	f3bf 8f5b 	dmb	ish
   b8192:	07db      	lsls	r3, r3, #31
   b8194:	d40c      	bmi.n	b81b0 <_ZN5spark10LogManager8instanceEv+0x28>
   b8196:	4620      	mov	r0, r4
   b8198:	f7fc fe54 	bl	b4e44 <__cxa_guard_acquire>
   b819c:	b140      	cbz	r0, b81b0 <_ZN5spark10LogManager8instanceEv+0x28>
   b819e:	4806      	ldr	r0, [pc, #24]	; (b81b8 <_ZN5spark10LogManager8instanceEv+0x30>)
   b81a0:	f7ff ffdc 	bl	b815c <_ZN5spark10LogManagerC1Ev>
   b81a4:	4620      	mov	r0, r4
   b81a6:	f7fc fe52 	bl	b4e4e <__cxa_guard_release>
   b81aa:	4804      	ldr	r0, [pc, #16]	; (b81bc <_ZN5spark10LogManager8instanceEv+0x34>)
   b81ac:	f002 fa18 	bl	ba5e0 <atexit>
    return &mgr;
}
   b81b0:	4801      	ldr	r0, [pc, #4]	; (b81b8 <_ZN5spark10LogManager8instanceEv+0x30>)
   b81b2:	bd10      	pop	{r4, pc}
   b81b4:	2003e64c 	.word	0x2003e64c
   b81b8:	2003e65c 	.word	0x2003e65c
   b81bc:	000b8701 	.word	0x000b8701

000b81c0 <_ZN5spark10LogManager18setSystemCallbacksEv>:
}

#endif // Wiring_LogConfig

void spark::LogManager::setSystemCallbacks() {
    log_set_callbacks(logMessage, logWrite, logEnabled, nullptr);
   b81c0:	4a02      	ldr	r2, [pc, #8]	; (b81cc <_ZN5spark10LogManager18setSystemCallbacksEv+0xc>)
   b81c2:	4903      	ldr	r1, [pc, #12]	; (b81d0 <_ZN5spark10LogManager18setSystemCallbacksEv+0x10>)
   b81c4:	4803      	ldr	r0, [pc, #12]	; (b81d4 <_ZN5spark10LogManager18setSystemCallbacksEv+0x14>)
   b81c6:	2300      	movs	r3, #0
   b81c8:	f7ff ba1e 	b.w	b7608 <log_set_callbacks>
   b81cc:	000b84e5 	.word	0x000b84e5
   b81d0:	000b8471 	.word	0x000b8471
   b81d4:	000b83f1 	.word	0x000b83f1

000b81d8 <_ZN5spark10LogManager20resetSystemCallbacksEv>:
}

void spark::LogManager::resetSystemCallbacks() {
    log_set_callbacks(nullptr, nullptr, nullptr, nullptr);
   b81d8:	2300      	movs	r3, #0
   b81da:	461a      	mov	r2, r3
   b81dc:	4619      	mov	r1, r3
   b81de:	4618      	mov	r0, r3
   b81e0:	f7ff ba12 	b.w	b7608 <log_set_callbacks>

000b81e4 <_ZN5spark18JSONObjectIteratorC1ERKNS_9JSONValueE>:
inline spark::JSONObjectIterator::JSONObjectIterator(const JSONValue &value) :
   b81e4:	b537      	push	{r0, r1, r2, r4, r5, lr}
        JSONObjectIterator(value.t_, value.d_) {
   b81e6:	688d      	ldr	r5, [r1, #8]
inline spark::JSONObjectIterator::JSONObjectIterator(const JSONValue &value) :
   b81e8:	4604      	mov	r4, r0
       *  @brief  Construct an empty %shared_ptr.
       *  @post   use_count()==0 && get()==0
       */
      constexpr shared_ptr() noexcept : __shared_ptr<_Tp>() { }

      shared_ptr(const shared_ptr&) noexcept = default; ///< Copy constructor
   b81ea:	4668      	mov	r0, sp
   b81ec:	f7ff fbc0 	bl	b7970 <_ZNSt12__shared_ptrIN5spark6detail8JSONDataELN9__gnu_cxx12_Lock_policyE0EEC1ERKS5_>
        JSONObjectIterator(value.t_, value.d_) {
   b81f0:	466a      	mov	r2, sp
   b81f2:	4629      	mov	r1, r5
   b81f4:	4620      	mov	r0, r4
   b81f6:	f001 fcad 	bl	b9b54 <_ZN5spark18JSONObjectIteratorC1EPK9jsmntok_tSt10shared_ptrINS_6detail8JSONDataEE>
      ~__shared_ptr() = default;
   b81fa:	a801      	add	r0, sp, #4
   b81fc:	f7fe f866 	bl	b62cc <_ZNSt14__shared_countILN9__gnu_cxx12_Lock_policyE0EED1Ev>
}
   b8200:	4620      	mov	r0, r4
   b8202:	b003      	add	sp, #12
   b8204:	bd30      	pop	{r4, r5, pc}

000b8206 <_ZNK5spark18JSONObjectIterator4nameEv>:
inline spark::JSONString spark::JSONObjectIterator::name() const {
   b8206:	b537      	push	{r0, r1, r2, r4, r5, lr}
    return JSONString(k_, d_);
   b8208:	68cd      	ldr	r5, [r1, #12]
inline spark::JSONString spark::JSONObjectIterator::name() const {
   b820a:	4604      	mov	r4, r0
   b820c:	4668      	mov	r0, sp
   b820e:	f7ff fbaf 	bl	b7970 <_ZNSt12__shared_ptrIN5spark6detail8JSONDataELN9__gnu_cxx12_Lock_policyE0EEC1ERKS5_>
    return JSONString(k_, d_);
   b8212:	466a      	mov	r2, sp
   b8214:	4629      	mov	r1, r5
   b8216:	4620      	mov	r0, r4
   b8218:	f001 fc78 	bl	b9b0c <_ZN5spark10JSONStringC1EPK9jsmntok_tSt10shared_ptrINS_6detail8JSONDataEE>
   b821c:	a801      	add	r0, sp, #4
   b821e:	f7fe f855 	bl	b62cc <_ZNSt14__shared_countILN9__gnu_cxx12_Lock_policyE0EED1Ev>
}
   b8222:	4620      	mov	r0, r4
   b8224:	b003      	add	sp, #12
   b8226:	bd30      	pop	{r4, r5, pc}

000b8228 <_ZNK5spark18JSONObjectIterator5valueEv>:
inline spark::JSONValue spark::JSONObjectIterator::value() const {
   b8228:	b537      	push	{r0, r1, r2, r4, r5, lr}
    return JSONValue(v_, d_);
   b822a:	690d      	ldr	r5, [r1, #16]
inline spark::JSONValue spark::JSONObjectIterator::value() const {
   b822c:	4604      	mov	r4, r0
   b822e:	4668      	mov	r0, sp
   b8230:	f7ff fb9e 	bl	b7970 <_ZNSt12__shared_ptrIN5spark6detail8JSONDataELN9__gnu_cxx12_Lock_policyE0EEC1ERKS5_>
    return JSONValue(v_, d_);
   b8234:	466a      	mov	r2, sp
   b8236:	4629      	mov	r1, r5
   b8238:	4620      	mov	r0, r4
   b823a:	f001 fc10 	bl	b9a5e <_ZN5spark9JSONValueC1EPK9jsmntok_tSt10shared_ptrINS_6detail8JSONDataEE>
   b823e:	a801      	add	r0, sp, #4
   b8240:	f7fe f844 	bl	b62cc <_ZNSt14__shared_countILN9__gnu_cxx12_Lock_policyE0EED1Ev>
}
   b8244:	4620      	mov	r0, r4
   b8246:	b003      	add	sp, #12
   b8248:	bd30      	pop	{r4, r5, pc}
	...

000b824c <_ZN5spark26DefaultOutputStreamFactory9getParamsERKNS_9JSONValueEPi>:
void spark::DefaultOutputStreamFactory::getParams(const JSONValue &params, int *baudRate) {
   b824c:	b570      	push	{r4, r5, r6, lr}
   b824e:	b08a      	sub	sp, #40	; 0x28
   b8250:	460d      	mov	r5, r1
    JSONObjectIterator it(params);
   b8252:	4601      	mov	r1, r0
   b8254:	a804      	add	r0, sp, #16
   b8256:	f7ff ffc5 	bl	b81e4 <_ZN5spark18JSONObjectIteratorC1ERKNS_9JSONValueE>
        if (it.name() == "baud" && baudRate) {
   b825a:	4e14      	ldr	r6, [pc, #80]	; (b82ac <_ZN5spark26DefaultOutputStreamFactory9getParamsERKNS_9JSONValueEPi+0x60>)
    while (it.next()) {
   b825c:	a804      	add	r0, sp, #16
   b825e:	f001 fc91 	bl	b9b84 <_ZN5spark18JSONObjectIterator4nextEv>
   b8262:	b1e8      	cbz	r0, b82a0 <_ZN5spark26DefaultOutputStreamFactory9getParamsERKNS_9JSONValueEPi+0x54>
        if (it.name() == "baud" && baudRate) {
   b8264:	a904      	add	r1, sp, #16
   b8266:	4668      	mov	r0, sp
   b8268:	f7ff ffcd 	bl	b8206 <_ZNK5spark18JSONObjectIterator4nameEv>
   b826c:	9802      	ldr	r0, [sp, #8]
   b826e:	4631      	mov	r1, r6
   b8270:	f7ff fe59 	bl	b7f26 <_ZNK5spark10JSONStringeqEPKc.isra.0>
   b8274:	4604      	mov	r4, r0
   b8276:	b110      	cbz	r0, b827e <_ZN5spark26DefaultOutputStreamFactory9getParamsERKNS_9JSONValueEPi+0x32>
   b8278:	1e2c      	subs	r4, r5, #0
   b827a:	bf18      	it	ne
   b827c:	2401      	movne	r4, #1
   b827e:	a801      	add	r0, sp, #4
   b8280:	f7fe f824 	bl	b62cc <_ZNSt14__shared_countILN9__gnu_cxx12_Lock_policyE0EED1Ev>
   b8284:	2c00      	cmp	r4, #0
   b8286:	d0e9      	beq.n	b825c <_ZN5spark26DefaultOutputStreamFactory9getParamsERKNS_9JSONValueEPi+0x10>
            *baudRate = it.value().toInt();
   b8288:	a904      	add	r1, sp, #16
   b828a:	4668      	mov	r0, sp
   b828c:	f7ff ffcc 	bl	b8228 <_ZNK5spark18JSONObjectIterator5valueEv>
   b8290:	4668      	mov	r0, sp
   b8292:	f001 fc1a 	bl	b9aca <_ZNK5spark9JSONValue5toIntEv>
   b8296:	6028      	str	r0, [r5, #0]
   b8298:	a801      	add	r0, sp, #4
   b829a:	f7fe f817 	bl	b62cc <_ZNSt14__shared_countILN9__gnu_cxx12_Lock_policyE0EED1Ev>
   b829e:	e7dd      	b.n	b825c <_ZN5spark26DefaultOutputStreamFactory9getParamsERKNS_9JSONValueEPi+0x10>
   b82a0:	a805      	add	r0, sp, #20
   b82a2:	f7fe f813 	bl	b62cc <_ZNSt14__shared_countILN9__gnu_cxx12_Lock_policyE0EED1Ev>
}
   b82a6:	b00a      	add	sp, #40	; 0x28
   b82a8:	bd70      	pop	{r4, r5, r6, pc}
   b82aa:	bf00      	nop
   b82ac:	000bcdf0 	.word	0x000bcdf0

000b82b0 <_ZN5spark26DefaultOutputStreamFactory12createStreamEPKcRKNS_9JSONValueE>:
Print* spark::DefaultOutputStreamFactory::createStream(const char *type, const JSONValue &params) {
   b82b0:	b537      	push	{r0, r1, r2, r4, r5, lr}
   b82b2:	460c      	mov	r4, r1
    if (strcmp(type, "Serial") == 0) {
   b82b4:	4620      	mov	r0, r4
   b82b6:	4913      	ldr	r1, [pc, #76]	; (b8304 <_ZN5spark26DefaultOutputStreamFactory12createStreamEPKcRKNS_9JSONValueE+0x54>)
Print* spark::DefaultOutputStreamFactory::createStream(const char *type, const JSONValue &params) {
   b82b8:	4615      	mov	r5, r2
    if (strcmp(type, "Serial") == 0) {
   b82ba:	f7fc fd4b 	bl	b4d54 <strcmp>
   b82be:	b950      	cbnz	r0, b82d6 <_ZN5spark26DefaultOutputStreamFactory12createStreamEPKcRKNS_9JSONValueE+0x26>
        Serial.begin();
   b82c0:	f001 fb3a 	bl	b9938 <_Z16_fetch_usbserialv>
   b82c4:	f44f 5116 	mov.w	r1, #9600	; 0x2580
   b82c8:	f001 fb24 	bl	b9914 <_ZN9USBSerial5beginEl>
}
   b82cc:	b003      	add	sp, #12
   b82ce:	e8bd 4030 	ldmia.w	sp!, {r4, r5, lr}
        return &Serial;
   b82d2:	f001 bb31 	b.w	b9938 <_Z16_fetch_usbserialv>
    if (strcmp(type, "Serial1") == 0) {
   b82d6:	490c      	ldr	r1, [pc, #48]	; (b8308 <_ZN5spark26DefaultOutputStreamFactory12createStreamEPKcRKNS_9JSONValueE+0x58>)
   b82d8:	4620      	mov	r0, r4
   b82da:	f7fc fd3b 	bl	b4d54 <strcmp>
   b82de:	b978      	cbnz	r0, b8300 <_ZN5spark26DefaultOutputStreamFactory12createStreamEPKcRKNS_9JSONValueE+0x50>
        int baud = 9600;
   b82e0:	f44f 5316 	mov.w	r3, #9600	; 0x2580
        getParams(params, &baud);
   b82e4:	a901      	add	r1, sp, #4
   b82e6:	4628      	mov	r0, r5
        int baud = 9600;
   b82e8:	9301      	str	r3, [sp, #4]
        getParams(params, &baud);
   b82ea:	f7ff ffaf 	bl	b824c <_ZN5spark26DefaultOutputStreamFactory9getParamsERKNS_9JSONValueEPi>
        Serial1.begin(baud);
   b82ee:	f002 f883 	bl	ba3f8 <_Z22__fetch_global_Serial1v>
   b82f2:	9901      	ldr	r1, [sp, #4]
   b82f4:	f001 fd74 	bl	b9de0 <_ZN11USARTSerial5beginEm>
        return &Serial1;
   b82f8:	f002 f87e 	bl	ba3f8 <_Z22__fetch_global_Serial1v>
}
   b82fc:	b003      	add	sp, #12
   b82fe:	bd30      	pop	{r4, r5, pc}
    return nullptr;
   b8300:	2000      	movs	r0, #0
   b8302:	e7fb      	b.n	b82fc <_ZN5spark26DefaultOutputStreamFactory12createStreamEPKcRKNS_9JSONValueE+0x4c>
   b8304:	000bcdf5 	.word	0x000bcdf5
   b8308:	000bcdfc 	.word	0x000bcdfc

000b830c <_ZN5spark6VectorINS_6detail9LogFilter4NodeENS_16DefaultAllocatorEED1Ev>:
inline spark::Vector<T, AllocatorT>::~Vector() {
   b830c:	b570      	push	{r4, r5, r6, lr}
    destruct(data_, data_ + size_);
   b830e:	e9d0 5300 	ldrd	r5, r3, [r0]
   b8312:	2614      	movs	r6, #20
inline spark::Vector<T, AllocatorT>::~Vector() {
   b8314:	4604      	mov	r4, r0
    destruct(data_, data_ + size_);
   b8316:	fb06 5603 	mla	r6, r6, r3, r5
        for (; p != end; ++p) {
   b831a:	42ae      	cmp	r6, r5
   b831c:	d005      	beq.n	b832a <_ZN5spark6VectorINS_6detail9LogFilter4NodeENS_16DefaultAllocatorEED1Ev+0x1e>
struct spark::detail::LogFilter::Node {
   b831e:	f105 0008 	add.w	r0, r5, #8
   b8322:	f7ff fff3 	bl	b830c <_ZN5spark6VectorINS_6detail9LogFilter4NodeENS_16DefaultAllocatorEED1Ev>
   b8326:	3514      	adds	r5, #20
   b8328:	e7f7      	b.n	b831a <_ZN5spark6VectorINS_6detail9LogFilter4NodeENS_16DefaultAllocatorEED1Ev+0xe>
    ::free(ptr);
   b832a:	6820      	ldr	r0, [r4, #0]
   b832c:	f7ff fa92 	bl	b7854 <free>
}
   b8330:	4620      	mov	r0, r4
   b8332:	bd70      	pop	{r4, r5, r6, pc}

000b8334 <_ZN5spark6detail9LogFilterD1Ev>:
spark::detail::LogFilter::~LogFilter() {
   b8334:	b510      	push	{r4, lr}
   b8336:	4604      	mov	r4, r0
   b8338:	300c      	adds	r0, #12
   b833a:	f7ff ffe7 	bl	b830c <_ZN5spark6VectorINS_6detail9LogFilter4NodeENS_16DefaultAllocatorEED1Ev>
   b833e:	4620      	mov	r0, r4
   b8340:	f7ff fd14 	bl	b7d6c <_ZN5spark6VectorI6StringNS_16DefaultAllocatorEED1Ev>
}
   b8344:	4620      	mov	r0, r4
   b8346:	bd10      	pop	{r4, pc}

000b8348 <_ZN5spark16StreamLogHandlerD1Ev>:
class StreamLogHandler: public LogHandler {
   b8348:	b510      	push	{r4, lr}
    virtual ~LogHandler() = default;
   b834a:	4b04      	ldr	r3, [pc, #16]	; (b835c <_ZN5spark16StreamLogHandlerD1Ev+0x14>)
class StreamLogHandler: public LogHandler {
   b834c:	4604      	mov	r4, r0
    virtual ~LogHandler() = default;
   b834e:	f840 3b04 	str.w	r3, [r0], #4
   b8352:	f7ff ffef 	bl	b8334 <_ZN5spark6detail9LogFilterD1Ev>
class StreamLogHandler: public LogHandler {
   b8356:	4620      	mov	r0, r4
   b8358:	bd10      	pop	{r4, pc}
   b835a:	bf00      	nop
   b835c:	000bccb4 	.word	0x000bccb4

000b8360 <_ZN5spark16StreamLogHandlerD0Ev>:
   b8360:	b510      	push	{r4, lr}
   b8362:	4604      	mov	r4, r0
   b8364:	f7ff fff0 	bl	b8348 <_ZN5spark16StreamLogHandlerD1Ev>
   b8368:	4620      	mov	r0, r4
   b836a:	2124      	movs	r1, #36	; 0x24
   b836c:	f7fc fd5b 	bl	b4e26 <_ZdlPvj>
   b8370:	4620      	mov	r0, r4
   b8372:	bd10      	pop	{r4, pc}

000b8374 <_ZN5spark20JSONStreamLogHandlerD1Ev>:
class JSONStreamLogHandler: public StreamLogHandler {
   b8374:	b510      	push	{r4, lr}
   b8376:	4b03      	ldr	r3, [pc, #12]	; (b8384 <_ZN5spark20JSONStreamLogHandlerD1Ev+0x10>)
   b8378:	6003      	str	r3, [r0, #0]
   b837a:	4604      	mov	r4, r0
   b837c:	f7ff ffe4 	bl	b8348 <_ZN5spark16StreamLogHandlerD1Ev>
   b8380:	4620      	mov	r0, r4
   b8382:	bd10      	pop	{r4, pc}
   b8384:	000bce80 	.word	0x000bce80

000b8388 <_ZN5spark20JSONStreamLogHandlerD0Ev>:
   b8388:	b510      	push	{r4, lr}
   b838a:	4604      	mov	r4, r0
   b838c:	f7ff fff2 	bl	b8374 <_ZN5spark20JSONStreamLogHandlerD1Ev>
   b8390:	4620      	mov	r0, r4
   b8392:	2124      	movs	r1, #36	; 0x24
   b8394:	f7fc fd47 	bl	b4e26 <_ZdlPvj>
   b8398:	4620      	mov	r0, r4
   b839a:	bd10      	pop	{r4, pc}

000b839c <_ZN5spark6detail9LogFilter4NodeC1EOS2_>:
struct spark::detail::LogFilter::Node {
   b839c:	680a      	ldr	r2, [r1, #0]
   b839e:	6002      	str	r2, [r0, #0]
   b83a0:	684a      	ldr	r2, [r1, #4]
   b83a2:	6042      	str	r2, [r0, #4]
        capacity_(0) {
   b83a4:	2200      	movs	r2, #0
   b83a6:	e9c0 2202 	strd	r2, r2, [r0, #8]
   b83aa:	b510      	push	{r4, lr}
   b83ac:	6102      	str	r2, [r0, #16]
      __a = _GLIBCXX_MOVE(__b);
   b83ae:	688c      	ldr	r4, [r1, #8]
   b83b0:	6084      	str	r4, [r0, #8]
   b83b2:	68cc      	ldr	r4, [r1, #12]
   b83b4:	60c4      	str	r4, [r0, #12]
   b83b6:	690c      	ldr	r4, [r1, #16]
      __b = _GLIBCXX_MOVE(__tmp);
   b83b8:	608a      	str	r2, [r1, #8]
   b83ba:	60ca      	str	r2, [r1, #12]
      __a = _GLIBCXX_MOVE(__b);
   b83bc:	6104      	str	r4, [r0, #16]
      __b = _GLIBCXX_MOVE(__tmp);
   b83be:	610a      	str	r2, [r1, #16]
   b83c0:	bd10      	pop	{r4, pc}

000b83c2 <_ZN5spark6VectorINS_17LogCategoryFilterENS_16DefaultAllocatorEEC1EOS3_>:
   b83c2:	2200      	movs	r2, #0
   b83c4:	e9c0 2200 	strd	r2, r2, [r0]
inline spark::Vector<T, AllocatorT>::Vector(Vector<T, AllocatorT>&& vector) : Vector() {
   b83c8:	b510      	push	{r4, lr}
        capacity_(0) {
   b83ca:	6082      	str	r2, [r0, #8]
      __a = _GLIBCXX_MOVE(__b);
   b83cc:	680c      	ldr	r4, [r1, #0]
   b83ce:	6004      	str	r4, [r0, #0]
   b83d0:	684c      	ldr	r4, [r1, #4]
   b83d2:	6044      	str	r4, [r0, #4]
   b83d4:	688c      	ldr	r4, [r1, #8]
      __b = _GLIBCXX_MOVE(__tmp);
   b83d6:	600a      	str	r2, [r1, #0]
   b83d8:	604a      	str	r2, [r1, #4]
      __a = _GLIBCXX_MOVE(__b);
   b83da:	6084      	str	r4, [r0, #8]
      __b = _GLIBCXX_MOVE(__tmp);
   b83dc:	608a      	str	r2, [r1, #8]
}
   b83de:	bd10      	pop	{r4, pc}

000b83e0 <_ZNSt10lock_guardI14RecursiveMutexED1Ev>:
      { _M_device.lock(); }

      lock_guard(mutex_type& __m, adopt_lock_t) noexcept : _M_device(__m)
      { } // calling thread owns mutex

      ~lock_guard()
   b83e0:	b510      	push	{r4, lr}
    bool trylock() { return os_mutex_recursive_trylock(handle_)==0; }
    bool try_lock() { return trylock(); }
    void unlock() { os_mutex_recursive_unlock(handle_); }
   b83e2:	6803      	ldr	r3, [r0, #0]
   b83e4:	4604      	mov	r4, r0
   b83e6:	6818      	ldr	r0, [r3, #0]
   b83e8:	f7fe ffbe 	bl	b7368 <os_mutex_recursive_unlock>
      { _M_device.unlock(); }
   b83ec:	4620      	mov	r0, r4
   b83ee:	bd10      	pop	{r4, pc}

000b83f0 <_ZN5spark10LogManager10logMessageEPKciS2_PK13LogAttributesPv>:
}

void spark::LogManager::logMessage(const char *msg, int level, const char *category, const LogAttributes *attr, void *reserved) {
   b83f0:	e92d 4ff0 	stmdb	sp!, {r4, r5, r6, r7, r8, r9, sl, fp, lr}
   b83f4:	b087      	sub	sp, #28
   b83f6:	4680      	mov	r8, r0
   b83f8:	9303      	str	r3, [sp, #12]
    #endif /* nRF52840 */

#if defined(STM32F10X_MD) || defined(STM32F10X_HD) || defined(STM32F2XX) || defined(nRF52840)

static inline bool hal_interrupt_is_isr() {
	return (SCB->ICSR & SCB_ICSR_VECTACTIVE_Msk) != 0;
   b83fa:	4b1c      	ldr	r3, [pc, #112]	; (b846c <_ZN5spark10LogManager10logMessageEPKciS2_PK13LogAttributesPv+0x7c>)
   b83fc:	685b      	ldr	r3, [r3, #4]
   b83fe:	f3c3 0308 	ubfx	r3, r3, #0, #9
   b8402:	4689      	mov	r9, r1
   b8404:	4616      	mov	r6, r2
#ifndef LOG_FROM_ISR
    if (hal_interrupt_is_isr()) {
   b8406:	b96b      	cbnz	r3, b8424 <_ZN5spark10LogManager10logMessageEPKciS2_PK13LogAttributesPv+0x34>
        return;
    }
#endif
    LogManager *that = instance();
   b8408:	f7ff febe 	bl	b8188 <_ZN5spark10LogManager8instanceEv>
   b840c:	4604      	mov	r4, r0
    LOG_WITH_LOCK(that->mutex_) {
   b840e:	f100 0324 	add.w	r3, r0, #36	; 0x24
      { _M_device.lock(); }
   b8412:	6a40      	ldr	r0, [r0, #36]	; 0x24
      explicit lock_guard(mutex_type& __m) : _M_device(__m)
   b8414:	9305      	str	r3, [sp, #20]
      { _M_device.lock(); }
   b8416:	f7ff fd84 	bl	b7f22 <_ZN14RecursiveMutex4lockEv.isra.0>
        // prevent re-entry
        if (that->isActive()) {
   b841a:	7b23      	ldrb	r3, [r4, #12]
   b841c:	b12b      	cbz	r3, b842a <_ZN5spark10LogManager10logMessageEPKciS2_PK13LogAttributesPv+0x3a>
    LOG_WITH_LOCK(that->mutex_) {
   b841e:	a805      	add	r0, sp, #20
   b8420:	f7ff ffde 	bl	b83e0 <_ZNSt10lock_guardI14RecursiveMutexED1Ev>
        for (LogHandler *handler: that->activeHandlers_) {
            handler->message(msg, (LogLevel)level, category, *attr);
        }
        that->setActive(false);
    }
}
   b8424:	b007      	add	sp, #28
   b8426:	e8bd 8ff0 	ldmia.w	sp!, {r4, r5, r6, r7, r8, r9, sl, fp, pc}
inline bool spark::LogManager::isActive() const {
    return outputActive_;
}

inline void spark::LogManager::setActive(bool outputActive) {
    outputActive_ = outputActive;
   b842a:	2301      	movs	r3, #1
   b842c:	7323      	strb	r3, [r4, #12]
    return data_ + size_;
   b842e:	e9d4 5300 	ldrd	r5, r3, [r4]
            handler->message(msg, (LogLevel)level, category, *attr);
   b8432:	fa5f f989 	uxtb.w	r9, r9
   b8436:	eb05 0a83 	add.w	sl, r5, r3, lsl #2
        for (LogHandler *handler: that->activeHandlers_) {
   b843a:	45aa      	cmp	sl, r5
   b843c:	d012      	beq.n	b8464 <_ZN5spark10LogManager10logMessageEPKciS2_PK13LogAttributesPv+0x74>
   b843e:	f855 7b04 	ldr.w	r7, [r5], #4
    if (level >= filter_.level(category)) {
   b8442:	4631      	mov	r1, r6
   b8444:	1d38      	adds	r0, r7, #4
   b8446:	f7ff fdf3 	bl	b8030 <_ZNK5spark6detail9LogFilter5levelEPKc>
   b844a:	4581      	cmp	r9, r0
   b844c:	d3f5      	bcc.n	b843a <_ZN5spark10LogManager10logMessageEPKciS2_PK13LogAttributesPv+0x4a>
        logMessage(msg, level, category, attr);
   b844e:	683b      	ldr	r3, [r7, #0]
   b8450:	9a03      	ldr	r2, [sp, #12]
   b8452:	9200      	str	r2, [sp, #0]
   b8454:	f8d3 b008 	ldr.w	fp, [r3, #8]
   b8458:	464a      	mov	r2, r9
   b845a:	4633      	mov	r3, r6
   b845c:	4641      	mov	r1, r8
   b845e:	4638      	mov	r0, r7
   b8460:	47d8      	blx	fp
   b8462:	e7ea      	b.n	b843a <_ZN5spark10LogManager10logMessageEPKciS2_PK13LogAttributesPv+0x4a>
    outputActive_ = outputActive;
   b8464:	2300      	movs	r3, #0
   b8466:	7323      	strb	r3, [r4, #12]
   b8468:	e7d9      	b.n	b841e <_ZN5spark10LogManager10logMessageEPKciS2_PK13LogAttributesPv+0x2e>
   b846a:	bf00      	nop
   b846c:	e000ed00 	.word	0xe000ed00

000b8470 <_ZN5spark10LogManager8logWriteEPKcjiS2_Pv>:
void spark::LogManager::logWrite(const char *data, size_t size, int level, const char *category, void *reserved) {
   b8470:	e92d 4ff7 	stmdb	sp!, {r0, r1, r2, r4, r5, r6, r7, r8, r9, sl, fp, lr}
   b8474:	469b      	mov	fp, r3
   b8476:	4b1a      	ldr	r3, [pc, #104]	; (b84e0 <_ZN5spark10LogManager8logWriteEPKcjiS2_Pv+0x70>)
   b8478:	685b      	ldr	r3, [r3, #4]
   b847a:	f3c3 0308 	ubfx	r3, r3, #0, #9
   b847e:	4680      	mov	r8, r0
   b8480:	4689      	mov	r9, r1
   b8482:	4616      	mov	r6, r2
    if (hal_interrupt_is_isr()) {
   b8484:	b96b      	cbnz	r3, b84a2 <_ZN5spark10LogManager8logWriteEPKcjiS2_Pv+0x32>
    LogManager *that = instance();
   b8486:	f7ff fe7f 	bl	b8188 <_ZN5spark10LogManager8instanceEv>
   b848a:	4604      	mov	r4, r0
    LOG_WITH_LOCK(that->mutex_) {
   b848c:	f100 0324 	add.w	r3, r0, #36	; 0x24
   b8490:	6a40      	ldr	r0, [r0, #36]	; 0x24
      explicit lock_guard(mutex_type& __m) : _M_device(__m)
   b8492:	9301      	str	r3, [sp, #4]
      { _M_device.lock(); }
   b8494:	f7ff fd45 	bl	b7f22 <_ZN14RecursiveMutex4lockEv.isra.0>
        if (that->isActive()) {
   b8498:	7b23      	ldrb	r3, [r4, #12]
   b849a:	b12b      	cbz	r3, b84a8 <_ZN5spark10LogManager8logWriteEPKcjiS2_Pv+0x38>
    LOG_WITH_LOCK(that->mutex_) {
   b849c:	a801      	add	r0, sp, #4
   b849e:	f7ff ff9f 	bl	b83e0 <_ZNSt10lock_guardI14RecursiveMutexED1Ev>
}
   b84a2:	b003      	add	sp, #12
   b84a4:	e8bd 8ff0 	ldmia.w	sp!, {r4, r5, r6, r7, r8, r9, sl, fp, pc}
    outputActive_ = outputActive;
   b84a8:	2301      	movs	r3, #1
   b84aa:	7323      	strb	r3, [r4, #12]
   b84ac:	e9d4 5300 	ldrd	r5, r3, [r4]
    if (level >= filter_.level(category)) {
   b84b0:	b2f6      	uxtb	r6, r6
   b84b2:	eb05 0a83 	add.w	sl, r5, r3, lsl #2
        for (LogHandler *handler: that->activeHandlers_) {
   b84b6:	4555      	cmp	r5, sl
   b84b8:	d00e      	beq.n	b84d8 <_ZN5spark10LogManager8logWriteEPKcjiS2_Pv+0x68>
   b84ba:	f855 7b04 	ldr.w	r7, [r5], #4
   b84be:	4659      	mov	r1, fp
   b84c0:	1d38      	adds	r0, r7, #4
   b84c2:	f7ff fdb5 	bl	b8030 <_ZNK5spark6detail9LogFilter5levelEPKc>
   b84c6:	4286      	cmp	r6, r0
   b84c8:	d3f5      	bcc.n	b84b6 <_ZN5spark10LogManager8logWriteEPKcjiS2_Pv+0x46>
        write(data, size);
   b84ca:	683b      	ldr	r3, [r7, #0]
   b84cc:	464a      	mov	r2, r9
   b84ce:	68db      	ldr	r3, [r3, #12]
   b84d0:	4641      	mov	r1, r8
   b84d2:	4638      	mov	r0, r7
   b84d4:	4798      	blx	r3
   b84d6:	e7ee      	b.n	b84b6 <_ZN5spark10LogManager8logWriteEPKcjiS2_Pv+0x46>
    outputActive_ = outputActive;
   b84d8:	2300      	movs	r3, #0
   b84da:	7323      	strb	r3, [r4, #12]
   b84dc:	e7de      	b.n	b849c <_ZN5spark10LogManager8logWriteEPKcjiS2_Pv+0x2c>
   b84de:	bf00      	nop
   b84e0:	e000ed00 	.word	0xe000ed00

000b84e4 <_ZN5spark10LogManager10logEnabledEiPKcPv>:
int spark::LogManager::logEnabled(int level, const char *category, void *reserved) {
   b84e4:	e92d 41f3 	stmdb	sp!, {r0, r1, r4, r5, r6, r7, r8, lr}
   b84e8:	4b16      	ldr	r3, [pc, #88]	; (b8544 <_ZN5spark10LogManager10logEnabledEiPKcPv+0x60>)
   b84ea:	685b      	ldr	r3, [r3, #4]
   b84ec:	f3c3 0308 	ubfx	r3, r3, #0, #9
   b84f0:	4605      	mov	r5, r0
   b84f2:	460f      	mov	r7, r1
    if (hal_interrupt_is_isr()) {
   b84f4:	bb1b      	cbnz	r3, b853e <_ZN5spark10LogManager10logEnabledEiPKcPv+0x5a>
    LogManager *that = instance();
   b84f6:	f7ff fe47 	bl	b8188 <_ZN5spark10LogManager8instanceEv>
    LOG_WITH_LOCK(that->mutex_) {
   b84fa:	f100 0324 	add.w	r3, r0, #36	; 0x24
    LogManager *that = instance();
   b84fe:	4604      	mov	r4, r0
   b8500:	6a40      	ldr	r0, [r0, #36]	; 0x24
      explicit lock_guard(mutex_type& __m) : _M_device(__m)
   b8502:	9301      	str	r3, [sp, #4]
      { _M_device.lock(); }
   b8504:	f7ff fd0d 	bl	b7f22 <_ZN14RecursiveMutex4lockEv.isra.0>
   b8508:	e9d4 6300 	ldrd	r6, r3, [r4]
    int minLevel = LOG_LEVEL_NONE;
   b850c:	2446      	movs	r4, #70	; 0x46
   b850e:	eb06 0883 	add.w	r8, r6, r3, lsl #2
        for (LogHandler *handler: that->activeHandlers_) {
   b8512:	45b0      	cmp	r8, r6
   b8514:	d109      	bne.n	b852a <_ZN5spark10LogManager10logEnabledEiPKcPv+0x46>
    LOG_WITH_LOCK(that->mutex_) {
   b8516:	a801      	add	r0, sp, #4
   b8518:	f7ff ff62 	bl	b83e0 <_ZNSt10lock_guardI14RecursiveMutexED1Ev>
    return (level >= minLevel);
   b851c:	42a5      	cmp	r5, r4
   b851e:	bfb4      	ite	lt
   b8520:	2000      	movlt	r0, #0
   b8522:	2001      	movge	r0, #1
}
   b8524:	b002      	add	sp, #8
   b8526:	e8bd 81f0 	ldmia.w	sp!, {r4, r5, r6, r7, r8, pc}
    return filter_.level(category);
   b852a:	f856 0b04 	ldr.w	r0, [r6], #4
   b852e:	4639      	mov	r1, r7
   b8530:	3004      	adds	r0, #4
   b8532:	f7ff fd7d 	bl	b8030 <_ZNK5spark6detail9LogFilter5levelEPKc>
            if (level < minLevel) {
   b8536:	4284      	cmp	r4, r0
   b8538:	bfa8      	it	ge
   b853a:	4604      	movge	r4, r0
        for (LogHandler *handler: that->activeHandlers_) {
   b853c:	e7e9      	b.n	b8512 <_ZN5spark10LogManager10logEnabledEiPKcPv+0x2e>
        return 0;
   b853e:	2000      	movs	r0, #0
   b8540:	e7f0      	b.n	b8524 <_ZN5spark10LogManager10logEnabledEiPKcPv+0x40>
   b8542:	bf00      	nop
   b8544:	e000ed00 	.word	0xe000ed00

000b8548 <_ZN5spark6VectorIPNS_10LogHandlerENS_16DefaultAllocatorEE6appendES2_>:
inline bool spark::Vector<T, AllocatorT>::append(T value) {
   b8548:	b5f8      	push	{r3, r4, r5, r6, r7, lr}
    if (size_ + 1 > capacity_ && !realloc(size_ + 1)) {
   b854a:	e9d0 5301 	ldrd	r5, r3, [r0, #4]
   b854e:	429d      	cmp	r5, r3
inline bool spark::Vector<T, AllocatorT>::append(T value) {
   b8550:	4604      	mov	r4, r0
   b8552:	460e      	mov	r6, r1
    if (size_ + 1 > capacity_ && !realloc(size_ + 1)) {
   b8554:	db0d      	blt.n	b8572 <_ZN5spark6VectorIPNS_10LogHandlerENS_16DefaultAllocatorEE6appendES2_+0x2a>
   b8556:	1c6f      	adds	r7, r5, #1
        if (n > 0) {
   b8558:	2f00      	cmp	r7, #0
            d = (T*)AllocatorT::realloc(data_, n * sizeof(T));
   b855a:	6800      	ldr	r0, [r0, #0]
        if (n > 0) {
   b855c:	dd04      	ble.n	b8568 <_ZN5spark6VectorIPNS_10LogHandlerENS_16DefaultAllocatorEE6appendES2_+0x20>
    return ::realloc(ptr, size);
   b855e:	00b9      	lsls	r1, r7, #2
   b8560:	f7ff f980 	bl	b7864 <realloc>
            if (!d) {
   b8564:	b918      	cbnz	r0, b856e <_ZN5spark6VectorIPNS_10LogHandlerENS_16DefaultAllocatorEE6appendES2_+0x26>
}
   b8566:	bdf8      	pop	{r3, r4, r5, r6, r7, pc}
    ::free(ptr);
   b8568:	f7ff f974 	bl	b7854 <free>
        T* d = nullptr;
   b856c:	2000      	movs	r0, #0
        data_ = d;
   b856e:	6020      	str	r0, [r4, #0]
        capacity_ = n;
   b8570:	60a7      	str	r7, [r4, #8]
    T* const p = data_ + i;
   b8572:	6827      	ldr	r7, [r4, #0]
    move(p + 1, p, data_ + size_);
   b8574:	6862      	ldr	r2, [r4, #4]
    T* const p = data_ + i;
   b8576:	eb07 0185 	add.w	r1, r7, r5, lsl #2
    move(p + 1, p, data_ + size_);
   b857a:	0092      	lsls	r2, r2, #2
        ::memmove(dest, p, (end - p) * sizeof(T));
   b857c:	eba2 0285 	sub.w	r2, r2, r5, lsl #2
   b8580:	1d08      	adds	r0, r1, #4
   b8582:	f002 f859 	bl	ba638 <memmove>
    new(p) T(std::move(value));
   b8586:	f847 6025 	str.w	r6, [r7, r5, lsl #2]
    ++size_;
   b858a:	6863      	ldr	r3, [r4, #4]
   b858c:	3301      	adds	r3, #1
   b858e:	6063      	str	r3, [r4, #4]
    return true;
   b8590:	2001      	movs	r0, #1
   b8592:	e7e8      	b.n	b8566 <_ZN5spark6VectorIPNS_10LogHandlerENS_16DefaultAllocatorEE6appendES2_+0x1e>

000b8594 <_ZN5spark10LogManager10addHandlerEPNS_10LogHandlerE>:
bool spark::LogManager::addHandler(LogHandler *handler) {
   b8594:	b537      	push	{r0, r1, r2, r4, r5, lr}
    LOG_WITH_LOCK(mutex_) {
   b8596:	f100 0324 	add.w	r3, r0, #36	; 0x24
bool spark::LogManager::addHandler(LogHandler *handler) {
   b859a:	4604      	mov	r4, r0
   b859c:	6a40      	ldr	r0, [r0, #36]	; 0x24
      explicit lock_guard(mutex_type& __m) : _M_device(__m)
   b859e:	9301      	str	r3, [sp, #4]
   b85a0:	460d      	mov	r5, r1
      { _M_device.lock(); }
   b85a2:	f7ff fcbe 	bl	b7f22 <_ZN14RecursiveMutex4lockEv.isra.0>
    return find(data_, data_ + size_, value);
   b85a6:	e9d4 3200 	ldrd	r3, r2, [r4]
   b85aa:	eb03 0282 	add.w	r2, r3, r2, lsl #2
        for (; p != end; ++p) {
   b85ae:	4293      	cmp	r3, r2
   b85b0:	4619      	mov	r1, r3
   b85b2:	d00b      	beq.n	b85cc <_ZN5spark10LogManager10addHandlerEPNS_10LogHandlerE+0x38>
            if (*p == value) {
   b85b4:	6809      	ldr	r1, [r1, #0]
   b85b6:	42a9      	cmp	r1, r5
   b85b8:	f103 0304 	add.w	r3, r3, #4
   b85bc:	d1f7      	bne.n	b85ae <_ZN5spark10LogManager10addHandlerEPNS_10LogHandlerE+0x1a>
            return false;
   b85be:	a801      	add	r0, sp, #4
   b85c0:	f7ff ff0e 	bl	b83e0 <_ZNSt10lock_guardI14RecursiveMutexED1Ev>
   b85c4:	2500      	movs	r5, #0
}
   b85c6:	4628      	mov	r0, r5
   b85c8:	b003      	add	sp, #12
   b85ca:	bd30      	pop	{r4, r5, pc}
        if (activeHandlers_.contains(handler) || !activeHandlers_.append(handler)) {
   b85cc:	4629      	mov	r1, r5
   b85ce:	4620      	mov	r0, r4
   b85d0:	f7ff ffba 	bl	b8548 <_ZN5spark6VectorIPNS_10LogHandlerENS_16DefaultAllocatorEE6appendES2_>
   b85d4:	4605      	mov	r5, r0
   b85d6:	2800      	cmp	r0, #0
   b85d8:	d0f1      	beq.n	b85be <_ZN5spark10LogManager10addHandlerEPNS_10LogHandlerE+0x2a>
        if (activeHandlers_.size() == 1) {
   b85da:	6863      	ldr	r3, [r4, #4]
   b85dc:	2b01      	cmp	r3, #1
   b85de:	d101      	bne.n	b85e4 <_ZN5spark10LogManager10addHandlerEPNS_10LogHandlerE+0x50>
            setSystemCallbacks();
   b85e0:	f7ff fdee 	bl	b81c0 <_ZN5spark10LogManager18setSystemCallbacksEv>
    LOG_WITH_LOCK(mutex_) {
   b85e4:	a801      	add	r0, sp, #4
   b85e6:	f7ff fefb 	bl	b83e0 <_ZNSt10lock_guardI14RecursiveMutexED1Ev>
   b85ea:	e7ec      	b.n	b85c6 <_ZN5spark10LogManager10addHandlerEPNS_10LogHandlerE+0x32>

000b85ec <_ZN5spark6VectorIPNS_10LogHandlerENS_16DefaultAllocatorEE9removeOneERKS2_>:
inline bool spark::Vector<T, AllocatorT>::removeOne(const T &value) {
   b85ec:	b570      	push	{r4, r5, r6, lr}
   b85ee:	4604      	mov	r4, r0
    T* const p = find(data_, data_ + size_, value);
   b85f0:	e9d0 0200 	ldrd	r0, r2, [r0]
inline bool spark::Vector<T, AllocatorT>::removeOne(const T &value) {
   b85f4:	460b      	mov	r3, r1
    T* const p = find(data_, data_ + size_, value);
   b85f6:	eb00 0282 	add.w	r2, r0, r2, lsl #2
        for (; p != end; ++p) {
   b85fa:	4282      	cmp	r2, r0
   b85fc:	d00f      	beq.n	b861e <_ZN5spark6VectorIPNS_10LogHandlerENS_16DefaultAllocatorEE9removeOneERKS2_+0x32>
    move(p, p + 1, data_ + size_);
   b85fe:	4601      	mov	r1, r0
            if (*p == value) {
   b8600:	681d      	ldr	r5, [r3, #0]
   b8602:	f851 6b04 	ldr.w	r6, [r1], #4
   b8606:	42ae      	cmp	r6, r5
   b8608:	d107      	bne.n	b861a <_ZN5spark6VectorIPNS_10LogHandlerENS_16DefaultAllocatorEE9removeOneERKS2_+0x2e>
        ::memmove(dest, p, (end - p) * sizeof(T));
   b860a:	1a52      	subs	r2, r2, r1
   b860c:	f002 f814 	bl	ba638 <memmove>
    --size_;
   b8610:	6863      	ldr	r3, [r4, #4]
   b8612:	3b01      	subs	r3, #1
   b8614:	6063      	str	r3, [r4, #4]
    return true;
   b8616:	2001      	movs	r0, #1
}
   b8618:	bd70      	pop	{r4, r5, r6, pc}
    move(p, p + 1, data_ + size_);
   b861a:	4608      	mov	r0, r1
   b861c:	e7ed      	b.n	b85fa <_ZN5spark6VectorIPNS_10LogHandlerENS_16DefaultAllocatorEE9removeOneERKS2_+0xe>
        return false;
   b861e:	2000      	movs	r0, #0
   b8620:	e7fa      	b.n	b8618 <_ZN5spark6VectorIPNS_10LogHandlerENS_16DefaultAllocatorEE9removeOneERKS2_+0x2c>

000b8622 <_ZN5spark10LogManager13removeHandlerEPNS_10LogHandlerE>:
void spark::LogManager::removeHandler(LogHandler *handler) {
   b8622:	b51f      	push	{r0, r1, r2, r3, r4, lr}
    LOG_WITH_LOCK(mutex_) {
   b8624:	f100 0324 	add.w	r3, r0, #36	; 0x24
void spark::LogManager::removeHandler(LogHandler *handler) {
   b8628:	4604      	mov	r4, r0
   b862a:	6a40      	ldr	r0, [r0, #36]	; 0x24
   b862c:	9101      	str	r1, [sp, #4]
      explicit lock_guard(mutex_type& __m) : _M_device(__m)
   b862e:	9303      	str	r3, [sp, #12]
      { _M_device.lock(); }
   b8630:	f7ff fc77 	bl	b7f22 <_ZN14RecursiveMutex4lockEv.isra.0>
        if (activeHandlers_.removeOne(handler) && activeHandlers_.isEmpty()) {
   b8634:	a901      	add	r1, sp, #4
   b8636:	4620      	mov	r0, r4
   b8638:	f7ff ffd8 	bl	b85ec <_ZN5spark6VectorIPNS_10LogHandlerENS_16DefaultAllocatorEE9removeOneERKS2_>
   b863c:	b118      	cbz	r0, b8646 <_ZN5spark10LogManager13removeHandlerEPNS_10LogHandlerE+0x24>
   b863e:	6863      	ldr	r3, [r4, #4]
   b8640:	b90b      	cbnz	r3, b8646 <_ZN5spark10LogManager13removeHandlerEPNS_10LogHandlerE+0x24>
            resetSystemCallbacks();
   b8642:	f7ff fdc9 	bl	b81d8 <_ZN5spark10LogManager20resetSystemCallbacksEv>
    LOG_WITH_LOCK(mutex_) {
   b8646:	a803      	add	r0, sp, #12
   b8648:	f7ff feca 	bl	b83e0 <_ZNSt10lock_guardI14RecursiveMutexED1Ev>
}
   b864c:	b004      	add	sp, #16
   b864e:	bd10      	pop	{r4, pc}

000b8650 <_ZN5spark10LogManager22destroyFactoryHandlersEv>:
void spark::LogManager::destroyFactoryHandlers() {
   b8650:	b570      	push	{r4, r5, r6, lr}
    return data_ + size_;
   b8652:	e9d0 5604 	ldrd	r5, r6, [r0, #16]
   b8656:	2318      	movs	r3, #24
   b8658:	4604      	mov	r4, r0
   b865a:	fb03 5606 	mla	r6, r3, r6, r5
    for (const FactoryHandler &h: factoryHandlers_) {
   b865e:	42ae      	cmp	r6, r5
   b8660:	d015      	beq.n	b868e <_ZN5spark10LogManager22destroyFactoryHandlersEv+0x3e>
        activeHandlers_.removeOne(h.handler);
   b8662:	f105 0110 	add.w	r1, r5, #16
   b8666:	4620      	mov	r0, r4
   b8668:	f7ff ffc0 	bl	b85ec <_ZN5spark6VectorIPNS_10LogHandlerENS_16DefaultAllocatorEE9removeOneERKS2_>
        if (activeHandlers_.isEmpty()) {
   b866c:	6863      	ldr	r3, [r4, #4]
   b866e:	b90b      	cbnz	r3, b8674 <_ZN5spark10LogManager22destroyFactoryHandlersEv+0x24>
            resetSystemCallbacks();
   b8670:	f7ff fdb2 	bl	b81d8 <_ZN5spark10LogManager20resetSystemCallbacksEv>
        handlerFactory_->destroyHandler(h.handler);
   b8674:	69e0      	ldr	r0, [r4, #28]
   b8676:	6929      	ldr	r1, [r5, #16]
   b8678:	6803      	ldr	r3, [r0, #0]
   b867a:	68db      	ldr	r3, [r3, #12]
   b867c:	4798      	blx	r3
        if (h.stream) {
   b867e:	6969      	ldr	r1, [r5, #20]
   b8680:	b119      	cbz	r1, b868a <_ZN5spark10LogManager22destroyFactoryHandlersEv+0x3a>
            streamFactory_->destroyStream(h.stream);
   b8682:	6a20      	ldr	r0, [r4, #32]
   b8684:	6803      	ldr	r3, [r0, #0]
   b8686:	68db      	ldr	r3, [r3, #12]
   b8688:	4798      	blx	r3
    for (const FactoryHandler &h: factoryHandlers_) {
   b868a:	3518      	adds	r5, #24
   b868c:	e7e7      	b.n	b865e <_ZN5spark10LogManager22destroyFactoryHandlersEv+0xe>
    destruct(data_, data_ + size_);
   b868e:	e9d4 5304 	ldrd	r5, r3, [r4, #16]
   b8692:	2618      	movs	r6, #24
   b8694:	fb06 5603 	mla	r6, r6, r3, r5
        for (; p != end; ++p) {
   b8698:	42ae      	cmp	r6, r5
   b869a:	d004      	beq.n	b86a6 <_ZN5spark10LogManager22destroyFactoryHandlersEv+0x56>
struct spark::LogManager::FactoryHandler {
   b869c:	4628      	mov	r0, r5
   b869e:	f7ff fa2d 	bl	b7afc <_ZN6StringD1Ev>
   b86a2:	3518      	adds	r5, #24
   b86a4:	e7f8      	b.n	b8698 <_ZN5spark10LogManager22destroyFactoryHandlersEv+0x48>
    size_ = 0;
   b86a6:	2300      	movs	r3, #0
   b86a8:	6163      	str	r3, [r4, #20]
}
   b86aa:	bd70      	pop	{r4, r5, r6, pc}

000b86ac <_ZN5spark10LogManagerD1Ev>:
spark::LogManager::~LogManager() {
   b86ac:	b573      	push	{r0, r1, r4, r5, r6, lr}
   b86ae:	4604      	mov	r4, r0
    resetSystemCallbacks();
   b86b0:	f7ff fd92 	bl	b81d8 <_ZN5spark10LogManager20resetSystemCallbacksEv>
    LOG_WITH_LOCK(mutex_) {
   b86b4:	f104 0324 	add.w	r3, r4, #36	; 0x24
   b86b8:	6a60      	ldr	r0, [r4, #36]	; 0x24
      explicit lock_guard(mutex_type& __m) : _M_device(__m)
   b86ba:	9301      	str	r3, [sp, #4]
      { _M_device.lock(); }
   b86bc:	f7ff fc31 	bl	b7f22 <_ZN14RecursiveMutex4lockEv.isra.0>
         destroyFactoryHandlers();
   b86c0:	4620      	mov	r0, r4
   b86c2:	f7ff ffc5 	bl	b8650 <_ZN5spark10LogManager22destroyFactoryHandlersEv>
    LOG_WITH_LOCK(mutex_) {
   b86c6:	a801      	add	r0, sp, #4
   b86c8:	f7ff fe8a 	bl	b83e0 <_ZNSt10lock_guardI14RecursiveMutexED1Ev>
        if (handle_) {
   b86cc:	6a60      	ldr	r0, [r4, #36]	; 0x24
   b86ce:	b108      	cbz	r0, b86d4 <_ZN5spark10LogManagerD1Ev+0x28>
            os_mutex_recursive_destroy(handle_);
   b86d0:	f7fe fe3a 	bl	b7348 <os_mutex_recursive_destroy>
    destruct(data_, data_ + size_);
   b86d4:	e9d4 5304 	ldrd	r5, r3, [r4, #16]
   b86d8:	2618      	movs	r6, #24
   b86da:	fb06 5603 	mla	r6, r6, r3, r5
        for (; p != end; ++p) {
   b86de:	42ae      	cmp	r6, r5
   b86e0:	d004      	beq.n	b86ec <_ZN5spark10LogManagerD1Ev+0x40>
struct spark::LogManager::FactoryHandler {
   b86e2:	4628      	mov	r0, r5
   b86e4:	f7ff fa0a 	bl	b7afc <_ZN6StringD1Ev>
   b86e8:	3518      	adds	r5, #24
   b86ea:	e7f8      	b.n	b86de <_ZN5spark10LogManagerD1Ev+0x32>
    ::free(ptr);
   b86ec:	6920      	ldr	r0, [r4, #16]
   b86ee:	f7ff f8b1 	bl	b7854 <free>
   b86f2:	6820      	ldr	r0, [r4, #0]
   b86f4:	f7ff f8ae 	bl	b7854 <free>
}
   b86f8:	4620      	mov	r0, r4
   b86fa:	b002      	add	sp, #8
   b86fc:	bd70      	pop	{r4, r5, r6, pc}
	...

000b8700 <__tcf_2>:
    static LogManager mgr;
   b8700:	4801      	ldr	r0, [pc, #4]	; (b8708 <__tcf_2+0x8>)
   b8702:	f7ff bfd3 	b.w	b86ac <_ZN5spark10LogManagerD1Ev>
   b8706:	bf00      	nop
   b8708:	2003e65c 	.word	0x2003e65c

000b870c <_ZN5spark6VectorINS_6detail9LogFilter4NodeENS_16DefaultAllocatorEE4moveIS3_Li0EEEvPS3_S7_S7_>:
        if (dest > p && dest < end) {
   b870c:	4288      	cmp	r0, r1
    static void move(T* dest, T* p, T* end) {
   b870e:	b5f8      	push	{r3, r4, r5, r6, r7, lr}
   b8710:	4604      	mov	r4, r0
   b8712:	460d      	mov	r5, r1
   b8714:	4616      	mov	r6, r2
        if (dest > p && dest < end) {
   b8716:	d915      	bls.n	b8744 <_ZN5spark6VectorINS_6detail9LogFilter4NodeENS_16DefaultAllocatorEE4moveIS3_Li0EEEvPS3_S7_S7_+0x38>
   b8718:	4290      	cmp	r0, r2
   b871a:	d214      	bcs.n	b8746 <_ZN5spark6VectorINS_6detail9LogFilter4NodeENS_16DefaultAllocatorEE4moveIS3_Li0EEEvPS3_S7_S7_+0x3a>
            --end;
   b871c:	f1a2 0614 	sub.w	r6, r2, #20
            dest += end - p - 1;
   b8720:	1a75      	subs	r5, r6, r1
   b8722:	f1a1 0714 	sub.w	r7, r1, #20
   b8726:	442c      	add	r4, r5
            for (; end != p; --end, --dest) {
   b8728:	42b7      	cmp	r7, r6
   b872a:	d01a      	beq.n	b8762 <_ZN5spark6VectorINS_6detail9LogFilter4NodeENS_16DefaultAllocatorEE4moveIS3_Li0EEEvPS3_S7_S7_+0x56>
                new(dest) T(std::move(*end));
   b872c:	b11c      	cbz	r4, b8736 <_ZN5spark6VectorINS_6detail9LogFilter4NodeENS_16DefaultAllocatorEE4moveIS3_Li0EEEvPS3_S7_S7_+0x2a>
   b872e:	4631      	mov	r1, r6
   b8730:	4620      	mov	r0, r4
   b8732:	f7ff fe33 	bl	b839c <_ZN5spark6detail9LogFilter4NodeC1EOS2_>
struct spark::detail::LogFilter::Node {
   b8736:	f106 0008 	add.w	r0, r6, #8
   b873a:	f7ff fde7 	bl	b830c <_ZN5spark6VectorINS_6detail9LogFilter4NodeENS_16DefaultAllocatorEED1Ev>
            for (; end != p; --end, --dest) {
   b873e:	3e14      	subs	r6, #20
   b8740:	3c14      	subs	r4, #20
   b8742:	e7f1      	b.n	b8728 <_ZN5spark6VectorINS_6detail9LogFilter4NodeENS_16DefaultAllocatorEE4moveIS3_Li0EEEvPS3_S7_S7_+0x1c>
        } else if (dest != p) {
   b8744:	d00d      	beq.n	b8762 <_ZN5spark6VectorINS_6detail9LogFilter4NodeENS_16DefaultAllocatorEE4moveIS3_Li0EEEvPS3_S7_S7_+0x56>
            for (; p != end; ++p, ++dest) {
   b8746:	42b5      	cmp	r5, r6
   b8748:	d00b      	beq.n	b8762 <_ZN5spark6VectorINS_6detail9LogFilter4NodeENS_16DefaultAllocatorEE4moveIS3_Li0EEEvPS3_S7_S7_+0x56>
                new(dest) T(std::move(*p));
   b874a:	b11c      	cbz	r4, b8754 <_ZN5spark6VectorINS_6detail9LogFilter4NodeENS_16DefaultAllocatorEE4moveIS3_Li0EEEvPS3_S7_S7_+0x48>
   b874c:	4629      	mov	r1, r5
   b874e:	4620      	mov	r0, r4
   b8750:	f7ff fe24 	bl	b839c <_ZN5spark6detail9LogFilter4NodeC1EOS2_>
   b8754:	f105 0008 	add.w	r0, r5, #8
   b8758:	f7ff fdd8 	bl	b830c <_ZN5spark6VectorINS_6detail9LogFilter4NodeENS_16DefaultAllocatorEED1Ev>
            for (; p != end; ++p, ++dest) {
   b875c:	3514      	adds	r5, #20
   b875e:	3414      	adds	r4, #20
   b8760:	e7f1      	b.n	b8746 <_ZN5spark6VectorINS_6detail9LogFilter4NodeENS_16DefaultAllocatorEE4moveIS3_Li0EEEvPS3_S7_S7_+0x3a>
    }
   b8762:	bdf8      	pop	{r3, r4, r5, r6, r7, pc}

000b8764 <_ZN5spark6VectorI6StringNS_16DefaultAllocatorEE4moveIS1_Li0EEEvPS1_S5_S5_>:
        if (dest > p && dest < end) {
   b8764:	4288      	cmp	r0, r1
    static void move(T* dest, T* p, T* end) {
   b8766:	b5f8      	push	{r3, r4, r5, r6, r7, lr}
   b8768:	4604      	mov	r4, r0
   b876a:	460d      	mov	r5, r1
   b876c:	4616      	mov	r6, r2
        if (dest > p && dest < end) {
   b876e:	d914      	bls.n	b879a <_ZN5spark6VectorI6StringNS_16DefaultAllocatorEE4moveIS1_Li0EEEvPS1_S5_S5_+0x36>
   b8770:	4290      	cmp	r0, r2
   b8772:	d213      	bcs.n	b879c <_ZN5spark6VectorI6StringNS_16DefaultAllocatorEE4moveIS1_Li0EEEvPS1_S5_S5_+0x38>
            --end;
   b8774:	f1a2 0610 	sub.w	r6, r2, #16
            dest += end - p - 1;
   b8778:	1a75      	subs	r5, r6, r1
   b877a:	f1a1 0710 	sub.w	r7, r1, #16
   b877e:	442c      	add	r4, r5
            for (; end != p; --end, --dest) {
   b8780:	42b7      	cmp	r7, r6
   b8782:	d018      	beq.n	b87b6 <_ZN5spark6VectorI6StringNS_16DefaultAllocatorEE4moveIS1_Li0EEEvPS1_S5_S5_+0x52>
                new(dest) T(std::move(*end));
   b8784:	b11c      	cbz	r4, b878e <_ZN5spark6VectorI6StringNS_16DefaultAllocatorEE4moveIS1_Li0EEEvPS1_S5_S5_+0x2a>
   b8786:	4631      	mov	r1, r6
   b8788:	4620      	mov	r0, r4
   b878a:	f7ff fa34 	bl	b7bf6 <_ZN6StringC1EOS_>
                end->~T();
   b878e:	4630      	mov	r0, r6
   b8790:	f7ff f9b4 	bl	b7afc <_ZN6StringD1Ev>
            for (; end != p; --end, --dest) {
   b8794:	3e10      	subs	r6, #16
   b8796:	3c10      	subs	r4, #16
   b8798:	e7f2      	b.n	b8780 <_ZN5spark6VectorI6StringNS_16DefaultAllocatorEE4moveIS1_Li0EEEvPS1_S5_S5_+0x1c>
        } else if (dest != p) {
   b879a:	d00c      	beq.n	b87b6 <_ZN5spark6VectorI6StringNS_16DefaultAllocatorEE4moveIS1_Li0EEEvPS1_S5_S5_+0x52>
            for (; p != end; ++p, ++dest) {
   b879c:	42b5      	cmp	r5, r6
   b879e:	d00a      	beq.n	b87b6 <_ZN5spark6VectorI6StringNS_16DefaultAllocatorEE4moveIS1_Li0EEEvPS1_S5_S5_+0x52>
                new(dest) T(std::move(*p));
   b87a0:	b11c      	cbz	r4, b87aa <_ZN5spark6VectorI6StringNS_16DefaultAllocatorEE4moveIS1_Li0EEEvPS1_S5_S5_+0x46>
   b87a2:	4629      	mov	r1, r5
   b87a4:	4620      	mov	r0, r4
   b87a6:	f7ff fa26 	bl	b7bf6 <_ZN6StringC1EOS_>
                p->~T();
   b87aa:	4628      	mov	r0, r5
   b87ac:	f7ff f9a6 	bl	b7afc <_ZN6StringD1Ev>
            for (; p != end; ++p, ++dest) {
   b87b0:	3510      	adds	r5, #16
   b87b2:	3410      	adds	r4, #16
   b87b4:	e7f2      	b.n	b879c <_ZN5spark6VectorI6StringNS_16DefaultAllocatorEE4moveIS1_Li0EEEvPS1_S5_S5_+0x38>
    }
   b87b6:	bdf8      	pop	{r3, r4, r5, r6, r7, pc}

000b87b8 <_ZN5spark6VectorI6StringNS_16DefaultAllocatorEE7reallocIS1_Li0EEEbi>:
    bool realloc(int n) {
   b87b8:	b570      	push	{r4, r5, r6, lr}
        if (n > 0) {
   b87ba:	1e0e      	subs	r6, r1, #0
    bool realloc(int n) {
   b87bc:	4605      	mov	r5, r0
        if (n > 0) {
   b87be:	dd11      	ble.n	b87e4 <_ZN5spark6VectorI6StringNS_16DefaultAllocatorEE7reallocIS1_Li0EEEbi+0x2c>
    return ::malloc(size);
   b87c0:	0130      	lsls	r0, r6, #4
   b87c2:	f7ff f83f 	bl	b7844 <malloc>
            if (!d) {
   b87c6:	4604      	mov	r4, r0
   b87c8:	b158      	cbz	r0, b87e2 <_ZN5spark6VectorI6StringNS_16DefaultAllocatorEE7reallocIS1_Li0EEEbi+0x2a>
            move(d, data_, data_ + size_);
   b87ca:	e9d5 1200 	ldrd	r1, r2, [r5]
   b87ce:	eb01 1202 	add.w	r2, r1, r2, lsl #4
   b87d2:	f7ff ffc7 	bl	b8764 <_ZN5spark6VectorI6StringNS_16DefaultAllocatorEE4moveIS1_Li0EEEvPS1_S5_S5_>
    ::free(ptr);
   b87d6:	6828      	ldr	r0, [r5, #0]
   b87d8:	f7ff f83c 	bl	b7854 <free>
        data_ = d;
   b87dc:	602c      	str	r4, [r5, #0]
        capacity_ = n;
   b87de:	60ae      	str	r6, [r5, #8]
        return true;
   b87e0:	2001      	movs	r0, #1
    }
   b87e2:	bd70      	pop	{r4, r5, r6, pc}
        T* d = nullptr;
   b87e4:	2400      	movs	r4, #0
   b87e6:	e7f6      	b.n	b87d6 <_ZN5spark6VectorI6StringNS_16DefaultAllocatorEE7reallocIS1_Li0EEEbi+0x1e>

000b87e8 <_ZN5spark6detail9LogFilterC1E8LogLevelNS_6VectorINS_17LogCategoryFilterENS_16DefaultAllocatorEEE>:
spark::detail::LogFilter::LogFilter(LogLevel level, LogCategoryFilters filters) :
   b87e8:	e92d 4ff0 	stmdb	sp!, {r4, r5, r6, r7, r8, r9, sl, fp, lr}
   b87ec:	4690      	mov	r8, r2
   b87ee:	b095      	sub	sp, #84	; 0x54
        capacity_(0) {
   b87f0:	2300      	movs	r3, #0
   b87f2:	9103      	str	r1, [sp, #12]
    return size_;
   b87f4:	f8d8 1004 	ldr.w	r1, [r8, #4]
        capacity_(0) {
   b87f8:	930a      	str	r3, [sp, #40]	; 0x28
        level_(LOG_LEVEL_NONE) { // Fallback level that will be used in case of construction errors
   b87fa:	2246      	movs	r2, #70	; 0x46
    if (n > capacity_ && !realloc(n)) {
   b87fc:	4299      	cmp	r1, r3
        capacity_(0) {
   b87fe:	e9c0 3300 	strd	r3, r3, [r0]
   b8802:	e9c0 3302 	strd	r3, r3, [r0, #8]
   b8806:	e9c0 3304 	strd	r3, r3, [r0, #16]
   b880a:	e9cd 3308 	strd	r3, r3, [sp, #32]
spark::detail::LogFilter::LogFilter(LogLevel level, LogCategoryFilters filters) :
   b880e:	4604      	mov	r4, r0
        level_(LOG_LEVEL_NONE) { // Fallback level that will be used in case of construction errors
   b8810:	7602      	strb	r2, [r0, #24]
    if (n > capacity_ && !realloc(n)) {
   b8812:	dc23      	bgt.n	b885c <_ZN5spark6detail9LogFilterC1E8LogLevelNS_6VectorINS_17LogCategoryFilterENS_16DefaultAllocatorEEE+0x74>
    return data_ + size_;
   b8814:	e9d8 5700 	ldrd	r5, r7, [r8]
   b8818:	2314      	movs	r3, #20
   b881a:	fb03 5707 	mla	r7, r3, r7, r5
    for (LogCategoryFilter &filter: filters) {
   b881e:	42af      	cmp	r7, r5
   b8820:	d03b      	beq.n	b889a <_ZN5spark6detail9LogFilterC1E8LogLevelNS_6VectorINS_17LogCategoryFilterENS_16DefaultAllocatorEEE+0xb2>
        cats.append(std::move(filter.cat_));
   b8822:	4629      	mov	r1, r5
   b8824:	a80b      	add	r0, sp, #44	; 0x2c
   b8826:	f7ff f9e6 	bl	b7bf6 <_ZN6StringC1EOS_>
    return insert(size_, std::move(value));
   b882a:	a90b      	add	r1, sp, #44	; 0x2c
   b882c:	a80f      	add	r0, sp, #60	; 0x3c
   b882e:	9e09      	ldr	r6, [sp, #36]	; 0x24
   b8830:	f7ff f9e1 	bl	b7bf6 <_ZN6StringC1EOS_>
    if (size_ + 1 > capacity_ && !realloc(size_ + 1)) {
   b8834:	e9dd 1309 	ldrd	r1, r3, [sp, #36]	; 0x24
   b8838:	4299      	cmp	r1, r3
   b883a:	da1b      	bge.n	b8874 <_ZN5spark6detail9LogFilterC1E8LogLevelNS_6VectorINS_17LogCategoryFilterENS_16DefaultAllocatorEEE+0x8c>
    T* const p = data_ + i;
   b883c:	9b08      	ldr	r3, [sp, #32]
    move(p + 1, p, data_ + size_);
   b883e:	9a09      	ldr	r2, [sp, #36]	; 0x24
    T* const p = data_ + i;
   b8840:	eb03 1606 	add.w	r6, r3, r6, lsl #4
    move(p + 1, p, data_ + size_);
   b8844:	eb03 1202 	add.w	r2, r3, r2, lsl #4
   b8848:	4631      	mov	r1, r6
   b884a:	f106 0010 	add.w	r0, r6, #16
   b884e:	f7ff ff89 	bl	b8764 <_ZN5spark6VectorI6StringNS_16DefaultAllocatorEE4moveIS1_Li0EEEvPS1_S5_S5_>
    new(p) T(std::move(value));
   b8852:	b9ee      	cbnz	r6, b8890 <_ZN5spark6detail9LogFilterC1E8LogLevelNS_6VectorINS_17LogCategoryFilterENS_16DefaultAllocatorEEE+0xa8>
    ++size_;
   b8854:	9b09      	ldr	r3, [sp, #36]	; 0x24
   b8856:	3301      	adds	r3, #1
   b8858:	9309      	str	r3, [sp, #36]	; 0x24
    return true;
   b885a:	e011      	b.n	b8880 <_ZN5spark6detail9LogFilterC1E8LogLevelNS_6VectorINS_17LogCategoryFilterENS_16DefaultAllocatorEEE+0x98>
    if (n > capacity_ && !realloc(n)) {
   b885c:	a808      	add	r0, sp, #32
   b885e:	f7ff ffab 	bl	b87b8 <_ZN5spark6VectorI6StringNS_16DefaultAllocatorEE7reallocIS1_Li0EEEbi>
   b8862:	2800      	cmp	r0, #0
   b8864:	d1d6      	bne.n	b8814 <_ZN5spark6detail9LogFilterC1E8LogLevelNS_6VectorINS_17LogCategoryFilterENS_16DefaultAllocatorEEE+0x2c>
        return;
   b8866:	a808      	add	r0, sp, #32
   b8868:	f7ff fa80 	bl	b7d6c <_ZN5spark6VectorI6StringNS_16DefaultAllocatorEED1Ev>
}
   b886c:	4620      	mov	r0, r4
   b886e:	b015      	add	sp, #84	; 0x54
   b8870:	e8bd 8ff0 	ldmia.w	sp!, {r4, r5, r6, r7, r8, r9, sl, fp, pc}
    if (size_ + 1 > capacity_ && !realloc(size_ + 1)) {
   b8874:	3101      	adds	r1, #1
   b8876:	a808      	add	r0, sp, #32
   b8878:	f7ff ff9e 	bl	b87b8 <_ZN5spark6VectorI6StringNS_16DefaultAllocatorEE7reallocIS1_Li0EEEbi>
   b887c:	2800      	cmp	r0, #0
   b887e:	d1dd      	bne.n	b883c <_ZN5spark6detail9LogFilterC1E8LogLevelNS_6VectorINS_17LogCategoryFilterENS_16DefaultAllocatorEEE+0x54>
    return insert(size_, std::move(value));
   b8880:	a80f      	add	r0, sp, #60	; 0x3c
   b8882:	f7ff f93b 	bl	b7afc <_ZN6StringD1Ev>
        cats.append(std::move(filter.cat_));
   b8886:	a80b      	add	r0, sp, #44	; 0x2c
   b8888:	f7ff f938 	bl	b7afc <_ZN6StringD1Ev>
    for (LogCategoryFilter &filter: filters) {
   b888c:	3514      	adds	r5, #20
   b888e:	e7c6      	b.n	b881e <_ZN5spark6detail9LogFilterC1E8LogLevelNS_6VectorINS_17LogCategoryFilterENS_16DefaultAllocatorEEE+0x36>
    new(p) T(std::move(value));
   b8890:	a90f      	add	r1, sp, #60	; 0x3c
   b8892:	4630      	mov	r0, r6
   b8894:	f7ff f9af 	bl	b7bf6 <_ZN6StringC1EOS_>
   b8898:	e7dc      	b.n	b8854 <_ZN5spark6detail9LogFilterC1E8LogLevelNS_6VectorINS_17LogCategoryFilterENS_16DefaultAllocatorEEE+0x6c>
        capacity_(0) {
   b889a:	2600      	movs	r6, #0
   b889c:	e9cd 660b 	strd	r6, r6, [sp, #44]	; 0x2c
   b88a0:	960d      	str	r6, [sp, #52]	; 0x34
    for (int i = 0; i < cats.size(); ++i) {
   b88a2:	f04f 0914 	mov.w	r9, #20
    return data_[i];
   b88a6:	e9dd 2308 	ldrd	r2, r3, [sp, #32]
   b88aa:	429e      	cmp	r6, r3
   b88ac:	da7c      	bge.n	b89a8 <_ZN5spark6detail9LogFilterC1E8LogLevelNS_6VectorINS_17LogCategoryFilterENS_16DefaultAllocatorEEE+0x1c0>
    char operator [] (unsigned int index) const;
    char& operator [] (unsigned int index);
    void getBytes(unsigned char *buf, unsigned int bufsize, unsigned int index=0) const;
    void toCharArray(char *buf, unsigned int bufsize, unsigned int index=0) const
        {getBytes((unsigned char *)buf, bufsize, index);}
    const char * c_str() const { return buffer; }
   b88ae:	0133      	lsls	r3, r6, #4
   b88b0:	58d3      	ldr	r3, [r2, r3]
        const char *category = cats.at(i).c_str();
   b88b2:	9306      	str	r3, [sp, #24]
        if (!category) {
   b88b4:	b90b      	cbnz	r3, b88ba <_ZN5spark6detail9LogFilterC1E8LogLevelNS_6VectorINS_17LogCategoryFilterENS_16DefaultAllocatorEEE+0xd2>
    for (int i = 0; i < cats.size(); ++i) {
   b88b6:	3601      	adds	r6, #1
   b88b8:	e7f5      	b.n	b88a6 <_ZN5spark6detail9LogFilterC1E8LogLevelNS_6VectorINS_17LogCategoryFilterENS_16DefaultAllocatorEEE+0xbe>
        size_t size = 0; // Name length
   b88ba:	2300      	movs	r3, #0
   b88bc:	9307      	str	r3, [sp, #28]
   b88be:	fb09 f306 	mul.w	r3, r9, r6
   b88c2:	9302      	str	r3, [sp, #8]
        Vector<Node> *pNodes = &nodes; // Root nodes
   b88c4:	ad0b      	add	r5, sp, #44	; 0x2c
        while ((name = nextSubcategoryName(category, size))) {
   b88c6:	a907      	add	r1, sp, #28
   b88c8:	a806      	add	r0, sp, #24
   b88ca:	f7ff fb0a 	bl	b7ee2 <_ZN12_GLOBAL__N_119nextSubcategoryNameERPKcRj>
   b88ce:	4682      	mov	sl, r0
   b88d0:	2800      	cmp	r0, #0
   b88d2:	d0f0      	beq.n	b88b6 <_ZN5spark6detail9LogFilterC1E8LogLevelNS_6VectorINS_17LogCategoryFilterENS_16DefaultAllocatorEEE+0xce>
            bool found = false;
   b88d4:	f04f 0300 	mov.w	r3, #0
   b88d8:	f88d 3017 	strb.w	r3, [sp, #23]
            const int index = nodeIndex(*pNodes, name, size, found);
   b88dc:	4601      	mov	r1, r0
   b88de:	9a07      	ldr	r2, [sp, #28]
   b88e0:	f10d 0317 	add.w	r3, sp, #23
   b88e4:	4628      	mov	r0, r5
   b88e6:	f7ff fb67 	bl	b7fb8 <_ZN5spark6detail9LogFilter9nodeIndexERKNS_6VectorINS1_4NodeENS_16DefaultAllocatorEEEPKcjRb>
            if (!found && !pNodes->insert(index, Node(name, size))) { // Add node
   b88ea:	f89d 7017 	ldrb.w	r7, [sp, #23]
            const int index = nodeIndex(*pNodes, name, size, found);
   b88ee:	9001      	str	r0, [sp, #4]
            if (!found && !pNodes->insert(index, Node(name, size))) { // Add node
   b88f0:	2f00      	cmp	r7, #0
   b88f2:	d14a      	bne.n	b898a <_ZN5spark6detail9LogFilterC1E8LogLevelNS_6VectorINS_17LogCategoryFilterENS_16DefaultAllocatorEEE+0x1a2>
   b88f4:	f8bd 301c 	ldrh.w	r3, [sp, #28]
            level(-1) {
   b88f8:	f8ad 3040 	strh.w	r3, [sp, #64]	; 0x40
        capacity_(0) {
   b88fc:	e9cd 7711 	strd	r7, r7, [sp, #68]	; 0x44
   b8900:	f64f 73ff 	movw	r3, #65535	; 0xffff
   b8904:	f8cd a03c 	str.w	sl, [sp, #60]	; 0x3c
   b8908:	f8ad 3042 	strh.w	r3, [sp, #66]	; 0x42
   b890c:	9713      	str	r7, [sp, #76]	; 0x4c
    if (size_ + 1 > capacity_ && !realloc(size_ + 1)) {
   b890e:	e9d5 3201 	ldrd	r3, r2, [r5, #4]
   b8912:	4293      	cmp	r3, r2
   b8914:	db17      	blt.n	b8946 <_ZN5spark6detail9LogFilterC1E8LogLevelNS_6VectorINS_17LogCategoryFilterENS_16DefaultAllocatorEEE+0x15e>
   b8916:	f103 0a01 	add.w	sl, r3, #1
        if (n > 0) {
   b891a:	f1ba 0f00 	cmp.w	sl, #0
   b891e:	dd30      	ble.n	b8982 <_ZN5spark6detail9LogFilterC1E8LogLevelNS_6VectorINS_17LogCategoryFilterENS_16DefaultAllocatorEEE+0x19a>
    return ::malloc(size);
   b8920:	fb09 f00a 	mul.w	r0, r9, sl
   b8924:	f7fe ff8e 	bl	b7844 <malloc>
            if (!d) {
   b8928:	4683      	mov	fp, r0
   b892a:	b360      	cbz	r0, b8986 <_ZN5spark6detail9LogFilterC1E8LogLevelNS_6VectorINS_17LogCategoryFilterENS_16DefaultAllocatorEEE+0x19e>
            move(d, data_, data_ + size_);
   b892c:	e9d5 1200 	ldrd	r1, r2, [r5]
   b8930:	fb09 1202 	mla	r2, r9, r2, r1
   b8934:	f7ff feea 	bl	b870c <_ZN5spark6VectorINS_6detail9LogFilter4NodeENS_16DefaultAllocatorEE4moveIS3_Li0EEEvPS3_S7_S7_>
    ::free(ptr);
   b8938:	6828      	ldr	r0, [r5, #0]
   b893a:	f7fe ff8b 	bl	b7854 <free>
        data_ = d;
   b893e:	f8c5 b000 	str.w	fp, [r5]
        capacity_ = n;
   b8942:	f8c5 a008 	str.w	sl, [r5, #8]
    T* const p = data_ + i;
   b8946:	682b      	ldr	r3, [r5, #0]
   b8948:	9a01      	ldr	r2, [sp, #4]
   b894a:	fb09 3a02 	mla	sl, r9, r2, r3
    move(p + 1, p, data_ + size_);
   b894e:	686a      	ldr	r2, [r5, #4]
   b8950:	4651      	mov	r1, sl
   b8952:	fb09 3202 	mla	r2, r9, r2, r3
   b8956:	f10a 0014 	add.w	r0, sl, #20
   b895a:	f7ff fed7 	bl	b870c <_ZN5spark6VectorINS_6detail9LogFilter4NodeENS_16DefaultAllocatorEE4moveIS3_Li0EEEvPS3_S7_S7_>
    new(p) T(std::move(value));
   b895e:	f1ba 0f00 	cmp.w	sl, #0
   b8962:	d003      	beq.n	b896c <_ZN5spark6detail9LogFilterC1E8LogLevelNS_6VectorINS_17LogCategoryFilterENS_16DefaultAllocatorEEE+0x184>
   b8964:	a90f      	add	r1, sp, #60	; 0x3c
   b8966:	4650      	mov	r0, sl
   b8968:	f7ff fd18 	bl	b839c <_ZN5spark6detail9LogFilter4NodeC1EOS2_>
    ++size_;
   b896c:	686b      	ldr	r3, [r5, #4]
   b896e:	3301      	adds	r3, #1
   b8970:	606b      	str	r3, [r5, #4]
struct spark::detail::LogFilter::Node {
   b8972:	a811      	add	r0, sp, #68	; 0x44
   b8974:	f7ff fcca 	bl	b830c <_ZN5spark6VectorINS_6detail9LogFilter4NodeENS_16DefaultAllocatorEED1Ev>
            if (!found && !pNodes->insert(index, Node(name, size))) { // Add node
   b8978:	b13f      	cbz	r7, b898a <_ZN5spark6detail9LogFilterC1E8LogLevelNS_6VectorINS_17LogCategoryFilterENS_16DefaultAllocatorEEE+0x1a2>
    Vector<Node> nodes;
   b897a:	a80b      	add	r0, sp, #44	; 0x2c
   b897c:	f7ff fcc6 	bl	b830c <_ZN5spark6VectorINS_6detail9LogFilter4NodeENS_16DefaultAllocatorEED1Ev>
   b8980:	e771      	b.n	b8866 <_ZN5spark6detail9LogFilterC1E8LogLevelNS_6VectorINS_17LogCategoryFilterENS_16DefaultAllocatorEEE+0x7e>
        T* d = nullptr;
   b8982:	46bb      	mov	fp, r7
   b8984:	e7d8      	b.n	b8938 <_ZN5spark6detail9LogFilterC1E8LogLevelNS_6VectorINS_17LogCategoryFilterENS_16DefaultAllocatorEEE+0x150>
            if (!found && !pNodes->insert(index, Node(name, size))) { // Add node
   b8986:	2701      	movs	r7, #1
   b8988:	e7f3      	b.n	b8972 <_ZN5spark6detail9LogFilterC1E8LogLevelNS_6VectorINS_17LogCategoryFilterENS_16DefaultAllocatorEEE+0x18a>
    return data_[i];
   b898a:	9b01      	ldr	r3, [sp, #4]
   b898c:	682d      	ldr	r5, [r5, #0]
   b898e:	fb09 5503 	mla	r5, r9, r3, r5
            if (!*category) { // Check if it's last subcategory
   b8992:	9b06      	ldr	r3, [sp, #24]
   b8994:	781b      	ldrb	r3, [r3, #0]
   b8996:	b92b      	cbnz	r3, b89a4 <_ZN5spark6detail9LogFilterC1E8LogLevelNS_6VectorINS_17LogCategoryFilterENS_16DefaultAllocatorEEE+0x1bc>
                node.level = filters.at(i).level_;
   b8998:	f8d8 3000 	ldr.w	r3, [r8]
   b899c:	9a02      	ldr	r2, [sp, #8]
   b899e:	4413      	add	r3, r2
   b89a0:	7c1b      	ldrb	r3, [r3, #16]
   b89a2:	80eb      	strh	r3, [r5, #6]
            pNodes = &node.nodes;
   b89a4:	3508      	adds	r5, #8
        while ((name = nextSubcategoryName(category, size))) {
   b89a6:	e78e      	b.n	b88c6 <_ZN5spark6detail9LogFilterC1E8LogLevelNS_6VectorINS_17LogCategoryFilterENS_16DefaultAllocatorEEE+0xde>
      _Tp __tmp = _GLIBCXX_MOVE(__a);
   b89a8:	6821      	ldr	r1, [r4, #0]
      __a = _GLIBCXX_MOVE(__b);
   b89aa:	6022      	str	r2, [r4, #0]
      _Tp __tmp = _GLIBCXX_MOVE(__a);
   b89ac:	6862      	ldr	r2, [r4, #4]
      __a = _GLIBCXX_MOVE(__b);
   b89ae:	6063      	str	r3, [r4, #4]
      _Tp __tmp = _GLIBCXX_MOVE(__a);
   b89b0:	68a3      	ldr	r3, [r4, #8]
      __b = _GLIBCXX_MOVE(__tmp);
   b89b2:	9209      	str	r2, [sp, #36]	; 0x24
      __a = _GLIBCXX_MOVE(__b);
   b89b4:	9a0a      	ldr	r2, [sp, #40]	; 0x28
      __b = _GLIBCXX_MOVE(__tmp);
   b89b6:	930a      	str	r3, [sp, #40]	; 0x28
      _Tp __tmp = _GLIBCXX_MOVE(__a);
   b89b8:	68e3      	ldr	r3, [r4, #12]
      __a = _GLIBCXX_MOVE(__b);
   b89ba:	60a2      	str	r2, [r4, #8]
   b89bc:	9a0b      	ldr	r2, [sp, #44]	; 0x2c
      __b = _GLIBCXX_MOVE(__tmp);
   b89be:	930b      	str	r3, [sp, #44]	; 0x2c
      _Tp __tmp = _GLIBCXX_MOVE(__a);
   b89c0:	6923      	ldr	r3, [r4, #16]
      __a = _GLIBCXX_MOVE(__b);
   b89c2:	60e2      	str	r2, [r4, #12]
   b89c4:	9a0c      	ldr	r2, [sp, #48]	; 0x30
      __b = _GLIBCXX_MOVE(__tmp);
   b89c6:	930c      	str	r3, [sp, #48]	; 0x30
      _Tp __tmp = _GLIBCXX_MOVE(__a);
   b89c8:	6963      	ldr	r3, [r4, #20]
      __a = _GLIBCXX_MOVE(__b);
   b89ca:	6122      	str	r2, [r4, #16]
   b89cc:	9a0d      	ldr	r2, [sp, #52]	; 0x34
      __b = _GLIBCXX_MOVE(__tmp);
   b89ce:	930d      	str	r3, [sp, #52]	; 0x34
    level_ = level;
   b89d0:	9b03      	ldr	r3, [sp, #12]
   b89d2:	9108      	str	r1, [sp, #32]
      __a = _GLIBCXX_MOVE(__b);
   b89d4:	6162      	str	r2, [r4, #20]
   b89d6:	7623      	strb	r3, [r4, #24]
   b89d8:	e7cf      	b.n	b897a <_ZN5spark6detail9LogFilterC1E8LogLevelNS_6VectorINS_17LogCategoryFilterENS_16DefaultAllocatorEEE+0x192>
	...

000b89dc <_ZN5spark16StreamLogHandlerC1ER5Print8LogLevelNS_6VectorINS_17LogCategoryFilterENS_16DefaultAllocatorEEE>:
inline spark::StreamLogHandler::StreamLogHandler(Print &stream, LogLevel level, LogCategoryFilters filters) :
   b89dc:	b5f0      	push	{r4, r5, r6, r7, lr}
   b89de:	4604      	mov	r4, r0
   b89e0:	b087      	sub	sp, #28
   b89e2:	460d      	mov	r5, r1
        filter_(level, filters) {
   b89e4:	4626      	mov	r6, r4
        stream_(&stream) {
   b89e6:	4619      	mov	r1, r3
   b89e8:	4668      	mov	r0, sp
inline spark::StreamLogHandler::StreamLogHandler(Print &stream, LogLevel level, LogCategoryFilters filters) :
   b89ea:	4617      	mov	r7, r2
        stream_(&stream) {
   b89ec:	f7fd fff0 	bl	b69d0 <_ZN5spark6VectorINS_17LogCategoryFilterENS_16DefaultAllocatorEEC1ERKS3_>
        filter_(level, filters) {
   b89f0:	4b0b      	ldr	r3, [pc, #44]	; (b8a20 <_ZN5spark16StreamLogHandlerC1ER5Print8LogLevelNS_6VectorINS_17LogCategoryFilterENS_16DefaultAllocatorEEE+0x44>)
   b89f2:	f846 3b04 	str.w	r3, [r6], #4
   b89f6:	4669      	mov	r1, sp
   b89f8:	a803      	add	r0, sp, #12
   b89fa:	f7fd ffe9 	bl	b69d0 <_ZN5spark6VectorINS_17LogCategoryFilterENS_16DefaultAllocatorEEC1ERKS3_>
   b89fe:	aa03      	add	r2, sp, #12
   b8a00:	4639      	mov	r1, r7
   b8a02:	4630      	mov	r0, r6
   b8a04:	f7ff fef0 	bl	b87e8 <_ZN5spark6detail9LogFilterC1E8LogLevelNS_6VectorINS_17LogCategoryFilterENS_16DefaultAllocatorEEE>
   b8a08:	a803      	add	r0, sp, #12
   b8a0a:	f7fd fc75 	bl	b62f8 <_ZN5spark6VectorINS_17LogCategoryFilterENS_16DefaultAllocatorEED1Ev>
        stream_(&stream) {
   b8a0e:	4668      	mov	r0, sp
   b8a10:	f7fd fc72 	bl	b62f8 <_ZN5spark6VectorINS_17LogCategoryFilterENS_16DefaultAllocatorEED1Ev>
   b8a14:	4b03      	ldr	r3, [pc, #12]	; (b8a24 <_ZN5spark16StreamLogHandlerC1ER5Print8LogLevelNS_6VectorINS_17LogCategoryFilterENS_16DefaultAllocatorEEE+0x48>)
   b8a16:	6023      	str	r3, [r4, #0]
}
   b8a18:	4620      	mov	r0, r4
        stream_(&stream) {
   b8a1a:	6225      	str	r5, [r4, #32]
}
   b8a1c:	b007      	add	sp, #28
   b8a1e:	bdf0      	pop	{r4, r5, r6, r7, pc}
   b8a20:	000bccb4 	.word	0x000bccb4
   b8a24:	000bce68 	.word	0x000bce68

000b8a28 <_ZN5spark24DefaultLogHandlerFactory13createHandlerEPKc8LogLevelNS_6VectorINS_17LogCategoryFilterENS_16DefaultAllocatorEEEP5PrintRKNS_9JSONValueE>:
            Print *stream, const JSONValue &params) {
   b8a28:	b5f0      	push	{r4, r5, r6, r7, lr}
   b8a2a:	460f      	mov	r7, r1
   b8a2c:	b085      	sub	sp, #20
    if (strcmp(type, "JSONStreamLogHandler") == 0) {
   b8a2e:	491d      	ldr	r1, [pc, #116]	; (b8aa4 <_ZN5spark24DefaultLogHandlerFactory13createHandlerEPKc8LogLevelNS_6VectorINS_17LogCategoryFilterENS_16DefaultAllocatorEEEP5PrintRKNS_9JSONValueE+0x7c>)
            Print *stream, const JSONValue &params) {
   b8a30:	9c0a      	ldr	r4, [sp, #40]	; 0x28
    if (strcmp(type, "JSONStreamLogHandler") == 0) {
   b8a32:	4638      	mov	r0, r7
            Print *stream, const JSONValue &params) {
   b8a34:	4616      	mov	r6, r2
   b8a36:	461d      	mov	r5, r3
    if (strcmp(type, "JSONStreamLogHandler") == 0) {
   b8a38:	f7fc f98c 	bl	b4d54 <strcmp>
   b8a3c:	b9c0      	cbnz	r0, b8a70 <_ZN5spark24DefaultLogHandlerFactory13createHandlerEPKc8LogLevelNS_6VectorINS_17LogCategoryFilterENS_16DefaultAllocatorEEEP5PrintRKNS_9JSONValueE+0x48>
        if (!stream) {
   b8a3e:	b1a4      	cbz	r4, b8a6a <_ZN5spark24DefaultLogHandlerFactory13createHandlerEPKc8LogLevelNS_6VectorINS_17LogCategoryFilterENS_16DefaultAllocatorEEEP5PrintRKNS_9JSONValueE+0x42>
        return new(std::nothrow) JSONStreamLogHandler(*stream, level, std::move(filters));
   b8a40:	4629      	mov	r1, r5
   b8a42:	a801      	add	r0, sp, #4
   b8a44:	f7ff fcbd 	bl	b83c2 <_ZN5spark6VectorINS_17LogCategoryFilterENS_16DefaultAllocatorEEC1EOS3_>
   b8a48:	4917      	ldr	r1, [pc, #92]	; (b8aa8 <_ZN5spark24DefaultLogHandlerFactory13createHandlerEPKc8LogLevelNS_6VectorINS_17LogCategoryFilterENS_16DefaultAllocatorEEEP5PrintRKNS_9JSONValueE+0x80>)
   b8a4a:	2024      	movs	r0, #36	; 0x24
   b8a4c:	f001 fd4e 	bl	ba4ec <_ZnwjRKSt9nothrow_t>
   b8a50:	4605      	mov	r5, r0
   b8a52:	b130      	cbz	r0, b8a62 <_ZN5spark24DefaultLogHandlerFactory13createHandlerEPKc8LogLevelNS_6VectorINS_17LogCategoryFilterENS_16DefaultAllocatorEEEP5PrintRKNS_9JSONValueE+0x3a>
    using StreamLogHandler::StreamLogHandler;
   b8a54:	ab01      	add	r3, sp, #4
   b8a56:	4632      	mov	r2, r6
   b8a58:	4621      	mov	r1, r4
   b8a5a:	f7ff ffbf 	bl	b89dc <_ZN5spark16StreamLogHandlerC1ER5Print8LogLevelNS_6VectorINS_17LogCategoryFilterENS_16DefaultAllocatorEEE>
   b8a5e:	4b13      	ldr	r3, [pc, #76]	; (b8aac <_ZN5spark24DefaultLogHandlerFactory13createHandlerEPKc8LogLevelNS_6VectorINS_17LogCategoryFilterENS_16DefaultAllocatorEEEP5PrintRKNS_9JSONValueE+0x84>)
   b8a60:	602b      	str	r3, [r5, #0]
        return new(std::nothrow) StreamLogHandler(*stream, level, std::move(filters));
   b8a62:	a801      	add	r0, sp, #4
   b8a64:	f7fd fc48 	bl	b62f8 <_ZN5spark6VectorINS_17LogCategoryFilterENS_16DefaultAllocatorEED1Ev>
   b8a68:	462c      	mov	r4, r5
}
   b8a6a:	4620      	mov	r0, r4
   b8a6c:	b005      	add	sp, #20
   b8a6e:	bdf0      	pop	{r4, r5, r6, r7, pc}
    } else if (strcmp(type, "StreamLogHandler") == 0) {
   b8a70:	490f      	ldr	r1, [pc, #60]	; (b8ab0 <_ZN5spark24DefaultLogHandlerFactory13createHandlerEPKc8LogLevelNS_6VectorINS_17LogCategoryFilterENS_16DefaultAllocatorEEEP5PrintRKNS_9JSONValueE+0x88>)
   b8a72:	4638      	mov	r0, r7
   b8a74:	f7fc f96e 	bl	b4d54 <strcmp>
   b8a78:	b990      	cbnz	r0, b8aa0 <_ZN5spark24DefaultLogHandlerFactory13createHandlerEPKc8LogLevelNS_6VectorINS_17LogCategoryFilterENS_16DefaultAllocatorEEEP5PrintRKNS_9JSONValueE+0x78>
        if (!stream) {
   b8a7a:	2c00      	cmp	r4, #0
   b8a7c:	d0f5      	beq.n	b8a6a <_ZN5spark24DefaultLogHandlerFactory13createHandlerEPKc8LogLevelNS_6VectorINS_17LogCategoryFilterENS_16DefaultAllocatorEEEP5PrintRKNS_9JSONValueE+0x42>
        return new(std::nothrow) StreamLogHandler(*stream, level, std::move(filters));
   b8a7e:	4629      	mov	r1, r5
   b8a80:	a801      	add	r0, sp, #4
   b8a82:	f7ff fc9e 	bl	b83c2 <_ZN5spark6VectorINS_17LogCategoryFilterENS_16DefaultAllocatorEEC1EOS3_>
   b8a86:	4908      	ldr	r1, [pc, #32]	; (b8aa8 <_ZN5spark24DefaultLogHandlerFactory13createHandlerEPKc8LogLevelNS_6VectorINS_17LogCategoryFilterENS_16DefaultAllocatorEEEP5PrintRKNS_9JSONValueE+0x80>)
   b8a88:	2024      	movs	r0, #36	; 0x24
   b8a8a:	f001 fd2f 	bl	ba4ec <_ZnwjRKSt9nothrow_t>
   b8a8e:	4605      	mov	r5, r0
   b8a90:	2800      	cmp	r0, #0
   b8a92:	d0e6      	beq.n	b8a62 <_ZN5spark24DefaultLogHandlerFactory13createHandlerEPKc8LogLevelNS_6VectorINS_17LogCategoryFilterENS_16DefaultAllocatorEEEP5PrintRKNS_9JSONValueE+0x3a>
   b8a94:	ab01      	add	r3, sp, #4
   b8a96:	4632      	mov	r2, r6
   b8a98:	4621      	mov	r1, r4
   b8a9a:	f7ff ff9f 	bl	b89dc <_ZN5spark16StreamLogHandlerC1ER5Print8LogLevelNS_6VectorINS_17LogCategoryFilterENS_16DefaultAllocatorEEE>
   b8a9e:	e7e0      	b.n	b8a62 <_ZN5spark24DefaultLogHandlerFactory13createHandlerEPKc8LogLevelNS_6VectorINS_17LogCategoryFilterENS_16DefaultAllocatorEEEP5PrintRKNS_9JSONValueE+0x3a>
            return nullptr; // Output stream is not specified
   b8aa0:	2400      	movs	r4, #0
   b8aa2:	e7e2      	b.n	b8a6a <_ZN5spark24DefaultLogHandlerFactory13createHandlerEPKc8LogLevelNS_6VectorINS_17LogCategoryFilterENS_16DefaultAllocatorEEEP5PrintRKNS_9JSONValueE+0x42>
   b8aa4:	000bce04 	.word	0x000bce04
   b8aa8:	000bd060 	.word	0x000bd060
   b8aac:	000bce80 	.word	0x000bce80
   b8ab0:	000bce08 	.word	0x000bce08

000b8ab4 <_GLOBAL__sub_I__ZN5spark3LogE>:
        name_(name) {
   b8ab4:	4b01      	ldr	r3, [pc, #4]	; (b8abc <_GLOBAL__sub_I__ZN5spark3LogE+0x8>)
   b8ab6:	4a02      	ldr	r2, [pc, #8]	; (b8ac0 <_GLOBAL__sub_I__ZN5spark3LogE+0xc>)
   b8ab8:	601a      	str	r2, [r3, #0]
#if Wiring_LogConfig

// spark::
void spark::logProcessControlRequest(ctrl_request* req) {
    JSONRequestHandler::process(req);
}
   b8aba:	4770      	bx	lr
   b8abc:	2003e658 	.word	0x2003e658
   b8ac0:	000bce19 	.word	0x000bce19

000b8ac4 <_ZN5spark16StreamLogHandler10logMessageEPKc8LogLevelS2_RK13LogAttributes>:
void spark::StreamLogHandler::logMessage(const char *msg, LogLevel level, const char *category, const LogAttributes &attr) {
   b8ac4:	e92d 47f0 	stmdb	sp!, {r4, r5, r6, r7, r8, r9, sl, lr}
   b8ac8:	9d08      	ldr	r5, [sp, #32]
    if (stream_ == &Serial && Network.listening()) {
   b8aca:	f8d0 9020 	ldr.w	r9, [r0, #32]
void spark::StreamLogHandler::logMessage(const char *msg, LogLevel level, const char *category, const LogAttributes &attr) {
   b8ace:	4604      	mov	r4, r0
   b8ad0:	460e      	mov	r6, r1
   b8ad2:	4617      	mov	r7, r2
   b8ad4:	4698      	mov	r8, r3
    if (stream_ == &Serial && Network.listening()) {
   b8ad6:	f000 ff2f 	bl	b9938 <_Z16_fetch_usbserialv>
   b8ada:	4581      	cmp	r9, r0
   b8adc:	d04c      	beq.n	b8b78 <_ZN5spark16StreamLogHandler10logMessageEPKc8LogLevelS2_RK13LogAttributes+0xb4>
    if (attr.has_time) {
   b8ade:	792b      	ldrb	r3, [r5, #4]
   b8ae0:	0719      	lsls	r1, r3, #28
   b8ae2:	d504      	bpl.n	b8aee <_ZN5spark16StreamLogHandler10logMessageEPKc8LogLevelS2_RK13LogAttributes+0x2a>
        printf("%010u ", (unsigned)attr.time);
   b8ae4:	696a      	ldr	r2, [r5, #20]
   b8ae6:	4954      	ldr	r1, [pc, #336]	; (b8c38 <_ZN5spark16StreamLogHandler10logMessageEPKc8LogLevelS2_RK13LogAttributes+0x174>)
   b8ae8:	4620      	mov	r0, r4
   b8aea:	f7ff faca 	bl	b8082 <_ZN5spark16StreamLogHandler6printfEPKcz>
    if (category) {
   b8aee:	f1b8 0f00 	cmp.w	r8, #0
   b8af2:	d00d      	beq.n	b8b10 <_ZN5spark16StreamLogHandler10logMessageEPKc8LogLevelS2_RK13LogAttributes+0x4c>
        write('[');
   b8af4:	215b      	movs	r1, #91	; 0x5b
   b8af6:	4620      	mov	r0, r4
   b8af8:	f7ff fa52 	bl	b7fa0 <_ZN5spark16StreamLogHandler5writeEc>
        write(category);
   b8afc:	4641      	mov	r1, r8
   b8afe:	4620      	mov	r0, r4
   b8b00:	f7ff fa3f 	bl	b7f82 <_ZN5spark16StreamLogHandler5writeEPKc>
        write("] ", 2);
   b8b04:	6823      	ldr	r3, [r4, #0]
   b8b06:	494d      	ldr	r1, [pc, #308]	; (b8c3c <_ZN5spark16StreamLogHandler10logMessageEPKc8LogLevelS2_RK13LogAttributes+0x178>)
   b8b08:	68db      	ldr	r3, [r3, #12]
   b8b0a:	2202      	movs	r2, #2
   b8b0c:	4620      	mov	r0, r4
   b8b0e:	4798      	blx	r3
    if (attr.has_file) {
   b8b10:	792b      	ldrb	r3, [r5, #4]
   b8b12:	07da      	lsls	r2, r3, #31
   b8b14:	d523      	bpl.n	b8b5e <_ZN5spark16StreamLogHandler10logMessageEPKc8LogLevelS2_RK13LogAttributes+0x9a>
        s = extractFileName(attr.file); // Strip directory path
   b8b16:	f8d5 8008 	ldr.w	r8, [r5, #8]
    const char *s1 = strrchr(s, '/');
   b8b1a:	212f      	movs	r1, #47	; 0x2f
   b8b1c:	4640      	mov	r0, r8
   b8b1e:	f001 fe2c 	bl	ba77a <strrchr>
    if (s1) {
   b8b22:	b108      	cbz	r0, b8b28 <_ZN5spark16StreamLogHandler10logMessageEPKc8LogLevelS2_RK13LogAttributes+0x64>
        return s1 + 1;
   b8b24:	f100 0801 	add.w	r8, r0, #1
        write(s); // File name
   b8b28:	4641      	mov	r1, r8
   b8b2a:	4620      	mov	r0, r4
   b8b2c:	f7ff fa29 	bl	b7f82 <_ZN5spark16StreamLogHandler5writeEPKc>
        if (attr.has_line) {
   b8b30:	792b      	ldrb	r3, [r5, #4]
   b8b32:	079b      	lsls	r3, r3, #30
   b8b34:	d508      	bpl.n	b8b48 <_ZN5spark16StreamLogHandler10logMessageEPKc8LogLevelS2_RK13LogAttributes+0x84>
            write(':');
   b8b36:	213a      	movs	r1, #58	; 0x3a
   b8b38:	4620      	mov	r0, r4
   b8b3a:	f7ff fa31 	bl	b7fa0 <_ZN5spark16StreamLogHandler5writeEc>
            printf("%d", (int)attr.line); // Line number
   b8b3e:	68ea      	ldr	r2, [r5, #12]
   b8b40:	493f      	ldr	r1, [pc, #252]	; (b8c40 <_ZN5spark16StreamLogHandler10logMessageEPKc8LogLevelS2_RK13LogAttributes+0x17c>)
   b8b42:	4620      	mov	r0, r4
   b8b44:	f7ff fa9d 	bl	b8082 <_ZN5spark16StreamLogHandler6printfEPKcz>
        if (attr.has_function) {
   b8b48:	792a      	ldrb	r2, [r5, #4]
            write(", ", 2);
   b8b4a:	6823      	ldr	r3, [r4, #0]
        if (attr.has_function) {
   b8b4c:	f012 0f04 	tst.w	r2, #4
            write(", ", 2);
   b8b50:	68db      	ldr	r3, [r3, #12]
   b8b52:	bf14      	ite	ne
   b8b54:	493b      	ldrne	r1, [pc, #236]	; (b8c44 <_ZN5spark16StreamLogHandler10logMessageEPKc8LogLevelS2_RK13LogAttributes+0x180>)
            write(": ", 2);
   b8b56:	493c      	ldreq	r1, [pc, #240]	; (b8c48 <_ZN5spark16StreamLogHandler10logMessageEPKc8LogLevelS2_RK13LogAttributes+0x184>)
            write(", ", 2);
   b8b58:	2202      	movs	r2, #2
            write(": ", 2);
   b8b5a:	4620      	mov	r0, r4
   b8b5c:	4798      	blx	r3
    if (attr.has_function) {
   b8b5e:	792b      	ldrb	r3, [r5, #4]
   b8b60:	0758      	lsls	r0, r3, #29
   b8b62:	d51d      	bpl.n	b8ba0 <_ZN5spark16StreamLogHandler10logMessageEPKc8LogLevelS2_RK13LogAttributes+0xdc>
        s = extractFuncName(attr.function, &n); // Strip argument and return types
   b8b64:	6929      	ldr	r1, [r5, #16]
const char* extractFuncName(const char *s, size_t *size) {
   b8b66:	460b      	mov	r3, r1
   b8b68:	461a      	mov	r2, r3
    for (; *s; ++s) {
   b8b6a:	f813 0b01 	ldrb.w	r0, [r3], #1
   b8b6e:	b160      	cbz	r0, b8b8a <_ZN5spark16StreamLogHandler10logMessageEPKc8LogLevelS2_RK13LogAttributes+0xc6>
        if (*s == ' ') {
   b8b70:	2820      	cmp	r0, #32
   b8b72:	d108      	bne.n	b8b86 <_ZN5spark16StreamLogHandler10logMessageEPKc8LogLevelS2_RK13LogAttributes+0xc2>
            s1 = s + 1; // Skip return type
   b8b74:	4619      	mov	r1, r3
   b8b76:	e7f7      	b.n	b8b68 <_ZN5spark16StreamLogHandler10logMessageEPKc8LogLevelS2_RK13LogAttributes+0xa4>
    if (stream_ == &Serial && Network.listening()) {
   b8b78:	4834      	ldr	r0, [pc, #208]	; (b8c4c <_ZN5spark16StreamLogHandler10logMessageEPKc8LogLevelS2_RK13LogAttributes+0x188>)
   b8b7a:	f001 fb14 	bl	ba1a6 <_ZN5spark12NetworkClass9listeningEv>
   b8b7e:	2800      	cmp	r0, #0
   b8b80:	d0ad      	beq.n	b8ade <_ZN5spark16StreamLogHandler10logMessageEPKc8LogLevelS2_RK13LogAttributes+0x1a>
}
   b8b82:	e8bd 87f0 	ldmia.w	sp!, {r4, r5, r6, r7, r8, r9, sl, pc}
        } else if (*s == '(') {
   b8b86:	2828      	cmp	r0, #40	; 0x28
   b8b88:	d1ee      	bne.n	b8b68 <_ZN5spark16StreamLogHandler10logMessageEPKc8LogLevelS2_RK13LogAttributes+0xa4>
        write(s, n);
   b8b8a:	6823      	ldr	r3, [r4, #0]
   b8b8c:	1a52      	subs	r2, r2, r1
   b8b8e:	68db      	ldr	r3, [r3, #12]
   b8b90:	4620      	mov	r0, r4
   b8b92:	4798      	blx	r3
        write("(): ", 4);
   b8b94:	6823      	ldr	r3, [r4, #0]
   b8b96:	492e      	ldr	r1, [pc, #184]	; (b8c50 <_ZN5spark16StreamLogHandler10logMessageEPKc8LogLevelS2_RK13LogAttributes+0x18c>)
   b8b98:	68db      	ldr	r3, [r3, #12]
   b8b9a:	2204      	movs	r2, #4
   b8b9c:	4620      	mov	r0, r4
   b8b9e:	4798      	blx	r3
    return log_level_name(level, nullptr);
   b8ba0:	2100      	movs	r1, #0
   b8ba2:	4638      	mov	r0, r7
   b8ba4:	f7fe fd28 	bl	b75f8 <log_level_name>
   b8ba8:	4601      	mov	r1, r0
    write(s);
   b8baa:	4620      	mov	r0, r4
   b8bac:	f7ff f9e9 	bl	b7f82 <_ZN5spark16StreamLogHandler5writeEPKc>
    write(": ", 2);
   b8bb0:	6823      	ldr	r3, [r4, #0]
   b8bb2:	4925      	ldr	r1, [pc, #148]	; (b8c48 <_ZN5spark16StreamLogHandler10logMessageEPKc8LogLevelS2_RK13LogAttributes+0x184>)
   b8bb4:	68db      	ldr	r3, [r3, #12]
   b8bb6:	2202      	movs	r2, #2
   b8bb8:	4620      	mov	r0, r4
   b8bba:	4798      	blx	r3
    if (msg) {
   b8bbc:	b11e      	cbz	r6, b8bc6 <_ZN5spark16StreamLogHandler10logMessageEPKc8LogLevelS2_RK13LogAttributes+0x102>
        write(msg);
   b8bbe:	4631      	mov	r1, r6
   b8bc0:	4620      	mov	r0, r4
   b8bc2:	f7ff f9de 	bl	b7f82 <_ZN5spark16StreamLogHandler5writeEPKc>
    if (attr.has_code || attr.has_details) {
   b8bc6:	792b      	ldrb	r3, [r5, #4]
   b8bc8:	f013 0f30 	tst.w	r3, #48	; 0x30
   b8bcc:	d02c      	beq.n	b8c28 <_ZN5spark16StreamLogHandler10logMessageEPKc8LogLevelS2_RK13LogAttributes+0x164>
        write(" [", 2);
   b8bce:	6823      	ldr	r3, [r4, #0]
   b8bd0:	4920      	ldr	r1, [pc, #128]	; (b8c54 <_ZN5spark16StreamLogHandler10logMessageEPKc8LogLevelS2_RK13LogAttributes+0x190>)
   b8bd2:	68db      	ldr	r3, [r3, #12]
   b8bd4:	2202      	movs	r2, #2
   b8bd6:	4620      	mov	r0, r4
   b8bd8:	4798      	blx	r3
        if (attr.has_code) {
   b8bda:	792b      	ldrb	r3, [r5, #4]
   b8bdc:	06d9      	lsls	r1, r3, #27
   b8bde:	d50a      	bpl.n	b8bf6 <_ZN5spark16StreamLogHandler10logMessageEPKc8LogLevelS2_RK13LogAttributes+0x132>
            write("code = ", 7);
   b8be0:	6823      	ldr	r3, [r4, #0]
   b8be2:	491d      	ldr	r1, [pc, #116]	; (b8c58 <_ZN5spark16StreamLogHandler10logMessageEPKc8LogLevelS2_RK13LogAttributes+0x194>)
   b8be4:	68db      	ldr	r3, [r3, #12]
   b8be6:	2207      	movs	r2, #7
   b8be8:	4620      	mov	r0, r4
   b8bea:	4798      	blx	r3
            printf("%" PRIiPTR, (intptr_t)attr.code);
   b8bec:	69aa      	ldr	r2, [r5, #24]
   b8bee:	491b      	ldr	r1, [pc, #108]	; (b8c5c <_ZN5spark16StreamLogHandler10logMessageEPKc8LogLevelS2_RK13LogAttributes+0x198>)
   b8bf0:	4620      	mov	r0, r4
   b8bf2:	f7ff fa46 	bl	b8082 <_ZN5spark16StreamLogHandler6printfEPKcz>
        if (attr.has_details) {
   b8bf6:	792b      	ldrb	r3, [r5, #4]
   b8bf8:	069a      	lsls	r2, r3, #26
   b8bfa:	d511      	bpl.n	b8c20 <_ZN5spark16StreamLogHandler10logMessageEPKc8LogLevelS2_RK13LogAttributes+0x15c>
            if (attr.has_code) {
   b8bfc:	06db      	lsls	r3, r3, #27
   b8bfe:	d505      	bpl.n	b8c0c <_ZN5spark16StreamLogHandler10logMessageEPKc8LogLevelS2_RK13LogAttributes+0x148>
                write(", ", 2);
   b8c00:	6823      	ldr	r3, [r4, #0]
   b8c02:	4910      	ldr	r1, [pc, #64]	; (b8c44 <_ZN5spark16StreamLogHandler10logMessageEPKc8LogLevelS2_RK13LogAttributes+0x180>)
   b8c04:	68db      	ldr	r3, [r3, #12]
   b8c06:	2202      	movs	r2, #2
   b8c08:	4620      	mov	r0, r4
   b8c0a:	4798      	blx	r3
            write("details = ", 10);
   b8c0c:	6823      	ldr	r3, [r4, #0]
   b8c0e:	4914      	ldr	r1, [pc, #80]	; (b8c60 <_ZN5spark16StreamLogHandler10logMessageEPKc8LogLevelS2_RK13LogAttributes+0x19c>)
   b8c10:	68db      	ldr	r3, [r3, #12]
   b8c12:	4620      	mov	r0, r4
   b8c14:	220a      	movs	r2, #10
   b8c16:	4798      	blx	r3
            write(attr.details);
   b8c18:	69e9      	ldr	r1, [r5, #28]
   b8c1a:	4620      	mov	r0, r4
   b8c1c:	f7ff f9b1 	bl	b7f82 <_ZN5spark16StreamLogHandler5writeEPKc>
        write(']');
   b8c20:	215d      	movs	r1, #93	; 0x5d
   b8c22:	4620      	mov	r0, r4
   b8c24:	f7ff f9bc 	bl	b7fa0 <_ZN5spark16StreamLogHandler5writeEc>
    write("\r\n", 2);
   b8c28:	6823      	ldr	r3, [r4, #0]
   b8c2a:	490e      	ldr	r1, [pc, #56]	; (b8c64 <_ZN5spark16StreamLogHandler10logMessageEPKc8LogLevelS2_RK13LogAttributes+0x1a0>)
   b8c2c:	68db      	ldr	r3, [r3, #12]
   b8c2e:	4620      	mov	r0, r4
   b8c30:	2202      	movs	r2, #2
}
   b8c32:	e8bd 47f0 	ldmia.w	sp!, {r4, r5, r6, r7, r8, r9, sl, lr}
    write("\r\n", 2);
   b8c36:	4718      	bx	r3
   b8c38:	000bce1d 	.word	0x000bce1d
   b8c3c:	000bce24 	.word	0x000bce24
   b8c40:	000bc9f9 	.word	0x000bc9f9
   b8c44:	000bce27 	.word	0x000bce27
   b8c48:	000bce2c 	.word	0x000bce2c
   b8c4c:	2003e714 	.word	0x2003e714
   b8c50:	000bce2a 	.word	0x000bce2a
   b8c54:	000bce2f 	.word	0x000bce2f
   b8c58:	000bce32 	.word	0x000bce32
   b8c5c:	000bce3a 	.word	0x000bce3a
   b8c60:	000bce3d 	.word	0x000bce3d
   b8c64:	000bce48 	.word	0x000bce48

000b8c68 <_ZN5spark16StreamLogHandler5writeEPKcj>:
void spark::StreamLogHandler::write(const char *data, size_t size) {
   b8c68:	e92d 41f0 	stmdb	sp!, {r4, r5, r6, r7, r8, lr}
   b8c6c:	4604      	mov	r4, r0
    if (stream_ == &Serial && Network.listening()) {
   b8c6e:	6a07      	ldr	r7, [r0, #32]
void spark::StreamLogHandler::write(const char *data, size_t size) {
   b8c70:	460d      	mov	r5, r1
   b8c72:	4616      	mov	r6, r2
    if (stream_ == &Serial && Network.listening()) {
   b8c74:	f000 fe60 	bl	b9938 <_Z16_fetch_usbserialv>
   b8c78:	4287      	cmp	r7, r0
   b8c7a:	d007      	beq.n	b8c8c <_ZN5spark16StreamLogHandler5writeEPKcj+0x24>
    stream_->write((const uint8_t*)data, size);
   b8c7c:	6a20      	ldr	r0, [r4, #32]
   b8c7e:	6803      	ldr	r3, [r0, #0]
   b8c80:	4632      	mov	r2, r6
   b8c82:	4629      	mov	r1, r5
   b8c84:	68db      	ldr	r3, [r3, #12]
}
   b8c86:	e8bd 41f0 	ldmia.w	sp!, {r4, r5, r6, r7, r8, lr}
    stream_->write((const uint8_t*)data, size);
   b8c8a:	4718      	bx	r3
    if (stream_ == &Serial && Network.listening()) {
   b8c8c:	4803      	ldr	r0, [pc, #12]	; (b8c9c <_ZN5spark16StreamLogHandler5writeEPKcj+0x34>)
   b8c8e:	f001 fa8a 	bl	ba1a6 <_ZN5spark12NetworkClass9listeningEv>
   b8c92:	2800      	cmp	r0, #0
   b8c94:	d0f2      	beq.n	b8c7c <_ZN5spark16StreamLogHandler5writeEPKcj+0x14>
}
   b8c96:	e8bd 81f0 	ldmia.w	sp!, {r4, r5, r6, r7, r8, pc}
   b8c9a:	bf00      	nop
   b8c9c:	2003e714 	.word	0x2003e714

000b8ca0 <_ZN5spark20JSONStreamLogHandler10logMessageEPKc8LogLevelS2_RK13LogAttributes>:
void spark::JSONStreamLogHandler::logMessage(const char *msg, LogLevel level, const char *category, const LogAttributes &attr) {
   b8ca0:	e92d 43f0 	stmdb	sp!, {r4, r5, r6, r7, r8, r9, lr}
   b8ca4:	b085      	sub	sp, #20
    return stream_;
   b8ca6:	f8d0 9020 	ldr.w	r9, [r0, #32]
   b8caa:	9c0c      	ldr	r4, [sp, #48]	; 0x30
   b8cac:	4605      	mov	r5, r0
   b8cae:	460f      	mov	r7, r1
   b8cb0:	4690      	mov	r8, r2
   b8cb2:	461e      	mov	r6, r3
    if (this->stream() == &Serial && Network.listening()) {
   b8cb4:	f000 fe40 	bl	b9938 <_Z16_fetch_usbserialv>
   b8cb8:	4581      	cmp	r9, r0
   b8cba:	d105      	bne.n	b8cc8 <_ZN5spark20JSONStreamLogHandler10logMessageEPKc8LogLevelS2_RK13LogAttributes+0x28>
   b8cbc:	4849      	ldr	r0, [pc, #292]	; (b8de4 <_ZN5spark20JSONStreamLogHandler10logMessageEPKc8LogLevelS2_RK13LogAttributes+0x144>)
   b8cbe:	f001 fa72 	bl	ba1a6 <_ZN5spark12NetworkClass9listeningEv>
   b8cc2:	2800      	cmp	r0, #0
   b8cc4:	f040 808a 	bne.w	b8ddc <_ZN5spark20JSONStreamLogHandler10logMessageEPKc8LogLevelS2_RK13LogAttributes+0x13c>
   b8cc8:	6a2b      	ldr	r3, [r5, #32]
        bytesWritten_(0) {
   b8cca:	4a47      	ldr	r2, [pc, #284]	; (b8de8 <_ZN5spark20JSONStreamLogHandler10logMessageEPKc8LogLevelS2_RK13LogAttributes+0x148>)
   b8ccc:	9200      	str	r2, [sp, #0]
        state_(BEGIN) {
   b8cce:	f04f 0900 	mov.w	r9, #0
    json.beginObject();
   b8cd2:	4668      	mov	r0, sp
        bytesWritten_(0) {
   b8cd4:	e9cd 3902 	strd	r3, r9, [sp, #8]
        state_(BEGIN) {
   b8cd8:	f88d 9004 	strb.w	r9, [sp, #4]
   b8cdc:	f000 ff7b 	bl	b9bd6 <_ZN5spark10JSONWriter11beginObjectEv>
    return log_level_name(level, nullptr);
   b8ce0:	4649      	mov	r1, r9
   b8ce2:	4640      	mov	r0, r8
   b8ce4:	f7fe fc88 	bl	b75f8 <log_level_name>
    json.name("l", 1).value(s);
   b8ce8:	4940      	ldr	r1, [pc, #256]	; (b8dec <_ZN5spark20JSONStreamLogHandler10logMessageEPKc8LogLevelS2_RK13LogAttributes+0x14c>)
   b8cea:	4680      	mov	r8, r0
   b8cec:	2201      	movs	r2, #1
   b8cee:	4668      	mov	r0, sp
   b8cf0:	f001 f800 	bl	b9cf4 <_ZN5spark10JSONWriter4nameEPKcj>
   b8cf4:	4641      	mov	r1, r8
   b8cf6:	f7ff f936 	bl	b7f66 <_ZN5spark10JSONWriter5valueEPKc>
    if (msg) {
   b8cfa:	b13f      	cbz	r7, b8d0c <_ZN5spark20JSONStreamLogHandler10logMessageEPKc8LogLevelS2_RK13LogAttributes+0x6c>
        json.name("m", 1).value(msg);
   b8cfc:	493c      	ldr	r1, [pc, #240]	; (b8df0 <_ZN5spark20JSONStreamLogHandler10logMessageEPKc8LogLevelS2_RK13LogAttributes+0x150>)
   b8cfe:	2201      	movs	r2, #1
   b8d00:	4668      	mov	r0, sp
   b8d02:	f000 fff7 	bl	b9cf4 <_ZN5spark10JSONWriter4nameEPKcj>
   b8d06:	4639      	mov	r1, r7
   b8d08:	f7ff f92d 	bl	b7f66 <_ZN5spark10JSONWriter5valueEPKc>
    if (category) {
   b8d0c:	b13e      	cbz	r6, b8d1e <_ZN5spark20JSONStreamLogHandler10logMessageEPKc8LogLevelS2_RK13LogAttributes+0x7e>
        json.name("c", 1).value(category);
   b8d0e:	4939      	ldr	r1, [pc, #228]	; (b8df4 <_ZN5spark20JSONStreamLogHandler10logMessageEPKc8LogLevelS2_RK13LogAttributes+0x154>)
   b8d10:	2201      	movs	r2, #1
   b8d12:	4668      	mov	r0, sp
   b8d14:	f000 ffee 	bl	b9cf4 <_ZN5spark10JSONWriter4nameEPKcj>
   b8d18:	4631      	mov	r1, r6
   b8d1a:	f7ff f924 	bl	b7f66 <_ZN5spark10JSONWriter5valueEPKc>
    if (attr.has_file) {
   b8d1e:	7923      	ldrb	r3, [r4, #4]
   b8d20:	07df      	lsls	r7, r3, #31
   b8d22:	d50e      	bpl.n	b8d42 <_ZN5spark20JSONStreamLogHandler10logMessageEPKc8LogLevelS2_RK13LogAttributes+0xa2>
        s = extractFileName(attr.file); // Strip directory path
   b8d24:	68a6      	ldr	r6, [r4, #8]
    const char *s1 = strrchr(s, '/');
   b8d26:	212f      	movs	r1, #47	; 0x2f
   b8d28:	4630      	mov	r0, r6
   b8d2a:	f001 fd26 	bl	ba77a <strrchr>
    if (s1) {
   b8d2e:	b100      	cbz	r0, b8d32 <_ZN5spark20JSONStreamLogHandler10logMessageEPKc8LogLevelS2_RK13LogAttributes+0x92>
        return s1 + 1;
   b8d30:	1c46      	adds	r6, r0, #1
        json.name("f", 1).value(s);
   b8d32:	4931      	ldr	r1, [pc, #196]	; (b8df8 <_ZN5spark20JSONStreamLogHandler10logMessageEPKc8LogLevelS2_RK13LogAttributes+0x158>)
   b8d34:	2201      	movs	r2, #1
   b8d36:	4668      	mov	r0, sp
   b8d38:	f000 ffdc 	bl	b9cf4 <_ZN5spark10JSONWriter4nameEPKcj>
   b8d3c:	4631      	mov	r1, r6
   b8d3e:	f7ff f912 	bl	b7f66 <_ZN5spark10JSONWriter5valueEPKc>
    if (attr.has_line) {
   b8d42:	7923      	ldrb	r3, [r4, #4]
   b8d44:	079e      	lsls	r6, r3, #30
   b8d46:	d507      	bpl.n	b8d58 <_ZN5spark20JSONStreamLogHandler10logMessageEPKc8LogLevelS2_RK13LogAttributes+0xb8>
        json.name("ln", 2).value(attr.line);
   b8d48:	492c      	ldr	r1, [pc, #176]	; (b8dfc <_ZN5spark20JSONStreamLogHandler10logMessageEPKc8LogLevelS2_RK13LogAttributes+0x15c>)
   b8d4a:	2202      	movs	r2, #2
   b8d4c:	4668      	mov	r0, sp
   b8d4e:	f000 ffd1 	bl	b9cf4 <_ZN5spark10JSONWriter4nameEPKcj>
   b8d52:	68e1      	ldr	r1, [r4, #12]
   b8d54:	f000 ff4c 	bl	b9bf0 <_ZN5spark10JSONWriter5valueEi>
    if (attr.has_function) {
   b8d58:	7923      	ldrb	r3, [r4, #4]
   b8d5a:	0758      	lsls	r0, r3, #29
   b8d5c:	d514      	bpl.n	b8d88 <_ZN5spark20JSONStreamLogHandler10logMessageEPKc8LogLevelS2_RK13LogAttributes+0xe8>
        s = extractFuncName(attr.function, &n); // Strip argument and return types
   b8d5e:	6926      	ldr	r6, [r4, #16]
const char* extractFuncName(const char *s, size_t *size) {
   b8d60:	4633      	mov	r3, r6
   b8d62:	461f      	mov	r7, r3
    for (; *s; ++s) {
   b8d64:	f813 2b01 	ldrb.w	r2, [r3], #1
   b8d68:	b12a      	cbz	r2, b8d76 <_ZN5spark20JSONStreamLogHandler10logMessageEPKc8LogLevelS2_RK13LogAttributes+0xd6>
        if (*s == ' ') {
   b8d6a:	2a20      	cmp	r2, #32
   b8d6c:	d101      	bne.n	b8d72 <_ZN5spark20JSONStreamLogHandler10logMessageEPKc8LogLevelS2_RK13LogAttributes+0xd2>
            s1 = s + 1; // Skip return type
   b8d6e:	461e      	mov	r6, r3
   b8d70:	e7f7      	b.n	b8d62 <_ZN5spark20JSONStreamLogHandler10logMessageEPKc8LogLevelS2_RK13LogAttributes+0xc2>
        } else if (*s == '(') {
   b8d72:	2a28      	cmp	r2, #40	; 0x28
   b8d74:	d1f5      	bne.n	b8d62 <_ZN5spark20JSONStreamLogHandler10logMessageEPKc8LogLevelS2_RK13LogAttributes+0xc2>
        json.name("fn", 2).value(s, n);
   b8d76:	4922      	ldr	r1, [pc, #136]	; (b8e00 <_ZN5spark20JSONStreamLogHandler10logMessageEPKc8LogLevelS2_RK13LogAttributes+0x160>)
   b8d78:	2202      	movs	r2, #2
   b8d7a:	4668      	mov	r0, sp
   b8d7c:	f000 ffba 	bl	b9cf4 <_ZN5spark10JSONWriter4nameEPKcj>
   b8d80:	1bba      	subs	r2, r7, r6
   b8d82:	4631      	mov	r1, r6
   b8d84:	f000 ffc6 	bl	b9d14 <_ZN5spark10JSONWriter5valueEPKcj>
    if (attr.has_time) {
   b8d88:	7923      	ldrb	r3, [r4, #4]
   b8d8a:	0719      	lsls	r1, r3, #28
   b8d8c:	d507      	bpl.n	b8d9e <_ZN5spark20JSONStreamLogHandler10logMessageEPKc8LogLevelS2_RK13LogAttributes+0xfe>
        json.name("t", 1).value((unsigned)attr.time);
   b8d8e:	491d      	ldr	r1, [pc, #116]	; (b8e04 <_ZN5spark20JSONStreamLogHandler10logMessageEPKc8LogLevelS2_RK13LogAttributes+0x164>)
   b8d90:	2201      	movs	r2, #1
   b8d92:	4668      	mov	r0, sp
   b8d94:	f000 ffae 	bl	b9cf4 <_ZN5spark10JSONWriter4nameEPKcj>
   b8d98:	6961      	ldr	r1, [r4, #20]
   b8d9a:	f000 ff3b 	bl	b9c14 <_ZN5spark10JSONWriter5valueEj>
    if (attr.has_code) {
   b8d9e:	7923      	ldrb	r3, [r4, #4]
   b8da0:	06da      	lsls	r2, r3, #27
   b8da2:	d507      	bpl.n	b8db4 <_ZN5spark20JSONStreamLogHandler10logMessageEPKc8LogLevelS2_RK13LogAttributes+0x114>
        json.name("code", 4).value((int)attr.code);
   b8da4:	4918      	ldr	r1, [pc, #96]	; (b8e08 <_ZN5spark20JSONStreamLogHandler10logMessageEPKc8LogLevelS2_RK13LogAttributes+0x168>)
   b8da6:	2204      	movs	r2, #4
   b8da8:	4668      	mov	r0, sp
   b8daa:	f000 ffa3 	bl	b9cf4 <_ZN5spark10JSONWriter4nameEPKcj>
   b8dae:	69a1      	ldr	r1, [r4, #24]
   b8db0:	f000 ff1e 	bl	b9bf0 <_ZN5spark10JSONWriter5valueEi>
    if (attr.has_details) {
   b8db4:	7923      	ldrb	r3, [r4, #4]
   b8db6:	069b      	lsls	r3, r3, #26
   b8db8:	d507      	bpl.n	b8dca <_ZN5spark20JSONStreamLogHandler10logMessageEPKc8LogLevelS2_RK13LogAttributes+0x12a>
        json.name("detail", 6).value(attr.details);
   b8dba:	4914      	ldr	r1, [pc, #80]	; (b8e0c <_ZN5spark20JSONStreamLogHandler10logMessageEPKc8LogLevelS2_RK13LogAttributes+0x16c>)
   b8dbc:	2206      	movs	r2, #6
   b8dbe:	4668      	mov	r0, sp
   b8dc0:	f000 ff98 	bl	b9cf4 <_ZN5spark10JSONWriter4nameEPKcj>
   b8dc4:	69e1      	ldr	r1, [r4, #28]
   b8dc6:	f7ff f8ce 	bl	b7f66 <_ZN5spark10JSONWriter5valueEPKc>
    json.endObject();
   b8dca:	4668      	mov	r0, sp
   b8dcc:	f000 feed 	bl	b9baa <_ZN5spark10JSONWriter9endObjectEv>
    return stream_;
   b8dd0:	6a28      	ldr	r0, [r5, #32]
    this->stream()->write((const uint8_t*)"\r\n", 2);
   b8dd2:	490f      	ldr	r1, [pc, #60]	; (b8e10 <_ZN5spark20JSONStreamLogHandler10logMessageEPKc8LogLevelS2_RK13LogAttributes+0x170>)
   b8dd4:	6803      	ldr	r3, [r0, #0]
   b8dd6:	2202      	movs	r2, #2
   b8dd8:	68db      	ldr	r3, [r3, #12]
   b8dda:	4798      	blx	r3
}
   b8ddc:	b005      	add	sp, #20
   b8dde:	e8bd 83f0 	ldmia.w	sp!, {r4, r5, r6, r7, r8, r9, pc}
   b8de2:	bf00      	nop
   b8de4:	2003e714 	.word	0x2003e714
   b8de8:	000bcde0 	.word	0x000bcde0
   b8dec:	000bcb4a 	.word	0x000bcb4a
   b8df0:	000bcc5e 	.word	0x000bcc5e
   b8df4:	000bd380 	.word	0x000bd380
   b8df8:	000bcd3f 	.word	0x000bcd3f
   b8dfc:	000bce4b 	.word	0x000bce4b
   b8e00:	000bce4e 	.word	0x000bce4e
   b8e04:	000bc826 	.word	0x000bc826
   b8e08:	000bce51 	.word	0x000bce51
   b8e0c:	000bce56 	.word	0x000bce56
   b8e10:	000bce48 	.word	0x000bce48

000b8e14 <_ZL22Refresh_UnixTime_Cachex>:
	return calendar_time;
}

/* Refresh Unix/RTC time cache */
static void Refresh_UnixTime_Cache(time_t unix_time)
{
   b8e14:	e92d 41f0 	stmdb	sp!, {r4, r5, r6, r7, r8, lr}
    unix_time += time_zone_cache;
   b8e18:	4a15      	ldr	r2, [pc, #84]	; (b8e70 <_ZL22Refresh_UnixTime_Cachex+0x5c>)
    unix_time += dst_current_cache;
    if(unix_time != unix_time_cache)
   b8e1a:	f8df 8060 	ldr.w	r8, [pc, #96]	; b8e7c <_ZL22Refresh_UnixTime_Cachex+0x68>
    unix_time += time_zone_cache;
   b8e1e:	e9d2 6300 	ldrd	r6, r3, [r2]
   b8e22:	1980      	adds	r0, r0, r6
   b8e24:	eb43 0101 	adc.w	r1, r3, r1
    unix_time += dst_current_cache;
   b8e28:	4b12      	ldr	r3, [pc, #72]	; (b8e74 <_ZL22Refresh_UnixTime_Cachex+0x60>)
   b8e2a:	e9d3 6700 	ldrd	r6, r7, [r3]
    if(unix_time != unix_time_cache)
   b8e2e:	e9d8 2300 	ldrd	r2, r3, [r8]
    unix_time += dst_current_cache;
   b8e32:	1986      	adds	r6, r0, r6
   b8e34:	eb41 0707 	adc.w	r7, r1, r7
    if(unix_time != unix_time_cache)
   b8e38:	42bb      	cmp	r3, r7
   b8e3a:	bf08      	it	eq
   b8e3c:	42b2      	cmpeq	r2, r6
{
   b8e3e:	b08c      	sub	sp, #48	; 0x30
    if(unix_time != unix_time_cache)
   b8e40:	d013      	beq.n	b8e6a <_ZL22Refresh_UnixTime_Cachex+0x56>
	localtime_r(&unix_time, &calendar_time);
   b8e42:	a903      	add	r1, sp, #12
   b8e44:	4668      	mov	r0, sp
   b8e46:	e9cd 6700 	strd	r6, r7, [sp]
   b8e4a:	f7fe fd4b 	bl	b78e4 <localtime_r>
	calendar_time.tm_year += 1900;
   b8e4e:	9b08      	ldr	r3, [sp, #32]
    {
            calendar_time_cache = Convert_UnixTime_To_CalendarTime(unix_time);
   b8e50:	4d09      	ldr	r5, [pc, #36]	; (b8e78 <_ZL22Refresh_UnixTime_Cachex+0x64>)
	calendar_time.tm_year += 1900;
   b8e52:	f203 736c 	addw	r3, r3, #1900	; 0x76c
            calendar_time_cache = Convert_UnixTime_To_CalendarTime(unix_time);
   b8e56:	ac03      	add	r4, sp, #12
	calendar_time.tm_year += 1900;
   b8e58:	9308      	str	r3, [sp, #32]
            calendar_time_cache = Convert_UnixTime_To_CalendarTime(unix_time);
   b8e5a:	cc0f      	ldmia	r4!, {r0, r1, r2, r3}
   b8e5c:	c50f      	stmia	r5!, {r0, r1, r2, r3}
   b8e5e:	cc0f      	ldmia	r4!, {r0, r1, r2, r3}
   b8e60:	c50f      	stmia	r5!, {r0, r1, r2, r3}
            unix_time_cache = unix_time;
   b8e62:	e9c8 6700 	strd	r6, r7, [r8]
            calendar_time_cache = Convert_UnixTime_To_CalendarTime(unix_time);
   b8e66:	6823      	ldr	r3, [r4, #0]
   b8e68:	602b      	str	r3, [r5, #0]
    }
}
   b8e6a:	b00c      	add	sp, #48	; 0x30
   b8e6c:	e8bd 81f0 	ldmia.w	sp!, {r4, r5, r6, r7, r8, pc}
   b8e70:	2003e6b8 	.word	0x2003e6b8
   b8e74:	2003e6b0 	.word	0x2003e6b0
   b8e78:	2003e688 	.word	0x2003e688
   b8e7c:	2003e6c0 	.word	0x2003e6c0

000b8e80 <_ZN10CloudClass12syncTimeDoneEv.isra.0>:
    bool syncTimePending(void)
    {
        return connected() && spark_sync_time_pending(nullptr);
    }

    bool syncTimeDone(void)
   b8e80:	b508      	push	{r3, lr}
    {
        return !spark_sync_time_pending(nullptr) || disconnected();
   b8e82:	2000      	movs	r0, #0
   b8e84:	f7fe fcc6 	bl	b7814 <spark_sync_time_pending>
   b8e88:	b128      	cbz	r0, b8e96 <_ZN10CloudClass12syncTimeDoneEv.isra.0+0x16>
    static void sleep(Spark_Sleep_TypeDef sleepMode, long seconds=0) __attribute__ ((deprecated("Please use System.sleep() instead.")))
    { SystemClass::sleep(sleepMode, seconds); }
    static void sleep(uint16_t wakeUpPin, InterruptMode edgeTriggerMode, long seconds=0) __attribute__ ((deprecated("Please use System.sleep() instead.")))
    { SystemClass::sleep(wakeUpPin, edgeTriggerMode, seconds); }

    static bool connected(void) { return spark_cloud_flag_connected(); }
   b8e8a:	f7fe fcb3 	bl	b77f4 <spark_cloud_flag_connected>
        return !spark_sync_time_pending(nullptr) || disconnected();
   b8e8e:	f080 0001 	eor.w	r0, r0, #1
   b8e92:	b2c0      	uxtb	r0, r0
    }
   b8e94:	bd08      	pop	{r3, pc}
        return !spark_sync_time_pending(nullptr) || disconnected();
   b8e96:	2001      	movs	r0, #1
   b8e98:	e7fc      	b.n	b8e94 <_ZN10CloudClass12syncTimeDoneEv.isra.0+0x14>
	...

000b8e9c <_ZN9TimeClass4hourEx>:
	return hour(now());
}

/* the hour for the given time */
int TimeClass::hour(time_t t)
{
   b8e9c:	b508      	push	{r3, lr}
	Refresh_UnixTime_Cache(t);
   b8e9e:	f7ff ffb9 	bl	b8e14 <_ZL22Refresh_UnixTime_Cachex>
	return calendar_time_cache.tm_hour;
}
   b8ea2:	4b01      	ldr	r3, [pc, #4]	; (b8ea8 <_ZN9TimeClass4hourEx+0xc>)
   b8ea4:	6898      	ldr	r0, [r3, #8]
   b8ea6:	bd08      	pop	{r3, pc}
   b8ea8:	2003e688 	.word	0x2003e688

000b8eac <_ZN9TimeClass3dayEx>:
	return day(now());
}

/* the day for the given time */
int TimeClass::day(time_t t)
{
   b8eac:	b508      	push	{r3, lr}
	Refresh_UnixTime_Cache(t);
   b8eae:	f7ff ffb1 	bl	b8e14 <_ZL22Refresh_UnixTime_Cachex>
	return calendar_time_cache.tm_mday;
}
   b8eb2:	4b01      	ldr	r3, [pc, #4]	; (b8eb8 <_ZN9TimeClass3dayEx+0xc>)
   b8eb4:	68d8      	ldr	r0, [r3, #12]
   b8eb6:	bd08      	pop	{r3, pc}
   b8eb8:	2003e688 	.word	0x2003e688

000b8ebc <_ZN9TimeClass4zoneEf>:
}

/* set the time zone (+/-) offset from GMT */
void TimeClass::zone(float GMT_Offset)
{
	if(GMT_Offset < -12 || GMT_Offset > 14)
   b8ebc:	eefa 7a08 	vmov.f32	s15, #168	; 0xc1400000 -12.0
   b8ec0:	eeb4 0ae7 	vcmpe.f32	s0, s15
   b8ec4:	eef1 fa10 	vmrs	APSR_nzcv, fpscr
{
   b8ec8:	b508      	push	{r3, lr}
	if(GMT_Offset < -12 || GMT_Offset > 14)
   b8eca:	d411      	bmi.n	b8ef0 <_ZN9TimeClass4zoneEf+0x34>
   b8ecc:	eef2 7a0c 	vmov.f32	s15, #44	; 0x41600000  14.0
   b8ed0:	eeb4 0ae7 	vcmpe.f32	s0, s15
   b8ed4:	eef1 fa10 	vmrs	APSR_nzcv, fpscr
   b8ed8:	dc0a      	bgt.n	b8ef0 <_ZN9TimeClass4zoneEf+0x34>
	{
		return;
	}
	time_zone_cache = GMT_Offset * 3600;
   b8eda:	eddf 7a06 	vldr	s15, [pc, #24]	; b8ef4 <_ZN9TimeClass4zoneEf+0x38>
   b8ede:	ee60 7a27 	vmul.f32	s15, s0, s15
   b8ee2:	ee17 0a90 	vmov	r0, s15
   b8ee6:	f7fb fd59 	bl	b499c <__aeabi_f2lz>
   b8eea:	4b03      	ldr	r3, [pc, #12]	; (b8ef8 <_ZN9TimeClass4zoneEf+0x3c>)
   b8eec:	e9c3 0100 	strd	r0, r1, [r3]
}
   b8ef0:	bd08      	pop	{r3, pc}
   b8ef2:	bf00      	nop
   b8ef4:	45610000 	.word	0x45610000
   b8ef8:	2003e6b8 	.word	0x2003e6b8

000b8efc <_ZN9TimeClass7isValidEv>:
    strftime(buf, sizeof(buf), format_str, calendar_time);
    return String(buf);
}

bool TimeClass::isValid()
{
   b8efc:	b510      	push	{r4, lr}
    bool rtcstate = hal_rtc_time_is_valid(nullptr);
   b8efe:	2000      	movs	r0, #0
   b8f00:	f7fe f9a2 	bl	b7248 <hal_rtc_time_is_valid>
    if (rtcstate)
   b8f04:	4604      	mov	r4, r0
   b8f06:	b9a0      	cbnz	r0, b8f32 <_ZN9TimeClass7isValidEv+0x36>
    }

    static System_Mode_TypeDef mode(void) {
        return system_mode();
   b8f08:	f7fe fb86 	bl	b7618 <system_mode>
        return rtcstate;
    if (System.mode() == AUTOMATIC && system_thread_get_state(nullptr) == spark::feature::DISABLED)
   b8f0c:	2801      	cmp	r0, #1
   b8f0e:	d110      	bne.n	b8f32 <_ZN9TimeClass7isValidEv+0x36>
   b8f10:	4620      	mov	r0, r4
   b8f12:	f7fe fbb1 	bl	b7678 <system_thread_get_state>
   b8f16:	b960      	cbnz	r0, b8f32 <_ZN9TimeClass7isValidEv+0x36>
    {
        waitUntil(Particle.syncTimeDone);
   b8f18:	f7ff ffb2 	bl	b8e80 <_ZN10CloudClass12syncTimeDoneEv.isra.0>

    static uint32_t freeMemory();

    template<typename Condition, typename While>
    static bool waitConditionWhile(Condition _condition, While _while) {
        while (_while() && !_condition()) {
   b8f1c:	b910      	cbnz	r0, b8f24 <_ZN9TimeClass7isValidEv+0x28>
            spark_process();
   b8f1e:	f7fe fc59 	bl	b77d4 <spark_process>
        while (_while() && !_condition()) {
   b8f22:	e7f9      	b.n	b8f18 <_ZN9TimeClass7isValidEv+0x1c>
   b8f24:	f7ff ffac 	bl	b8e80 <_ZN10CloudClass12syncTimeDoneEv.isra.0>
        return hal_rtc_time_is_valid(nullptr);
    }
    return rtcstate;
}
   b8f28:	e8bd 4010 	ldmia.w	sp!, {r4, lr}
        return hal_rtc_time_is_valid(nullptr);
   b8f2c:	2000      	movs	r0, #0
   b8f2e:	f7fe b98b 	b.w	b7248 <hal_rtc_time_is_valid>
}
   b8f32:	4620      	mov	r0, r4
   b8f34:	bd10      	pop	{r4, pc}

000b8f36 <_ZN9TimeClass3nowEv>:
{
   b8f36:	b51f      	push	{r0, r1, r2, r3, r4, lr}
    (void)isValid();
   b8f38:	f7ff ffe0 	bl	b8efc <_ZN9TimeClass7isValidEv>
    struct timeval tv = {};
   b8f3c:	2210      	movs	r2, #16
   b8f3e:	2100      	movs	r1, #0
   b8f40:	4668      	mov	r0, sp
   b8f42:	f001 fb93 	bl	ba66c <memset>
    hal_rtc_get_time(&tv, nullptr);
   b8f46:	2100      	movs	r1, #0
   b8f48:	4668      	mov	r0, sp
   b8f4a:	f7fe f98d 	bl	b7268 <hal_rtc_get_time>
}
   b8f4e:	9800      	ldr	r0, [sp, #0]
   b8f50:	b005      	add	sp, #20
   b8f52:	f85d fb04 	ldr.w	pc, [sp], #4
	...

000b8f58 <_GLOBAL__sub_I_TIME_FORMAT_DEFAULT>:
const char* TimeClass::format_spec = TIME_FORMAT_DEFAULT;
   b8f58:	4b02      	ldr	r3, [pc, #8]	; (b8f64 <_GLOBAL__sub_I_TIME_FORMAT_DEFAULT+0xc>)
   b8f5a:	681a      	ldr	r2, [r3, #0]
   b8f5c:	4b02      	ldr	r3, [pc, #8]	; (b8f68 <_GLOBAL__sub_I_TIME_FORMAT_DEFAULT+0x10>)
   b8f5e:	601a      	str	r2, [r3, #0]
{
  return isValid();
}


TimeClass Time;
   b8f60:	4770      	bx	lr
   b8f62:	bf00      	nop
   b8f64:	20037064 	.word	0x20037064
   b8f68:	2003e684 	.word	0x2003e684

000b8f6c <delay>:
    return (value - fromStart) * (toEnd - toStart) / (fromEnd - fromStart) + toStart;
}

void delay(unsigned long ms)
{
    system_delay_ms(ms, false);
   b8f6c:	2100      	movs	r1, #0
   b8f6e:	f7fe bb63 	b.w	b7638 <system_delay_ms>
	...

000b8f74 <_GLOBAL__sub_I_RGB>:
    _Function_base() : _M_manager(nullptr) { }
   b8f74:	4b01      	ldr	r3, [pc, #4]	; (b8f7c <_GLOBAL__sub_I_RGB+0x8>)
   b8f76:	2200      	movs	r2, #0
   b8f78:	609a      	str	r2, [r3, #8]
{
    RGBClass* const d = static_cast<RGBClass*>(data);
    if (d->changeHandler_) {
        d->changeHandler_(r, g, b);
    }
}
   b8f7a:	4770      	bx	lr
   b8f7c:	2003e6c8 	.word	0x2003e6c8

000b8f80 <_ZN9FuelGauge4lockEv>:
#endif // HAL_PLATFORM_I2C_NUM != 1
    return SYSTEM_ERROR_NONE;
}

bool FuelGauge::lock() {
    return i2c_.lock();
   b8f80:	6800      	ldr	r0, [r0, #0]
   b8f82:	f000 bfcc 	b.w	b9f1e <_ZN7TwoWire4lockEv>

000b8f86 <_ZN9FuelGaugeC1ER7TwoWireb>:
FuelGauge::FuelGauge(TwoWire& i2c, bool _lock)
   b8f86:	b510      	push	{r4, lr}
   b8f88:	4604      	mov	r4, r0
      lock_(_lock) {
   b8f8a:	6001      	str	r1, [r0, #0]
   b8f8c:	7102      	strb	r2, [r0, #4]
    if (lock_) {
   b8f8e:	b10a      	cbz	r2, b8f94 <_ZN9FuelGaugeC1ER7TwoWireb+0xe>
        lock();
   b8f90:	f7ff fff6 	bl	b8f80 <_ZN9FuelGauge4lockEv>
}
   b8f94:	4620      	mov	r0, r4
   b8f96:	bd10      	pop	{r4, pc}

000b8f98 <_ZN9FuelGaugeC1Eb>:
FuelGauge::FuelGauge(bool _lock)
   b8f98:	b513      	push	{r0, r1, r4, lr}
   b8f9a:	4604      	mov	r4, r0
   b8f9c:	9101      	str	r1, [sp, #4]
    return &Wire;
   b8f9e:	f001 fa81 	bl	ba4a4 <_Z19__fetch_global_Wirev>
        : FuelGauge(*fuelWireInstance(), _lock)
   b8fa2:	9a01      	ldr	r2, [sp, #4]
    return &Wire;
   b8fa4:	4601      	mov	r1, r0
        : FuelGauge(*fuelWireInstance(), _lock)
   b8fa6:	4620      	mov	r0, r4
   b8fa8:	f7ff ffed 	bl	b8f86 <_ZN9FuelGaugeC1ER7TwoWireb>
}
   b8fac:	4620      	mov	r0, r4
   b8fae:	b002      	add	sp, #8
   b8fb0:	bd10      	pop	{r4, pc}

000b8fb2 <_ZN9FuelGauge6unlockEv>:
}

bool FuelGauge::unlock() {
    return i2c_.unlock();
   b8fb2:	6800      	ldr	r0, [r0, #0]
   b8fb4:	f000 bfbc 	b.w	b9f30 <_ZN7TwoWire6unlockEv>

000b8fb8 <_ZN9FuelGaugeD1Ev>:
FuelGauge::~FuelGauge()
   b8fb8:	b510      	push	{r4, lr}
    if (lock_) {
   b8fba:	7903      	ldrb	r3, [r0, #4]
FuelGauge::~FuelGauge()
   b8fbc:	4604      	mov	r4, r0
    if (lock_) {
   b8fbe:	b10b      	cbz	r3, b8fc4 <_ZN9FuelGaugeD1Ev+0xc>
        unlock();
   b8fc0:	f7ff fff7 	bl	b8fb2 <_ZN9FuelGauge6unlockEv>
}
   b8fc4:	4620      	mov	r0, r4
   b8fc6:	bd10      	pop	{r4, pc}

000b8fc8 <_ZN9FuelGauge12readRegisterEhRhS0_>:
int FuelGauge::readRegister(byte startAddress, byte &MSB, byte &LSB) {
   b8fc8:	e92d 41f0 	stmdb	sp!, {r4, r5, r6, r7, r8, lr}
   b8fcc:	4604      	mov	r4, r0
   b8fce:	b086      	sub	sp, #24
   b8fd0:	460d      	mov	r5, r1
   b8fd2:	4617      	mov	r7, r2
   b8fd4:	461e      	mov	r6, r3
   b8fd6:	f7ff ffd3 	bl	b8f80 <_ZN9FuelGauge4lockEv>
  WireTransmission(uint8_t address)
      : address_{address},
        size_{0},
        stop_{true},
        timeout_{HAL_I2C_DEFAULT_TIMEOUT_MS},
        buffer_(nullptr) {
   b8fda:	2300      	movs	r3, #0
   b8fdc:	2236      	movs	r2, #54	; 0x36
   b8fde:	e9cd 2301 	strd	r2, r3, [sp, #4]
    i2c_.beginTransmission(config);
   b8fe2:	6820      	ldr	r0, [r4, #0]
   b8fe4:	9305      	str	r3, [sp, #20]
    size_ = size;
    return *this;
  }

  WireTransmission& timeout(system_tick_t ms) {
    timeout_ = ms;
   b8fe6:	220a      	movs	r2, #10
   b8fe8:	f04f 0801 	mov.w	r8, #1
   b8fec:	a901      	add	r1, sp, #4
   b8fee:	e9cd 8203 	strd	r8, r2, [sp, #12]
   b8ff2:	f000 ff76 	bl	b9ee2 <_ZN7TwoWire17beginTransmissionERK16WireTransmission>
    i2c_.write(startAddress);
   b8ff6:	6820      	ldr	r0, [r4, #0]
   b8ff8:	6803      	ldr	r3, [r0, #0]
   b8ffa:	4629      	mov	r1, r5
   b8ffc:	689b      	ldr	r3, [r3, #8]
   b8ffe:	4798      	blx	r3
    CHECK_TRUE(i2c_.endTransmission(true) == 0, SYSTEM_ERROR_TIMEOUT);
   b9000:	6820      	ldr	r0, [r4, #0]
   b9002:	4641      	mov	r1, r8
   b9004:	f000 ff87 	bl	b9f16 <_ZN7TwoWire15endTransmissionEh>
   b9008:	4605      	mov	r5, r0
   b900a:	b140      	cbz	r0, b901e <_ZN9FuelGauge12readRegisterEhRhS0_+0x56>
   b900c:	f06f 059f 	mvn.w	r5, #159	; 0x9f
      { _M_device.unlock(); }
   b9010:	4620      	mov	r0, r4
   b9012:	f7ff ffce 	bl	b8fb2 <_ZN9FuelGauge6unlockEv>
}
   b9016:	4628      	mov	r0, r5
   b9018:	b006      	add	sp, #24
   b901a:	e8bd 81f0 	ldmia.w	sp!, {r4, r5, r6, r7, r8, pc}
    size_ = size;
   b901e:	2302      	movs	r3, #2
    CHECK_TRUE(i2c_.requestFrom(config) == 2, SYSTEM_ERROR_TIMEOUT);
   b9020:	6820      	ldr	r0, [r4, #0]
   b9022:	9302      	str	r3, [sp, #8]
   b9024:	a901      	add	r1, sp, #4
   b9026:	f000 ff43 	bl	b9eb0 <_ZN7TwoWire11requestFromERK16WireTransmission>
   b902a:	2802      	cmp	r0, #2
   b902c:	d1ee      	bne.n	b900c <_ZN9FuelGauge12readRegisterEhRhS0_+0x44>
    MSB = i2c_.read();
   b902e:	6820      	ldr	r0, [r4, #0]
   b9030:	6803      	ldr	r3, [r0, #0]
   b9032:	695b      	ldr	r3, [r3, #20]
   b9034:	4798      	blx	r3
   b9036:	7038      	strb	r0, [r7, #0]
    LSB = i2c_.read();
   b9038:	6820      	ldr	r0, [r4, #0]
   b903a:	6803      	ldr	r3, [r0, #0]
   b903c:	695b      	ldr	r3, [r3, #20]
   b903e:	4798      	blx	r3
   b9040:	7030      	strb	r0, [r6, #0]
    return SYSTEM_ERROR_NONE;
   b9042:	e7e5      	b.n	b9010 <_ZN9FuelGauge12readRegisterEhRhS0_+0x48>

000b9044 <_ZN9FuelGauge6getSoCEv>:
float FuelGauge::getSoC() {
   b9044:	b507      	push	{r0, r1, r2, lr}
    byte MSB = 0;
   b9046:	2300      	movs	r3, #0
   b9048:	f88d 3006 	strb.w	r3, [sp, #6]
    byte LSB = 0;
   b904c:	f88d 3007 	strb.w	r3, [sp, #7]
    if (readRegister(SOC_REGISTER, MSB, LSB) != SYSTEM_ERROR_NONE) {
   b9050:	f10d 0206 	add.w	r2, sp, #6
   b9054:	f10d 0307 	add.w	r3, sp, #7
   b9058:	2104      	movs	r1, #4
   b905a:	f7ff ffb5 	bl	b8fc8 <_ZN9FuelGauge12readRegisterEhRhS0_>
   b905e:	b960      	cbnz	r0, b907a <_ZN9FuelGauge6getSoCEv+0x36>
            soc_percent = (((uint32_t)MSB << 8) + LSB) / 256.0f; // per datasheet
   b9060:	f89d 2006 	ldrb.w	r2, [sp, #6]
   b9064:	f89d 3007 	ldrb.w	r3, [sp, #7]
   b9068:	eb03 2302 	add.w	r3, r3, r2, lsl #8
   b906c:	ee00 3a10 	vmov	s0, r3
   b9070:	eeba 0acc 	vcvt.f32.s32	s0, s0, #8
}
   b9074:	b003      	add	sp, #12
   b9076:	f85d fb04 	ldr.w	pc, [sp], #4
        return -1.0f;
   b907a:	eebf 0a00 	vmov.f32	s0, #240	; 0xbf800000 -1.0
   b907e:	e7f9      	b.n	b9074 <_ZN9FuelGauge6getSoCEv+0x30>

000b9080 <_ZZ21module_user_init_hookENUlP6_reentjmPvE_4_FUNES0_jmS1_>:

void module_user_init_hook()
{
#if HAL_PLATFORM_NEWLIB
    newlib_impure_ptr_callback([](struct _reent* r, size_t size, uint32_t version, void* ctx) -> void {
        _impure_ptr = r;
   b9080:	4b01      	ldr	r3, [pc, #4]	; (b9088 <_ZZ21module_user_init_hookENUlP6_reentjmPvE_4_FUNES0_jmS1_+0x8>)
   b9082:	6018      	str	r0, [r3, #0]
    }, nullptr);
   b9084:	4770      	bx	lr
   b9086:	bf00      	nop
   b9088:	2003706c 	.word	0x2003706c

000b908c <serialEventRun>:
{
   b908c:	b508      	push	{r3, lr}
    if (serialEvent && Serial.available()>0)
   b908e:	4b0b      	ldr	r3, [pc, #44]	; (b90bc <serialEventRun+0x30>)
   b9090:	b143      	cbz	r3, b90a4 <serialEventRun+0x18>
   b9092:	f000 fc51 	bl	b9938 <_Z16_fetch_usbserialv>
   b9096:	6803      	ldr	r3, [r0, #0]
   b9098:	691b      	ldr	r3, [r3, #16]
   b909a:	4798      	blx	r3
   b909c:	2800      	cmp	r0, #0
   b909e:	dd01      	ble.n	b90a4 <serialEventRun+0x18>
        serialEvent();
   b90a0:	f3af 8000 	nop.w
    if (serialEvent1 && Serial1.available()>0)
   b90a4:	4b06      	ldr	r3, [pc, #24]	; (b90c0 <serialEventRun+0x34>)
   b90a6:	b143      	cbz	r3, b90ba <serialEventRun+0x2e>
   b90a8:	f001 f9a6 	bl	ba3f8 <_Z22__fetch_global_Serial1v>
   b90ac:	6803      	ldr	r3, [r0, #0]
   b90ae:	691b      	ldr	r3, [r3, #16]
   b90b0:	4798      	blx	r3
   b90b2:	2800      	cmp	r0, #0
   b90b4:	dd01      	ble.n	b90ba <serialEventRun+0x2e>
        serialEvent1();
   b90b6:	f3af 8000 	nop.w
}
   b90ba:	bd08      	pop	{r3, pc}
	...

000b90c4 <_post_loop>:
{
   b90c4:	b508      	push	{r3, lr}
	serialEventRun();
   b90c6:	f7ff ffe1 	bl	b908c <serialEventRun>
		return !thread || !thread->isRunning();
	}

	static inline system_tick_t current_time()
	{
		return HAL_Timer_Get_Milli_Seconds();
   b90ca:	f7fe f89d 	bl	b7208 <HAL_Timer_Get_Milli_Seconds>
	/**
	 * Lifesign that the application is still working normally.
	 */
	static void checkin()
	{
		last_checkin = current_time();
   b90ce:	4b01      	ldr	r3, [pc, #4]	; (b90d4 <_post_loop+0x10>)
   b90d0:	6018      	str	r0, [r3, #0]
}
   b90d2:	bd08      	pop	{r3, pc}
   b90d4:	2003e740 	.word	0x2003e740

000b90d8 <_Z33system_initialize_user_backup_ramv>:
    memcpy(&link_global_retained_start, &link_global_retained_initial_values, len);
   b90d8:	4805      	ldr	r0, [pc, #20]	; (b90f0 <_Z33system_initialize_user_backup_ramv+0x18>)
   b90da:	4a06      	ldr	r2, [pc, #24]	; (b90f4 <_Z33system_initialize_user_backup_ramv+0x1c>)
   b90dc:	4906      	ldr	r1, [pc, #24]	; (b90f8 <_Z33system_initialize_user_backup_ramv+0x20>)
{
   b90de:	b508      	push	{r3, lr}
    memcpy(&link_global_retained_start, &link_global_retained_initial_values, len);
   b90e0:	1a12      	subs	r2, r2, r0
   b90e2:	f001 fa9b 	bl	ba61c <memcpy>
    __backup_sram_signature = signature;
   b90e6:	4b05      	ldr	r3, [pc, #20]	; (b90fc <_Z33system_initialize_user_backup_ramv+0x24>)
   b90e8:	4a05      	ldr	r2, [pc, #20]	; (b9100 <_Z33system_initialize_user_backup_ramv+0x28>)
   b90ea:	601a      	str	r2, [r3, #0]
}
   b90ec:	bd08      	pop	{r3, pc}
   b90ee:	bf00      	nop
   b90f0:	2003f400 	.word	0x2003f400
   b90f4:	2003f49c 	.word	0x2003f49c
   b90f8:	000bd6c0 	.word	0x000bd6c0
   b90fc:	2003f498 	.word	0x2003f498
   b9100:	9a271c1e 	.word	0x9a271c1e

000b9104 <_Z27ctrl_request_custom_handlerP12ctrl_request>:
void __attribute((weak)) ctrl_request_custom_handler(ctrl_request* req) {
   b9104:	b507      	push	{r0, r1, r2, lr}
    system_ctrl_set_result(req, SYSTEM_ERROR_NOT_SUPPORTED, nullptr, nullptr, nullptr);
   b9106:	2300      	movs	r3, #0
   b9108:	9300      	str	r3, [sp, #0]
   b910a:	461a      	mov	r2, r3
   b910c:	f06f 0177 	mvn.w	r1, #119	; 0x77
   b9110:	f7fe fac4 	bl	b769c <system_ctrl_set_result>
}
   b9114:	b003      	add	sp, #12
   b9116:	f85d fb04 	ldr.w	pc, [sp], #4
	...

000b911c <_ZL20ctrl_request_handlerP12ctrl_request>:
static void ctrl_request_handler(ctrl_request* req) {
   b911c:	b507      	push	{r0, r1, r2, lr}
    switch (req->type) {
   b911e:	8843      	ldrh	r3, [r0, #2]
   b9120:	2b0a      	cmp	r3, #10
   b9122:	d008      	beq.n	b9136 <_ZL20ctrl_request_handlerP12ctrl_request+0x1a>
   b9124:	2b50      	cmp	r3, #80	; 0x50
   b9126:	d10b      	bne.n	b9140 <_ZL20ctrl_request_handlerP12ctrl_request+0x24>
        if (log_process_ctrl_request_callback) {
   b9128:	4b09      	ldr	r3, [pc, #36]	; (b9150 <_ZL20ctrl_request_handlerP12ctrl_request+0x34>)
   b912a:	681b      	ldr	r3, [r3, #0]
   b912c:	b14b      	cbz	r3, b9142 <_ZL20ctrl_request_handlerP12ctrl_request+0x26>
}
   b912e:	b003      	add	sp, #12
   b9130:	f85d eb04 	ldr.w	lr, [sp], #4
            log_process_ctrl_request_callback(req);
   b9134:	4718      	bx	r3
        ctrl_request_custom_handler(req);
   b9136:	f7ff ffe5 	bl	b9104 <_Z27ctrl_request_custom_handlerP12ctrl_request>
}
   b913a:	b003      	add	sp, #12
   b913c:	f85d fb04 	ldr.w	pc, [sp], #4
        system_ctrl_set_result(req, SYSTEM_ERROR_NOT_SUPPORTED, nullptr, nullptr, nullptr);
   b9140:	2300      	movs	r3, #0
   b9142:	9300      	str	r3, [sp, #0]
   b9144:	461a      	mov	r2, r3
   b9146:	f06f 0177 	mvn.w	r1, #119	; 0x77
   b914a:	f7fe faa7 	bl	b769c <system_ctrl_set_result>
}
   b914e:	e7f4      	b.n	b913a <_ZL20ctrl_request_handlerP12ctrl_request+0x1e>
   b9150:	2003e6dc 	.word	0x2003e6dc

000b9154 <module_user_init_hook>:
{
   b9154:	b510      	push	{r4, lr}
    newlib_impure_ptr_callback([](struct _reent* r, size_t size, uint32_t version, void* ctx) -> void {
   b9156:	4812      	ldr	r0, [pc, #72]	; (b91a0 <module_user_init_hook+0x4c>)
   b9158:	2100      	movs	r1, #0
   b915a:	f7fe fbbb 	bl	b78d4 <newlib_impure_ptr_callback>
#endif // HAL_PLATFORM_NEWLIB

#if HAL_PLATFORM_BACKUP_RAM
    backup_ram_was_valid_ = __backup_sram_signature == signature;
   b915e:	4b11      	ldr	r3, [pc, #68]	; (b91a4 <module_user_init_hook+0x50>)
   b9160:	681a      	ldr	r2, [r3, #0]
   b9162:	4b11      	ldr	r3, [pc, #68]	; (b91a8 <module_user_init_hook+0x54>)
   b9164:	429a      	cmp	r2, r3
   b9166:	4b11      	ldr	r3, [pc, #68]	; (b91ac <module_user_init_hook+0x58>)
   b9168:	bf0c      	ite	eq
   b916a:	2201      	moveq	r2, #1
   b916c:	2200      	movne	r2, #0
   b916e:	701a      	strb	r2, [r3, #0]
    if (!backup_ram_was_valid_) {
   b9170:	d001      	beq.n	b9176 <module_user_init_hook+0x22>
        system_initialize_user_backup_ram();
   b9172:	f7ff ffb1 	bl	b90d8 <_Z33system_initialize_user_backup_ramv>
    }
#endif

#if HAL_PLATFORM_RNG
    // Initialize the default stdlib PRNG using hardware RNG as a seed
    const uint32_t seed = HAL_RNG_GetRandomNumber();
   b9176:	f7fe f837 	bl	b71e8 <HAL_RNG_GetRandomNumber>
   b917a:	4604      	mov	r4, r0
    srand(seed);
   b917c:	f001 fa7e 	bl	ba67c <srand>

    // If the user defines random_seed_from_cloud, call it with a seed value
    // generated by a hardware RNG as well.
    if (random_seed_from_cloud) {
   b9180:	4b0b      	ldr	r3, [pc, #44]	; (b91b0 <module_user_init_hook+0x5c>)
   b9182:	b113      	cbz	r3, b918a <module_user_init_hook+0x36>
        random_seed_from_cloud(seed);
   b9184:	4620      	mov	r0, r4
   b9186:	f3af 8000 	nop.w
    }
#endif
    // Register the random_seed_from_cloud handler
    spark_set_random_seed_from_cloud_handler(&random_seed_from_cloud, nullptr);
   b918a:	2100      	movs	r1, #0
   b918c:	4808      	ldr	r0, [pc, #32]	; (b91b0 <module_user_init_hook+0x5c>)
   b918e:	f7fe fb49 	bl	b7824 <spark_set_random_seed_from_cloud_handler>

    // Register application handler for the control requests
    system_ctrl_set_app_request_handler(ctrl_request_handler, nullptr);
}
   b9192:	e8bd 4010 	ldmia.w	sp!, {r4, lr}
    system_ctrl_set_app_request_handler(ctrl_request_handler, nullptr);
   b9196:	4807      	ldr	r0, [pc, #28]	; (b91b4 <module_user_init_hook+0x60>)
   b9198:	2100      	movs	r1, #0
   b919a:	f7fe ba75 	b.w	b7688 <system_ctrl_set_app_request_handler>
   b919e:	bf00      	nop
   b91a0:	000b9081 	.word	0x000b9081
   b91a4:	2003f498 	.word	0x2003f498
   b91a8:	9a271c1e 	.word	0x9a271c1e
   b91ac:	2003e6d8 	.word	0x2003e6d8
   b91b0:	00000000 	.word	0x00000000
   b91b4:	000b911d 	.word	0x000b911d

000b91b8 <_ZNSt15_Sp_counted_ptrIPN8particle6detail10FutureImplIbNS1_13FutureContextEEELN9__gnu_cxx12_Lock_policyE0EED1Ev>:
    class _Sp_counted_ptr final : public _Sp_counted_base<_Lp>
   b91b8:	4770      	bx	lr

000b91ba <_ZNSt15_Sp_counted_ptrIPN8particle6detail10FutureImplIbNS1_13FutureContextEEELN9__gnu_cxx12_Lock_policyE0EE14_M_get_deleterERKSt9type_info>:
      { return nullptr; }
   b91ba:	2000      	movs	r0, #0
   b91bc:	4770      	bx	lr

000b91be <_ZNSt15_Sp_counted_ptrIPN8particle6detail10FutureImplIbNS1_13FutureContextEEELN9__gnu_cxx12_Lock_policyE0EED0Ev>:
    class _Sp_counted_ptr final : public _Sp_counted_base<_Lp>
   b91be:	b510      	push	{r4, lr}
   b91c0:	2110      	movs	r1, #16
   b91c2:	4604      	mov	r4, r0
   b91c4:	f7fb fe2f 	bl	b4e26 <_ZdlPvj>
   b91c8:	4620      	mov	r0, r4
   b91ca:	bd10      	pop	{r4, pc}

000b91cc <_ZNSt15_Sp_counted_ptrIPN8particle6detail10FutureImplIbNS1_13FutureContextEEELN9__gnu_cxx12_Lock_policyE0EE10_M_destroyEv>:
      _M_destroy() noexcept
   b91cc:	b508      	push	{r3, lr}
      { delete this; }
   b91ce:	f7ff fff6 	bl	b91be <_ZNSt15_Sp_counted_ptrIPN8particle6detail10FutureImplIbNS1_13FutureContextEEELN9__gnu_cxx12_Lock_policyE0EED0Ev>
   b91d2:	bd08      	pop	{r3, pc}

000b91d4 <_ZN8particle5ErrorC1EOS0_>:

inline particle::Error::Error(const Error& error) :
        Error(error.type_, error.msg_) {
}

inline particle::Error::Error(Error&& error) :
   b91d4:	b530      	push	{r4, r5, lr}
        type_(type) {
   b91d6:	2200      	movs	r2, #0
   b91d8:	f64f 749c 	movw	r4, #65436	; 0xff9c
   b91dc:	6002      	str	r2, [r0, #0]
   b91de:	8084      	strh	r4, [r0, #4]
   b91e0:	888d      	ldrh	r5, [r1, #4]
      __b = _GLIBCXX_MOVE(__tmp);
   b91e2:	808c      	strh	r4, [r1, #4]
      __a = _GLIBCXX_MOVE(__b);
   b91e4:	680c      	ldr	r4, [r1, #0]
   b91e6:	8085      	strh	r5, [r0, #4]
   b91e8:	6004      	str	r4, [r0, #0]
      __b = _GLIBCXX_MOVE(__tmp);
   b91ea:	600a      	str	r2, [r1, #0]
        Error() {
    swap(*this, error);
}
   b91ec:	bd30      	pop	{r4, r5, pc}

000b91ee <_ZN8particle5ErrorD1Ev>:

inline particle::Error::~Error() {
   b91ee:	b510      	push	{r4, lr}
   b91f0:	4604      	mov	r4, r0
    free((void*)msg_);
   b91f2:	6800      	ldr	r0, [r0, #0]
   b91f4:	f7fe fb2e 	bl	b7854 <free>
}
   b91f8:	4620      	mov	r0, r4
   b91fa:	bd10      	pop	{r4, pc}

000b91fc <_ZNSt15_Sp_counted_ptrIPN8particle6detail10FutureImplIbNS1_13FutureContextEEELN9__gnu_cxx12_Lock_policyE0EE10_M_disposeEv>:
      _M_dispose() noexcept
   b91fc:	b538      	push	{r3, r4, r5, lr}
      { delete _M_ptr; }
   b91fe:	68c4      	ldr	r4, [r0, #12]
   b9200:	b1f4      	cbz	r4, b9240 <_ZNSt15_Sp_counted_ptrIPN8particle6detail10FutureImplIbNS1_13FutureContextEEELN9__gnu_cxx12_Lock_policyE0EE10_M_disposeEv+0x44>
      _Tp
      load(memory_order __m = memory_order_seq_cst) const noexcept
      {
	alignas(_Tp) unsigned char __buf[sizeof(_Tp)];
	_Tp* __ptr = reinterpret_cast<_Tp*>(__buf);
	__atomic_load(std::__addressof(_M_i), __ptr, int(__m));
   b9202:	7823      	ldrb	r3, [r4, #0]
    ~FutureImpl() {
        // Call destructor of the appropriate unnamed enum's field
        const State s = this->state();
        if (s == State::SUCCEEDED) {
            result_.~ResultT();
        } else if (s == State::FAILED) {
   b9204:	2b02      	cmp	r3, #2
   b9206:	d103      	bne.n	b9210 <_ZNSt15_Sp_counted_ptrIPN8particle6detail10FutureImplIbNS1_13FutureContextEEELN9__gnu_cxx12_Lock_policyE0EE10_M_disposeEv+0x14>
            error_.~Error();
   b9208:	f104 000c 	add.w	r0, r4, #12
   b920c:	f7ff ffef 	bl	b91ee <_ZN8particle5ErrorD1Ev>
      {
	memory_order __b = __m & __memory_order_mask;
	__glibcxx_assert(__b != memory_order_release);
	__glibcxx_assert(__b != memory_order_acq_rel);

	return __atomic_load_n(&_M_p, int(__m));
   b9210:	6865      	ldr	r5, [r4, #4]
        delete onSuccess_.load(std::memory_order_relaxed);
   b9212:	b135      	cbz	r5, b9222 <_ZNSt15_Sp_counted_ptrIPN8particle6detail10FutureImplIbNS1_13FutureContextEEELN9__gnu_cxx12_Lock_policyE0EE10_M_disposeEv+0x26>
    class function<_Res(_ArgTypes...)>
   b9214:	4628      	mov	r0, r5
   b9216:	f7fb ff29 	bl	b506c <_ZNSt14_Function_baseD1Ev>
   b921a:	2110      	movs	r1, #16
   b921c:	4628      	mov	r0, r5
   b921e:	f7fb fe02 	bl	b4e26 <_ZdlPvj>
   b9222:	68a5      	ldr	r5, [r4, #8]
        delete onError_.load(std::memory_order_relaxed);
   b9224:	b135      	cbz	r5, b9234 <_ZNSt15_Sp_counted_ptrIPN8particle6detail10FutureImplIbNS1_13FutureContextEEELN9__gnu_cxx12_Lock_policyE0EE10_M_disposeEv+0x38>
   b9226:	4628      	mov	r0, r5
   b9228:	f7fb ff20 	bl	b506c <_ZNSt14_Function_baseD1Ev>
   b922c:	2110      	movs	r1, #16
   b922e:	4628      	mov	r0, r5
   b9230:	f7fb fdf9 	bl	b4e26 <_ZdlPvj>
   b9234:	4620      	mov	r0, r4
   b9236:	2114      	movs	r1, #20
   b9238:	e8bd 4038 	ldmia.w	sp!, {r3, r4, r5, lr}
   b923c:	f7fb bdf3 	b.w	b4e26 <_ZdlPvj>
   b9240:	bd38      	pop	{r3, r4, r5, pc}

000b9242 <_ZNK22CloudDisconnectOptions15toSystemOptionsEv>:

} // namespace

spark_cloud_disconnect_options CloudDisconnectOptions::toSystemOptions() const
{
    spark_cloud_disconnect_options opts = {};
   b9242:	2200      	movs	r2, #0
   b9244:	8142      	strh	r2, [r0, #10]
    opts.size = sizeof(opts);
   b9246:	220c      	movs	r2, #12
   b9248:	8002      	strh	r2, [r0, #0]
    opts.flags = flags_;
   b924a:	680a      	ldr	r2, [r1, #0]
   b924c:	7082      	strb	r2, [r0, #2]
    opts.graceful = graceful_;
   b924e:	7a0a      	ldrb	r2, [r1, #8]
   b9250:	70c2      	strb	r2, [r0, #3]
    opts.timeout = timeout_;
   b9252:	684a      	ldr	r2, [r1, #4]
   b9254:	6042      	str	r2, [r0, #4]
    opts.clear_session = clearSession_;
   b9256:	7a4a      	ldrb	r2, [r1, #9]
   b9258:	7202      	strb	r2, [r0, #8]
    opts.reconnect_immediately = reconnect_;
   b925a:	7a8a      	ldrb	r2, [r1, #10]
   b925c:	7242      	strb	r2, [r0, #9]
    return opts;
}
   b925e:	4770      	bx	lr

000b9260 <_ZN10CloudClass22call_raw_user_functionEPvPKcS0_>:
    }
    return CloudDisconnectOptions(options->flags, options->timeout, options->graceful, clearSession, options->reconnect_immediately);
}

int CloudClass::call_raw_user_function(void* data, const char* param, void* reserved)
{
   b9260:	b510      	push	{r4, lr}
   b9262:	b088      	sub	sp, #32
   b9264:	4604      	mov	r4, r0
    user_function_int_str_t* fn = (user_function_int_str_t*)(data);
    String p(param);
   b9266:	4668      	mov	r0, sp
   b9268:	f7fe fc93 	bl	b7b92 <_ZN6StringC1EPK19__FlashStringHelper>
    return (*fn)(p);
   b926c:	4669      	mov	r1, sp
   b926e:	a804      	add	r0, sp, #16
   b9270:	f7fe fcdb 	bl	b7c2a <_ZN6StringC1ERKS_>
   b9274:	a804      	add	r0, sp, #16
   b9276:	47a0      	blx	r4
   b9278:	4604      	mov	r4, r0
   b927a:	a804      	add	r0, sp, #16
   b927c:	f7fe fc3e 	bl	b7afc <_ZN6StringD1Ev>
    String p(param);
   b9280:	4668      	mov	r0, sp
   b9282:	f7fe fc3b 	bl	b7afc <_ZN6StringD1Ev>
}
   b9286:	4620      	mov	r0, r4
   b9288:	b008      	add	sp, #32
   b928a:	bd10      	pop	{r4, pc}

000b928c <_ZN10CloudClass17register_functionEPFiPvPKcS0_ES0_S2_>:
    wiring_event_handler_t* fn = (wiring_event_handler_t*)(handler_data);
    (*fn)(event_name, data);
}

bool CloudClass::register_function(cloud_function_t fn, void* data, const char* funcKey)
{
   b928c:	b51f      	push	{r0, r1, r2, r3, r4, lr}
    const char *funcKey;
    cloud_function_t fn;
    void* data;

     cloud_function_descriptor() {
         memset(this, 0, sizeof(*this));
   b928e:	2300      	movs	r3, #0
    cloud_function_descriptor desc = {};
    desc.size = sizeof(desc);
    desc.fn = fn;
    desc.data = (void*)data;
   b9290:	e9cd 0102 	strd	r0, r1, [sp, #8]
    desc.funcKey = funcKey;
   b9294:	9201      	str	r2, [sp, #4]
         size = sizeof(*this);
   b9296:	2410      	movs	r4, #16
    return spark_function(NULL, (user_function_int_str_t*)&desc, NULL);
   b9298:	461a      	mov	r2, r3
   b929a:	4669      	mov	r1, sp
   b929c:	4618      	mov	r0, r3
         memset(this, 0, sizeof(*this));
   b929e:	f8ad 3002 	strh.w	r3, [sp, #2]
         size = sizeof(*this);
   b92a2:	f8ad 4000 	strh.w	r4, [sp]
   b92a6:	f7fe fa8d 	bl	b77c4 <spark_function>
}
   b92aa:	b004      	add	sp, #16
   b92ac:	bd10      	pop	{r4, pc}

000b92ae <_ZN10CloudClass10disconnectERK22CloudDisconnectOptions>:

int CloudClass::publishVitals(system_tick_t period_s_) {
    return spark_publish_vitals(period_s_, nullptr);
}

void CloudClass::disconnect(const CloudDisconnectOptions& options) {
   b92ae:	b51f      	push	{r0, r1, r2, r3, r4, lr}
   b92b0:	4601      	mov	r1, r0
    const auto opts = options.toSystemOptions();
   b92b2:	a801      	add	r0, sp, #4
   b92b4:	f7ff ffc5 	bl	b9242 <_ZNK22CloudDisconnectOptions15toSystemOptionsEv>
    spark_cloud_disconnect(&opts, nullptr /* reserved */);
   b92b8:	2100      	movs	r1, #0
   b92ba:	f7fe fabb 	bl	b7834 <spark_cloud_disconnect>
}
   b92be:	b005      	add	sp, #20
   b92c0:	f85d fb04 	ldr.w	pc, [sp], #4

000b92c4 <_ZNSt12__shared_ptrIN8particle6detail10FutureImplIbNS1_13FutureContextEEELN9__gnu_cxx12_Lock_policyE0EEC1ERKS7_>:
      __shared_ptr(const __shared_ptr&) noexcept = default;
   b92c4:	680b      	ldr	r3, [r1, #0]
   b92c6:	6003      	str	r3, [r0, #0]
      : _M_pi(__r._M_pi)
   b92c8:	684b      	ldr	r3, [r1, #4]
   b92ca:	6043      	str	r3, [r0, #4]
	if (_M_pi != 0)
   b92cc:	b113      	cbz	r3, b92d4 <_ZNSt12__shared_ptrIN8particle6detail10FutureImplIbNS1_13FutureContextEEELN9__gnu_cxx12_Lock_policyE0EEC1ERKS7_+0x10>
    { ++_M_use_count; }
   b92ce:	685a      	ldr	r2, [r3, #4]
   b92d0:	3201      	adds	r2, #1
   b92d2:	605a      	str	r2, [r3, #4]
      __shared_ptr(const __shared_ptr&) noexcept = default;
   b92d4:	4770      	bx	lr

000b92d6 <_ZN8particle11PromiseBaseIbNS_6detail13FutureContextEE11fromDataPtrEPv>:
        // TODO: Use custom reference counting object to avoid unnecessary memory allocation
        return new detail::FutureImplPtr<ResultT, ContextT>(p_);
    }

    // Unwraps promise from an object pointer created via dataPtr() method
    static Promise<ResultT, ContextT> fromDataPtr(void* data) {
   b92d6:	b537      	push	{r0, r1, r2, r4, r5, lr}
   b92d8:	4604      	mov	r4, r0
   b92da:	4668      	mov	r0, sp
   b92dc:	460d      	mov	r5, r1
   b92de:	f7ff fff1 	bl	b92c4 <_ZNSt12__shared_ptrIN8particle6detail10FutureImplIbNS1_13FutureContextEEELN9__gnu_cxx12_Lock_policyE0EEC1ERKS7_>
	__shared_ptr(const __shared_ptr<_Yp, _Lp>& __r) noexcept
	: _M_ptr(__r._M_ptr), _M_refcount(__r._M_refcount)
	{ }

      __shared_ptr(__shared_ptr&& __r) noexcept
      : _M_ptr(__r._M_ptr), _M_refcount()
   b92e2:	9b00      	ldr	r3, [sp, #0]
	_Sp_counted_base<_Lp>* __tmp = __r._M_pi;
   b92e4:	9a01      	ldr	r2, [sp, #4]
      : _M_ptr(__r._M_ptr), _M_refcount()
   b92e6:	6023      	str	r3, [r4, #0]
	_M_pi = __tmp;
   b92e8:	6062      	str	r2, [r4, #4]
	__r._M_pi = _M_pi;
   b92ea:	2300      	movs	r3, #0
      ~__shared_ptr() = default;
   b92ec:	a801      	add	r0, sp, #4
	__r._M_pi = _M_pi;
   b92ee:	9301      	str	r3, [sp, #4]
      {
	_M_refcount._M_swap(__r._M_refcount);
	__r._M_ptr = 0;
   b92f0:	9300      	str	r3, [sp, #0]
      ~__shared_ptr() = default;
   b92f2:	f7fc ffeb 	bl	b62cc <_ZNSt14__shared_countILN9__gnu_cxx12_Lock_policyE0EED1Ev>
        auto d = static_cast<detail::FutureImplPtr<ResultT, ContextT>*>(data);
        const Promise<ResultT, ContextT> p(*d);
        delete d;
   b92f6:	b135      	cbz	r5, b9306 <_ZN8particle11PromiseBaseIbNS_6detail13FutureContextEE11fromDataPtrEPv+0x30>
   b92f8:	1d28      	adds	r0, r5, #4
   b92fa:	f7fc ffe7 	bl	b62cc <_ZNSt14__shared_countILN9__gnu_cxx12_Lock_policyE0EED1Ev>
   b92fe:	2108      	movs	r1, #8
   b9300:	4628      	mov	r0, r5
   b9302:	f7fb fd90 	bl	b4e26 <_ZdlPvj>
        return p;
    }
   b9306:	4620      	mov	r0, r4
   b9308:	b003      	add	sp, #12
   b930a:	bd30      	pop	{r4, r5, pc}

000b930c <_ZNKSt8functionIFvRKN8particle5ErrorEEEclES3_>:
      if (_M_empty())
   b930c:	6882      	ldr	r2, [r0, #8]
    function<_Res(_ArgTypes...)>::
   b930e:	b510      	push	{r4, lr}
      if (_M_empty())
   b9310:	b90a      	cbnz	r2, b9316 <_ZNKSt8functionIFvRKN8particle5ErrorEEEclES3_+0xa>
	__throw_bad_function_call();
   b9312:	f001 f8ef 	bl	ba4f4 <_ZSt25__throw_bad_function_callv>
    }
   b9316:	e8bd 4010 	ldmia.w	sp!, {r4, lr}
      return _M_invoker(_M_functor, std::forward<_ArgTypes>(__args)...);
   b931a:	68c3      	ldr	r3, [r0, #12]
   b931c:	4718      	bx	r3

000b931e <_ZNSt17_Function_handlerIFvvESt5_BindIFSt8functionIFvRKN8particle5ErrorEEES4_EEE9_M_invokeERKSt9_Any_data>:
      _M_invoke(const _Any_data& __functor, _ArgTypes&&... __args)
   b931e:	b508      	push	{r3, lr}
	    return __source._M_access<_Functor*>();
   b9320:	6800      	ldr	r0, [r0, #0]
   b9322:	f100 0110 	add.w	r1, r0, #16
   b9326:	f7ff fff1 	bl	b930c <_ZNKSt8functionIFvRKN8particle5ErrorEEEclES3_>
      }
   b932a:	bd08      	pop	{r3, pc}

000b932c <_ZNKSt8functionIFvRKbEEclES1_>:
      if (_M_empty())
   b932c:	6882      	ldr	r2, [r0, #8]
    function<_Res(_ArgTypes...)>::
   b932e:	b510      	push	{r4, lr}
      if (_M_empty())
   b9330:	b90a      	cbnz	r2, b9336 <_ZNKSt8functionIFvRKbEEclES1_+0xa>
	__throw_bad_function_call();
   b9332:	f001 f8df 	bl	ba4f4 <_ZSt25__throw_bad_function_callv>
    }
   b9336:	e8bd 4010 	ldmia.w	sp!, {r4, lr}
      return _M_invoker(_M_functor, std::forward<_ArgTypes>(__args)...);
   b933a:	68c3      	ldr	r3, [r0, #12]
   b933c:	4718      	bx	r3

000b933e <_ZNSt17_Function_handlerIFvvESt5_BindIFSt8functionIFvRKbEEbEEE9_M_invokeERKSt9_Any_data>:
      _M_invoke(const _Any_data& __functor, _ArgTypes&&... __args)
   b933e:	b508      	push	{r3, lr}
	    return __source._M_access<_Functor*>();
   b9340:	6800      	ldr	r0, [r0, #0]
   b9342:	f100 0110 	add.w	r1, r0, #16
   b9346:	f7ff fff1 	bl	b932c <_ZNKSt8functionIFvRKbEEclES1_>
      }
   b934a:	bd08      	pop	{r3, pc}

000b934c <_ZNSt14__shared_countILN9__gnu_cxx12_Lock_policyE0EEC1IPN8particle6detail10FutureImplIbNS5_13FutureContextEEEEET_>:
	__shared_count(_Ptr __p) : _M_pi(0)
   b934c:	b538      	push	{r3, r4, r5, lr}
   b934e:	2300      	movs	r3, #0
   b9350:	4604      	mov	r4, r0
   b9352:	6003      	str	r3, [r0, #0]
	      _M_pi = new _Sp_counted_ptr<_Ptr, _Lp>(__p);
   b9354:	2010      	movs	r0, #16
	__shared_count(_Ptr __p) : _M_pi(0)
   b9356:	460d      	mov	r5, r1
	      _M_pi = new _Sp_counted_ptr<_Ptr, _Lp>(__p);
   b9358:	f7fb fd61 	bl	b4e1e <_Znwj>
   b935c:	b128      	cbz	r0, b936a <_ZNSt14__shared_countILN9__gnu_cxx12_Lock_policyE0EEC1IPN8particle6detail10FutureImplIbNS5_13FutureContextEEEEET_+0x1e>
      : _M_use_count(1), _M_weak_count(1) { }
   b935e:	2301      	movs	r3, #1
   b9360:	e9c0 3301 	strd	r3, r3, [r0, #4]
      : _M_ptr(__p) { }
   b9364:	4b02      	ldr	r3, [pc, #8]	; (b9370 <_ZNSt14__shared_countILN9__gnu_cxx12_Lock_policyE0EEC1IPN8particle6detail10FutureImplIbNS5_13FutureContextEEEEET_+0x24>)
   b9366:	6003      	str	r3, [r0, #0]
   b9368:	60c5      	str	r5, [r0, #12]
	      _M_pi = new _Sp_counted_ptr<_Ptr, _Lp>(__p);
   b936a:	6020      	str	r0, [r4, #0]
	}
   b936c:	4620      	mov	r0, r4
   b936e:	bd38      	pop	{r3, r4, r5, pc}
   b9370:	000bcee4 	.word	0x000bcee4

000b9374 <_ZN8particle10FutureBaseIbNS_6detail13FutureContextEEC1ENS_5Error4TypeE>:
    // Construct failed future
    explicit FutureBase(Error error) :
            p_(new detail::FutureImpl<ResultT, ContextT>(std::move(error))) {
    }

    explicit FutureBase(Error::Type error) :
   b9374:	b57f      	push	{r0, r1, r2, r3, r4, r5, r6, lr}
   b9376:	4605      	mov	r5, r0
        type_(type) {
   b9378:	f8ad 1004 	strh.w	r1, [sp, #4]
   b937c:	2600      	movs	r6, #0
            p_(new detail::FutureImpl<ResultT, ContextT>(std::move(error))) {
   b937e:	4669      	mov	r1, sp
   b9380:	a802      	add	r0, sp, #8
   b9382:	9600      	str	r6, [sp, #0]
   b9384:	f7ff ff26 	bl	b91d4 <_ZN8particle5ErrorC1EOS0_>
   b9388:	2014      	movs	r0, #20
   b938a:	f7fb fd48 	bl	b4e1e <_Znwj>
   b938e:	4604      	mov	r4, r0
   b9390:	b148      	cbz	r0, b93a6 <_ZN8particle10FutureBaseIbNS_6detail13FutureContextEEC1ENS_5Error4TypeE+0x32>
      constexpr atomic(_Tp __i) noexcept : _M_i(__i) { }
   b9392:	2302      	movs	r3, #2
   b9394:	7003      	strb	r3, [r0, #0]
      constexpr __atomic_base(__int_type __i) noexcept : _M_i (__i) { }
   b9396:	2301      	movs	r3, #1
      constexpr __atomic_base(__pointer_type __p) noexcept : _M_p (__p) { }
   b9398:	e9c0 6601 	strd	r6, r6, [r0, #4]
      constexpr __atomic_base(__int_type __i) noexcept : _M_i (__i) { }
   b939c:	7043      	strb	r3, [r0, #1]
            error_(std::move(error)) {
   b939e:	a902      	add	r1, sp, #8
   b93a0:	300c      	adds	r0, #12
   b93a2:	f7ff ff17 	bl	b91d4 <_ZN8particle5ErrorC1EOS0_>
	: _M_ptr(__p), _M_refcount(__p, typename is_array<_Tp>::type())
   b93a6:	4628      	mov	r0, r5
	: __shared_count(__p)
   b93a8:	4621      	mov	r1, r4
	: _M_ptr(__p), _M_refcount(__p, typename is_array<_Tp>::type())
   b93aa:	f840 4b04 	str.w	r4, [r0], #4
	: __shared_count(__p)
   b93ae:	f7ff ffcd 	bl	b934c <_ZNSt14__shared_countILN9__gnu_cxx12_Lock_policyE0EEC1IPN8particle6detail10FutureImplIbNS5_13FutureContextEEEEET_>
            p_(new detail::FutureImpl<ResultT, ContextT>(std::move(error))) {
   b93b2:	a802      	add	r0, sp, #8
   b93b4:	f7ff ff1b 	bl	b91ee <_ZN8particle5ErrorD1Ev>
            FutureBase(Error(error)) {
   b93b8:	4668      	mov	r0, sp
   b93ba:	f7ff ff18 	bl	b91ee <_ZN8particle5ErrorD1Ev>
    }
   b93be:	4628      	mov	r0, r5
   b93c0:	b004      	add	sp, #16
   b93c2:	bd70      	pop	{r4, r5, r6, pc}

000b93c4 <_ZNSt8functionIFvRKN8particle5ErrorEEEC1ERKS5_>:
    function<_Res(_ArgTypes...)>::
   b93c4:	b538      	push	{r3, r4, r5, lr}
    _Function_base() : _M_manager(nullptr) { }
   b93c6:	2300      	movs	r3, #0
   b93c8:	6083      	str	r3, [r0, #8]
    bool _M_empty() const { return !_M_manager; }
   b93ca:	688b      	ldr	r3, [r1, #8]
    function<_Res(_ArgTypes...)>::
   b93cc:	4604      	mov	r4, r0
   b93ce:	460d      	mov	r5, r1
      if (static_cast<bool>(__x))
   b93d0:	b12b      	cbz	r3, b93de <_ZNSt8functionIFvRKN8particle5ErrorEEEC1ERKS5_+0x1a>
	  __x._M_manager(_M_functor, __x._M_functor, __clone_functor);
   b93d2:	2202      	movs	r2, #2
   b93d4:	4798      	blx	r3
	  _M_invoker = __x._M_invoker;
   b93d6:	68eb      	ldr	r3, [r5, #12]
   b93d8:	60e3      	str	r3, [r4, #12]
	  _M_manager = __x._M_manager;
   b93da:	68ab      	ldr	r3, [r5, #8]
   b93dc:	60a3      	str	r3, [r4, #8]
    }
   b93de:	4620      	mov	r0, r4
   b93e0:	bd38      	pop	{r3, r4, r5, pc}
	...

000b93e4 <_ZN8particle11PromiseBaseIbNS_6detail13FutureContextEE8setErrorENS_5ErrorE>:
    void setError(Error error) {
   b93e4:	b5f0      	push	{r4, r5, r6, r7, lr}
   b93e6:	b089      	sub	sp, #36	; 0x24
        { __shared_ptr(__p, std::move(__d), std::move(__a)).swap(*this); }

      /// Return the stored pointer.
      element_type*
      get() const noexcept
      { return _M_ptr; }
   b93e8:	6804      	ldr	r4, [r0, #0]
        p_->setError(std::move(error));
   b93ea:	4668      	mov	r0, sp
   b93ec:	f7ff fef2 	bl	b91d4 <_ZN8particle5ErrorC1EOS0_>

      bool
      compare_exchange_strong(_Tp& __e, _Tp __i, memory_order __s,
			      memory_order __f) noexcept
      {
	return __atomic_compare_exchange(std::__addressof(_M_i),
   b93f0:	f04f 0302 	mov.w	r3, #2
   b93f4:	e8d4 2f4f 	ldrexb	r2, [r4]
   b93f8:	2a00      	cmp	r2, #0
   b93fa:	d103      	bne.n	b9404 <_ZN8particle11PromiseBaseIbNS_6detail13FutureContextEE8setErrorENS_5ErrorE+0x20>
   b93fc:	e8c4 3f41 	strexb	r1, r3, [r4]
   b9400:	2900      	cmp	r1, #0
   b9402:	d1f7      	bne.n	b93f4 <_ZN8particle11PromiseBaseIbNS_6detail13FutureContextEE8setErrorENS_5ErrorE+0x10>
        if (this->changeState(State::FAILED)) {
   b9404:	d125      	bne.n	b9452 <_ZN8particle11PromiseBaseIbNS_6detail13FutureContextEE8setErrorENS_5ErrorE+0x6e>
            new(&error_) Error(std::move(error));
   b9406:	f104 050c 	add.w	r5, r4, #12
   b940a:	4669      	mov	r1, sp
   b940c:	4628      	mov	r0, r5
   b940e:	f7ff fee1 	bl	b91d4 <_ZN8particle5ErrorC1EOS0_>
	__atomic_store_n(&_M_i, __i, int(__m));
   b9412:	f3bf 8f5b 	dmb	ish
   b9416:	2301      	movs	r3, #1
   b9418:	7063      	strb	r3, [r4, #1]

      _GLIBCXX_ALWAYS_INLINE __pointer_type
      exchange(__pointer_type __p,
	       memory_order __m = memory_order_seq_cst) noexcept
      {
	return __atomic_exchange_n(&_M_p, __p, int(__m));
   b941a:	2000      	movs	r0, #0
   b941c:	f104 0308 	add.w	r3, r4, #8
   b9420:	f3bf 8f5b 	dmb	ish
   b9424:	e853 6f00 	ldrex	r6, [r3]
   b9428:	e843 0200 	strex	r2, r0, [r3]
   b942c:	2a00      	cmp	r2, #0
   b942e:	d1f9      	bne.n	b9424 <_ZN8particle11PromiseBaseIbNS_6detail13FutureContextEE8setErrorENS_5ErrorE+0x40>
   b9430:	f3bf 8f5b 	dmb	ish
        if (callbackPtr) {
   b9434:	b16e      	cbz	r6, b9452 <_ZN8particle11PromiseBaseIbNS_6detail13FutureContextEE8setErrorENS_5ErrorE+0x6e>
        return (application_thread_current(nullptr) != 0);
   b9436:	f7fe f90f 	bl	b7658 <application_thread_current>
        if (ContextT::isApplicationThreadCurrent()) {
   b943a:	b178      	cbz	r0, b945c <_ZN8particle11PromiseBaseIbNS_6detail13FutureContextEE8setErrorENS_5ErrorE+0x78>
            callback(std::forward<ArgsT>(args)...); // Synchronous call
   b943c:	4629      	mov	r1, r5
   b943e:	4630      	mov	r0, r6
   b9440:	f7ff ff64 	bl	b930c <_ZNKSt8functionIFvRKN8particle5ErrorEEEclES3_>
    class function<_Res(_ArgTypes...)>
   b9444:	4630      	mov	r0, r6
   b9446:	f7fb fe11 	bl	b506c <_ZNSt14_Function_baseD1Ev>
            delete callbackPtr;
   b944a:	2110      	movs	r1, #16
   b944c:	4630      	mov	r0, r6
   b944e:	f7fb fcea 	bl	b4e26 <_ZdlPvj>
        p_->setError(std::move(error));
   b9452:	4668      	mov	r0, sp
   b9454:	f7ff fecb 	bl	b91ee <_ZN8particle5ErrorD1Ev>
    }
   b9458:	b009      	add	sp, #36	; 0x24
   b945a:	bdf0      	pop	{r4, r5, r6, r7, pc}

     public:
      template<typename... _Args>
	explicit _GLIBCXX20_CONSTEXPR
	_Bind(const _Functor& __f, _Args&&... __args)
	: _M_f(__f), _M_bound_args(std::forward<_Args>(__args)...)
   b945c:	4631      	mov	r1, r6
   b945e:	a802      	add	r0, sp, #8
   b9460:	f7ff ffb0 	bl	b93c4 <_ZNSt8functionIFvRKN8particle5ErrorEEEC1ERKS5_>
        Error(error.type_, error.msg_) {
   b9464:	68e0      	ldr	r0, [r4, #12]
   b9466:	f9b4 5010 	ldrsh.w	r5, [r4, #16]
        msg_(msg ? (const char*)strdup(msg) : nullptr),
   b946a:	b108      	cbz	r0, b9470 <_ZN8particle11PromiseBaseIbNS_6detail13FutureContextEE8setErrorENS_5ErrorE+0x8c>
   b946c:	f001 f954 	bl	ba718 <strdup>
        type_(type) {
   b9470:	9006      	str	r0, [sp, #24]
            auto callbackPtr = new std::function<void()>(std::bind(callback, std::forward<ArgsT>(args)...));
   b9472:	2010      	movs	r0, #16
   b9474:	f8ad 501c 	strh.w	r5, [sp, #28]
   b9478:	f7fb fcd1 	bl	b4e1e <_Znwj>
   b947c:	4605      	mov	r5, r0
   b947e:	b1e8      	cbz	r0, b94bc <_ZN8particle11PromiseBaseIbNS_6detail13FutureContextEE8setErrorENS_5ErrorE+0xd8>
    _Function_base() : _M_manager(nullptr) { }
   b9480:	2700      	movs	r7, #0
   b9482:	6087      	str	r7, [r0, #8]
	{ __functor._M_access<_Functor*>() = new _Functor(std::move(__f)); }
   b9484:	2018      	movs	r0, #24
   b9486:	f7fb fcca 	bl	b4e1e <_Znwj>
   b948a:	4604      	mov	r4, r0
   b948c:	b188      	cbz	r0, b94b2 <_ZN8particle11PromiseBaseIbNS_6detail13FutureContextEE8setErrorENS_5ErrorE+0xce>
	std::swap(_M_functor, __x._M_functor);
   b948e:	4601      	mov	r1, r0
    _Function_base() : _M_manager(nullptr) { }
   b9490:	6087      	str	r7, [r0, #8]
	std::swap(_M_functor, __x._M_functor);
   b9492:	a802      	add	r0, sp, #8
   b9494:	f7fe fc7c 	bl	b7d90 <_ZSt4swapISt9_Any_dataENSt9enable_ifIXsrSt6__and_IJSt6__not_ISt15__is_tuple_likeIT_EESt21is_move_constructibleIS5_ESt18is_move_assignableIS5_EEE5valueEvE4typeERS5_SF_>
      _Tp __tmp = _GLIBCXX_MOVE(__a);
   b9498:	9b04      	ldr	r3, [sp, #16]
      __a = _GLIBCXX_MOVE(__b);
   b949a:	68a2      	ldr	r2, [r4, #8]
      __b = _GLIBCXX_MOVE(__tmp);
   b949c:	60a3      	str	r3, [r4, #8]
      _Tp __tmp = _GLIBCXX_MOVE(__a);
   b949e:	9b05      	ldr	r3, [sp, #20]
      __a = _GLIBCXX_MOVE(__b);
   b94a0:	9204      	str	r2, [sp, #16]
      constexpr _Head_base(const _Head_base&) = default;
      constexpr _Head_base(_Head_base&&) = default;

      template<typename _UHead>
        constexpr _Head_base(_UHead&& __h)
	: _M_head_impl(std::forward<_UHead>(__h)) { }
   b94a2:	a906      	add	r1, sp, #24
   b94a4:	68e2      	ldr	r2, [r4, #12]
      __b = _GLIBCXX_MOVE(__tmp);
   b94a6:	60e3      	str	r3, [r4, #12]
   b94a8:	f104 0010 	add.w	r0, r4, #16
      __a = _GLIBCXX_MOVE(__b);
   b94ac:	9205      	str	r2, [sp, #20]
   b94ae:	f7ff fe91 	bl	b91d4 <_ZN8particle5ErrorC1EOS0_>
	    _M_invoker = &_My_handler::_M_invoke;
   b94b2:	4b08      	ldr	r3, [pc, #32]	; (b94d4 <_ZN8particle11PromiseBaseIbNS_6detail13FutureContextEE8setErrorENS_5ErrorE+0xf0>)
   b94b4:	60eb      	str	r3, [r5, #12]
	    _M_manager = &_My_handler::_M_manager;
   b94b6:	4b08      	ldr	r3, [pc, #32]	; (b94d8 <_ZN8particle11PromiseBaseIbNS_6detail13FutureContextEE8setErrorENS_5ErrorE+0xf4>)
	{ __functor._M_access<_Functor*>() = new _Functor(std::move(__f)); }
   b94b8:	602c      	str	r4, [r5, #0]
	    _M_manager = &_My_handler::_M_manager;
   b94ba:	60ab      	str	r3, [r5, #8]
    struct _Head_base<_Idx, _Head, false>
   b94bc:	a806      	add	r0, sp, #24
   b94be:	f7ff fe96 	bl	b91ee <_ZN8particle5ErrorD1Ev>
    class function<_Res(_ArgTypes...)>
   b94c2:	a802      	add	r0, sp, #8
   b94c4:	f7fb fdd2 	bl	b506c <_ZNSt14_Function_baseD1Ev>
        return (application_thread_invoke(callback, data, nullptr) == 0);
   b94c8:	2200      	movs	r2, #0
   b94ca:	4629      	mov	r1, r5
   b94cc:	4803      	ldr	r0, [pc, #12]	; (b94dc <_ZN8particle11PromiseBaseIbNS_6detail13FutureContextEE8setErrorENS_5ErrorE+0xf8>)
   b94ce:	f7fe f8cb 	bl	b7668 <application_thread_invoke>
   b94d2:	e7b7      	b.n	b9444 <_ZN8particle11PromiseBaseIbNS_6detail13FutureContextEE8setErrorENS_5ErrorE+0x60>
   b94d4:	000b931f 	.word	0x000b931f
   b94d8:	000b95b9 	.word	0x000b95b9
   b94dc:	000b9df3 	.word	0x000b9df3

000b94e0 <_ZN10CloudClass13publish_eventEPKcS1_jiiN8particle5FlagsI15PublishFlagTypehEE>:
        PublishFlags flags) {
   b94e0:	e92d 43f0 	stmdb	sp!, {r4, r5, r6, r7, r8, r9, lr}
   b94e4:	b08d      	sub	sp, #52	; 0x34
   b94e6:	4604      	mov	r4, r0
   b94e8:	f89d 8058 	ldrb.w	r8, [sp, #88]	; 0x58
   b94ec:	460e      	mov	r6, r1
   b94ee:	4617      	mov	r7, r2
   b94f0:	4699      	mov	r9, r3
    static bool connected(void) { return spark_cloud_flag_connected(); }
   b94f2:	f7fe f97f 	bl	b77f4 <spark_cloud_flag_connected>
    if (!connected()) {
   b94f6:	b940      	cbnz	r0, b950a <_ZN10CloudClass13publish_eventEPKcS1_jiiN8particle5FlagsI15PublishFlagTypehEE+0x2a>
};

template<typename ResultT, typename ContextT = detail::FutureContext>
class Future: public FutureBase<ResultT, ContextT> {
public:
    using FutureBase<ResultT, ContextT>::FutureBase;
   b94f8:	f06f 01d1 	mvn.w	r1, #209	; 0xd1
   b94fc:	4620      	mov	r0, r4
   b94fe:	f7ff ff39 	bl	b9374 <_ZN8particle10FutureBaseIbNS_6detail13FutureContextEEC1ENS_5Error4TypeE>
}
   b9502:	4620      	mov	r0, r4
   b9504:	b00d      	add	sp, #52	; 0x34
   b9506:	e8bd 83f0 	ldmia.w	sp!, {r4, r5, r6, r7, r8, r9, pc}
    d.content_type = static_cast<int>(type);
   b950a:	9b14      	ldr	r3, [sp, #80]	; 0x50
    d.data_size = size;
   b950c:	f8cd 9028 	str.w	r9, [sp, #40]	; 0x28
    d.size = sizeof(spark_send_event_data);
   b9510:	2014      	movs	r0, #20
    spark_send_event_data d = {};
   b9512:	2500      	movs	r5, #0
   b9514:	e9cd 5508 	strd	r5, r5, [sp, #32]
    d.size = sizeof(spark_send_event_data);
   b9518:	9007      	str	r0, [sp, #28]
    d.content_type = static_cast<int>(type);
   b951a:	930b      	str	r3, [sp, #44]	; 0x2c
            p_(new detail::FutureImpl<ResultT, ContextT>(State::RUNNING)) {
   b951c:	f7fb fc7f 	bl	b4e1e <_Znwj>
   b9520:	4601      	mov	r1, r0
   b9522:	b118      	cbz	r0, b952c <_ZN10CloudClass13publish_eventEPKcS1_jiiN8particle5FlagsI15PublishFlagTypehEE+0x4c>
      constexpr __atomic_base(__pointer_type __p) noexcept : _M_p (__p) { }
   b9524:	e9c0 5501 	strd	r5, r5, [r0, #4]
      constexpr atomic(_Tp __i) noexcept : _M_i(__i) { }
   b9528:	7005      	strb	r5, [r0, #0]
      constexpr __atomic_base(__int_type __i) noexcept : _M_i (__i) { }
   b952a:	7045      	strb	r5, [r0, #1]
	: __shared_count(__p)
   b952c:	a804      	add	r0, sp, #16
	: _M_ptr(__p), _M_refcount(__p, typename is_array<_Tp>::type())
   b952e:	9103      	str	r1, [sp, #12]
	: __shared_count(__p)
   b9530:	f7ff ff0c 	bl	b934c <_ZNSt14__shared_countILN9__gnu_cxx12_Lock_policyE0EEC1IPN8particle6detail10FutureImplIbNS5_13FutureContextEEEEET_>
    d.handler_callback = publishCompletionCallback;
   b9534:	4b1f      	ldr	r3, [pc, #124]	; (b95b4 <_ZN10CloudClass13publish_eventEPKcS1_jiiN8particle5FlagsI15PublishFlagTypehEE+0xd4>)
   b9536:	9308      	str	r3, [sp, #32]
        return new detail::FutureImplPtr<ResultT, ContextT>(p_);
   b9538:	2008      	movs	r0, #8
   b953a:	f7fb fc70 	bl	b4e1e <_Znwj>
   b953e:	4605      	mov	r5, r0
   b9540:	b110      	cbz	r0, b9548 <_ZN10CloudClass13publish_eventEPKcS1_jiiN8particle5FlagsI15PublishFlagTypehEE+0x68>
   b9542:	a903      	add	r1, sp, #12
   b9544:	f7ff febe 	bl	b92c4 <_ZNSt12__shared_ptrIN8particle6detail10FutureImplIbNS1_13FutureContextEEELN9__gnu_cxx12_Lock_policyE0EEC1ERKS7_>
    if (!spark_send_event(name, data, ttl, flags.value(), &d) && !p.isDone()) {
   b9548:	ab07      	add	r3, sp, #28
   b954a:	9300      	str	r3, [sp, #0]
   b954c:	9a15      	ldr	r2, [sp, #84]	; 0x54
    d.handler_data = p.dataPtr();
   b954e:	9509      	str	r5, [sp, #36]	; 0x24
    if (!spark_send_event(name, data, ttl, flags.value(), &d) && !p.isDone()) {
   b9550:	fa5f f388 	uxtb.w	r3, r8
   b9554:	4639      	mov	r1, r7
   b9556:	4630      	mov	r0, r6
   b9558:	f7fe f954 	bl	b7804 <spark_send_event>
   b955c:	b9b8      	cbnz	r0, b958e <_ZN10CloudClass13publish_eventEPKcS1_jiiN8particle5FlagsI15PublishFlagTypehEE+0xae>
	return __atomic_load_n(&_M_i, int(__m));
   b955e:	9b03      	ldr	r3, [sp, #12]
   b9560:	785b      	ldrb	r3, [r3, #1]
   b9562:	f003 02ff 	and.w	r2, r3, #255	; 0xff
   b9566:	b993      	cbnz	r3, b958e <_ZN10CloudClass13publish_eventEPKcS1_jiiN8particle5FlagsI15PublishFlagTypehEE+0xae>
        type_(type) {
   b9568:	f64f 739c 	movw	r3, #65436	; 0xff9c
        p.setError(Error::UNKNOWN);
   b956c:	a905      	add	r1, sp, #20
   b956e:	a803      	add	r0, sp, #12
   b9570:	9205      	str	r2, [sp, #20]
   b9572:	f8ad 3018 	strh.w	r3, [sp, #24]
   b9576:	f7ff ff35 	bl	b93e4 <_ZN8particle11PromiseBaseIbNS_6detail13FutureContextEE8setErrorENS_5ErrorE>
   b957a:	a805      	add	r0, sp, #20
   b957c:	f7ff fe37 	bl	b91ee <_ZN8particle5ErrorD1Ev>
        p.fromDataPtr(d.handler_data); // Free wrapper object
   b9580:	a805      	add	r0, sp, #20
   b9582:	9909      	ldr	r1, [sp, #36]	; 0x24
   b9584:	f7ff fea7 	bl	b92d6 <_ZN8particle11PromiseBaseIbNS_6detail13FutureContextEE11fromDataPtrEPv>
      ~__shared_ptr() = default;
   b9588:	a806      	add	r0, sp, #24
   b958a:	f7fc fe9f 	bl	b62cc <_ZNSt14__shared_countILN9__gnu_cxx12_Lock_policyE0EED1Ev>
   b958e:	a903      	add	r1, sp, #12
   b9590:	a805      	add	r0, sp, #20
   b9592:	f7ff fe97 	bl	b92c4 <_ZNSt12__shared_ptrIN8particle6detail10FutureImplIbNS1_13FutureContextEEELN9__gnu_cxx12_Lock_policyE0EEC1ERKS7_>
      : _M_ptr(__r._M_ptr), _M_refcount()
   b9596:	9b05      	ldr	r3, [sp, #20]
	_Sp_counted_base<_Lp>* __tmp = __r._M_pi;
   b9598:	9a06      	ldr	r2, [sp, #24]
      : _M_ptr(__r._M_ptr), _M_refcount()
   b959a:	6023      	str	r3, [r4, #0]
	_M_pi = __tmp;
   b959c:	6062      	str	r2, [r4, #4]
	__r._M_pi = _M_pi;
   b959e:	2300      	movs	r3, #0
      ~__shared_ptr() = default;
   b95a0:	a806      	add	r0, sp, #24
	__r._M_pi = _M_pi;
   b95a2:	9306      	str	r3, [sp, #24]
	__r._M_ptr = 0;
   b95a4:	9305      	str	r3, [sp, #20]
      ~__shared_ptr() = default;
   b95a6:	f7fc fe91 	bl	b62cc <_ZNSt14__shared_countILN9__gnu_cxx12_Lock_policyE0EED1Ev>
   b95aa:	a804      	add	r0, sp, #16
   b95ac:	f7fc fe8e 	bl	b62cc <_ZNSt14__shared_countILN9__gnu_cxx12_Lock_policyE0EED1Ev>
class Promise: public PromiseBase<ResultT, ContextT> {
   b95b0:	e7a7      	b.n	b9502 <_ZN10CloudClass13publish_eventEPKcS1_jiiN8particle5FlagsI15PublishFlagTypehEE+0x22>
   b95b2:	bf00      	nop
   b95b4:	000b967d 	.word	0x000b967d

000b95b8 <_ZNSt17_Function_handlerIFvvESt5_BindIFSt8functionIFvRKN8particle5ErrorEEES4_EEE10_M_managerERSt9_Any_dataRKSC_St18_Manager_operation>:
	switch (__op)
   b95b8:	2a01      	cmp	r2, #1
      _M_manager(_Any_data& __dest, const _Any_data& __source,
   b95ba:	b5f8      	push	{r3, r4, r5, r6, r7, lr}
   b95bc:	4605      	mov	r5, r0
	switch (__op)
   b95be:	d103      	bne.n	b95c8 <_ZNSt17_Function_handlerIFvvESt5_BindIFSt8functionIFvRKN8particle5ErrorEEES4_EEE10_M_managerERSt9_Any_dataRKSC_St18_Manager_operation+0x10>
	    return __source._M_access<_Functor*>();
   b95c0:	680b      	ldr	r3, [r1, #0]
	    __dest._M_access<_Functor*>() = _Base::_M_get_pointer(__source);
   b95c2:	6003      	str	r3, [r0, #0]
      }
   b95c4:	2000      	movs	r0, #0
   b95c6:	bdf8      	pop	{r3, r4, r5, r6, r7, pc}
	  switch (__op)
   b95c8:	2a02      	cmp	r2, #2
   b95ca:	d010      	beq.n	b95ee <_ZNSt17_Function_handlerIFvvESt5_BindIFSt8functionIFvRKN8particle5ErrorEEES4_EEE10_M_managerERSt9_Any_dataRKSC_St18_Manager_operation+0x36>
   b95cc:	2a03      	cmp	r2, #3
   b95ce:	d1f9      	bne.n	b95c4 <_ZNSt17_Function_handlerIFvvESt5_BindIFSt8functionIFvRKN8particle5ErrorEEES4_EEE10_M_managerERSt9_Any_dataRKSC_St18_Manager_operation+0xc>
	  delete __victim._M_access<_Functor*>();
   b95d0:	6804      	ldr	r4, [r0, #0]
   b95d2:	2c00      	cmp	r4, #0
   b95d4:	d0f6      	beq.n	b95c4 <_ZNSt17_Function_handlerIFvvESt5_BindIFSt8functionIFvRKN8particle5ErrorEEES4_EEE10_M_managerERSt9_Any_dataRKSC_St18_Manager_operation+0xc>
   b95d6:	f104 0010 	add.w	r0, r4, #16
   b95da:	f7ff fe08 	bl	b91ee <_ZN8particle5ErrorD1Ev>
    class function<_Res(_ArgTypes...)>
   b95de:	4620      	mov	r0, r4
   b95e0:	f7fb fd44 	bl	b506c <_ZNSt14_Function_baseD1Ev>
	  delete __victim._M_access<_Functor*>();
   b95e4:	2118      	movs	r1, #24
   b95e6:	4620      	mov	r0, r4
   b95e8:	f7fb fc1d 	bl	b4e26 <_ZdlPvj>
   b95ec:	e7ea      	b.n	b95c4 <_ZNSt17_Function_handlerIFvvESt5_BindIFSt8functionIFvRKN8particle5ErrorEEES4_EEE10_M_managerERSt9_Any_dataRKSC_St18_Manager_operation+0xc>
	    new _Functor(*__source._M_access<const _Functor*>());
   b95ee:	2018      	movs	r0, #24
	  __dest._M_access<_Functor*>() =
   b95f0:	680e      	ldr	r6, [r1, #0]
	    new _Functor(*__source._M_access<const _Functor*>());
   b95f2:	f7fb fc14 	bl	b4e1e <_Znwj>
   b95f6:	4604      	mov	r4, r0
   b95f8:	b150      	cbz	r0, b9610 <_ZNSt17_Function_handlerIFvvESt5_BindIFSt8functionIFvRKN8particle5ErrorEEES4_EEE10_M_managerERSt9_Any_dataRKSC_St18_Manager_operation+0x58>
	explicit _GLIBCXX20_CONSTEXPR
	_Bind(_Functor&& __f, _Args&&... __args)
	: _M_f(std::move(__f)), _M_bound_args(std::forward<_Args>(__args)...)
	{ }

      _Bind(const _Bind&) = default;
   b95fa:	4631      	mov	r1, r6
   b95fc:	f7ff fee2 	bl	b93c4 <_ZNSt8functionIFvRKN8particle5ErrorEEEC1ERKS5_>
        Error(error.type_, error.msg_) {
   b9600:	6930      	ldr	r0, [r6, #16]
   b9602:	f9b6 7014 	ldrsh.w	r7, [r6, #20]
        msg_(msg ? (const char*)strdup(msg) : nullptr),
   b9606:	b108      	cbz	r0, b960c <_ZNSt17_Function_handlerIFvvESt5_BindIFSt8functionIFvRKN8particle5ErrorEEES4_EEE10_M_managerERSt9_Any_dataRKSC_St18_Manager_operation+0x54>
   b9608:	f001 f886 	bl	ba718 <strdup>
        type_(type) {
   b960c:	6120      	str	r0, [r4, #16]
   b960e:	82a7      	strh	r7, [r4, #20]
	  __dest._M_access<_Functor*>() =
   b9610:	602c      	str	r4, [r5, #0]
	}
   b9612:	e7d7      	b.n	b95c4 <_ZNSt17_Function_handlerIFvvESt5_BindIFSt8functionIFvRKN8particle5ErrorEEES4_EEE10_M_managerERSt9_Any_dataRKSC_St18_Manager_operation+0xc>

000b9614 <_ZNSt8functionIFvRKbEEC1ERKS3_>:
    function<_Res(_ArgTypes...)>::
   b9614:	b538      	push	{r3, r4, r5, lr}
    _Function_base() : _M_manager(nullptr) { }
   b9616:	2300      	movs	r3, #0
   b9618:	6083      	str	r3, [r0, #8]
    bool _M_empty() const { return !_M_manager; }
   b961a:	688b      	ldr	r3, [r1, #8]
    function<_Res(_ArgTypes...)>::
   b961c:	4604      	mov	r4, r0
   b961e:	460d      	mov	r5, r1
      if (static_cast<bool>(__x))
   b9620:	b12b      	cbz	r3, b962e <_ZNSt8functionIFvRKbEEC1ERKS3_+0x1a>
	  __x._M_manager(_M_functor, __x._M_functor, __clone_functor);
   b9622:	2202      	movs	r2, #2
   b9624:	4798      	blx	r3
	  _M_invoker = __x._M_invoker;
   b9626:	68eb      	ldr	r3, [r5, #12]
   b9628:	60e3      	str	r3, [r4, #12]
	  _M_manager = __x._M_manager;
   b962a:	68ab      	ldr	r3, [r5, #8]
   b962c:	60a3      	str	r3, [r4, #8]
    }
   b962e:	4620      	mov	r0, r4
   b9630:	bd38      	pop	{r3, r4, r5, pc}

000b9632 <_ZNSt17_Function_handlerIFvvESt5_BindIFSt8functionIFvRKbEEbEEE10_M_managerERSt9_Any_dataRKSA_St18_Manager_operation>:
	switch (__op)
   b9632:	2a01      	cmp	r2, #1
      _M_manager(_Any_data& __dest, const _Any_data& __source,
   b9634:	b570      	push	{r4, r5, r6, lr}
   b9636:	4604      	mov	r4, r0
	switch (__op)
   b9638:	d103      	bne.n	b9642 <_ZNSt17_Function_handlerIFvvESt5_BindIFSt8functionIFvRKbEEbEEE10_M_managerERSt9_Any_dataRKSA_St18_Manager_operation+0x10>
	    return __source._M_access<_Functor*>();
   b963a:	680b      	ldr	r3, [r1, #0]
	    __dest._M_access<_Functor*>() = _Base::_M_get_pointer(__source);
   b963c:	6003      	str	r3, [r0, #0]
      }
   b963e:	2000      	movs	r0, #0
   b9640:	bd70      	pop	{r4, r5, r6, pc}
	  switch (__op)
   b9642:	2a02      	cmp	r2, #2
   b9644:	d00c      	beq.n	b9660 <_ZNSt17_Function_handlerIFvvESt5_BindIFSt8functionIFvRKbEEbEEE10_M_managerERSt9_Any_dataRKSA_St18_Manager_operation+0x2e>
   b9646:	2a03      	cmp	r2, #3
   b9648:	d1f9      	bne.n	b963e <_ZNSt17_Function_handlerIFvvESt5_BindIFSt8functionIFvRKbEEbEEE10_M_managerERSt9_Any_dataRKSA_St18_Manager_operation+0xc>
	  delete __victim._M_access<_Functor*>();
   b964a:	6804      	ldr	r4, [r0, #0]
   b964c:	2c00      	cmp	r4, #0
   b964e:	d0f6      	beq.n	b963e <_ZNSt17_Function_handlerIFvvESt5_BindIFSt8functionIFvRKbEEbEEE10_M_managerERSt9_Any_dataRKSA_St18_Manager_operation+0xc>
    class function<_Res(_ArgTypes...)>
   b9650:	4620      	mov	r0, r4
   b9652:	f7fb fd0b 	bl	b506c <_ZNSt14_Function_baseD1Ev>
	  delete __victim._M_access<_Functor*>();
   b9656:	2114      	movs	r1, #20
   b9658:	4620      	mov	r0, r4
   b965a:	f7fb fbe4 	bl	b4e26 <_ZdlPvj>
   b965e:	e7ee      	b.n	b963e <_ZNSt17_Function_handlerIFvvESt5_BindIFSt8functionIFvRKbEEbEEE10_M_managerERSt9_Any_dataRKSA_St18_Manager_operation+0xc>
	    new _Functor(*__source._M_access<const _Functor*>());
   b9660:	2014      	movs	r0, #20
	  __dest._M_access<_Functor*>() =
   b9662:	680e      	ldr	r6, [r1, #0]
	    new _Functor(*__source._M_access<const _Functor*>());
   b9664:	f7fb fbdb 	bl	b4e1e <_Znwj>
   b9668:	4605      	mov	r5, r0
   b966a:	b120      	cbz	r0, b9676 <_ZNSt17_Function_handlerIFvvESt5_BindIFSt8functionIFvRKbEEbEEE10_M_managerERSt9_Any_dataRKSA_St18_Manager_operation+0x44>
   b966c:	4631      	mov	r1, r6
   b966e:	f7ff ffd1 	bl	b9614 <_ZNSt8functionIFvRKbEEC1ERKS3_>
   b9672:	7c33      	ldrb	r3, [r6, #16]
   b9674:	742b      	strb	r3, [r5, #16]
	  __dest._M_access<_Functor*>() =
   b9676:	6025      	str	r5, [r4, #0]
	}
   b9678:	e7e1      	b.n	b963e <_ZNSt17_Function_handlerIFvvESt5_BindIFSt8functionIFvRKbEEbEEE10_M_managerERSt9_Any_dataRKSA_St18_Manager_operation+0xc>
	...

000b967c <_ZN12_GLOBAL__N_125publishCompletionCallbackEiPKvPvS2_>:
void publishCompletionCallback(int error, const void* data, void* callbackData, void* reserved) {
   b967c:	b5f0      	push	{r4, r5, r6, r7, lr}
   b967e:	b089      	sub	sp, #36	; 0x24
   b9680:	4604      	mov	r4, r0
   b9682:	460d      	mov	r5, r1
    auto p = Promise<bool>::fromDataPtr(callbackData);
   b9684:	a801      	add	r0, sp, #4
   b9686:	4611      	mov	r1, r2
   b9688:	f7ff fe25 	bl	b92d6 <_ZN8particle11PromiseBaseIbNS_6detail13FutureContextEE11fromDataPtrEPv>
    if (error != Error::NONE) {
   b968c:	b1a4      	cbz	r4, b96b8 <_ZN12_GLOBAL__N_125publishCompletionCallbackEiPKvPvS2_+0x3c>
        p.setError(Error((Error::Type)error, (const char*)data));
   b968e:	b224      	sxth	r4, r4
        msg_(msg ? (const char*)strdup(msg) : nullptr),
   b9690:	b11d      	cbz	r5, b969a <_ZN12_GLOBAL__N_125publishCompletionCallbackEiPKvPvS2_+0x1e>
   b9692:	4628      	mov	r0, r5
   b9694:	f001 f840 	bl	ba718 <strdup>
   b9698:	4605      	mov	r5, r0
   b969a:	a801      	add	r0, sp, #4
   b969c:	a903      	add	r1, sp, #12
        type_(type) {
   b969e:	9503      	str	r5, [sp, #12]
   b96a0:	f8ad 4010 	strh.w	r4, [sp, #16]
   b96a4:	f7ff fe9e 	bl	b93e4 <_ZN8particle11PromiseBaseIbNS_6detail13FutureContextEE8setErrorENS_5ErrorE>
   b96a8:	a803      	add	r0, sp, #12
   b96aa:	f7ff fda0 	bl	b91ee <_ZN8particle5ErrorD1Ev>
   b96ae:	a802      	add	r0, sp, #8
   b96b0:	f7fc fe0c 	bl	b62cc <_ZNSt14__shared_countILN9__gnu_cxx12_Lock_policyE0EED1Ev>
}
   b96b4:	b009      	add	sp, #36	; 0x24
   b96b6:	bdf0      	pop	{r4, r5, r6, r7, pc}
      { return _M_ptr; }
   b96b8:	9d01      	ldr	r5, [sp, #4]
	return __atomic_compare_exchange(std::__addressof(_M_i),
   b96ba:	2301      	movs	r3, #1
   b96bc:	e8d5 2f4f 	ldrexb	r2, [r5]
   b96c0:	2a00      	cmp	r2, #0
   b96c2:	d103      	bne.n	b96cc <_ZN12_GLOBAL__N_125publishCompletionCallbackEiPKvPvS2_+0x50>
   b96c4:	e8c5 3f41 	strexb	r1, r3, [r5]
   b96c8:	2900      	cmp	r1, #0
   b96ca:	d1f7      	bne.n	b96bc <_ZN12_GLOBAL__N_125publishCompletionCallbackEiPKvPvS2_+0x40>
        if (this->changeState(State::SUCCEEDED)) {
   b96cc:	d1ef      	bne.n	b96ae <_ZN12_GLOBAL__N_125publishCompletionCallbackEiPKvPvS2_+0x32>
            new(&result_) ResultT(std::move(result));
   b96ce:	732b      	strb	r3, [r5, #12]
	__atomic_store_n(&_M_i, __i, int(__m));
   b96d0:	f3bf 8f5b 	dmb	ish
   b96d4:	706b      	strb	r3, [r5, #1]
	return __atomic_exchange_n(&_M_p, __p, int(__m));
   b96d6:	1d2b      	adds	r3, r5, #4
   b96d8:	f3bf 8f5b 	dmb	ish
   b96dc:	e853 6f00 	ldrex	r6, [r3]
   b96e0:	e843 4200 	strex	r2, r4, [r3]
   b96e4:	2a00      	cmp	r2, #0
   b96e6:	d1f9      	bne.n	b96dc <_ZN12_GLOBAL__N_125publishCompletionCallbackEiPKvPvS2_+0x60>
   b96e8:	f3bf 8f5b 	dmb	ish
        if (callbackPtr) {
   b96ec:	2e00      	cmp	r6, #0
   b96ee:	d0de      	beq.n	b96ae <_ZN12_GLOBAL__N_125publishCompletionCallbackEiPKvPvS2_+0x32>
        return (application_thread_current(nullptr) != 0);
   b96f0:	4620      	mov	r0, r4
   b96f2:	f7fd ffb1 	bl	b7658 <application_thread_current>
        if (ContextT::isApplicationThreadCurrent()) {
   b96f6:	4607      	mov	r7, r0
   b96f8:	b160      	cbz	r0, b9714 <_ZN12_GLOBAL__N_125publishCompletionCallbackEiPKvPvS2_+0x98>
            callback(std::forward<ArgsT>(args)...); // Synchronous call
   b96fa:	f105 010c 	add.w	r1, r5, #12
   b96fe:	4630      	mov	r0, r6
   b9700:	f7ff fe14 	bl	b932c <_ZNKSt8functionIFvRKbEEclES1_>
    class function<_Res(_ArgTypes...)>
   b9704:	4630      	mov	r0, r6
   b9706:	f7fb fcb1 	bl	b506c <_ZNSt14_Function_baseD1Ev>
            delete callbackPtr;
   b970a:	2110      	movs	r1, #16
   b970c:	4630      	mov	r0, r6
   b970e:	f7fb fb8a 	bl	b4e26 <_ZdlPvj>
   b9712:	e7cc      	b.n	b96ae <_ZN12_GLOBAL__N_125publishCompletionCallbackEiPKvPvS2_+0x32>
	: _M_f(__f), _M_bound_args(std::forward<_Args>(__args)...)
   b9714:	4631      	mov	r1, r6
   b9716:	a803      	add	r0, sp, #12
   b9718:	f7ff ff7c 	bl	b9614 <_ZNSt8functionIFvRKbEEC1ERKS3_>
	: _M_head_impl(std::forward<_UHead>(__h)) { }
   b971c:	7b2b      	ldrb	r3, [r5, #12]
   b971e:	f88d 301c 	strb.w	r3, [sp, #28]
            auto callbackPtr = new std::function<void()>(std::bind(callback, std::forward<ArgsT>(args)...));
   b9722:	2010      	movs	r0, #16
   b9724:	f7fb fb7b 	bl	b4e1e <_Znwj>
   b9728:	4605      	mov	r5, r0
   b972a:	b1d0      	cbz	r0, b9762 <_ZN12_GLOBAL__N_125publishCompletionCallbackEiPKvPvS2_+0xe6>
    _Function_base() : _M_manager(nullptr) { }
   b972c:	6087      	str	r7, [r0, #8]
	{ __functor._M_access<_Functor*>() = new _Functor(std::move(__f)); }
   b972e:	2014      	movs	r0, #20
   b9730:	f7fb fb75 	bl	b4e1e <_Znwj>
   b9734:	4604      	mov	r4, r0
   b9736:	b178      	cbz	r0, b9758 <_ZN12_GLOBAL__N_125publishCompletionCallbackEiPKvPvS2_+0xdc>
    _Function_base() : _M_manager(nullptr) { }
   b9738:	6087      	str	r7, [r0, #8]
	std::swap(_M_functor, __x._M_functor);
   b973a:	4601      	mov	r1, r0
   b973c:	a803      	add	r0, sp, #12
   b973e:	f7fe fb27 	bl	b7d90 <_ZSt4swapISt9_Any_dataENSt9enable_ifIXsrSt6__and_IJSt6__not_ISt15__is_tuple_likeIT_EESt21is_move_constructibleIS5_ESt18is_move_assignableIS5_EEE5valueEvE4typeERS5_SF_>
      _Tp __tmp = _GLIBCXX_MOVE(__a);
   b9742:	9b05      	ldr	r3, [sp, #20]
      __a = _GLIBCXX_MOVE(__b);
   b9744:	68a2      	ldr	r2, [r4, #8]
      __b = _GLIBCXX_MOVE(__tmp);
   b9746:	60a3      	str	r3, [r4, #8]
      _Tp __tmp = _GLIBCXX_MOVE(__a);
   b9748:	9b06      	ldr	r3, [sp, #24]
      __a = _GLIBCXX_MOVE(__b);
   b974a:	9205      	str	r2, [sp, #20]
   b974c:	68e2      	ldr	r2, [r4, #12]
      __b = _GLIBCXX_MOVE(__tmp);
   b974e:	60e3      	str	r3, [r4, #12]
   b9750:	f89d 301c 	ldrb.w	r3, [sp, #28]
      __a = _GLIBCXX_MOVE(__b);
   b9754:	9206      	str	r2, [sp, #24]
   b9756:	7423      	strb	r3, [r4, #16]
	    _M_invoker = &_My_handler::_M_invoke;
   b9758:	4b06      	ldr	r3, [pc, #24]	; (b9774 <_ZN12_GLOBAL__N_125publishCompletionCallbackEiPKvPvS2_+0xf8>)
   b975a:	60eb      	str	r3, [r5, #12]
	    _M_manager = &_My_handler::_M_manager;
   b975c:	4b06      	ldr	r3, [pc, #24]	; (b9778 <_ZN12_GLOBAL__N_125publishCompletionCallbackEiPKvPvS2_+0xfc>)
	{ __functor._M_access<_Functor*>() = new _Functor(std::move(__f)); }
   b975e:	602c      	str	r4, [r5, #0]
	    _M_manager = &_My_handler::_M_manager;
   b9760:	60ab      	str	r3, [r5, #8]
    class function<_Res(_ArgTypes...)>
   b9762:	a803      	add	r0, sp, #12
   b9764:	f7fb fc82 	bl	b506c <_ZNSt14_Function_baseD1Ev>
        return (application_thread_invoke(callback, data, nullptr) == 0);
   b9768:	2200      	movs	r2, #0
   b976a:	4629      	mov	r1, r5
   b976c:	4803      	ldr	r0, [pc, #12]	; (b977c <_ZN12_GLOBAL__N_125publishCompletionCallbackEiPKvPvS2_+0x100>)
   b976e:	f7fd ff7b 	bl	b7668 <application_thread_invoke>
   b9772:	e7c7      	b.n	b9704 <_ZN12_GLOBAL__N_125publishCompletionCallbackEiPKvPvS2_+0x88>
   b9774:	000b933f 	.word	0x000b933f
   b9778:	000b9633 	.word	0x000b9633
   b977c:	000b9df3 	.word	0x000b9df3

000b9780 <_ZN9IPAddressD1Ev>:
    IPAddress(uint32_t address);
    // 4 bytes defining the IP address in network order
    IPAddress(const uint8_t* address);
    IPAddress(const HAL_IPAddress& address);

    virtual ~IPAddress() {}
   b9780:	4770      	bx	lr

000b9782 <_ZN9IPAddressD0Ev>:
   b9782:	b510      	push	{r4, lr}
   b9784:	2118      	movs	r1, #24
   b9786:	4604      	mov	r4, r0
   b9788:	f7fb fb4d 	bl	b4e26 <_ZdlPvj>
   b978c:	4620      	mov	r0, r4
   b978e:	bd10      	pop	{r4, pc}

000b9790 <_ZNK9IPAddress7printToER5Print>:
#endif // Wiring_IPv6
	return address.ipv4==that.address.ipv4;
}

size_t IPAddress::printTo(Print& p) const
{
   b9790:	b5f0      	push	{r4, r5, r6, r7, lr}
#if Wiring_IPv6
#if HAL_USE_INET_HAL_POSIX
	if (address.v==6) {
   b9792:	7d03      	ldrb	r3, [r0, #20]
   b9794:	2b06      	cmp	r3, #6
{
   b9796:	b08d      	sub	sp, #52	; 0x34
   b9798:	460e      	mov	r6, r1
		char buf[INET6_ADDRSTRLEN+1];
		buf[0] = 0;
		inet_inet_ntop(AF_INET6, address.ipv6, buf, sizeof(buf));
   b979a:	f100 0704 	add.w	r7, r0, #4
   b979e:	f04f 0400 	mov.w	r4, #0
	if (address.v==6) {
   b97a2:	d012      	beq.n	b97ca <_ZNK9IPAddress7printToER5Print+0x3a>
   b97a4:	f100 0508 	add.w	r5, r0, #8
            val = n;
        }
#if __GNUC__ >= 9
#pragma GCC diagnostic pop
#endif // __GNUC__ >= 9
        return printNumber(val, base) + t;
   b97a8:	f815 1d01 	ldrb.w	r1, [r5, #-1]!
   b97ac:	220a      	movs	r2, #10
   b97ae:	4630      	mov	r0, r6
   b97b0:	f7fe fb45 	bl	b7e3e <_ZN5Print11printNumberEmh>
#else
#pragma message "HAL_USE_INET_HAL_POSIX is required for IPv6 support in IPAddress::printTo()"
#endif // HAL_USE_INET_HAL_POSIX
#endif // Wiring_IPv6
    size_t n = 0;
    for (int i = 0; i < 4; i++)
   b97b4:	42af      	cmp	r7, r5
    {
        if (n)
            n += p.print('.');
        n += p.print((*this)[i], DEC);
   b97b6:	4404      	add	r4, r0
    for (int i = 0; i < 4; i++)
   b97b8:	d019      	beq.n	b97ee <_ZNK9IPAddress7printToER5Print+0x5e>
        if (n)
   b97ba:	2c00      	cmp	r4, #0
   b97bc:	d0f4      	beq.n	b97a8 <_ZNK9IPAddress7printToER5Print+0x18>
            n += p.print('.');
   b97be:	212e      	movs	r1, #46	; 0x2e
   b97c0:	4630      	mov	r0, r6
   b97c2:	f7fe fb39 	bl	b7e38 <_ZN5Print5printEc>
   b97c6:	4404      	add	r4, r0
   b97c8:	e7ee      	b.n	b97a8 <_ZNK9IPAddress7printToER5Print+0x18>
		inet_inet_ntop(AF_INET6, address.ipv6, buf, sizeof(buf));
   b97ca:	232f      	movs	r3, #47	; 0x2f
   b97cc:	466a      	mov	r2, sp
   b97ce:	4639      	mov	r1, r7
   b97d0:	200a      	movs	r0, #10
		buf[0] = 0;
   b97d2:	f88d 4000 	strb.w	r4, [sp]
		inet_inet_ntop(AF_INET6, address.ipv6, buf, sizeof(buf));
   b97d6:	f7fd fdd7 	bl	b7388 <inet_inet_ntop>
      return write((const uint8_t *)str, strlen(str));
   b97da:	4668      	mov	r0, sp
   b97dc:	f7fb fac4 	bl	b4d68 <strlen>
   b97e0:	6833      	ldr	r3, [r6, #0]
   b97e2:	4602      	mov	r2, r0
   b97e4:	68db      	ldr	r3, [r3, #12]
   b97e6:	4669      	mov	r1, sp
   b97e8:	4630      	mov	r0, r6
   b97ea:	4798      	blx	r3
   b97ec:	4604      	mov	r4, r0
    }
    return n;
}
   b97ee:	4620      	mov	r0, r4
   b97f0:	b00d      	add	sp, #52	; 0x34
   b97f2:	bdf0      	pop	{r4, r5, r6, r7, pc}

000b97f4 <_ZN9IPAddressC1Ev>:
IPAddress::IPAddress()
   b97f4:	b510      	push	{r4, lr}
   b97f6:	4b05      	ldr	r3, [pc, #20]	; (b980c <_ZN9IPAddressC1Ev+0x18>)
   b97f8:	4604      	mov	r4, r0
        return address;
    }

    virtual size_t printTo(Print& p) const;

    void clear() { memset(&address, 0, sizeof (address)); }
   b97fa:	2211      	movs	r2, #17
   b97fc:	f840 3b04 	str.w	r3, [r0], #4
   b9800:	2100      	movs	r1, #0
   b9802:	f000 ff33 	bl	ba66c <memset>
}
   b9806:	4620      	mov	r0, r4
   b9808:	bd10      	pop	{r4, pc}
   b980a:	bf00      	nop
   b980c:	000bcf00 	.word	0x000bcf00

000b9810 <_ZN9IPAddressC1ERK16_HAL_IPAddress_t>:
IPAddress::IPAddress(const HAL_IPAddress& address)
   b9810:	4603      	mov	r3, r0
   b9812:	4a07      	ldr	r2, [pc, #28]	; (b9830 <_ZN9IPAddressC1ERK16_HAL_IPAddress_t+0x20>)
   b9814:	b510      	push	{r4, lr}
   b9816:	f843 2b04 	str.w	r2, [r3], #4
    memcpy(&this->address, &address, sizeof(address));
   b981a:	f101 0210 	add.w	r2, r1, #16
   b981e:	f851 4b04 	ldr.w	r4, [r1], #4
   b9822:	f843 4b04 	str.w	r4, [r3], #4
   b9826:	4291      	cmp	r1, r2
   b9828:	d1f9      	bne.n	b981e <_ZN9IPAddressC1ERK16_HAL_IPAddress_t+0xe>
   b982a:	780a      	ldrb	r2, [r1, #0]
   b982c:	701a      	strb	r2, [r3, #0]
}
   b982e:	bd10      	pop	{r4, pc}
   b9830:	000bcf00 	.word	0x000bcf00

000b9834 <_ZN9IPAddress8set_ipv4Ehhhh>:
{
   b9834:	b510      	push	{r4, lr}
    address.ipv4 = b0<<24 | b1 << 16 | b2 << 8 | b3;
   b9836:	f89d 4008 	ldrb.w	r4, [sp, #8]
   b983a:	ea44 2303 	orr.w	r3, r4, r3, lsl #8
   b983e:	ea43 4202 	orr.w	r2, r3, r2, lsl #16
   b9842:	ea42 6101 	orr.w	r1, r2, r1, lsl #24
        address.v = version;
   b9846:	2304      	movs	r3, #4
   b9848:	6041      	str	r1, [r0, #4]
   b984a:	7503      	strb	r3, [r0, #20]
}
   b984c:	bd10      	pop	{r4, pc}
	...

000b9850 <_ZN9IPAddressC1EPKh>:
IPAddress::IPAddress(const uint8_t* addr)
   b9850:	b507      	push	{r0, r1, r2, lr}
   b9852:	4b06      	ldr	r3, [pc, #24]	; (b986c <_ZN9IPAddressC1EPKh+0x1c>)
   b9854:	6003      	str	r3, [r0, #0]
    set_ipv4(addr[0], addr[1], addr[2], addr[3]);
   b9856:	78cb      	ldrb	r3, [r1, #3]
   b9858:	9300      	str	r3, [sp, #0]
   b985a:	788b      	ldrb	r3, [r1, #2]
   b985c:	784a      	ldrb	r2, [r1, #1]
   b985e:	7809      	ldrb	r1, [r1, #0]
   b9860:	f7ff ffe8 	bl	b9834 <_ZN9IPAddress8set_ipv4Ehhhh>
}
   b9864:	b003      	add	sp, #12
   b9866:	f85d fb04 	ldr.w	pc, [sp], #4
   b986a:	bf00      	nop
   b986c:	000bcf00 	.word	0x000bcf00

000b9870 <_ZN9USBSerial14blockOnOverrunEb>:
  HAL_USB_USART_Flush_Data(_serial);
}

void USBSerial::blockOnOverrun(bool block)
{
  _blocking = block;
   b9870:	7441      	strb	r1, [r0, #17]
}
   b9872:	4770      	bx	lr

000b9874 <__tcf_0>:
}

USBSerial& _fetch_usbserial()
{
  HAL_USB_USART_Config conf = acquireSerialBuffer();
	static USBSerial _usbserial(HAL_USB_USART_SERIAL, conf);
   b9874:	4770      	bx	lr

000b9876 <_ZN9USBSerialD1Ev>:
#include "usb_hal.h"
#include "system_task.h"
#include "spark_wiring_startup.h"
#include "concurrent_hal.h"

class USBSerial : public Stream
   b9876:	4770      	bx	lr

000b9878 <_ZN9USBSerial4readEv>:
{
   b9878:	b508      	push	{r3, lr}
	return std::max(-1, (int)HAL_USB_USART_Receive_Data(_serial, false));
   b987a:	2100      	movs	r1, #0
   b987c:	7c00      	ldrb	r0, [r0, #16]
   b987e:	f7fd fe7b 	bl	b7578 <HAL_USB_USART_Receive_Data>
}
   b9882:	ea40 70e0 	orr.w	r0, r0, r0, asr #31
   b9886:	bd08      	pop	{r3, pc}

000b9888 <_ZN9USBSerial4peekEv>:
{
   b9888:	b508      	push	{r3, lr}
	return std::max(-1, (int)HAL_USB_USART_Receive_Data(_serial, true));
   b988a:	2101      	movs	r1, #1
   b988c:	7c00      	ldrb	r0, [r0, #16]
   b988e:	f7fd fe73 	bl	b7578 <HAL_USB_USART_Receive_Data>
}
   b9892:	ea40 70e0 	orr.w	r0, r0, r0, asr #31
   b9896:	bd08      	pop	{r3, pc}

000b9898 <_ZN9USBSerial17availableForWriteEv>:
{
   b9898:	b508      	push	{r3, lr}
  return std::max(0, (int)HAL_USB_USART_Available_Data_For_Write(_serial));
   b989a:	7c00      	ldrb	r0, [r0, #16]
   b989c:	f7fd fe64 	bl	b7568 <HAL_USB_USART_Available_Data_For_Write>
}
   b98a0:	ea20 70e0 	bic.w	r0, r0, r0, asr #31
   b98a4:	bd08      	pop	{r3, pc}

000b98a6 <_ZN9USBSerial9availableEv>:
{
   b98a6:	b508      	push	{r3, lr}
	return std::max(0, (int)HAL_USB_USART_Available_Data(_serial));
   b98a8:	7c00      	ldrb	r0, [r0, #16]
   b98aa:	f7fd fe55 	bl	b7558 <HAL_USB_USART_Available_Data>
}
   b98ae:	ea20 70e0 	bic.w	r0, r0, r0, asr #31
   b98b2:	bd08      	pop	{r3, pc}

000b98b4 <_ZN9USBSerial5writeEh>:
{
   b98b4:	b513      	push	{r0, r1, r4, lr}
   b98b6:	4604      	mov	r4, r0
  if (HAL_USB_USART_Available_Data_For_Write(_serial) > 0 || _blocking) {
   b98b8:	7c00      	ldrb	r0, [r0, #16]
{
   b98ba:	9101      	str	r1, [sp, #4]
  if (HAL_USB_USART_Available_Data_For_Write(_serial) > 0 || _blocking) {
   b98bc:	f7fd fe54 	bl	b7568 <HAL_USB_USART_Available_Data_For_Write>
   b98c0:	2800      	cmp	r0, #0
   b98c2:	9901      	ldr	r1, [sp, #4]
   b98c4:	dc01      	bgt.n	b98ca <_ZN9USBSerial5writeEh+0x16>
   b98c6:	7c60      	ldrb	r0, [r4, #17]
   b98c8:	b120      	cbz	r0, b98d4 <_ZN9USBSerial5writeEh+0x20>
    return std::max(0, (int)HAL_USB_USART_Send_Data(_serial, byte));
   b98ca:	7c20      	ldrb	r0, [r4, #16]
   b98cc:	f7fd fe5c 	bl	b7588 <HAL_USB_USART_Send_Data>
   b98d0:	ea20 70e0 	bic.w	r0, r0, r0, asr #31
}
   b98d4:	b002      	add	sp, #8
   b98d6:	bd10      	pop	{r4, pc}

000b98d8 <_ZN9USBSerial5flushEv>:
  HAL_USB_USART_Flush_Data(_serial);
   b98d8:	7c00      	ldrb	r0, [r0, #16]
   b98da:	f7fd be5d 	b.w	b7598 <HAL_USB_USART_Flush_Data>

000b98de <_ZN9USBSerialD0Ev>:
   b98de:	b510      	push	{r4, lr}
   b98e0:	2114      	movs	r1, #20
   b98e2:	4604      	mov	r4, r0
   b98e4:	f7fb fa9f 	bl	b4e26 <_ZdlPvj>
   b98e8:	4620      	mov	r0, r4
   b98ea:	bd10      	pop	{r4, pc}

000b98ec <_ZN9USBSerialC1E20HAL_USB_USART_SerialRK20HAL_USB_USART_Config>:
USBSerial::USBSerial(HAL_USB_USART_Serial serial, const HAL_USB_USART_Config& conf)
   b98ec:	b510      	push	{r4, lr}
    virtual int available() = 0;
    virtual int read() = 0;
    virtual int peek() = 0;
    virtual void flush() = 0;

    Stream() {_timeout=1000;}
   b98ee:	f44f 737a 	mov.w	r3, #1000	; 0x3e8
   b98f2:	4604      	mov	r4, r0
   b98f4:	4608      	mov	r0, r1
   b98f6:	2100      	movs	r1, #0
   b98f8:	e9c4 1301 	strd	r1, r3, [r4, #4]
   b98fc:	4b04      	ldr	r3, [pc, #16]	; (b9910 <_ZN9USBSerialC1E20HAL_USB_USART_SerialRK20HAL_USB_USART_Config+0x24>)
   b98fe:	6023      	str	r3, [r4, #0]
  _blocking = true;
   b9900:	2301      	movs	r3, #1
  _serial = serial;
   b9902:	7420      	strb	r0, [r4, #16]
  _blocking = true;
   b9904:	7463      	strb	r3, [r4, #17]
  HAL_USB_USART_Init(_serial, &conf);
   b9906:	4611      	mov	r1, r2
   b9908:	f7fd fe0e 	bl	b7528 <HAL_USB_USART_Init>
}
   b990c:	4620      	mov	r0, r4
   b990e:	bd10      	pop	{r4, pc}
   b9910:	000bcf14 	.word	0x000bcf14

000b9914 <_ZN9USBSerial5beginEl>:
    HAL_USB_USART_Begin(_serial, speed, NULL);
   b9914:	7c00      	ldrb	r0, [r0, #16]
   b9916:	2200      	movs	r2, #0
   b9918:	f7fd be0e 	b.w	b7538 <HAL_USB_USART_Begin>

000b991c <_ZN9USBSerial3endEv>:
    HAL_USB_USART_End(_serial);
   b991c:	7c00      	ldrb	r0, [r0, #16]
   b991e:	f7fd be13 	b.w	b7548 <HAL_USB_USART_End>

000b9922 <_ZN9USBSerial11isConnectedEv>:
  return HAL_USB_USART_Is_Connected(_serial);
   b9922:	7c00      	ldrb	r0, [r0, #16]
   b9924:	f7fd be40 	b.w	b75a8 <HAL_USB_USART_Is_Connected>

000b9928 <_Z19acquireSerialBufferv>:
{
   b9928:	b510      	push	{r4, lr}
  HAL_USB_USART_Config conf = {};
   b992a:	2214      	movs	r2, #20
{
   b992c:	4604      	mov	r4, r0
  HAL_USB_USART_Config conf = {};
   b992e:	2100      	movs	r1, #0
   b9930:	f000 fe9c 	bl	ba66c <memset>
}
   b9934:	4620      	mov	r0, r4
   b9936:	bd10      	pop	{r4, pc}

000b9938 <_Z16_fetch_usbserialv>:
{
   b9938:	b510      	push	{r4, lr}
	static USBSerial _usbserial(HAL_USB_USART_SERIAL, conf);
   b993a:	4c0f      	ldr	r4, [pc, #60]	; (b9978 <_Z16_fetch_usbserialv+0x40>)
{
   b993c:	b088      	sub	sp, #32
  HAL_USB_USART_Config conf = acquireSerialBuffer();
   b993e:	a803      	add	r0, sp, #12
   b9940:	f7ff fff2 	bl	b9928 <_Z19acquireSerialBufferv>
	static USBSerial _usbserial(HAL_USB_USART_SERIAL, conf);
   b9944:	7821      	ldrb	r1, [r4, #0]
   b9946:	f3bf 8f5b 	dmb	ish
   b994a:	f011 0101 	ands.w	r1, r1, #1
   b994e:	d10f      	bne.n	b9970 <_Z16_fetch_usbserialv+0x38>
   b9950:	4620      	mov	r0, r4
   b9952:	9101      	str	r1, [sp, #4]
   b9954:	f7fb fa76 	bl	b4e44 <__cxa_guard_acquire>
   b9958:	9901      	ldr	r1, [sp, #4]
   b995a:	b148      	cbz	r0, b9970 <_Z16_fetch_usbserialv+0x38>
   b995c:	aa03      	add	r2, sp, #12
   b995e:	4807      	ldr	r0, [pc, #28]	; (b997c <_Z16_fetch_usbserialv+0x44>)
   b9960:	f7ff ffc4 	bl	b98ec <_ZN9USBSerialC1E20HAL_USB_USART_SerialRK20HAL_USB_USART_Config>
   b9964:	4620      	mov	r0, r4
   b9966:	f7fb fa72 	bl	b4e4e <__cxa_guard_release>
   b996a:	4805      	ldr	r0, [pc, #20]	; (b9980 <_Z16_fetch_usbserialv+0x48>)
   b996c:	f000 fe38 	bl	ba5e0 <atexit>
	return _usbserial;
}
   b9970:	4802      	ldr	r0, [pc, #8]	; (b997c <_Z16_fetch_usbserialv+0x44>)
   b9972:	b008      	add	sp, #32
   b9974:	bd10      	pop	{r4, pc}
   b9976:	bf00      	nop
   b9978:	2003e6e0 	.word	0x2003e6e0
   b997c:	2003e6e4 	.word	0x2003e6e4
   b9980:	000b9875 	.word	0x000b9875

000b9984 <_ZN12_GLOBAL__N_19skipTokenEPK9jsmntok_t>:

namespace {

// Skips token and all its children tokens if any
const jsmntok_t* skipToken(const jsmntok_t *t) {
    size_t n = 1;
   b9984:	f100 0310 	add.w	r3, r0, #16
   b9988:	2201      	movs	r2, #1
    do {
        if (t->type == JSMN_OBJECT) {
   b998a:	f813 1c10 	ldrb.w	r1, [r3, #-16]
   b998e:	2901      	cmp	r1, #1
   b9990:	4618      	mov	r0, r3
   b9992:	d108      	bne.n	b99a6 <_ZN12_GLOBAL__N_19skipTokenEPK9jsmntok_t+0x22>
            n += t->size * 2; // Number of name and value tokens
   b9994:	f853 1c04 	ldr.w	r1, [r3, #-4]
   b9998:	eb02 0241 	add.w	r2, r2, r1, lsl #1
        } else if (t->type == JSMN_ARRAY) {
            n += t->size; // Number of value tokens
        }
        ++t;
        --n;
    } while (n);
   b999c:	3a01      	subs	r2, #1
   b999e:	f103 0310 	add.w	r3, r3, #16
   b99a2:	d1f2      	bne.n	b998a <_ZN12_GLOBAL__N_19skipTokenEPK9jsmntok_t+0x6>
    return t;
}
   b99a4:	4770      	bx	lr
        } else if (t->type == JSMN_ARRAY) {
   b99a6:	2902      	cmp	r1, #2
            n += t->size; // Number of value tokens
   b99a8:	bf04      	itt	eq
   b99aa:	f853 1c04 	ldreq.w	r1, [r3, #-4]
   b99ae:	1852      	addeq	r2, r2, r1
   b99b0:	e7f4      	b.n	b999c <_ZN12_GLOBAL__N_19skipTokenEPK9jsmntok_t+0x18>

000b99b2 <_ZN5spark10JSONWriter6printfEPKcz>:
    write("null", 4);
    state_ = NEXT;
    return *this;
}

void spark::JSONWriter::printf(const char *fmt, ...) {
   b99b2:	b40e      	push	{r1, r2, r3}
   b99b4:	b5f0      	push	{r4, r5, r6, r7, lr}
   b99b6:	b088      	sub	sp, #32
   b99b8:	af00      	add	r7, sp, #0
   b99ba:	f107 0534 	add.w	r5, r7, #52	; 0x34
    char buf[16];
    va_list args;
    va_start(args, fmt);
    int n = vsnprintf(buf, sizeof(buf), fmt, args);
   b99be:	2110      	movs	r1, #16
void spark::JSONWriter::printf(const char *fmt, ...) {
   b99c0:	f855 2b04 	ldr.w	r2, [r5], #4
    int n = vsnprintf(buf, sizeof(buf), fmt, args);
   b99c4:	607a      	str	r2, [r7, #4]
void spark::JSONWriter::printf(const char *fmt, ...) {
   b99c6:	4604      	mov	r4, r0
    int n = vsnprintf(buf, sizeof(buf), fmt, args);
   b99c8:	462b      	mov	r3, r5
   b99ca:	1878      	adds	r0, r7, r1
    va_start(args, fmt);
   b99cc:	60fd      	str	r5, [r7, #12]
    int n = vsnprintf(buf, sizeof(buf), fmt, args);
   b99ce:	f7fd ff59 	bl	b7884 <vsnprintf>
    va_end(args);
    if ((size_t)n >= sizeof(buf)) {
   b99d2:	280f      	cmp	r0, #15
   b99d4:	687a      	ldr	r2, [r7, #4]
   b99d6:	d91a      	bls.n	b9a0e <_ZN5spark10JSONWriter6printfEPKcz+0x5c>
        char buf[n + 1]; // Use larger buffer
   b99d8:	f100 0308 	add.w	r3, r0, #8
   b99dc:	f023 0307 	bic.w	r3, r3, #7
        va_start(args, fmt);
        n = vsnprintf(buf, sizeof(buf), fmt, args);
        va_end(args);
        if (n > 0) {
            write(buf, n);
        }
   b99e0:	466e      	mov	r6, sp
        char buf[n + 1]; // Use larger buffer
   b99e2:	ebad 0d03 	sub.w	sp, sp, r3
        n = vsnprintf(buf, sizeof(buf), fmt, args);
   b99e6:	1c41      	adds	r1, r0, #1
   b99e8:	462b      	mov	r3, r5
   b99ea:	4668      	mov	r0, sp
        va_start(args, fmt);
   b99ec:	60fd      	str	r5, [r7, #12]
        n = vsnprintf(buf, sizeof(buf), fmt, args);
   b99ee:	f7fd ff49 	bl	b7884 <vsnprintf>
        if (n > 0) {
   b99f2:	1e02      	subs	r2, r0, #0
   b99f4:	dd04      	ble.n	b9a00 <_ZN5spark10JSONWriter6printfEPKcz+0x4e>
            write(buf, n);
   b99f6:	6823      	ldr	r3, [r4, #0]
   b99f8:	4669      	mov	r1, sp
   b99fa:	689b      	ldr	r3, [r3, #8]
   b99fc:	4620      	mov	r0, r4
   b99fe:	4798      	blx	r3
   b9a00:	46b5      	mov	sp, r6
    } else if (n > 0) {
        write(buf, n);
    }
}
   b9a02:	3720      	adds	r7, #32
   b9a04:	46bd      	mov	sp, r7
   b9a06:	e8bd 40f0 	ldmia.w	sp!, {r4, r5, r6, r7, lr}
   b9a0a:	b003      	add	sp, #12
   b9a0c:	4770      	bx	lr
    } else if (n > 0) {
   b9a0e:	2800      	cmp	r0, #0
   b9a10:	d0f7      	beq.n	b9a02 <_ZN5spark10JSONWriter6printfEPKcz+0x50>
        write(buf, n);
   b9a12:	6823      	ldr	r3, [r4, #0]
   b9a14:	4602      	mov	r2, r0
   b9a16:	689b      	ldr	r3, [r3, #8]
   b9a18:	f107 0110 	add.w	r1, r7, #16
   b9a1c:	4620      	mov	r0, r4
   b9a1e:	4798      	blx	r3
}
   b9a20:	e7ef      	b.n	b9a02 <_ZN5spark10JSONWriter6printfEPKcz+0x50>

000b9a22 <_ZNSt12__shared_ptrIN5spark6detail8JSONDataELN9__gnu_cxx12_Lock_policyE0EEaSERKS5_.isra.0>:
      __shared_ptr& operator=(const __shared_ptr&) noexcept = default;
   b9a22:	b538      	push	{r3, r4, r5, lr}
   b9a24:	680b      	ldr	r3, [r1, #0]
   b9a26:	6003      	str	r3, [r0, #0]
   b9a28:	684d      	ldr	r5, [r1, #4]
	if (__tmp != _M_pi)
   b9a2a:	6843      	ldr	r3, [r0, #4]
   b9a2c:	429d      	cmp	r5, r3
      __shared_ptr& operator=(const __shared_ptr&) noexcept = default;
   b9a2e:	4604      	mov	r4, r0
	if (__tmp != _M_pi)
   b9a30:	d008      	beq.n	b9a44 <_ZNSt12__shared_ptrIN5spark6detail8JSONDataELN9__gnu_cxx12_Lock_policyE0EEaSERKS5_.isra.0+0x22>
	    if (__tmp != 0)
   b9a32:	b115      	cbz	r5, b9a3a <_ZNSt12__shared_ptrIN5spark6detail8JSONDataELN9__gnu_cxx12_Lock_policyE0EEaSERKS5_.isra.0+0x18>
    { ++_M_use_count; }
   b9a34:	686b      	ldr	r3, [r5, #4]
   b9a36:	3301      	adds	r3, #1
   b9a38:	606b      	str	r3, [r5, #4]
	    if (_M_pi != 0)
   b9a3a:	6860      	ldr	r0, [r4, #4]
   b9a3c:	b108      	cbz	r0, b9a42 <_ZNSt12__shared_ptrIN5spark6detail8JSONDataELN9__gnu_cxx12_Lock_policyE0EEaSERKS5_.isra.0+0x20>
	      _M_pi->_M_release();
   b9a3e:	f7fe f981 	bl	b7d44 <_ZNSt16_Sp_counted_baseILN9__gnu_cxx12_Lock_policyE0EE10_M_releaseEv>
	    _M_pi = __tmp;
   b9a42:	6065      	str	r5, [r4, #4]
      __shared_ptr& operator=(const __shared_ptr&) noexcept = default;
   b9a44:	bd38      	pop	{r3, r4, r5, pc}

000b9a46 <_ZN5spark10JSONWriter5writeEc>:
inline void spark::JSONWriter::write(char c) {
   b9a46:	b507      	push	{r0, r1, r2, lr}
    write(&c, 1);
   b9a48:	6803      	ldr	r3, [r0, #0]
inline void spark::JSONWriter::write(char c) {
   b9a4a:	f88d 1007 	strb.w	r1, [sp, #7]
    write(&c, 1);
   b9a4e:	689b      	ldr	r3, [r3, #8]
   b9a50:	2201      	movs	r2, #1
   b9a52:	f10d 0107 	add.w	r1, sp, #7
   b9a56:	4798      	blx	r3
}
   b9a58:	b003      	add	sp, #12
   b9a5a:	f85d fb04 	ldr.w	pc, [sp], #4

000b9a5e <_ZN5spark9JSONValueC1EPK9jsmntok_tSt10shared_ptrINS_6detail8JSONDataEE>:
spark::JSONValue::JSONValue(const jsmntok_t *t, detail::JSONDataPtr d) :
   b9a5e:	460b      	mov	r3, r1
   b9a60:	4611      	mov	r1, r2
      : _M_ptr(0), _M_refcount()
   b9a62:	2200      	movs	r2, #0
   b9a64:	b510      	push	{r4, lr}
      constexpr __shared_count() noexcept : _M_pi(0)
   b9a66:	e9c0 2200 	strd	r2, r2, [r0]
   b9a6a:	4604      	mov	r4, r0
        t_ = t;
   b9a6c:	6083      	str	r3, [r0, #8]
    if (t) {
   b9a6e:	b90b      	cbnz	r3, b9a74 <_ZN5spark9JSONValueC1EPK9jsmntok_tSt10shared_ptrINS_6detail8JSONDataEE+0x16>
}
   b9a70:	4620      	mov	r0, r4
   b9a72:	bd10      	pop	{r4, pc}
       *  @brief  Construct an empty %shared_ptr.
       *  @post   use_count() == 0 && get() == nullptr
       */
      constexpr shared_ptr(nullptr_t) noexcept : shared_ptr() { }

      shared_ptr& operator=(const shared_ptr&) noexcept = default;
   b9a74:	f7ff ffd5 	bl	b9a22 <_ZNSt12__shared_ptrIN5spark6detail8JSONDataELN9__gnu_cxx12_Lock_policyE0EEaSERKS5_.isra.0>
   b9a78:	e7fa      	b.n	b9a70 <_ZN5spark9JSONValueC1EPK9jsmntok_tSt10shared_ptrINS_6detail8JSONDataEE+0x12>

000b9a7a <_ZNK5spark9JSONValue4typeEv>:
    if (!t_) {
   b9a7a:	6883      	ldr	r3, [r0, #8]
   b9a7c:	b1eb      	cbz	r3, b9aba <_ZNK5spark9JSONValue4typeEv+0x40>
    switch (t_->type) {
   b9a7e:	781a      	ldrb	r2, [r3, #0]
   b9a80:	2a03      	cmp	r2, #3
   b9a82:	d81a      	bhi.n	b9aba <_ZNK5spark9JSONValue4typeEv+0x40>
   b9a84:	e8df f002 	tbb	[pc, r2]
   b9a88:	1b021704 	.word	0x1b021704
   b9a8c:	2005      	movs	r0, #5
   b9a8e:	4770      	bx	lr
        const char c = d_->json[t_->start];
   b9a90:	6802      	ldr	r2, [r0, #0]
   b9a92:	685b      	ldr	r3, [r3, #4]
   b9a94:	6852      	ldr	r2, [r2, #4]
   b9a96:	5cd0      	ldrb	r0, [r2, r3]
        if (c == '-' || (c >= '0' && c <= '9')) {
   b9a98:	282d      	cmp	r0, #45	; 0x2d
   b9a9a:	d012      	beq.n	b9ac2 <_ZNK5spark9JSONValue4typeEv+0x48>
   b9a9c:	f1a0 0330 	sub.w	r3, r0, #48	; 0x30
   b9aa0:	2b09      	cmp	r3, #9
   b9aa2:	d90e      	bls.n	b9ac2 <_ZNK5spark9JSONValue4typeEv+0x48>
        } else if (c == 't' || c == 'f') { // Literal names are always in lower case
   b9aa4:	2874      	cmp	r0, #116	; 0x74
   b9aa6:	d00e      	beq.n	b9ac6 <_ZNK5spark9JSONValue4typeEv+0x4c>
   b9aa8:	2866      	cmp	r0, #102	; 0x66
   b9aaa:	d00c      	beq.n	b9ac6 <_ZNK5spark9JSONValue4typeEv+0x4c>
        return JSON_TYPE_INVALID;
   b9aac:	f1a0 036e 	sub.w	r3, r0, #110	; 0x6e
   b9ab0:	4258      	negs	r0, r3
   b9ab2:	4158      	adcs	r0, r3
   b9ab4:	4770      	bx	lr
        return JSON_TYPE_OBJECT;
   b9ab6:	2006      	movs	r0, #6
   b9ab8:	4770      	bx	lr
        return JSON_TYPE_INVALID;
   b9aba:	2000      	movs	r0, #0
   b9abc:	4770      	bx	lr
        return JSON_TYPE_STRING;
   b9abe:	2004      	movs	r0, #4
   b9ac0:	4770      	bx	lr
            return JSON_TYPE_NUMBER;
   b9ac2:	2003      	movs	r0, #3
   b9ac4:	4770      	bx	lr
            return JSON_TYPE_BOOL;
   b9ac6:	2002      	movs	r0, #2
}
   b9ac8:	4770      	bx	lr

000b9aca <_ZNK5spark9JSONValue5toIntEv>:
int spark::JSONValue::toInt() const {
   b9aca:	b510      	push	{r4, lr}
   b9acc:	4604      	mov	r4, r0
    switch (type()) {
   b9ace:	f7ff ffd4 	bl	b9a7a <_ZNK5spark9JSONValue4typeEv>
   b9ad2:	2802      	cmp	r0, #2
   b9ad4:	d00e      	beq.n	b9af4 <_ZNK5spark9JSONValue5toIntEv+0x2a>
   b9ad6:	1ec3      	subs	r3, r0, #3
   b9ad8:	b2db      	uxtb	r3, r3
   b9ada:	2b01      	cmp	r3, #1
   b9adc:	d814      	bhi.n	b9b08 <_ZNK5spark9JSONValue5toIntEv+0x3e>
        const char* const s = d_->json + t_->start;
   b9ade:	6822      	ldr	r2, [r4, #0]
   b9ae0:	68a3      	ldr	r3, [r4, #8]
   b9ae2:	6850      	ldr	r0, [r2, #4]
   b9ae4:	685b      	ldr	r3, [r3, #4]
}
   b9ae6:	e8bd 4010 	ldmia.w	sp!, {r4, lr}
        return strtol(s, nullptr, 10);
   b9aea:	220a      	movs	r2, #10
   b9aec:	2100      	movs	r1, #0
   b9aee:	4418      	add	r0, r3
   b9af0:	f001 bd0a 	b.w	bb508 <strtol>
        const char* const s = d_->json + t_->start;
   b9af4:	6822      	ldr	r2, [r4, #0]
   b9af6:	68a3      	ldr	r3, [r4, #8]
        return *s == 't';
   b9af8:	6852      	ldr	r2, [r2, #4]
   b9afa:	685b      	ldr	r3, [r3, #4]
   b9afc:	5cd0      	ldrb	r0, [r2, r3]
   b9afe:	f1a0 0374 	sub.w	r3, r0, #116	; 0x74
   b9b02:	4258      	negs	r0, r3
   b9b04:	4158      	adcs	r0, r3
}
   b9b06:	bd10      	pop	{r4, pc}
    switch (type()) {
   b9b08:	2000      	movs	r0, #0
   b9b0a:	e7fc      	b.n	b9b06 <_ZNK5spark9JSONValue5toIntEv+0x3c>

000b9b0c <_ZN5spark10JSONStringC1EPK9jsmntok_tSt10shared_ptrINS_6detail8JSONDataEE>:
spark::JSONString::JSONString(const jsmntok_t *t, detail::JSONDataPtr d) :
   b9b0c:	b538      	push	{r3, r4, r5, lr}
      : _M_ptr(0), _M_refcount()
   b9b0e:	2300      	movs	r3, #0
      constexpr __shared_count() noexcept : _M_pi(0)
   b9b10:	e9c0 3300 	strd	r3, r3, [r0]
   b9b14:	4604      	mov	r4, r0
        n_(0) {
   b9b16:	480e      	ldr	r0, [pc, #56]	; (b9b50 <_ZN5spark10JSONStringC1EPK9jsmntok_tSt10shared_ptrINS_6detail8JSONDataEE+0x44>)
   b9b18:	e9c4 0302 	strd	r0, r3, [r4, #8]
    if (t && (t->type == JSMN_STRING || t->type == JSMN_PRIMITIVE)) {
   b9b1c:	b1a9      	cbz	r1, b9b4a <_ZN5spark10JSONStringC1EPK9jsmntok_tSt10shared_ptrINS_6detail8JSONDataEE+0x3e>
   b9b1e:	780b      	ldrb	r3, [r1, #0]
   b9b20:	2b03      	cmp	r3, #3
   b9b22:	d006      	beq.n	b9b32 <_ZN5spark10JSONStringC1EPK9jsmntok_tSt10shared_ptrINS_6detail8JSONDataEE+0x26>
   b9b24:	b98b      	cbnz	r3, b9b4a <_ZN5spark10JSONStringC1EPK9jsmntok_tSt10shared_ptrINS_6detail8JSONDataEE+0x3e>
        if (t->type != JSMN_PRIMITIVE || d->json[t->start] != 'n') { // Nulls are treated as empty strings
   b9b26:	6813      	ldr	r3, [r2, #0]
   b9b28:	6858      	ldr	r0, [r3, #4]
   b9b2a:	684b      	ldr	r3, [r1, #4]
   b9b2c:	5cc3      	ldrb	r3, [r0, r3]
   b9b2e:	2b6e      	cmp	r3, #110	; 0x6e
   b9b30:	d007      	beq.n	b9b42 <_ZN5spark10JSONStringC1EPK9jsmntok_tSt10shared_ptrINS_6detail8JSONDataEE+0x36>
            s_ = d->json + t->start;
   b9b32:	6813      	ldr	r3, [r2, #0]
   b9b34:	684d      	ldr	r5, [r1, #4]
   b9b36:	6858      	ldr	r0, [r3, #4]
            n_ = t->end - t->start;
   b9b38:	688b      	ldr	r3, [r1, #8]
            s_ = d->json + t->start;
   b9b3a:	4428      	add	r0, r5
            n_ = t->end - t->start;
   b9b3c:	1b5b      	subs	r3, r3, r5
            s_ = d->json + t->start;
   b9b3e:	60a0      	str	r0, [r4, #8]
            n_ = t->end - t->start;
   b9b40:	60e3      	str	r3, [r4, #12]
   b9b42:	4611      	mov	r1, r2
   b9b44:	4620      	mov	r0, r4
   b9b46:	f7ff ff6c 	bl	b9a22 <_ZNSt12__shared_ptrIN5spark6detail8JSONDataELN9__gnu_cxx12_Lock_policyE0EEaSERKS5_.isra.0>
}
   b9b4a:	4620      	mov	r0, r4
   b9b4c:	bd38      	pop	{r3, r4, r5, pc}
   b9b4e:	bf00      	nop
   b9b50:	000bce4a 	.word	0x000bce4a

000b9b54 <_ZN5spark18JSONObjectIteratorC1EPK9jsmntok_tSt10shared_ptrINS_6detail8JSONDataEE>:
spark::JSONObjectIterator::JSONObjectIterator(const jsmntok_t *t, detail::JSONDataPtr d) :
   b9b54:	b538      	push	{r3, r4, r5, lr}
      : _M_ptr(0), _M_refcount()
   b9b56:	2500      	movs	r5, #0
   b9b58:	460b      	mov	r3, r1
      constexpr __shared_count() noexcept : _M_pi(0)
   b9b5a:	e9c0 5500 	strd	r5, r5, [r0]
        n_(0) {
   b9b5e:	e9c0 5502 	strd	r5, r5, [r0, #8]
   b9b62:	e9c0 5504 	strd	r5, r5, [r0, #16]
   b9b66:	4604      	mov	r4, r0
   b9b68:	4611      	mov	r1, r2
    if (t && t->type == JSMN_OBJECT) {
   b9b6a:	b14b      	cbz	r3, b9b80 <_ZN5spark18JSONObjectIteratorC1EPK9jsmntok_tSt10shared_ptrINS_6detail8JSONDataEE+0x2c>
   b9b6c:	781a      	ldrb	r2, [r3, #0]
   b9b6e:	2a01      	cmp	r2, #1
   b9b70:	d106      	bne.n	b9b80 <_ZN5spark18JSONObjectIteratorC1EPK9jsmntok_tSt10shared_ptrINS_6detail8JSONDataEE+0x2c>
        t_ = t + 1; // First property's name
   b9b72:	f103 0210 	add.w	r2, r3, #16
        n_ = t->size; // Number of properties
   b9b76:	68db      	ldr	r3, [r3, #12]
        t_ = t + 1; // First property's name
   b9b78:	6082      	str	r2, [r0, #8]
        n_ = t->size; // Number of properties
   b9b7a:	6143      	str	r3, [r0, #20]
   b9b7c:	f7ff ff51 	bl	b9a22 <_ZNSt12__shared_ptrIN5spark6detail8JSONDataELN9__gnu_cxx12_Lock_policyE0EEaSERKS5_.isra.0>
}
   b9b80:	4620      	mov	r0, r4
   b9b82:	bd38      	pop	{r3, r4, r5, pc}

000b9b84 <_ZN5spark18JSONObjectIterator4nextEv>:
bool spark::JSONObjectIterator::next() {
   b9b84:	b510      	push	{r4, lr}
    if (!n_) {
   b9b86:	6943      	ldr	r3, [r0, #20]
bool spark::JSONObjectIterator::next() {
   b9b88:	4604      	mov	r4, r0
    if (!n_) {
   b9b8a:	b163      	cbz	r3, b9ba6 <_ZN5spark18JSONObjectIterator4nextEv+0x22>
    k_ = t_; // Name
   b9b8c:	6880      	ldr	r0, [r0, #8]
   b9b8e:	60e0      	str	r0, [r4, #12]
    --n_;
   b9b90:	3b01      	subs	r3, #1
    ++t_;
   b9b92:	3010      	adds	r0, #16
   b9b94:	60a0      	str	r0, [r4, #8]
    v_ = t_; // Value
   b9b96:	6120      	str	r0, [r4, #16]
    --n_;
   b9b98:	6163      	str	r3, [r4, #20]
    if (n_) {
   b9b9a:	b113      	cbz	r3, b9ba2 <_ZN5spark18JSONObjectIterator4nextEv+0x1e>
        t_ = skipToken(t_);
   b9b9c:	f7ff fef2 	bl	b9984 <_ZN12_GLOBAL__N_19skipTokenEPK9jsmntok_t>
   b9ba0:	60a0      	str	r0, [r4, #8]
    return true;
   b9ba2:	2001      	movs	r0, #1
   b9ba4:	e000      	b.n	b9ba8 <_ZN5spark18JSONObjectIterator4nextEv+0x24>
        return false;
   b9ba6:	4618      	mov	r0, r3
}
   b9ba8:	bd10      	pop	{r4, pc}

000b9baa <_ZN5spark10JSONWriter9endObjectEv>:
spark::JSONWriter& spark::JSONWriter::endObject() {
   b9baa:	b510      	push	{r4, lr}
    write('}');
   b9bac:	217d      	movs	r1, #125	; 0x7d
spark::JSONWriter& spark::JSONWriter::endObject() {
   b9bae:	4604      	mov	r4, r0
    write('}');
   b9bb0:	f7ff ff49 	bl	b9a46 <_ZN5spark10JSONWriter5writeEc>
    state_ = NEXT;
   b9bb4:	2301      	movs	r3, #1
   b9bb6:	7123      	strb	r3, [r4, #4]
}
   b9bb8:	4620      	mov	r0, r4
   b9bba:	bd10      	pop	{r4, pc}

000b9bbc <_ZN5spark10JSONWriter14writeSeparatorEv>:

void spark::JSONWriter::writeSeparator() {
   b9bbc:	b508      	push	{r3, lr}
    switch (state_) {
   b9bbe:	7903      	ldrb	r3, [r0, #4]
   b9bc0:	2b01      	cmp	r3, #1
   b9bc2:	d002      	beq.n	b9bca <_ZN5spark10JSONWriter14writeSeparatorEv+0xe>
   b9bc4:	2b02      	cmp	r3, #2
   b9bc6:	d004      	beq.n	b9bd2 <_ZN5spark10JSONWriter14writeSeparatorEv+0x16>
        write(':');
        break;
    default:
        break;
    }
}
   b9bc8:	bd08      	pop	{r3, pc}
        write(',');
   b9bca:	212c      	movs	r1, #44	; 0x2c
        write(':');
   b9bcc:	f7ff ff3b 	bl	b9a46 <_ZN5spark10JSONWriter5writeEc>
}
   b9bd0:	e7fa      	b.n	b9bc8 <_ZN5spark10JSONWriter14writeSeparatorEv+0xc>
        write(':');
   b9bd2:	213a      	movs	r1, #58	; 0x3a
   b9bd4:	e7fa      	b.n	b9bcc <_ZN5spark10JSONWriter14writeSeparatorEv+0x10>

000b9bd6 <_ZN5spark10JSONWriter11beginObjectEv>:
spark::JSONWriter& spark::JSONWriter::beginObject() {
   b9bd6:	b510      	push	{r4, lr}
   b9bd8:	4604      	mov	r4, r0
    writeSeparator();
   b9bda:	f7ff ffef 	bl	b9bbc <_ZN5spark10JSONWriter14writeSeparatorEv>
    write('{');
   b9bde:	4620      	mov	r0, r4
   b9be0:	217b      	movs	r1, #123	; 0x7b
   b9be2:	f7ff ff30 	bl	b9a46 <_ZN5spark10JSONWriter5writeEc>
    state_ = BEGIN;
   b9be6:	2300      	movs	r3, #0
   b9be8:	7123      	strb	r3, [r4, #4]
}
   b9bea:	4620      	mov	r0, r4
   b9bec:	bd10      	pop	{r4, pc}
	...

000b9bf0 <_ZN5spark10JSONWriter5valueEi>:
spark::JSONWriter& spark::JSONWriter::value(int val) {
   b9bf0:	b513      	push	{r0, r1, r4, lr}
   b9bf2:	4604      	mov	r4, r0
   b9bf4:	9101      	str	r1, [sp, #4]
    writeSeparator();
   b9bf6:	f7ff ffe1 	bl	b9bbc <_ZN5spark10JSONWriter14writeSeparatorEv>
    printf("%d", val);
   b9bfa:	6823      	ldr	r3, [r4, #0]
   b9bfc:	9a01      	ldr	r2, [sp, #4]
   b9bfe:	68db      	ldr	r3, [r3, #12]
   b9c00:	4903      	ldr	r1, [pc, #12]	; (b9c10 <_ZN5spark10JSONWriter5valueEi+0x20>)
   b9c02:	4620      	mov	r0, r4
   b9c04:	4798      	blx	r3
    state_ = NEXT;
   b9c06:	2301      	movs	r3, #1
}
   b9c08:	4620      	mov	r0, r4
    state_ = NEXT;
   b9c0a:	7123      	strb	r3, [r4, #4]
}
   b9c0c:	b002      	add	sp, #8
   b9c0e:	bd10      	pop	{r4, pc}
   b9c10:	000bc9f9 	.word	0x000bc9f9

000b9c14 <_ZN5spark10JSONWriter5valueEj>:
spark::JSONWriter& spark::JSONWriter::value(unsigned val) {
   b9c14:	b513      	push	{r0, r1, r4, lr}
   b9c16:	4604      	mov	r4, r0
   b9c18:	9101      	str	r1, [sp, #4]
    writeSeparator();
   b9c1a:	f7ff ffcf 	bl	b9bbc <_ZN5spark10JSONWriter14writeSeparatorEv>
    printf("%u", val);
   b9c1e:	6823      	ldr	r3, [r4, #0]
   b9c20:	9a01      	ldr	r2, [sp, #4]
   b9c22:	68db      	ldr	r3, [r3, #12]
   b9c24:	4903      	ldr	r1, [pc, #12]	; (b9c34 <_ZN5spark10JSONWriter5valueEj+0x20>)
   b9c26:	4620      	mov	r0, r4
   b9c28:	4798      	blx	r3
    state_ = NEXT;
   b9c2a:	2301      	movs	r3, #1
}
   b9c2c:	4620      	mov	r0, r4
    state_ = NEXT;
   b9c2e:	7123      	strb	r3, [r4, #4]
}
   b9c30:	b002      	add	sp, #8
   b9c32:	bd10      	pop	{r4, pc}
   b9c34:	000bc914 	.word	0x000bc914

000b9c38 <_ZN5spark10JSONWriter12writeEscapedEPKcj>:

void spark::JSONWriter::writeEscaped(const char *str, size_t size) {
   b9c38:	e92d 47f0 	stmdb	sp!, {r4, r5, r6, r7, r8, r9, sl, lr}
   b9c3c:	460d      	mov	r5, r1
    write('"');
   b9c3e:	2122      	movs	r1, #34	; 0x22
void spark::JSONWriter::writeEscaped(const char *str, size_t size) {
   b9c40:	4690      	mov	r8, r2
   b9c42:	4604      	mov	r4, r0
    write('"');
   b9c44:	f7ff feff 	bl	b9a46 <_ZN5spark10JSONWriter5writeEc>
            case 0x0d: // Carriage return
                write('r');
                break;
            default:
                // All other control characters are written in hex, e.g. "\u001f"
                printf("u%04x", (unsigned)c);
   b9c48:	f8df 90a4 	ldr.w	r9, [pc, #164]	; b9cf0 <_ZN5spark10JSONWriter12writeEscapedEPKcj+0xb8>
    const char* const end = str + size;
   b9c4c:	44a8      	add	r8, r5
    const char *s = str;
   b9c4e:	462f      	mov	r7, r5
    while (s != end) {
   b9c50:	4547      	cmp	r7, r8
   b9c52:	46ba      	mov	sl, r7
   b9c54:	d03d      	beq.n	b9cd2 <_ZN5spark10JSONWriter12writeEscapedEPKcj+0x9a>
        const char c = *s;
   b9c56:	f817 6b01 	ldrb.w	r6, [r7], #1
        if (c == '"' || c == '\\' || !std::isprint((unsigned char)c)) {
   b9c5a:	2e22      	cmp	r6, #34	; 0x22
   b9c5c:	d006      	beq.n	b9c6c <_ZN5spark10JSONWriter12writeEscapedEPKcj+0x34>
   b9c5e:	2e5c      	cmp	r6, #92	; 0x5c
   b9c60:	d004      	beq.n	b9c6c <_ZN5spark10JSONWriter12writeEscapedEPKcj+0x34>
   b9c62:	4630      	mov	r0, r6
   b9c64:	f000 fcca 	bl	ba5fc <isprint>
   b9c68:	2800      	cmp	r0, #0
   b9c6a:	d1f1      	bne.n	b9c50 <_ZN5spark10JSONWriter12writeEscapedEPKcj+0x18>
            write(str, s - str); // Write preceeding characters
   b9c6c:	6823      	ldr	r3, [r4, #0]
   b9c6e:	ebaa 0205 	sub.w	r2, sl, r5
   b9c72:	689b      	ldr	r3, [r3, #8]
   b9c74:	4629      	mov	r1, r5
   b9c76:	4620      	mov	r0, r4
   b9c78:	4798      	blx	r3
            write('\\');
   b9c7a:	215c      	movs	r1, #92	; 0x5c
   b9c7c:	4620      	mov	r0, r4
   b9c7e:	f7ff fee2 	bl	b9a46 <_ZN5spark10JSONWriter5writeEc>
            switch (c) {
   b9c82:	2e0d      	cmp	r6, #13
   b9c84:	d80a      	bhi.n	b9c9c <_ZN5spark10JSONWriter12writeEscapedEPKcj+0x64>
   b9c86:	2e07      	cmp	r6, #7
   b9c88:	d91c      	bls.n	b9cc4 <_ZN5spark10JSONWriter12writeEscapedEPKcj+0x8c>
   b9c8a:	f1a6 0308 	sub.w	r3, r6, #8
   b9c8e:	2b05      	cmp	r3, #5
   b9c90:	d818      	bhi.n	b9cc4 <_ZN5spark10JSONWriter12writeEscapedEPKcj+0x8c>
   b9c92:	e8df f003 	tbb	[pc, r3]
   b9c96:	0f0d      	.short	0x0f0d
   b9c98:	15131711 	.word	0x15131711
   b9c9c:	2e22      	cmp	r6, #34	; 0x22
   b9c9e:	d001      	beq.n	b9ca4 <_ZN5spark10JSONWriter12writeEscapedEPKcj+0x6c>
   b9ca0:	2e5c      	cmp	r6, #92	; 0x5c
   b9ca2:	d10f      	bne.n	b9cc4 <_ZN5spark10JSONWriter12writeEscapedEPKcj+0x8c>
                write(c);
   b9ca4:	4631      	mov	r1, r6
                write('b');
   b9ca6:	4620      	mov	r0, r4
   b9ca8:	f7ff fecd 	bl	b9a46 <_ZN5spark10JSONWriter5writeEc>
                break;
            }
            str = s + 1;
   b9cac:	463d      	mov	r5, r7
    while (s != end) {
   b9cae:	e7cf      	b.n	b9c50 <_ZN5spark10JSONWriter12writeEscapedEPKcj+0x18>
                write('b');
   b9cb0:	2162      	movs	r1, #98	; 0x62
   b9cb2:	e7f8      	b.n	b9ca6 <_ZN5spark10JSONWriter12writeEscapedEPKcj+0x6e>
                write('t');
   b9cb4:	2174      	movs	r1, #116	; 0x74
   b9cb6:	e7f6      	b.n	b9ca6 <_ZN5spark10JSONWriter12writeEscapedEPKcj+0x6e>
                write('n');
   b9cb8:	216e      	movs	r1, #110	; 0x6e
   b9cba:	e7f4      	b.n	b9ca6 <_ZN5spark10JSONWriter12writeEscapedEPKcj+0x6e>
                write('f');
   b9cbc:	2166      	movs	r1, #102	; 0x66
   b9cbe:	e7f2      	b.n	b9ca6 <_ZN5spark10JSONWriter12writeEscapedEPKcj+0x6e>
                write('r');
   b9cc0:	2172      	movs	r1, #114	; 0x72
   b9cc2:	e7f0      	b.n	b9ca6 <_ZN5spark10JSONWriter12writeEscapedEPKcj+0x6e>
                printf("u%04x", (unsigned)c);
   b9cc4:	6823      	ldr	r3, [r4, #0]
   b9cc6:	4632      	mov	r2, r6
   b9cc8:	68db      	ldr	r3, [r3, #12]
   b9cca:	4649      	mov	r1, r9
   b9ccc:	4620      	mov	r0, r4
   b9cce:	4798      	blx	r3
                break;
   b9cd0:	e7ec      	b.n	b9cac <_ZN5spark10JSONWriter12writeEscapedEPKcj+0x74>
        }
        ++s;
    }
    if (s != str) {
   b9cd2:	42bd      	cmp	r5, r7
   b9cd4:	d005      	beq.n	b9ce2 <_ZN5spark10JSONWriter12writeEscapedEPKcj+0xaa>
        write(str, s - str); // Write remaining characters
   b9cd6:	6823      	ldr	r3, [r4, #0]
   b9cd8:	1b7a      	subs	r2, r7, r5
   b9cda:	689b      	ldr	r3, [r3, #8]
   b9cdc:	4629      	mov	r1, r5
   b9cde:	4620      	mov	r0, r4
   b9ce0:	4798      	blx	r3
    }
    write('"');
   b9ce2:	2122      	movs	r1, #34	; 0x22
   b9ce4:	4620      	mov	r0, r4
   b9ce6:	f7ff feae 	bl	b9a46 <_ZN5spark10JSONWriter5writeEc>
}
   b9cea:	e8bd 87f0 	ldmia.w	sp!, {r4, r5, r6, r7, r8, r9, sl, pc}
   b9cee:	bf00      	nop
   b9cf0:	000bcf40 	.word	0x000bcf40

000b9cf4 <_ZN5spark10JSONWriter4nameEPKcj>:
spark::JSONWriter& spark::JSONWriter::name(const char *name, size_t size) {
   b9cf4:	b513      	push	{r0, r1, r4, lr}
   b9cf6:	4604      	mov	r4, r0
   b9cf8:	e9cd 2100 	strd	r2, r1, [sp]
    writeSeparator();
   b9cfc:	f7ff ff5e 	bl	b9bbc <_ZN5spark10JSONWriter14writeSeparatorEv>
    writeEscaped(name, size);
   b9d00:	4620      	mov	r0, r4
   b9d02:	e9dd 2100 	ldrd	r2, r1, [sp]
   b9d06:	f7ff ff97 	bl	b9c38 <_ZN5spark10JSONWriter12writeEscapedEPKcj>
    state_ = VALUE;
   b9d0a:	2302      	movs	r3, #2
}
   b9d0c:	4620      	mov	r0, r4
    state_ = VALUE;
   b9d0e:	7123      	strb	r3, [r4, #4]
}
   b9d10:	b002      	add	sp, #8
   b9d12:	bd10      	pop	{r4, pc}

000b9d14 <_ZN5spark10JSONWriter5valueEPKcj>:
spark::JSONWriter& spark::JSONWriter::value(const char *val, size_t size) {
   b9d14:	b513      	push	{r0, r1, r4, lr}
   b9d16:	4604      	mov	r4, r0
   b9d18:	e9cd 2100 	strd	r2, r1, [sp]
    writeSeparator();
   b9d1c:	f7ff ff4e 	bl	b9bbc <_ZN5spark10JSONWriter14writeSeparatorEv>
    writeEscaped(val, size);
   b9d20:	4620      	mov	r0, r4
   b9d22:	e9dd 2100 	ldrd	r2, r1, [sp]
   b9d26:	f7ff ff87 	bl	b9c38 <_ZN5spark10JSONWriter12writeEscapedEPKcj>
    state_ = NEXT;
   b9d2a:	2301      	movs	r3, #1
}
   b9d2c:	4620      	mov	r0, r4
    state_ = NEXT;
   b9d2e:	7123      	strb	r3, [r4, #4]
}
   b9d30:	b002      	add	sp, #8
   b9d32:	bd10      	pop	{r4, pc}

000b9d34 <_ZN11USARTSerialD1Ev>:
private:
  hal_usart_interface_t _serial;
  bool _blocking;
public:
  USARTSerial(hal_usart_interface_t serial, const hal_usart_buffer_config_t& config);
  virtual ~USARTSerial() {};
   b9d34:	4770      	bx	lr

000b9d36 <_ZN11USARTSerial14blockOnOverrunEb>:
    hal_usart_half_duplex(_serial, Enable);
}

void USARTSerial::blockOnOverrun(bool block)
{
  _blocking = block;
   b9d36:	7441      	strb	r1, [r0, #17]
}
   b9d38:	4770      	bx	lr

000b9d3a <_ZN11USARTSerial17availableForWriteEv>:


int USARTSerial::availableForWrite(void)
{
   b9d3a:	b508      	push	{r3, lr}
  return std::max(0, (int)hal_usart_available_data_for_write(_serial));
   b9d3c:	7c00      	ldrb	r0, [r0, #16]
   b9d3e:	f7fd fb63 	bl	b7408 <hal_usart_available_data_for_write>
}
   b9d42:	ea20 70e0 	bic.w	r0, r0, r0, asr #31
   b9d46:	bd08      	pop	{r3, pc}

000b9d48 <_ZN11USARTSerial9availableEv>:

int USARTSerial::available(void)
{
   b9d48:	b508      	push	{r3, lr}
  return std::max(0, (int)hal_usart_available(_serial));
   b9d4a:	7c00      	ldrb	r0, [r0, #16]
   b9d4c:	f7fd fb34 	bl	b73b8 <hal_usart_available>
}
   b9d50:	ea20 70e0 	bic.w	r0, r0, r0, asr #31
   b9d54:	bd08      	pop	{r3, pc}

000b9d56 <_ZN11USARTSerial4peekEv>:

int USARTSerial::peek(void)
{
   b9d56:	b508      	push	{r3, lr}
  return std::max(-1, (int)hal_usart_peek(_serial));
   b9d58:	7c00      	ldrb	r0, [r0, #16]
   b9d5a:	f7fd fb3d 	bl	b73d8 <hal_usart_peek>
}
   b9d5e:	ea40 70e0 	orr.w	r0, r0, r0, asr #31
   b9d62:	bd08      	pop	{r3, pc}

000b9d64 <_ZN11USARTSerial4readEv>:

int USARTSerial::read(void)
{
   b9d64:	b508      	push	{r3, lr}
  return std::max(-1, (int)hal_usart_read(_serial));
   b9d66:	7c00      	ldrb	r0, [r0, #16]
   b9d68:	f7fd fb2e 	bl	b73c8 <hal_usart_read>
}
   b9d6c:	ea40 70e0 	orr.w	r0, r0, r0, asr #31
   b9d70:	bd08      	pop	{r3, pc}

000b9d72 <_ZN11USARTSerial5flushEv>:

void USARTSerial::flush()
{
  hal_usart_flush(_serial);
   b9d72:	7c00      	ldrb	r0, [r0, #16]
   b9d74:	f7fd bb38 	b.w	b73e8 <hal_usart_flush>

000b9d78 <_ZN11USARTSerial5writeEh>:
}

size_t USARTSerial::write(uint8_t c)
{
   b9d78:	b537      	push	{r0, r1, r2, r4, r5, lr}
  // attempt a write if blocking, or for non-blocking if there is room.
  if (_blocking || hal_usart_available_data_for_write(_serial) > 0) {
   b9d7a:	7c45      	ldrb	r5, [r0, #17]
{
   b9d7c:	4604      	mov	r4, r0
  if (_blocking || hal_usart_available_data_for_write(_serial) > 0) {
   b9d7e:	b12d      	cbz	r5, b9d8c <_ZN11USARTSerial5writeEh+0x14>
    // the HAL always blocks.
	  return hal_usart_write(_serial, c);
   b9d80:	7c20      	ldrb	r0, [r4, #16]
  }
  return 0;
}
   b9d82:	b003      	add	sp, #12
   b9d84:	e8bd 4030 	ldmia.w	sp!, {r4, r5, lr}
	  return hal_usart_write(_serial, c);
   b9d88:	f7fd bb0e 	b.w	b73a8 <hal_usart_write>
  if (_blocking || hal_usart_available_data_for_write(_serial) > 0) {
   b9d8c:	7c00      	ldrb	r0, [r0, #16]
   b9d8e:	9101      	str	r1, [sp, #4]
   b9d90:	f7fd fb3a 	bl	b7408 <hal_usart_available_data_for_write>
   b9d94:	2800      	cmp	r0, #0
   b9d96:	9901      	ldr	r1, [sp, #4]
   b9d98:	dcf2      	bgt.n	b9d80 <_ZN11USARTSerial5writeEh+0x8>
}
   b9d9a:	4628      	mov	r0, r5
   b9d9c:	b003      	add	sp, #12
   b9d9e:	bd30      	pop	{r4, r5, pc}

000b9da0 <_ZN11USARTSerialD0Ev>:
   b9da0:	b510      	push	{r4, lr}
   b9da2:	2114      	movs	r1, #20
   b9da4:	4604      	mov	r4, r0
   b9da6:	f7fb f83e 	bl	b4e26 <_ZdlPvj>
   b9daa:	4620      	mov	r0, r4
   b9dac:	bd10      	pop	{r4, pc}
	...

000b9db0 <_ZN11USARTSerialC1E21hal_usart_interface_tRK25hal_usart_buffer_config_t>:
USARTSerial::USARTSerial(hal_usart_interface_t serial, const hal_usart_buffer_config_t& config)
   b9db0:	b510      	push	{r4, lr}
   b9db2:	f44f 737a 	mov.w	r3, #1000	; 0x3e8
   b9db6:	4604      	mov	r4, r0
   b9db8:	4608      	mov	r0, r1
   b9dba:	4611      	mov	r1, r2
   b9dbc:	2200      	movs	r2, #0
   b9dbe:	e9c4 2301 	strd	r2, r3, [r4, #4]
   b9dc2:	4b04      	ldr	r3, [pc, #16]	; (b9dd4 <_ZN11USARTSerialC1E21hal_usart_interface_tRK25hal_usart_buffer_config_t+0x24>)
   b9dc4:	6023      	str	r3, [r4, #0]
  _blocking = true;
   b9dc6:	2301      	movs	r3, #1
  _serial = serial;
   b9dc8:	7420      	strb	r0, [r4, #16]
  _blocking = true;
   b9dca:	7463      	strb	r3, [r4, #17]
  hal_usart_init_ex(serial, &config, nullptr);
   b9dcc:	f7fd fb34 	bl	b7438 <hal_usart_init_ex>
}
   b9dd0:	4620      	mov	r0, r4
   b9dd2:	bd10      	pop	{r4, pc}
   b9dd4:	000bcf50 	.word	0x000bcf50

000b9dd8 <_ZN11USARTSerial5beginEmm>:
  hal_usart_begin_config(_serial, baud, config, nullptr);
   b9dd8:	7c00      	ldrb	r0, [r0, #16]
   b9dda:	2300      	movs	r3, #0
   b9ddc:	f7fd bb1c 	b.w	b7418 <hal_usart_begin_config>

000b9de0 <_ZN11USARTSerial5beginEm>:
  begin(baud, SERIAL_8N1);
   b9de0:	2200      	movs	r2, #0
   b9de2:	f7ff bff9 	b.w	b9dd8 <_ZN11USARTSerial5beginEmm>

000b9de6 <_ZN11USARTSerial3endEv>:
  hal_usart_end(_serial);
   b9de6:	7c00      	ldrb	r0, [r0, #16]
   b9de8:	f7fd bad6 	b.w	b7398 <hal_usart_end>

000b9dec <_ZN11USARTSerial5writeEt>:

size_t USARTSerial::write(uint16_t c)
{
  return hal_usart_write_nine_bits(_serial, c);
   b9dec:	7c00      	ldrb	r0, [r0, #16]
   b9dee:	f7fd bb1b 	b.w	b7428 <hal_usart_write_nine_bits>

000b9df2 <_ZN8particle6detail21futureCallbackWrapperEPv>:
 * License along with this library; if not, see <http://www.gnu.org/licenses/>.
 */

#include "spark_wiring_async.h"

void particle::detail::futureCallbackWrapper(void* data) {
   b9df2:	b510      	push	{r4, lr}
      if (_M_empty())
   b9df4:	6883      	ldr	r3, [r0, #8]
   b9df6:	4604      	mov	r4, r0
   b9df8:	b90b      	cbnz	r3, b9dfe <_ZN8particle6detail21futureCallbackWrapperEPv+0xc>
	__throw_bad_function_call();
   b9dfa:	f000 fb7b 	bl	ba4f4 <_ZSt25__throw_bad_function_callv>
      return _M_invoker(_M_functor, std::forward<_ArgTypes>(__args)...);
   b9dfe:	68c3      	ldr	r3, [r0, #12]
   b9e00:	4798      	blx	r3
      if (_M_manager)
   b9e02:	68a3      	ldr	r3, [r4, #8]
   b9e04:	b11b      	cbz	r3, b9e0e <_ZN8particle6detail21futureCallbackWrapperEPv+0x1c>
	_M_manager(_M_functor, _M_functor, __destroy_functor);
   b9e06:	2203      	movs	r2, #3
   b9e08:	4621      	mov	r1, r4
   b9e0a:	4620      	mov	r0, r4
   b9e0c:	4798      	blx	r3
    auto callbackPtr = static_cast<const std::function<void()>*>(data);
    (*callbackPtr)();
    delete callbackPtr;
   b9e0e:	4620      	mov	r0, r4
   b9e10:	2110      	movs	r1, #16
}
   b9e12:	e8bd 4010 	ldmia.w	sp!, {r4, lr}
    delete callbackPtr;
   b9e16:	f7fb b806 	b.w	b4e26 <_ZdlPvj>

000b9e1a <_ZN7TwoWireD1Ev>:
private:
  hal_i2c_interface_t _i2c;

public:
  TwoWire(hal_i2c_interface_t i2c, const hal_i2c_config_t& config);
  virtual ~TwoWire() {};
   b9e1a:	4770      	bx	lr

000b9e1c <_ZN7TwoWire5writeEPKhj>:

// must be called in:
// slave tx event callback
// or after beginTransmission(address)
size_t TwoWire::write(const uint8_t *data, size_t quantity)
{
   b9e1c:	b5f8      	push	{r3, r4, r5, r6, r7, lr}
   b9e1e:	4606      	mov	r6, r0
   b9e20:	4615      	mov	r5, r2
   b9e22:	460c      	mov	r4, r1
   b9e24:	188f      	adds	r7, r1, r2
  // in master/slave transmitter mode
  for(size_t i = 0; i < quantity; ++i)
   b9e26:	42bc      	cmp	r4, r7
   b9e28:	d006      	beq.n	b9e38 <_ZN7TwoWire5writeEPKhj+0x1c>
  {
    write(data[i]);
   b9e2a:	6833      	ldr	r3, [r6, #0]
   b9e2c:	f814 1b01 	ldrb.w	r1, [r4], #1
   b9e30:	689b      	ldr	r3, [r3, #8]
   b9e32:	4630      	mov	r0, r6
   b9e34:	4798      	blx	r3
  for(size_t i = 0; i < quantity; ++i)
   b9e36:	e7f6      	b.n	b9e26 <_ZN7TwoWire5writeEPKhj+0xa>
  }

  return quantity;
}
   b9e38:	4628      	mov	r0, r5
   b9e3a:	bdf8      	pop	{r3, r4, r5, r6, r7, pc}

000b9e3c <_ZN7TwoWire5writeEh>:
  return hal_i2c_write(_i2c, data, NULL);
   b9e3c:	7c00      	ldrb	r0, [r0, #16]
   b9e3e:	2200      	movs	r2, #0
   b9e40:	f7fd bb12 	b.w	b7468 <hal_i2c_write>

000b9e44 <_ZN7TwoWire9availableEv>:
// must be called in:
// slave rx event callback
// or after requestFrom(address, numBytes)
int TwoWire::available(void)
{
  return hal_i2c_available(_i2c, NULL);
   b9e44:	7c00      	ldrb	r0, [r0, #16]
   b9e46:	2100      	movs	r1, #0
   b9e48:	f7fd bb16 	b.w	b7478 <hal_i2c_available>

000b9e4c <_ZN7TwoWire4readEv>:
// must be called in:
// slave rx event callback
// or after requestFrom(address, numBytes)
int TwoWire::read(void)
{
  return hal_i2c_read(_i2c, NULL);
   b9e4c:	7c00      	ldrb	r0, [r0, #16]
   b9e4e:	2100      	movs	r1, #0
   b9e50:	f7fd bb1a 	b.w	b7488 <hal_i2c_read>

000b9e54 <_ZN7TwoWire4peekEv>:
// must be called in:
// slave rx event callback
// or after requestFrom(address, numBytes)
int TwoWire::peek(void)
{
  return hal_i2c_peek(_i2c, NULL);
   b9e54:	7c00      	ldrb	r0, [r0, #16]
   b9e56:	2100      	movs	r1, #0
   b9e58:	f7fd bb1e 	b.w	b7498 <hal_i2c_peek>

000b9e5c <_ZN7TwoWire5flushEv>:
}

void TwoWire::flush(void)
{
  hal_i2c_flush(_i2c, NULL);
   b9e5c:	7c00      	ldrb	r0, [r0, #16]
   b9e5e:	2100      	movs	r1, #0
   b9e60:	f7fd bb22 	b.w	b74a8 <hal_i2c_flush>

000b9e64 <_ZN7TwoWireD0Ev>:
   b9e64:	b510      	push	{r4, lr}
   b9e66:	2114      	movs	r1, #20
   b9e68:	4604      	mov	r4, r0
   b9e6a:	f7fa ffdc 	bl	b4e26 <_ZdlPvj>
   b9e6e:	4620      	mov	r0, r4
   b9e70:	bd10      	pop	{r4, pc}
	...

000b9e74 <_ZN7TwoWireC1E19hal_i2c_interface_tRK16hal_i2c_config_t>:
TwoWire::TwoWire(hal_i2c_interface_t i2c, const hal_i2c_config_t& conf)
   b9e74:	b538      	push	{r3, r4, r5, lr}
   b9e76:	4604      	mov	r4, r0
   b9e78:	4615      	mov	r5, r2
   b9e7a:	f44f 737a 	mov.w	r3, #1000	; 0x3e8
   b9e7e:	2200      	movs	r2, #0
   b9e80:	e9c4 2301 	strd	r2, r3, [r4, #4]
   b9e84:	4b09      	ldr	r3, [pc, #36]	; (b9eac <_ZN7TwoWireC1E19hal_i2c_interface_tRK16hal_i2c_config_t+0x38>)
  _i2c = i2c;
   b9e86:	7421      	strb	r1, [r4, #16]
TwoWire::TwoWire(hal_i2c_interface_t i2c, const hal_i2c_config_t& conf)
   b9e88:	4608      	mov	r0, r1
   b9e8a:	6023      	str	r3, [r4, #0]
  int result = hal_i2c_init(_i2c, &conf);
   b9e8c:	4629      	mov	r1, r5
   b9e8e:	f7fd fb1b 	bl	b74c8 <hal_i2c_init>
  if (result == SYSTEM_ERROR_NOT_ENOUGH_DATA && 
   b9e92:	30bf      	adds	r0, #191	; 0xbf
   b9e94:	d108      	bne.n	b9ea8 <_ZN7TwoWireC1E19hal_i2c_interface_tRK16hal_i2c_config_t+0x34>
      (conf.flags & HAL_I2C_CONFIG_FLAG_FREEABLE)) {
   b9e96:	696b      	ldr	r3, [r5, #20]
  if (result == SYSTEM_ERROR_NOT_ENOUGH_DATA && 
   b9e98:	07db      	lsls	r3, r3, #31
   b9e9a:	d505      	bpl.n	b9ea8 <_ZN7TwoWireC1E19hal_i2c_interface_tRK16hal_i2c_config_t+0x34>
    free(conf.rx_buffer);
   b9e9c:	6868      	ldr	r0, [r5, #4]
   b9e9e:	f7fd fcd9 	bl	b7854 <free>
    free(conf.tx_buffer);
   b9ea2:	68e8      	ldr	r0, [r5, #12]
   b9ea4:	f7fd fcd6 	bl	b7854 <free>
}
   b9ea8:	4620      	mov	r0, r4
   b9eaa:	bd38      	pop	{r3, r4, r5, pc}
   b9eac:	000bcf84 	.word	0x000bcf84

000b9eb0 <_ZN7TwoWire11requestFromERK16WireTransmission>:
size_t TwoWire::requestFrom(const WireTransmission& transfer) {
   b9eb0:	b57f      	push	{r0, r1, r2, r3, r4, r5, r6, lr}
    hal_i2c_transmission_config_t conf = {
   b9eb2:	2200      	movs	r2, #0
   b9eb4:	2318      	movs	r3, #24
   b9eb6:	e9cd 2200 	strd	r2, r2, [sp]
   b9eba:	f8ad 3000 	strh.w	r3, [sp]
    };
   b9ebe:	780b      	ldrb	r3, [r1, #0]
   b9ec0:	f88d 3004 	strb.w	r3, [sp, #4]
   b9ec4:	684b      	ldr	r3, [r1, #4]
   b9ec6:	9302      	str	r3, [sp, #8]
   b9ec8:	68cb      	ldr	r3, [r1, #12]
   b9eca:	9303      	str	r3, [sp, #12]
      .flags = (uint32_t)(stop_ ? HAL_I2C_TRANSMISSION_FLAG_STOP : 0),
   b9ecc:	7a0b      	ldrb	r3, [r1, #8]
   b9ece:	9304      	str	r3, [sp, #16]
  return hal_i2c_request_ex(_i2c, &conf, nullptr);
   b9ed0:	7c00      	ldrb	r0, [r0, #16]
    };
   b9ed2:	690b      	ldr	r3, [r1, #16]
   b9ed4:	9305      	str	r3, [sp, #20]
   b9ed6:	4669      	mov	r1, sp
   b9ed8:	f7fd fb0e 	bl	b74f8 <hal_i2c_request_ex>
}
   b9edc:	b007      	add	sp, #28
   b9ede:	f85d fb04 	ldr.w	pc, [sp], #4

000b9ee2 <_ZN7TwoWire17beginTransmissionERK16WireTransmission>:
void TwoWire::beginTransmission(const WireTransmission& transfer) {
   b9ee2:	b57f      	push	{r0, r1, r2, r3, r4, r5, r6, lr}
    hal_i2c_transmission_config_t conf = {
   b9ee4:	2300      	movs	r3, #0
    };
   b9ee6:	684a      	ldr	r2, [r1, #4]
   b9ee8:	9202      	str	r2, [sp, #8]
    hal_i2c_transmission_config_t conf = {
   b9eea:	e9cd 3300 	strd	r3, r3, [sp]
    };
   b9eee:	68ca      	ldr	r2, [r1, #12]
   b9ef0:	9203      	str	r2, [sp, #12]
    hal_i2c_transmission_config_t conf = {
   b9ef2:	2318      	movs	r3, #24
      .flags = (uint32_t)(stop_ ? HAL_I2C_TRANSMISSION_FLAG_STOP : 0),
   b9ef4:	7a0a      	ldrb	r2, [r1, #8]
    hal_i2c_transmission_config_t conf = {
   b9ef6:	f8ad 3000 	strh.w	r3, [sp]
      .address = address_,
   b9efa:	780b      	ldrb	r3, [r1, #0]
      .flags = (uint32_t)(stop_ ? HAL_I2C_TRANSMISSION_FLAG_STOP : 0),
   b9efc:	9204      	str	r2, [sp, #16]
    };
   b9efe:	690a      	ldr	r2, [r1, #16]
   b9f00:	9205      	str	r2, [sp, #20]
  hal_i2c_begin_transmission(_i2c, conf.address, &conf);
   b9f02:	7c00      	ldrb	r0, [r0, #16]
   b9f04:	f88d 3004 	strb.w	r3, [sp, #4]
   b9f08:	466a      	mov	r2, sp
   b9f0a:	4619      	mov	r1, r3
   b9f0c:	f7fd fa9c 	bl	b7448 <hal_i2c_begin_transmission>
}
   b9f10:	b007      	add	sp, #28
   b9f12:	f85d fb04 	ldr.w	pc, [sp], #4

000b9f16 <_ZN7TwoWire15endTransmissionEh>:
	return hal_i2c_end_transmission(_i2c, sendStop, NULL);
   b9f16:	7c00      	ldrb	r0, [r0, #16]
   b9f18:	2200      	movs	r2, #0
   b9f1a:	f7fd ba9d 	b.w	b7458 <hal_i2c_end_transmission>

000b9f1e <_ZN7TwoWire4lockEv>:
{
  return hal_i2c_reset(_i2c, 0, NULL);
}

bool TwoWire::lock()
{
   b9f1e:	b508      	push	{r3, lr}
  return hal_i2c_lock(_i2c, NULL) == 0;
   b9f20:	2100      	movs	r1, #0
   b9f22:	7c00      	ldrb	r0, [r0, #16]
   b9f24:	f7fd fad8 	bl	b74d8 <hal_i2c_lock>
}
   b9f28:	fab0 f080 	clz	r0, r0
   b9f2c:	0940      	lsrs	r0, r0, #5
   b9f2e:	bd08      	pop	{r3, pc}

000b9f30 <_ZN7TwoWire6unlockEv>:

bool TwoWire::unlock()
{
   b9f30:	b508      	push	{r3, lr}
  return hal_i2c_unlock(_i2c, NULL) == 0;
   b9f32:	2100      	movs	r1, #0
   b9f34:	7c00      	ldrb	r0, [r0, #16]
   b9f36:	f7fd fad7 	bl	b74e8 <hal_i2c_unlock>
}
   b9f3a:	fab0 f080 	clz	r0, r0
   b9f3e:	0940      	lsrs	r0, r0, #5
   b9f40:	bd08      	pop	{r3, pc}
	...

000b9f44 <_GLOBAL__sub_I__ZN7TwoWireC2E19hal_i2c_interface_tRK16hal_i2c_config_t>:
      : address_{address},
   b9f44:	4b05      	ldr	r3, [pc, #20]	; (b9f5c <_GLOBAL__sub_I__ZN7TwoWireC2E19hal_i2c_interface_tRK16hal_i2c_config_t+0x18>)
        buffer_(nullptr) {
   b9f46:	21ff      	movs	r1, #255	; 0xff
   b9f48:	2200      	movs	r2, #0
   b9f4a:	e9c3 1200 	strd	r1, r2, [r3]
   b9f4e:	2001      	movs	r0, #1
   b9f50:	2164      	movs	r1, #100	; 0x64
   b9f52:	e9c3 0102 	strd	r0, r1, [r3, #8]
   b9f56:	611a      	str	r2, [r3, #16]

namespace particle {
namespace detail {
const WireTransmission WIRE_INVALID_TRANSMISSION(0xff);
} // detail
} // particle
   b9f58:	4770      	bx	lr
   b9f5a:	bf00      	nop
   b9f5c:	2003e6f8 	.word	0x2003e6f8

000b9f60 <_ZN10WiFiSignalD1Ev>:
    int rssi = 2;
    int qual = 0;

    WiFiSignal() {}
    WiFiSignal(const wlan_connected_info_t& inf);
    virtual ~WiFiSignal() {};
   b9f60:	4770      	bx	lr

000b9f62 <_ZNK10WiFiSignal19getAccessTechnologyEv>:
    return true;
}

hal_net_access_tech_t WiFiSignal::getAccessTechnology() const {
    return NET_ACCESS_TECHNOLOGY_WIFI;
}
   b9f62:	2001      	movs	r0, #1
   b9f64:	4770      	bx	lr

000b9f66 <_ZN10WiFiSignalD0Ev>:
   b9f66:	b510      	push	{r4, lr}
   b9f68:	2124      	movs	r1, #36	; 0x24
   b9f6a:	4604      	mov	r4, r0
   b9f6c:	f7fa ff5b 	bl	b4e26 <_ZdlPvj>
   b9f70:	4620      	mov	r0, r4
   b9f72:	bd10      	pop	{r4, pc}

000b9f74 <_ZN5spark9WiFiClass9listeningEv>:
    uint16_t getListenTimeout(void) {
        return network_get_listen_timeout(*this, 0, NULL);
    }

    bool listening(void) {
        return network_listening(*this, 0, NULL);
   b9f74:	2200      	movs	r2, #0
   b9f76:	6840      	ldr	r0, [r0, #4]
   b9f78:	4611      	mov	r1, r2
   b9f7a:	f7fd bbdb 	b.w	b7734 <network_listening>

000b9f7e <_ZN5spark9WiFiClass16getListenTimeoutEv>:
        return network_get_listen_timeout(*this, 0, NULL);
   b9f7e:	2200      	movs	r2, #0
   b9f80:	6840      	ldr	r0, [r0, #4]
   b9f82:	4611      	mov	r1, r2
   b9f84:	f7fd bbf6 	b.w	b7774 <network_get_listen_timeout>

000b9f88 <_ZN5spark9WiFiClass16setListenTimeoutEt>:
        network_set_listen_timeout(*this, timeout, NULL);
   b9f88:	6840      	ldr	r0, [r0, #4]
   b9f8a:	2200      	movs	r2, #0
   b9f8c:	f7fd bbea 	b.w	b7764 <network_set_listen_timeout>

000b9f90 <_ZN5spark9WiFiClass6listenEb>:
        network_listen(*this, begin ? 0 : 1, NULL);
   b9f90:	6840      	ldr	r0, [r0, #4]
   b9f92:	2200      	movs	r2, #0
   b9f94:	f081 0101 	eor.w	r1, r1, #1
   b9f98:	f7fd bbc4 	b.w	b7724 <network_listen>

000b9f9c <_ZN5spark9WiFiClass3offEv>:
        network_off(*this, 0, 0, NULL);
   b9f9c:	2300      	movs	r3, #0
   b9f9e:	6840      	ldr	r0, [r0, #4]
   b9fa0:	461a      	mov	r2, r3
   b9fa2:	4619      	mov	r1, r3
   b9fa4:	f7fd bbb6 	b.w	b7714 <network_off>

000b9fa8 <_ZN5spark9WiFiClass10connectingEv>:
        return network_connecting(*this, 0, NULL);
   b9fa8:	2200      	movs	r2, #0
   b9faa:	6840      	ldr	r0, [r0, #4]
   b9fac:	4611      	mov	r1, r2
   b9fae:	f7fd bb91 	b.w	b76d4 <network_connecting>

000b9fb2 <_ZN5spark9WiFiClass10disconnectEv>:
        network_disconnect(*this, NETWORK_DISCONNECT_REASON_USER, NULL);
   b9fb2:	6840      	ldr	r0, [r0, #4]
   b9fb4:	2200      	movs	r2, #0
   b9fb6:	2102      	movs	r1, #2
   b9fb8:	f7fd bb94 	b.w	b76e4 <network_disconnect>

000b9fbc <_ZNK10WiFiSignal11getStrengthEv>:

float WiFiSignal::getStrength() const {
    if (inf_.size != 0 && inf_.strength >= 0) {
   b9fbc:	8983      	ldrh	r3, [r0, #12]
   b9fbe:	b17b      	cbz	r3, b9fe0 <_ZNK10WiFiSignal11getStrengthEv+0x24>
   b9fc0:	6943      	ldr	r3, [r0, #20]
   b9fc2:	2b00      	cmp	r3, #0
   b9fc4:	db0c      	blt.n	b9fe0 <_ZNK10WiFiSignal11getStrengthEv+0x24>
        return inf_.strength / 65535.0f * 100.0f;
   b9fc6:	ee07 3a90 	vmov	s15, r3
   b9fca:	ed9f 7a07 	vldr	s14, [pc, #28]	; b9fe8 <_ZNK10WiFiSignal11getStrengthEv+0x2c>
   b9fce:	eef8 7ae7 	vcvt.f32.s32	s15, s15
   b9fd2:	ee87 0a87 	vdiv.f32	s0, s15, s14
   b9fd6:	eddf 7a05 	vldr	s15, [pc, #20]	; b9fec <_ZNK10WiFiSignal11getStrengthEv+0x30>
   b9fda:	ee20 0a27 	vmul.f32	s0, s0, s15
   b9fde:	4770      	bx	lr
    }
    return -1.0f;
   b9fe0:	eebf 0a00 	vmov.f32	s0, #240	; 0xbf800000 -1.0
}
   b9fe4:	4770      	bx	lr
   b9fe6:	bf00      	nop
   b9fe8:	477fff00 	.word	0x477fff00
   b9fec:	42c80000 	.word	0x42c80000

000b9ff0 <_ZNK10WiFiSignal16getStrengthValueEv>:

float WiFiSignal::getStrengthValue() const {
    if (inf_.size != 0 && inf_.rssi != std::numeric_limits<int32_t>::min()) {
   b9ff0:	8983      	ldrh	r3, [r0, #12]
   b9ff2:	b163      	cbz	r3, ba00e <_ZNK10WiFiSignal16getStrengthValueEv+0x1e>
   b9ff4:	6903      	ldr	r3, [r0, #16]
   b9ff6:	f1b3 4f00 	cmp.w	r3, #2147483648	; 0x80000000
   b9ffa:	d008      	beq.n	ba00e <_ZNK10WiFiSignal16getStrengthValueEv+0x1e>
        return inf_.rssi / 100.0f;
   b9ffc:	ee07 3a90 	vmov	s15, r3
   ba000:	ed9f 7a04 	vldr	s14, [pc, #16]	; ba014 <_ZNK10WiFiSignal16getStrengthValueEv+0x24>
   ba004:	eef8 7ae7 	vcvt.f32.s32	s15, s15
   ba008:	ee87 0a87 	vdiv.f32	s0, s15, s14
   ba00c:	4770      	bx	lr
    }
    return 0.0f;
   ba00e:	ed9f 0a02 	vldr	s0, [pc, #8]	; ba018 <_ZNK10WiFiSignal16getStrengthValueEv+0x28>
}
   ba012:	4770      	bx	lr
   ba014:	42c80000 	.word	0x42c80000
   ba018:	00000000 	.word	0x00000000

000ba01c <_ZNK10WiFiSignal10getQualityEv>:

float WiFiSignal::getQuality() const {
    if (inf_.size != 0 && inf_.quality >= 0) {
   ba01c:	8983      	ldrh	r3, [r0, #12]
   ba01e:	b17b      	cbz	r3, ba040 <_ZNK10WiFiSignal10getQualityEv+0x24>
   ba020:	6a03      	ldr	r3, [r0, #32]
   ba022:	2b00      	cmp	r3, #0
   ba024:	db0c      	blt.n	ba040 <_ZNK10WiFiSignal10getQualityEv+0x24>
        return inf_.quality / 65535.0f * 100.0f;
   ba026:	ee07 3a90 	vmov	s15, r3
   ba02a:	ed9f 7a07 	vldr	s14, [pc, #28]	; ba048 <_ZNK10WiFiSignal10getQualityEv+0x2c>
   ba02e:	eef8 7ae7 	vcvt.f32.s32	s15, s15
   ba032:	ee87 0a87 	vdiv.f32	s0, s15, s14
   ba036:	eddf 7a05 	vldr	s15, [pc, #20]	; ba04c <_ZNK10WiFiSignal10getQualityEv+0x30>
   ba03a:	ee20 0a27 	vmul.f32	s0, s0, s15
   ba03e:	4770      	bx	lr
    }
    return -1.0f;
   ba040:	eebf 0a00 	vmov.f32	s0, #240	; 0xbf800000 -1.0
}
   ba044:	4770      	bx	lr
   ba046:	bf00      	nop
   ba048:	477fff00 	.word	0x477fff00
   ba04c:	42c80000 	.word	0x42c80000

000ba050 <_ZNK10WiFiSignal15getQualityValueEv>:

float WiFiSignal::getQualityValue() const {
    if (inf_.size != 0 && inf_.snr != std::numeric_limits<int32_t>::min()) {
   ba050:	8983      	ldrh	r3, [r0, #12]
   ba052:	b163      	cbz	r3, ba06e <_ZNK10WiFiSignal15getQualityValueEv+0x1e>
   ba054:	6983      	ldr	r3, [r0, #24]
   ba056:	f1b3 4f00 	cmp.w	r3, #2147483648	; 0x80000000
   ba05a:	d008      	beq.n	ba06e <_ZNK10WiFiSignal15getQualityValueEv+0x1e>
        return inf_.snr / 100.0f;
   ba05c:	ee07 3a90 	vmov	s15, r3
   ba060:	ed9f 7a04 	vldr	s14, [pc, #16]	; ba074 <_ZNK10WiFiSignal15getQualityValueEv+0x24>
   ba064:	eef8 7ae7 	vcvt.f32.s32	s15, s15
   ba068:	ee87 0a87 	vdiv.f32	s0, s15, s14
   ba06c:	4770      	bx	lr
    }
    return 0.0f;
   ba06e:	ed9f 0a02 	vldr	s0, [pc, #8]	; ba078 <_ZNK10WiFiSignal15getQualityValueEv+0x28>
}
   ba072:	4770      	bx	lr
   ba074:	42c80000 	.word	0x42c80000
   ba078:	00000000 	.word	0x00000000

000ba07c <_ZN10WiFiSignal17fromConnectedInfoERK21wlan_connected_info_t>:
bool WiFiSignal::fromConnectedInfo(const wlan_connected_info_t& inf) {
   ba07c:	b570      	push	{r4, r5, r6, lr}
    inf_ = inf;
   ba07e:	460c      	mov	r4, r1
bool WiFiSignal::fromConnectedInfo(const wlan_connected_info_t& inf) {
   ba080:	4606      	mov	r6, r0
    inf_ = inf;
   ba082:	f100 050c 	add.w	r5, r0, #12
   ba086:	cc0f      	ldmia	r4!, {r0, r1, r2, r3}
   ba088:	c50f      	stmia	r5!, {r0, r1, r2, r3}
   ba08a:	e894 0003 	ldmia.w	r4, {r0, r1}
   ba08e:	e885 0003 	stmia.w	r5, {r0, r1}
    this->rssi = inf_.rssi != std::numeric_limits<int32_t>::min() ? inf_.rssi / 100 : 2;
   ba092:	6933      	ldr	r3, [r6, #16]
   ba094:	f1b3 4f00 	cmp.w	r3, #2147483648	; 0x80000000
   ba098:	bf0e      	itee	eq
   ba09a:	2302      	moveq	r3, #2
   ba09c:	2264      	movne	r2, #100	; 0x64
   ba09e:	fb93 f3f2 	sdivne	r3, r3, r2
   ba0a2:	6073      	str	r3, [r6, #4]
    this->qual = inf_.snr != std::numeric_limits<int32_t>::min() ? inf_.snr / 100 : 0;
   ba0a4:	69b3      	ldr	r3, [r6, #24]
   ba0a6:	f1b3 4f00 	cmp.w	r3, #2147483648	; 0x80000000
   ba0aa:	bf0c      	ite	eq
   ba0ac:	2300      	moveq	r3, #0
   ba0ae:	2264      	movne	r2, #100	; 0x64
}
   ba0b0:	f04f 0001 	mov.w	r0, #1
    this->qual = inf_.snr != std::numeric_limits<int32_t>::min() ? inf_.snr / 100 : 0;
   ba0b4:	bf18      	it	ne
   ba0b6:	fb93 f3f2 	sdivne	r3, r3, r2
   ba0ba:	60b3      	str	r3, [r6, #8]
}
   ba0bc:	bd70      	pop	{r4, r5, r6, pc}
	...

000ba0c0 <_ZN5spark9WiFiClass4RSSIEv>:
    int WiFiClass::getCredentials(WiFiAccessPoint* results, size_t result_count) {
        APList apList(results, result_count);
        return apList.start();
    }

    WiFiSignal WiFiClass::RSSI() {
   ba0c0:	e92d 41f0 	stmdb	sp!, {r4, r5, r6, r7, r8, lr}
    WiFiSignal() {}
   ba0c4:	4b16      	ldr	r3, [pc, #88]	; (ba120 <_ZN5spark9WiFiClass4RSSIEv+0x60>)
   ba0c6:	6003      	str	r3, [r0, #0]
   ba0c8:	2500      	movs	r5, #0
   ba0ca:	460f      	mov	r7, r1
   ba0cc:	f04f 0802 	mov.w	r8, #2
   ba0d0:	2618      	movs	r6, #24
   ba0d2:	e9c0 8501 	strd	r8, r5, [r0, #4]
   ba0d6:	b086      	sub	sp, #24
   ba0d8:	4632      	mov	r2, r6
   ba0da:	4629      	mov	r1, r5
   ba0dc:	4604      	mov	r4, r0
   ba0de:	300c      	adds	r0, #12
   ba0e0:	f000 fac4 	bl	ba66c <memset>
        WiFiSignal sig;
        if (!network_ready(*this, 0, NULL)) {
   ba0e4:	6878      	ldr	r0, [r7, #4]
   ba0e6:	462a      	mov	r2, r5
   ba0e8:	4629      	mov	r1, r5
   ba0ea:	f7fd fb03 	bl	b76f4 <network_ready>
   ba0ee:	b180      	cbz	r0, ba112 <_ZN5spark9WiFiClass4RSSIEv+0x52>
            return sig;
        }

        wlan_connected_info_t info = {};
   ba0f0:	4632      	mov	r2, r6
   ba0f2:	4629      	mov	r1, r5
   ba0f4:	4668      	mov	r0, sp
   ba0f6:	f000 fab9 	bl	ba66c <memset>
        info.size = sizeof(info);
        int r = wlan_connected_info(nullptr, &info, nullptr);
   ba0fa:	462a      	mov	r2, r5
   ba0fc:	4669      	mov	r1, sp
   ba0fe:	4628      	mov	r0, r5
        info.size = sizeof(info);
   ba100:	f8ad 6000 	strh.w	r6, [sp]
        int r = wlan_connected_info(nullptr, &info, nullptr);
   ba104:	f7fd fa58 	bl	b75b8 <wlan_connected_info>
        if (r == 0) {
   ba108:	b938      	cbnz	r0, ba11a <_ZN5spark9WiFiClass4RSSIEv+0x5a>
            sig.fromConnectedInfo(info);
   ba10a:	4669      	mov	r1, sp
   ba10c:	4620      	mov	r0, r4
   ba10e:	f7ff ffb5 	bl	ba07c <_ZN10WiFiSignal17fromConnectedInfoERK21wlan_connected_info_t>
            return sig;
        }

        sig.rssi = 2;
        return sig;
    }
   ba112:	4620      	mov	r0, r4
   ba114:	b006      	add	sp, #24
   ba116:	e8bd 81f0 	ldmia.w	sp!, {r4, r5, r6, r7, r8, pc}
        sig.rssi = 2;
   ba11a:	f8c4 8004 	str.w	r8, [r4, #4]
        return sig;
   ba11e:	e7f8      	b.n	ba112 <_ZN5spark9WiFiClass4RSSIEv+0x52>
   ba120:	000bcff4 	.word	0x000bcff4

000ba124 <_GLOBAL__sub_I__ZN10WiFiSignalC2ERK21wlan_connected_info_t>:
   ba124:	4b02      	ldr	r3, [pc, #8]	; (ba130 <_GLOBAL__sub_I__ZN10WiFiSignalC2ERK21wlan_connected_info_t+0xc>)
   ba126:	2204      	movs	r2, #4
   ba128:	605a      	str	r2, [r3, #4]
            NetworkClass(NETWORK_INTERFACE_WIFI_STA) {
   ba12a:	4a02      	ldr	r2, [pc, #8]	; (ba134 <_GLOBAL__sub_I__ZN10WiFiSignalC2ERK21wlan_connected_info_t+0x10>)
   ba12c:	601a      	str	r2, [r3, #0]
the same way.
*****************************************************************************/

    WiFiClass WiFi;
    // NetworkClass& Network = WiFi;
}
   ba12e:	4770      	bx	lr
   ba130:	2003e70c 	.word	0x2003e70c
   ba134:	000bcfb0 	.word	0x000bcfb0

000ba138 <_ZN5spark12NetworkClass7connectEj>:
        return Network;
    }
}

void NetworkClass::connect(unsigned flags) {
    network_connect(*this, flags, 0, nullptr);
   ba138:	2300      	movs	r3, #0
   ba13a:	6840      	ldr	r0, [r0, #4]
   ba13c:	461a      	mov	r2, r3
   ba13e:	f7fd bac1 	b.w	b76c4 <network_connect>

000ba142 <_ZN5spark12NetworkClass10disconnectEv>:
}

void NetworkClass::disconnect() {
    network_disconnect(*this, NETWORK_DISCONNECT_REASON_USER, nullptr);
   ba142:	6840      	ldr	r0, [r0, #4]
   ba144:	2200      	movs	r2, #0
   ba146:	2102      	movs	r1, #2
   ba148:	f7fd bacc 	b.w	b76e4 <network_disconnect>

000ba14c <_ZN5spark12NetworkClass10connectingEv>:
}

bool NetworkClass::connecting() {
    return network_connecting(*this, 0, nullptr);
   ba14c:	2200      	movs	r2, #0
   ba14e:	6840      	ldr	r0, [r0, #4]
   ba150:	4611      	mov	r1, r2
   ba152:	f7fd babf 	b.w	b76d4 <network_connecting>

000ba156 <_ZN5spark12NetworkClass5readyEv>:
}

bool NetworkClass::ready() {
    return network_ready(*this, 0, nullptr);
   ba156:	2200      	movs	r2, #0
   ba158:	6840      	ldr	r0, [r0, #4]
   ba15a:	4611      	mov	r1, r2
   ba15c:	f7fd baca 	b.w	b76f4 <network_ready>

000ba160 <_ZN5spark12NetworkClass2onEv>:
}

void NetworkClass::on() {
    network_on(*this, 0, 0, nullptr);
   ba160:	2300      	movs	r3, #0
   ba162:	6840      	ldr	r0, [r0, #4]
   ba164:	461a      	mov	r2, r3
   ba166:	4619      	mov	r1, r3
   ba168:	f7fd bacc 	b.w	b7704 <network_on>

000ba16c <_ZN5spark12NetworkClass3offEv>:
}

void NetworkClass::off() {
    network_off(*this, 0, 0, nullptr);
   ba16c:	2300      	movs	r3, #0
   ba16e:	6840      	ldr	r0, [r0, #4]
   ba170:	461a      	mov	r2, r3
   ba172:	4619      	mov	r1, r3
   ba174:	f7fd bace 	b.w	b7714 <network_off>

000ba178 <_ZN5spark12NetworkClass4isOnEv>:
}

bool NetworkClass::isOn() {
    return network_is_on(*this, nullptr);
   ba178:	6840      	ldr	r0, [r0, #4]
   ba17a:	2100      	movs	r1, #0
   ba17c:	f7fd bb02 	b.w	b7784 <network_is_on>

000ba180 <_ZN5spark12NetworkClass5isOffEv>:
}

bool NetworkClass::isOff() {
    return network_is_off(*this, nullptr);
   ba180:	6840      	ldr	r0, [r0, #4]
   ba182:	2100      	movs	r1, #0
   ba184:	f7fd bb06 	b.w	b7794 <network_is_off>

000ba188 <_ZN5spark12NetworkClass6listenEb>:
}

void NetworkClass::listen(bool begin) {
    network_listen(*this, begin ? 0 : 1, nullptr);
   ba188:	6840      	ldr	r0, [r0, #4]
   ba18a:	2200      	movs	r2, #0
   ba18c:	f081 0101 	eor.w	r1, r1, #1
   ba190:	f7fd bac8 	b.w	b7724 <network_listen>

000ba194 <_ZN5spark12NetworkClass16setListenTimeoutEt>:
}

void NetworkClass::setListenTimeout(uint16_t timeout) {
    network_set_listen_timeout(*this, timeout, nullptr);
   ba194:	6840      	ldr	r0, [r0, #4]
   ba196:	2200      	movs	r2, #0
   ba198:	f7fd bae4 	b.w	b7764 <network_set_listen_timeout>

000ba19c <_ZN5spark12NetworkClass16getListenTimeoutEv>:
}

uint16_t NetworkClass::getListenTimeout() {
    return network_get_listen_timeout(*this, 0, nullptr);
   ba19c:	2200      	movs	r2, #0
   ba19e:	6840      	ldr	r0, [r0, #4]
   ba1a0:	4611      	mov	r1, r2
   ba1a2:	f7fd bae7 	b.w	b7774 <network_get_listen_timeout>

000ba1a6 <_ZN5spark12NetworkClass9listeningEv>:
}

bool NetworkClass::listening() {
    return network_listening(*this, 0, nullptr);
   ba1a6:	2200      	movs	r2, #0
   ba1a8:	6840      	ldr	r0, [r0, #4]
   ba1aa:	4611      	mov	r1, r2
   ba1ac:	f7fd bac2 	b.w	b7734 <network_listening>

000ba1b0 <_ZN5spark12NetworkClass11isPreferredEv>:
    network_handle_t network = network_prefer(*this, prefer, nullptr);
    return Network.from(network);
}

bool NetworkClass::isPreferred() {
    return network_is_preferred(*this, nullptr);
   ba1b0:	6840      	ldr	r0, [r0, #4]
   ba1b2:	2100      	movs	r1, #0
   ba1b4:	f7fd bafe 	b.w	b77b4 <network_is_preferred>

000ba1b8 <_ZN5spark12NetworkClass7resolveEPKc>:
}

IPAddress NetworkClass::resolve(const char* name) {
   ba1b8:	e92d 43f0 	stmdb	sp!, {r4, r5, r6, r7, r8, r9, lr}
   ba1bc:	b095      	sub	sp, #84	; 0x54
   ba1be:	4614      	mov	r4, r2
   ba1c0:	460d      	mov	r5, r1
   ba1c2:	4607      	mov	r7, r0
    IPAddress addr;
   ba1c4:	f7ff fb16 	bl	b97f4 <_ZN9IPAddressC1Ev>
#if HAL_USE_INET_HAL_POSIX
    struct addrinfo *ai = nullptr;
   ba1c8:	2100      	movs	r1, #0
    struct addrinfo hints = {};
   ba1ca:	221c      	movs	r2, #28
   ba1cc:	a80d      	add	r0, sp, #52	; 0x34
    struct addrinfo *ai = nullptr;
   ba1ce:	9100      	str	r1, [sp, #0]
    struct addrinfo hints = {};
   ba1d0:	f000 fa4c 	bl	ba66c <memset>
    hints.ai_flags = AI_ADDRCONFIG;
   ba1d4:	2340      	movs	r3, #64	; 0x40
   ba1d6:	930c      	str	r3, [sp, #48]	; 0x30
    hints.ai_family = AF_UNSPEC;
    const int r = getaddrinfo(name, nullptr, &hints, &ai);
   ba1d8:	4620      	mov	r0, r4
   ba1da:	466b      	mov	r3, sp
   ba1dc:	aa0c      	add	r2, sp, #48	; 0x30
   ba1de:	2100      	movs	r1, #0
   ba1e0:	f7fc ffda 	bl	b7198 <netdb_getaddrinfo>
    if (!r) {
   ba1e4:	4604      	mov	r4, r0
   ba1e6:	2800      	cmp	r0, #0
   ba1e8:	d14b      	bne.n	ba282 <_ZN5spark12NetworkClass7resolveEPKc+0xca>
        bool ok = false;
        // This is not really needed if AI_ADDRCONFIG is properly supported
        bool ipv4 = network_ready(*this, NETWORK_READY_TYPE_IPV4, nullptr);
   ba1ea:	4602      	mov	r2, r0
   ba1ec:	2101      	movs	r1, #1
   ba1ee:	6868      	ldr	r0, [r5, #4]
   ba1f0:	f7fd fa80 	bl	b76f4 <network_ready>
        bool ipv6 = network_ready(*this, NETWORK_READY_TYPE_IPV6, nullptr);
   ba1f4:	2102      	movs	r1, #2
        bool ipv4 = network_ready(*this, NETWORK_READY_TYPE_IPV4, nullptr);
   ba1f6:	4680      	mov	r8, r0
        bool ipv6 = network_ready(*this, NETWORK_READY_TYPE_IPV6, nullptr);
   ba1f8:	4622      	mov	r2, r4
   ba1fa:	6868      	ldr	r0, [r5, #4]
   ba1fc:	f7fd fa7a 	bl	b76f4 <network_ready>
        for (auto cur = ai; cur != nullptr && !ok; cur = cur->ai_next) {
   ba200:	9e00      	ldr	r6, [sp, #0]
        bool ipv6 = network_ready(*this, NETWORK_READY_TYPE_IPV6, nullptr);
   ba202:	4681      	mov	r9, r0
        bool ok = false;
   ba204:	4621      	mov	r1, r4
        for (auto cur = ai; cur != nullptr && !ok; cur = cur->ai_next) {
   ba206:	2e00      	cmp	r6, #0
   ba208:	d03b      	beq.n	ba282 <_ZN5spark12NetworkClass7resolveEPKc+0xca>
   ba20a:	2900      	cmp	r1, #0
   ba20c:	d139      	bne.n	ba282 <_ZN5spark12NetworkClass7resolveEPKc+0xca>
            // NOTE: using only the first entry that matches the current state of IPv4/IPv6 connectivity
            switch (cur->ai_family) {
   ba20e:	6873      	ldr	r3, [r6, #4]
   ba210:	2b02      	cmp	r3, #2
   ba212:	d003      	beq.n	ba21c <_ZN5spark12NetworkClass7resolveEPKc+0x64>
   ba214:	2b0a      	cmp	r3, #10
   ba216:	d011      	beq.n	ba23c <_ZN5spark12NetworkClass7resolveEPKc+0x84>
        for (auto cur = ai; cur != nullptr && !ok; cur = cur->ai_next) {
   ba218:	69f6      	ldr	r6, [r6, #28]
   ba21a:	e7f4      	b.n	ba206 <_ZN5spark12NetworkClass7resolveEPKc+0x4e>
                case AF_INET: {
                    if (!ipv4) {
   ba21c:	f1b8 0f00 	cmp.w	r8, #0
   ba220:	d0fa      	beq.n	ba218 <_ZN5spark12NetworkClass7resolveEPKc+0x60>
                        continue;
                    }
                    // NOTE: HAL_IPAddress is little-endian
                    auto in = (struct sockaddr_in*)cur->ai_addr;
                    addr = (const uint8_t*)(&in->sin_addr.s_addr);
   ba222:	6971      	ldr	r1, [r6, #20]
        return *this = IPAddress(address);
   ba224:	a806      	add	r0, sp, #24
   ba226:	3104      	adds	r1, #4
class IPAddress : public Printable {
   ba228:	ad07      	add	r5, sp, #28
        return *this = IPAddress(address);
   ba22a:	f7ff fb11 	bl	b9850 <_ZN9IPAddressC1EPKh>
class IPAddress : public Printable {
   ba22e:	cd0f      	ldmia	r5!, {r0, r1, r2, r3}
   ba230:	1d3c      	adds	r4, r7, #4
   ba232:	c40f      	stmia	r4!, {r0, r1, r2, r3}
   ba234:	682b      	ldr	r3, [r5, #0]
   ba236:	7023      	strb	r3, [r4, #0]
                    ok = true;
   ba238:	4641      	mov	r1, r8
        return *this = IPAddress(address);
   ba23a:	e7ed      	b.n	ba218 <_ZN5spark12NetworkClass7resolveEPKc+0x60>
                    break;
                }
                case AF_INET6: {
                    if (!ipv6) {
   ba23c:	f1b9 0f00 	cmp.w	r9, #0
   ba240:	d0ea      	beq.n	ba218 <_ZN5spark12NetworkClass7resolveEPKc+0x60>
                        continue;
                    }
                    auto in6 = (struct sockaddr_in6*)cur->ai_addr;
   ba242:	6974      	ldr	r4, [r6, #20]
                    HAL_IPAddress a = {};
   ba244:	2210      	movs	r2, #16
   ba246:	a801      	add	r0, sp, #4
   ba248:	f000 fa10 	bl	ba66c <memset>
                    a.v = 6;
   ba24c:	2306      	movs	r3, #6
   ba24e:	f88d 3014 	strb.w	r3, [sp, #20]
                    memcpy(a.ipv6, in6->sin6_addr.s6_addr, sizeof(a.ipv6));
   ba252:	ad01      	add	r5, sp, #4
   ba254:	f104 0308 	add.w	r3, r4, #8
   ba258:	3418      	adds	r4, #24
   ba25a:	6818      	ldr	r0, [r3, #0]
   ba25c:	6859      	ldr	r1, [r3, #4]
   ba25e:	462a      	mov	r2, r5
   ba260:	c203      	stmia	r2!, {r0, r1}
   ba262:	3308      	adds	r3, #8
   ba264:	42a3      	cmp	r3, r4
   ba266:	4615      	mov	r5, r2
   ba268:	d1f7      	bne.n	ba25a <_ZN5spark12NetworkClass7resolveEPKc+0xa2>
                    addr = IPAddress(a);
   ba26a:	a901      	add	r1, sp, #4
   ba26c:	a806      	add	r0, sp, #24
class IPAddress : public Printable {
   ba26e:	ad07      	add	r5, sp, #28
   ba270:	f7ff face 	bl	b9810 <_ZN9IPAddressC1ERK16_HAL_IPAddress_t>
   ba274:	cd0f      	ldmia	r5!, {r0, r1, r2, r3}
   ba276:	1d3c      	adds	r4, r7, #4
   ba278:	c40f      	stmia	r4!, {r0, r1, r2, r3}
   ba27a:	682b      	ldr	r3, [r5, #0]
   ba27c:	7023      	strb	r3, [r4, #0]
                    ok = true;
   ba27e:	4649      	mov	r1, r9
   ba280:	e7ca      	b.n	ba218 <_ZN5spark12NetworkClass7resolveEPKc+0x60>
                    break;
                }
            }
        }
    }
    freeaddrinfo(ai);
   ba282:	9800      	ldr	r0, [sp, #0]
   ba284:	f7fc ff80 	bl	b7188 <netdb_freeaddrinfo>
    return Cellular.resolve(name);
#endif // Wiring_Cellular

#endif // HAL_USE_INET_HAL_POSIX
    return addr;
}
   ba288:	4638      	mov	r0, r7
   ba28a:	b015      	add	sp, #84	; 0x54
   ba28c:	e8bd 83f0 	ldmia.w	sp!, {r4, r5, r6, r7, r8, r9, pc}

000ba290 <_ZN5spark12NetworkClass4fromEm>:
    switch (nif) {
   ba290:	3803      	subs	r0, #3
   ba292:	2802      	cmp	r0, #2
   ba294:	bf9a      	itte	ls
   ba296:	4b02      	ldrls	r3, [pc, #8]	; (ba2a0 <_ZN5spark12NetworkClass4fromEm+0x10>)
   ba298:	f853 0020 	ldrls.w	r0, [r3, r0, lsl #2]
NetworkClass& NetworkClass::from(network_interface_t nif) {
   ba29c:	4801      	ldrhi	r0, [pc, #4]	; (ba2a4 <_ZN5spark12NetworkClass4fromEm+0x14>)
}
   ba29e:	4770      	bx	lr
   ba2a0:	000bd010 	.word	0x000bd010
   ba2a4:	2003e714 	.word	0x2003e714

000ba2a8 <_ZN5spark12NetworkClass6preferEb>:
NetworkClass& NetworkClass::prefer(bool prefer) {
   ba2a8:	b508      	push	{r3, lr}
    network_handle_t network = network_prefer(*this, prefer, nullptr);
   ba2aa:	2200      	movs	r2, #0
   ba2ac:	6840      	ldr	r0, [r0, #4]
   ba2ae:	f7fd fa79 	bl	b77a4 <network_prefer>
}
   ba2b2:	e8bd 4008 	ldmia.w	sp!, {r3, lr}
    return Network.from(network);
   ba2b6:	f7ff bfeb 	b.w	ba290 <_ZN5spark12NetworkClass4fromEm>
	...

000ba2bc <_GLOBAL__sub_I__ZN5spark7NetworkE>:
   ba2bc:	4b02      	ldr	r3, [pc, #8]	; (ba2c8 <_GLOBAL__sub_I__ZN5spark7NetworkE+0xc>)
   ba2be:	4a03      	ldr	r2, [pc, #12]	; (ba2cc <_GLOBAL__sub_I__ZN5spark7NetworkE+0x10>)
   ba2c0:	601a      	str	r2, [r3, #0]
   ba2c2:	2200      	movs	r2, #0
   ba2c4:	605a      	str	r2, [r3, #4]
    network_free_configuration(c, count, nullptr);
    return res;
}
#endif // HAL_USE_SOCKET_HAL_POSIX

} // spark
   ba2c6:	4770      	bx	lr
   ba2c8:	2003e714 	.word	0x2003e714
   ba2cc:	000bd024 	.word	0x000bd024

000ba2d0 <spark_protocol_instance>:
extern "C" {
#endif

DYNALIB_BEGIN(communication)

DYNALIB_FN(0, communication, spark_protocol_instance, ProtocolFacade*(void))
   ba2d0:	b508      	push	{r3, lr}
   ba2d2:	4b02      	ldr	r3, [pc, #8]	; (ba2dc <spark_protocol_instance+0xc>)
   ba2d4:	681b      	ldr	r3, [r3, #0]
   ba2d6:	681b      	ldr	r3, [r3, #0]
   ba2d8:	9301      	str	r3, [sp, #4]
   ba2da:	bd08      	pop	{r3, pc}
   ba2dc:	0003025c 	.word	0x0003025c

000ba2e0 <spark_protocol_set_product_id>:
DYNALIB_FN(1, communication, spark_protocol_set_product_id, void(ProtocolFacade*, product_id_t, unsigned, void*))
   ba2e0:	b508      	push	{r3, lr}
   ba2e2:	4b02      	ldr	r3, [pc, #8]	; (ba2ec <spark_protocol_set_product_id+0xc>)
   ba2e4:	681b      	ldr	r3, [r3, #0]
   ba2e6:	685b      	ldr	r3, [r3, #4]
   ba2e8:	9301      	str	r3, [sp, #4]
   ba2ea:	bd08      	pop	{r3, pc}
   ba2ec:	0003025c 	.word	0x0003025c

000ba2f0 <spark_protocol_set_product_firmware_version>:
DYNALIB_FN(2, communication, spark_protocol_set_product_firmware_version, void(ProtocolFacade*, product_firmware_version_t, unsigned, void*))
   ba2f0:	b508      	push	{r3, lr}
   ba2f2:	4b02      	ldr	r3, [pc, #8]	; (ba2fc <spark_protocol_set_product_firmware_version+0xc>)
   ba2f4:	681b      	ldr	r3, [r3, #0]
   ba2f6:	689b      	ldr	r3, [r3, #8]
   ba2f8:	9301      	str	r3, [sp, #4]
   ba2fa:	bd08      	pop	{r3, pc}
   ba2fc:	0003025c 	.word	0x0003025c

000ba300 <pinAvailable>:
/*
 * @brief Perform safety check on desired pin to see if it's already
 * being used.  Return 0 if used, otherwise return 1 if available.
 */
bool pinAvailable(uint16_t pin) {
  if (pin >= TOTAL_PINS) {
   ba300:	2823      	cmp	r0, #35	; 0x23
bool pinAvailable(uint16_t pin) {
   ba302:	b513      	push	{r0, r1, r4, lr}
  if (pin >= TOTAL_PINS) {
   ba304:	d902      	bls.n	ba30c <pinAvailable+0xc>
    return false;
   ba306:	2000      	movs	r0, #0
    return false; // 'pin' is used
  }
#endif

  return true; // 'pin' is available
}
   ba308:	b002      	add	sp, #8
   ba30a:	bd10      	pop	{r4, pc}
  if((pin == SCK || pin == MOSI || pin == MISO) && hal_spi_is_enabled(SPI.interface()) == true)
   ba30c:	f1a0 030b 	sub.w	r3, r0, #11
   ba310:	2b02      	cmp	r3, #2
   ba312:	d81a      	bhi.n	ba34a <pinAvailable+0x4a>

template <hal_spi_interface_t Interface>
class SpiProxy {
public:
    static SPIClass& instance() {
        static SPIClass instance(Interface);
   ba314:	4c17      	ldr	r4, [pc, #92]	; (ba374 <pinAvailable+0x74>)
   ba316:	7821      	ldrb	r1, [r4, #0]
   ba318:	f3bf 8f5b 	dmb	ish
   ba31c:	f011 0101 	ands.w	r1, r1, #1
   ba320:	d10b      	bne.n	ba33a <pinAvailable+0x3a>
   ba322:	4620      	mov	r0, r4
   ba324:	9101      	str	r1, [sp, #4]
   ba326:	f7fa fd8d 	bl	b4e44 <__cxa_guard_acquire>
   ba32a:	9901      	ldr	r1, [sp, #4]
   ba32c:	b128      	cbz	r0, ba33a <pinAvailable+0x3a>
   ba32e:	4812      	ldr	r0, [pc, #72]	; (ba378 <pinAvailable+0x78>)
   ba330:	f7fd fb27 	bl	b7982 <_ZN8SPIClassC1E19hal_spi_interface_t>
   ba334:	4620      	mov	r0, r4
   ba336:	f7fa fd8a 	bl	b4e4e <__cxa_guard_release>
   ba33a:	4b0f      	ldr	r3, [pc, #60]	; (ba378 <pinAvailable+0x78>)
   ba33c:	7818      	ldrb	r0, [r3, #0]
   ba33e:	f7fd f8eb 	bl	b7518 <hal_spi_is_enabled>
   ba342:	2800      	cmp	r0, #0
   ba344:	d1df      	bne.n	ba306 <pinAvailable+0x6>
  return true; // 'pin' is available
   ba346:	2001      	movs	r0, #1
   ba348:	e7de      	b.n	ba308 <pinAvailable+0x8>
  if((pin == SCL || pin == SDA) && hal_i2c_is_enabled(Wire.interface(), nullptr) == true)
   ba34a:	2801      	cmp	r0, #1
   ba34c:	d809      	bhi.n	ba362 <pinAvailable+0x62>
   ba34e:	f000 f8a9 	bl	ba4a4 <_Z19__fetch_global_Wirev>
   ba352:	2100      	movs	r1, #0
   ba354:	7c00      	ldrb	r0, [r0, #16]
   ba356:	f7fd f8af 	bl	b74b8 <hal_i2c_is_enabled>
  if((pin == RX || pin == TX) && hal_usart_is_enabled(Serial1.interface()) == true)
   ba35a:	f080 0001 	eor.w	r0, r0, #1
   ba35e:	b2c0      	uxtb	r0, r0
   ba360:	e7d2      	b.n	ba308 <pinAvailable+0x8>
   ba362:	3809      	subs	r0, #9
   ba364:	2801      	cmp	r0, #1
   ba366:	d8ee      	bhi.n	ba346 <pinAvailable+0x46>
   ba368:	f000 f846 	bl	ba3f8 <_Z22__fetch_global_Serial1v>
   ba36c:	7c00      	ldrb	r0, [r0, #16]
   ba36e:	f7fd f843 	bl	b73f8 <hal_usart_is_enabled>
   ba372:	e7f2      	b.n	ba35a <pinAvailable+0x5a>
   ba374:	2003e71c 	.word	0x2003e71c
   ba378:	2003e720 	.word	0x2003e720

000ba37c <pinMode>:
  if(pin >= TOTAL_PINS || setMode == PIN_MODE_NONE )
   ba37c:	2823      	cmp	r0, #35	; 0x23
{
   ba37e:	b538      	push	{r3, r4, r5, lr}
   ba380:	4604      	mov	r4, r0
   ba382:	460d      	mov	r5, r1
  if(pin >= TOTAL_PINS || setMode == PIN_MODE_NONE )
   ba384:	d80a      	bhi.n	ba39c <pinMode+0x20>
   ba386:	29ff      	cmp	r1, #255	; 0xff
   ba388:	d008      	beq.n	ba39c <pinMode+0x20>
  if( !pinAvailable(pin) ) {
   ba38a:	f7ff ffb9 	bl	ba300 <pinAvailable>
   ba38e:	b128      	cbz	r0, ba39c <pinMode+0x20>
  hal_gpio_mode(pin, setMode);
   ba390:	4629      	mov	r1, r5
   ba392:	4620      	mov	r0, r4
}
   ba394:	e8bd 4038 	ldmia.w	sp!, {r3, r4, r5, lr}
  hal_gpio_mode(pin, setMode);
   ba398:	f7fc bf06 	b.w	b71a8 <hal_gpio_mode>
}
   ba39c:	bd38      	pop	{r3, r4, r5, pc}

000ba39e <digitalWrite>:

/*
 * @brief Sets a GPIO pin to HIGH or LOW.
 */
void digitalWrite(hal_pin_t pin, uint8_t value)
{
   ba39e:	b538      	push	{r3, r4, r5, lr}
   ba3a0:	4604      	mov	r4, r0
   ba3a2:	460d      	mov	r5, r1
    PinMode mode = hal_gpio_get_mode(pin);
   ba3a4:	f7fc ff08 	bl	b71b8 <hal_gpio_get_mode>
    if (mode==PIN_MODE_NONE || is_input_mode(mode))
   ba3a8:	28ff      	cmp	r0, #255	; 0xff
   ba3aa:	d010      	beq.n	ba3ce <digitalWrite+0x30>
            mode == INPUT_PULLDOWN ||
   ba3ac:	2806      	cmp	r0, #6
   ba3ae:	d804      	bhi.n	ba3ba <digitalWrite+0x1c>
   ba3b0:	234d      	movs	r3, #77	; 0x4d
   ba3b2:	fa23 f000 	lsr.w	r0, r3, r0
   ba3b6:	07c3      	lsls	r3, r0, #31
   ba3b8:	d409      	bmi.n	ba3ce <digitalWrite+0x30>
        return;
  // Safety check
  if( !pinAvailable(pin) ) {
   ba3ba:	4620      	mov	r0, r4
   ba3bc:	f7ff ffa0 	bl	ba300 <pinAvailable>
   ba3c0:	b128      	cbz	r0, ba3ce <digitalWrite+0x30>
    return;
  }

  hal_gpio_write(pin, value);
   ba3c2:	4629      	mov	r1, r5
   ba3c4:	4620      	mov	r0, r4
}
   ba3c6:	e8bd 4038 	ldmia.w	sp!, {r3, r4, r5, lr}
  hal_gpio_write(pin, value);
   ba3ca:	f7fc befd 	b.w	b71c8 <hal_gpio_write>
}
   ba3ce:	bd38      	pop	{r3, r4, r5, pc}

000ba3d0 <digitalRead>:

/*
 * @brief Reads the value of a GPIO pin. Should return either 1 (HIGH) or 0 (LOW).
 */
int32_t digitalRead(hal_pin_t pin)
{
   ba3d0:	b510      	push	{r4, lr}
   ba3d2:	4604      	mov	r4, r0
    PinMode mode = hal_gpio_get_mode(pin);
   ba3d4:	f7fc fef0 	bl	b71b8 <hal_gpio_get_mode>
    return mode == AF_OUTPUT_PUSHPULL ||
   ba3d8:	1f03      	subs	r3, r0, #4
    if (is_af_output_mode(mode))
   ba3da:	b2db      	uxtb	r3, r3
   ba3dc:	2b01      	cmp	r3, #1
   ba3de:	d908      	bls.n	ba3f2 <digitalRead+0x22>
        return LOW;

    // Safety check
    if( !pinAvailable(pin) ) {
   ba3e0:	4620      	mov	r0, r4
   ba3e2:	f7ff ff8d 	bl	ba300 <pinAvailable>
   ba3e6:	b120      	cbz	r0, ba3f2 <digitalRead+0x22>
      return LOW;
    }

    return hal_gpio_read(pin);
   ba3e8:	4620      	mov	r0, r4
}
   ba3ea:	e8bd 4010 	ldmia.w	sp!, {r4, lr}
    return hal_gpio_read(pin);
   ba3ee:	f7fc bef3 	b.w	b71d8 <hal_gpio_read>
}
   ba3f2:	2000      	movs	r0, #0
   ba3f4:	bd10      	pop	{r4, pc}

000ba3f6 <__tcf_0>:
}
#endif

USARTSerial& __fetch_global_Serial1()
{
    static USARTSerial serial1(HAL_USART_SERIAL1, acquireSerial1Buffer());
   ba3f6:	4770      	bx	lr

000ba3f8 <_Z22__fetch_global_Serial1v>:
{
   ba3f8:	b530      	push	{r4, r5, lr}
    static USARTSerial serial1(HAL_USART_SERIAL1, acquireSerial1Buffer());
   ba3fa:	4d0e      	ldr	r5, [pc, #56]	; (ba434 <_Z22__fetch_global_Serial1v+0x3c>)
   ba3fc:	7829      	ldrb	r1, [r5, #0]
   ba3fe:	f3bf 8f5b 	dmb	ish
   ba402:	f011 0401 	ands.w	r4, r1, #1
{
   ba406:	b087      	sub	sp, #28
    static USARTSerial serial1(HAL_USART_SERIAL1, acquireSerial1Buffer());
   ba408:	d111      	bne.n	ba42e <_Z22__fetch_global_Serial1v+0x36>
   ba40a:	4628      	mov	r0, r5
   ba40c:	f7fa fd1a 	bl	b4e44 <__cxa_guard_acquire>
   ba410:	b168      	cbz	r0, ba42e <_Z22__fetch_global_Serial1v+0x36>
   ba412:	a801      	add	r0, sp, #4
   ba414:	f7fc fbb0 	bl	b6b78 <_Z20acquireSerial1Bufferv>
   ba418:	aa01      	add	r2, sp, #4
   ba41a:	4621      	mov	r1, r4
   ba41c:	4806      	ldr	r0, [pc, #24]	; (ba438 <_Z22__fetch_global_Serial1v+0x40>)
   ba41e:	f7ff fcc7 	bl	b9db0 <_ZN11USARTSerialC1E21hal_usart_interface_tRK25hal_usart_buffer_config_t>
   ba422:	4628      	mov	r0, r5
   ba424:	f7fa fd13 	bl	b4e4e <__cxa_guard_release>
   ba428:	4804      	ldr	r0, [pc, #16]	; (ba43c <_Z22__fetch_global_Serial1v+0x44>)
   ba42a:	f000 f8d9 	bl	ba5e0 <atexit>
    return serial1;
}
   ba42e:	4802      	ldr	r0, [pc, #8]	; (ba438 <_Z22__fetch_global_Serial1v+0x40>)
   ba430:	b007      	add	sp, #28
   ba432:	bd30      	pop	{r4, r5, pc}
   ba434:	2003e728 	.word	0x2003e728
   ba438:	2003e72c 	.word	0x2003e72c
   ba43c:	000ba3f7 	.word	0x000ba3f7

000ba440 <_Z21__fetch_global_EEPROMv>:

// we don't use this global instance since there's no actual instance data
// Having this keeps the unoptimized build happy

EEPROMClass& __fetch_global_EEPROM()
{
   ba440:	b510      	push	{r4, lr}
	static EEPROMClass eeprom;
   ba442:	4c08      	ldr	r4, [pc, #32]	; (ba464 <_Z21__fetch_global_EEPROMv+0x24>)
   ba444:	7823      	ldrb	r3, [r4, #0]
   ba446:	f3bf 8f5b 	dmb	ish
   ba44a:	07db      	lsls	r3, r3, #31
   ba44c:	d408      	bmi.n	ba460 <_Z21__fetch_global_EEPROMv+0x20>
   ba44e:	4620      	mov	r0, r4
   ba450:	f7fa fcf8 	bl	b4e44 <__cxa_guard_acquire>
   ba454:	b120      	cbz	r0, ba460 <_Z21__fetch_global_EEPROMv+0x20>

struct EEPROMClass{

	EEPROMClass()
    {
    		HAL_EEPROM_Init();
   ba456:	f7fc fedf 	bl	b7218 <HAL_EEPROM_Init>
   ba45a:	4620      	mov	r0, r4
   ba45c:	f7fa fcf7 	bl	b4e4e <__cxa_guard_release>
	return eeprom;
}
   ba460:	4801      	ldr	r0, [pc, #4]	; (ba468 <_Z21__fetch_global_EEPROMv+0x28>)
   ba462:	bd10      	pop	{r4, pc}
   ba464:	2003e744 	.word	0x2003e744
   ba468:	2003e748 	.word	0x2003e748

000ba46c <__tcf_0>:
}
#endif

TwoWire& __fetch_global_Wire()
{
	static TwoWire wire(HAL_I2C_INTERFACE1, acquireWireBuffer());
   ba46c:	4770      	bx	lr
	...

000ba470 <_Z17acquireWireBufferv>:
{
   ba470:	b538      	push	{r3, r4, r5, lr}
	hal_i2c_config_t config = {
   ba472:	4b0a      	ldr	r3, [pc, #40]	; (ba49c <_Z17acquireWireBufferv+0x2c>)
   ba474:	6003      	str	r3, [r0, #0]
   ba476:	2301      	movs	r3, #1
{
   ba478:	4604      	mov	r4, r0
	hal_i2c_config_t config = {
   ba47a:	6143      	str	r3, [r0, #20]
		.rx_buffer = new (std::nothrow) uint8_t[i2c_buffer_size],
   ba47c:	4908      	ldr	r1, [pc, #32]	; (ba4a0 <_Z17acquireWireBufferv+0x30>)
   ba47e:	2020      	movs	r0, #32
   ba480:	f000 f836 	bl	ba4f0 <_ZnajRKSt9nothrow_t>
	};
   ba484:	2520      	movs	r5, #32
   ba486:	6060      	str	r0, [r4, #4]
		.tx_buffer = new (std::nothrow) uint8_t[i2c_buffer_size],
   ba488:	4905      	ldr	r1, [pc, #20]	; (ba4a0 <_Z17acquireWireBufferv+0x30>)
	};
   ba48a:	60a5      	str	r5, [r4, #8]
		.tx_buffer = new (std::nothrow) uint8_t[i2c_buffer_size],
   ba48c:	4628      	mov	r0, r5
   ba48e:	f000 f82f 	bl	ba4f0 <_ZnajRKSt9nothrow_t>
	};
   ba492:	e9c4 0503 	strd	r0, r5, [r4, #12]
}
   ba496:	4620      	mov	r0, r4
   ba498:	bd38      	pop	{r3, r4, r5, pc}
   ba49a:	bf00      	nop
   ba49c:	00010018 	.word	0x00010018
   ba4a0:	000bd060 	.word	0x000bd060

000ba4a4 <_Z19__fetch_global_Wirev>:
{
   ba4a4:	b530      	push	{r4, r5, lr}
	static TwoWire wire(HAL_I2C_INTERFACE1, acquireWireBuffer());
   ba4a6:	4d0e      	ldr	r5, [pc, #56]	; (ba4e0 <_Z19__fetch_global_Wirev+0x3c>)
   ba4a8:	7829      	ldrb	r1, [r5, #0]
   ba4aa:	f3bf 8f5b 	dmb	ish
   ba4ae:	f011 0401 	ands.w	r4, r1, #1
{
   ba4b2:	b087      	sub	sp, #28
	static TwoWire wire(HAL_I2C_INTERFACE1, acquireWireBuffer());
   ba4b4:	d111      	bne.n	ba4da <_Z19__fetch_global_Wirev+0x36>
   ba4b6:	4628      	mov	r0, r5
   ba4b8:	f7fa fcc4 	bl	b4e44 <__cxa_guard_acquire>
   ba4bc:	b168      	cbz	r0, ba4da <_Z19__fetch_global_Wirev+0x36>
   ba4be:	4668      	mov	r0, sp
   ba4c0:	f7ff ffd6 	bl	ba470 <_Z17acquireWireBufferv>
   ba4c4:	466a      	mov	r2, sp
   ba4c6:	4621      	mov	r1, r4
   ba4c8:	4806      	ldr	r0, [pc, #24]	; (ba4e4 <_Z19__fetch_global_Wirev+0x40>)
   ba4ca:	f7ff fcd3 	bl	b9e74 <_ZN7TwoWireC1E19hal_i2c_interface_tRK16hal_i2c_config_t>
   ba4ce:	4628      	mov	r0, r5
   ba4d0:	f7fa fcbd 	bl	b4e4e <__cxa_guard_release>
   ba4d4:	4804      	ldr	r0, [pc, #16]	; (ba4e8 <_Z19__fetch_global_Wirev+0x44>)
   ba4d6:	f000 f883 	bl	ba5e0 <atexit>
	return wire;
}
   ba4da:	4802      	ldr	r0, [pc, #8]	; (ba4e4 <_Z19__fetch_global_Wirev+0x40>)
   ba4dc:	b007      	add	sp, #28
   ba4de:	bd30      	pop	{r4, r5, pc}
   ba4e0:	2003e74c 	.word	0x2003e74c
   ba4e4:	2003e750 	.word	0x2003e750
   ba4e8:	000ba46d 	.word	0x000ba46d

000ba4ec <_ZnwjRKSt9nothrow_t>:
   ba4ec:	f7fa bc97 	b.w	b4e1e <_Znwj>

000ba4f0 <_ZnajRKSt9nothrow_t>:
   ba4f0:	f7fa bc97 	b.w	b4e22 <_Znaj>

000ba4f4 <_ZSt25__throw_bad_function_callv>:
   ba4f4:	b508      	push	{r3, lr}
   ba4f6:	f7fd f9cd 	bl	b7894 <abort>
	...

000ba4fc <floorf>:
   ba4fc:	ee10 2a10 	vmov	r2, s0
   ba500:	f3c2 53c7 	ubfx	r3, r2, #23, #8
   ba504:	3b7f      	subs	r3, #127	; 0x7f
   ba506:	2b16      	cmp	r3, #22
   ba508:	f022 4100 	bic.w	r1, r2, #2147483648	; 0x80000000
   ba50c:	dc28      	bgt.n	ba560 <floorf+0x64>
   ba50e:	2b00      	cmp	r3, #0
   ba510:	db18      	blt.n	ba544 <floorf+0x48>
   ba512:	491a      	ldr	r1, [pc, #104]	; (ba57c <floorf+0x80>)
   ba514:	4119      	asrs	r1, r3
   ba516:	420a      	tst	r2, r1
   ba518:	d021      	beq.n	ba55e <floorf+0x62>
   ba51a:	eddf 7a19 	vldr	s15, [pc, #100]	; ba580 <floorf+0x84>
   ba51e:	ee70 7a27 	vadd.f32	s15, s0, s15
   ba522:	eef5 7ac0 	vcmpe.f32	s15, #0.0
   ba526:	eef1 fa10 	vmrs	APSR_nzcv, fpscr
   ba52a:	dd18      	ble.n	ba55e <floorf+0x62>
   ba52c:	2a00      	cmp	r2, #0
   ba52e:	da04      	bge.n	ba53a <floorf+0x3e>
   ba530:	f44f 0000 	mov.w	r0, #8388608	; 0x800000
   ba534:	fa40 f303 	asr.w	r3, r0, r3
   ba538:	441a      	add	r2, r3
   ba53a:	ea22 0301 	bic.w	r3, r2, r1
   ba53e:	ee00 3a10 	vmov	s0, r3
   ba542:	4770      	bx	lr
   ba544:	eddf 7a0e 	vldr	s15, [pc, #56]	; ba580 <floorf+0x84>
   ba548:	ee70 7a27 	vadd.f32	s15, s0, s15
   ba54c:	eef5 7ac0 	vcmpe.f32	s15, #0.0
   ba550:	eef1 fa10 	vmrs	APSR_nzcv, fpscr
   ba554:	dd03      	ble.n	ba55e <floorf+0x62>
   ba556:	2a00      	cmp	r2, #0
   ba558:	db08      	blt.n	ba56c <floorf+0x70>
   ba55a:	ed9f 0a0a 	vldr	s0, [pc, #40]	; ba584 <floorf+0x88>
   ba55e:	4770      	bx	lr
   ba560:	f1b1 4fff 	cmp.w	r1, #2139095040	; 0x7f800000
   ba564:	d3fb      	bcc.n	ba55e <floorf+0x62>
   ba566:	ee30 0a00 	vadd.f32	s0, s0, s0
   ba56a:	4770      	bx	lr
   ba56c:	eeff 7a00 	vmov.f32	s15, #240	; 0xbf800000 -1.0
   ba570:	2900      	cmp	r1, #0
   ba572:	bf18      	it	ne
   ba574:	eeb0 0a67 	vmovne.f32	s0, s15
   ba578:	4770      	bx	lr
   ba57a:	bf00      	nop
   ba57c:	007fffff 	.word	0x007fffff
   ba580:	7149f2ca 	.word	0x7149f2ca
   ba584:	00000000 	.word	0x00000000

000ba588 <sqrtf>:
   ba588:	b508      	push	{r3, lr}
   ba58a:	ed2d 8b02 	vpush	{d8}
   ba58e:	eeb0 8a40 	vmov.f32	s16, s0
   ba592:	f000 f821 	bl	ba5d8 <__ieee754_sqrtf>
   ba596:	4b0e      	ldr	r3, [pc, #56]	; (ba5d0 <sqrtf+0x48>)
   ba598:	f993 3000 	ldrsb.w	r3, [r3]
   ba59c:	3301      	adds	r3, #1
   ba59e:	d00b      	beq.n	ba5b8 <sqrtf+0x30>
   ba5a0:	eeb4 8a48 	vcmp.f32	s16, s16
   ba5a4:	eef1 fa10 	vmrs	APSR_nzcv, fpscr
   ba5a8:	d606      	bvs.n	ba5b8 <sqrtf+0x30>
   ba5aa:	eddf 8a0a 	vldr	s17, [pc, #40]	; ba5d4 <sqrtf+0x4c>
   ba5ae:	eeb4 8ae8 	vcmpe.f32	s16, s17
   ba5b2:	eef1 fa10 	vmrs	APSR_nzcv, fpscr
   ba5b6:	d402      	bmi.n	ba5be <sqrtf+0x36>
   ba5b8:	ecbd 8b02 	vpop	{d8}
   ba5bc:	bd08      	pop	{r3, pc}
   ba5be:	f7fd f979 	bl	b78b4 <__errno>
   ba5c2:	ee88 0aa8 	vdiv.f32	s0, s17, s17
   ba5c6:	ecbd 8b02 	vpop	{d8}
   ba5ca:	2321      	movs	r3, #33	; 0x21
   ba5cc:	6003      	str	r3, [r0, #0]
   ba5ce:	bd08      	pop	{r3, pc}
   ba5d0:	20037068 	.word	0x20037068
   ba5d4:	00000000 	.word	0x00000000

000ba5d8 <__ieee754_sqrtf>:
   ba5d8:	eeb1 0ac0 	vsqrt.f32	s0, s0
   ba5dc:	4770      	bx	lr
   ba5de:	bf00      	nop

000ba5e0 <atexit>:
   ba5e0:	2300      	movs	r3, #0
   ba5e2:	4601      	mov	r1, r0
   ba5e4:	461a      	mov	r2, r3
   ba5e6:	4618      	mov	r0, r3
   ba5e8:	f000 bfe4 	b.w	bb5b4 <__register_exitproc>

000ba5ec <atof>:
   ba5ec:	2100      	movs	r1, #0
   ba5ee:	f000 befd 	b.w	bb3ec <strtod>

000ba5f2 <atoi>:
   ba5f2:	220a      	movs	r2, #10
   ba5f4:	2100      	movs	r1, #0
   ba5f6:	f000 bf87 	b.w	bb508 <strtol>
	...

000ba5fc <isprint>:
   ba5fc:	4b02      	ldr	r3, [pc, #8]	; (ba608 <isprint+0xc>)
   ba5fe:	4418      	add	r0, r3
   ba600:	7840      	ldrb	r0, [r0, #1]
   ba602:	f000 0097 	and.w	r0, r0, #151	; 0x97
   ba606:	4770      	bx	lr
   ba608:	000bd158 	.word	0x000bd158

000ba60c <isspace>:
   ba60c:	4b02      	ldr	r3, [pc, #8]	; (ba618 <isspace+0xc>)
   ba60e:	4418      	add	r0, r3
   ba610:	7840      	ldrb	r0, [r0, #1]
   ba612:	f000 0008 	and.w	r0, r0, #8
   ba616:	4770      	bx	lr
   ba618:	000bd158 	.word	0x000bd158

000ba61c <memcpy>:
   ba61c:	440a      	add	r2, r1
   ba61e:	4291      	cmp	r1, r2
   ba620:	f100 33ff 	add.w	r3, r0, #4294967295
   ba624:	d100      	bne.n	ba628 <memcpy+0xc>
   ba626:	4770      	bx	lr
   ba628:	b510      	push	{r4, lr}
   ba62a:	f811 4b01 	ldrb.w	r4, [r1], #1
   ba62e:	f803 4f01 	strb.w	r4, [r3, #1]!
   ba632:	4291      	cmp	r1, r2
   ba634:	d1f9      	bne.n	ba62a <memcpy+0xe>
   ba636:	bd10      	pop	{r4, pc}

000ba638 <memmove>:
   ba638:	4288      	cmp	r0, r1
   ba63a:	b510      	push	{r4, lr}
   ba63c:	eb01 0402 	add.w	r4, r1, r2
   ba640:	d902      	bls.n	ba648 <memmove+0x10>
   ba642:	4284      	cmp	r4, r0
   ba644:	4623      	mov	r3, r4
   ba646:	d807      	bhi.n	ba658 <memmove+0x20>
   ba648:	1e43      	subs	r3, r0, #1
   ba64a:	42a1      	cmp	r1, r4
   ba64c:	d008      	beq.n	ba660 <memmove+0x28>
   ba64e:	f811 2b01 	ldrb.w	r2, [r1], #1
   ba652:	f803 2f01 	strb.w	r2, [r3, #1]!
   ba656:	e7f8      	b.n	ba64a <memmove+0x12>
   ba658:	4402      	add	r2, r0
   ba65a:	4601      	mov	r1, r0
   ba65c:	428a      	cmp	r2, r1
   ba65e:	d100      	bne.n	ba662 <memmove+0x2a>
   ba660:	bd10      	pop	{r4, pc}
   ba662:	f813 4d01 	ldrb.w	r4, [r3, #-1]!
   ba666:	f802 4d01 	strb.w	r4, [r2, #-1]!
   ba66a:	e7f7      	b.n	ba65c <memmove+0x24>

000ba66c <memset>:
   ba66c:	4402      	add	r2, r0
   ba66e:	4603      	mov	r3, r0
   ba670:	4293      	cmp	r3, r2
   ba672:	d100      	bne.n	ba676 <memset+0xa>
   ba674:	4770      	bx	lr
   ba676:	f803 1b01 	strb.w	r1, [r3], #1
   ba67a:	e7f9      	b.n	ba670 <memset+0x4>

000ba67c <srand>:
   ba67c:	b538      	push	{r3, r4, r5, lr}
   ba67e:	4b10      	ldr	r3, [pc, #64]	; (ba6c0 <srand+0x44>)
   ba680:	681d      	ldr	r5, [r3, #0]
   ba682:	6bab      	ldr	r3, [r5, #56]	; 0x38
   ba684:	4604      	mov	r4, r0
   ba686:	b9b3      	cbnz	r3, ba6b6 <srand+0x3a>
   ba688:	2018      	movs	r0, #24
   ba68a:	f7fd f8db 	bl	b7844 <malloc>
   ba68e:	4602      	mov	r2, r0
   ba690:	63a8      	str	r0, [r5, #56]	; 0x38
   ba692:	b920      	cbnz	r0, ba69e <srand+0x22>
   ba694:	4b0b      	ldr	r3, [pc, #44]	; (ba6c4 <srand+0x48>)
   ba696:	480c      	ldr	r0, [pc, #48]	; (ba6c8 <srand+0x4c>)
   ba698:	2142      	movs	r1, #66	; 0x42
   ba69a:	f7fd f913 	bl	b78c4 <__assert_func>
   ba69e:	490b      	ldr	r1, [pc, #44]	; (ba6cc <srand+0x50>)
   ba6a0:	4b0b      	ldr	r3, [pc, #44]	; (ba6d0 <srand+0x54>)
   ba6a2:	e9c0 1300 	strd	r1, r3, [r0]
   ba6a6:	4b0b      	ldr	r3, [pc, #44]	; (ba6d4 <srand+0x58>)
   ba6a8:	6083      	str	r3, [r0, #8]
   ba6aa:	230b      	movs	r3, #11
   ba6ac:	8183      	strh	r3, [r0, #12]
   ba6ae:	2100      	movs	r1, #0
   ba6b0:	2001      	movs	r0, #1
   ba6b2:	e9c2 0104 	strd	r0, r1, [r2, #16]
   ba6b6:	6bab      	ldr	r3, [r5, #56]	; 0x38
   ba6b8:	2200      	movs	r2, #0
   ba6ba:	611c      	str	r4, [r3, #16]
   ba6bc:	615a      	str	r2, [r3, #20]
   ba6be:	bd38      	pop	{r3, r4, r5, pc}
   ba6c0:	2003706c 	.word	0x2003706c
   ba6c4:	000bd061 	.word	0x000bd061
   ba6c8:	000bd078 	.word	0x000bd078
   ba6cc:	abcd330e 	.word	0xabcd330e
   ba6d0:	e66d1234 	.word	0xe66d1234
   ba6d4:	0005deec 	.word	0x0005deec

000ba6d8 <strchr>:
   ba6d8:	b2c9      	uxtb	r1, r1
   ba6da:	4603      	mov	r3, r0
   ba6dc:	f810 2b01 	ldrb.w	r2, [r0], #1
   ba6e0:	b11a      	cbz	r2, ba6ea <strchr+0x12>
   ba6e2:	428a      	cmp	r2, r1
   ba6e4:	d1f9      	bne.n	ba6da <strchr+0x2>
   ba6e6:	4618      	mov	r0, r3
   ba6e8:	4770      	bx	lr
   ba6ea:	2900      	cmp	r1, #0
   ba6ec:	bf18      	it	ne
   ba6ee:	2300      	movne	r3, #0
   ba6f0:	e7f9      	b.n	ba6e6 <strchr+0xe>

000ba6f2 <strchrnul>:
   ba6f2:	b510      	push	{r4, lr}
   ba6f4:	4604      	mov	r4, r0
   ba6f6:	f7ff ffef 	bl	ba6d8 <strchr>
   ba6fa:	b918      	cbnz	r0, ba704 <strchrnul+0x12>
   ba6fc:	4620      	mov	r0, r4
   ba6fe:	f7fa fb33 	bl	b4d68 <strlen>
   ba702:	4420      	add	r0, r4
   ba704:	bd10      	pop	{r4, pc}

000ba706 <strcpy>:
   ba706:	4603      	mov	r3, r0
   ba708:	f811 2b01 	ldrb.w	r2, [r1], #1
   ba70c:	f803 2b01 	strb.w	r2, [r3], #1
   ba710:	2a00      	cmp	r2, #0
   ba712:	d1f9      	bne.n	ba708 <strcpy+0x2>
   ba714:	4770      	bx	lr
	...

000ba718 <strdup>:
   ba718:	4b02      	ldr	r3, [pc, #8]	; (ba724 <strdup+0xc>)
   ba71a:	4601      	mov	r1, r0
   ba71c:	6818      	ldr	r0, [r3, #0]
   ba71e:	f000 b803 	b.w	ba728 <_strdup_r>
   ba722:	bf00      	nop
   ba724:	2003706c 	.word	0x2003706c

000ba728 <_strdup_r>:
   ba728:	b537      	push	{r0, r1, r2, r4, r5, lr}
   ba72a:	4604      	mov	r4, r0
   ba72c:	4608      	mov	r0, r1
   ba72e:	460d      	mov	r5, r1
   ba730:	f7fa fb1a 	bl	b4d68 <strlen>
   ba734:	1c42      	adds	r2, r0, #1
   ba736:	4611      	mov	r1, r2
   ba738:	4620      	mov	r0, r4
   ba73a:	9201      	str	r2, [sp, #4]
   ba73c:	f7fd f8b2 	bl	b78a4 <_malloc_r>
   ba740:	4604      	mov	r4, r0
   ba742:	b118      	cbz	r0, ba74c <_strdup_r+0x24>
   ba744:	9a01      	ldr	r2, [sp, #4]
   ba746:	4629      	mov	r1, r5
   ba748:	f7ff ff68 	bl	ba61c <memcpy>
   ba74c:	4620      	mov	r0, r4
   ba74e:	b003      	add	sp, #12
   ba750:	bd30      	pop	{r4, r5, pc}

000ba752 <strncmp>:
   ba752:	b510      	push	{r4, lr}
   ba754:	b17a      	cbz	r2, ba776 <strncmp+0x24>
   ba756:	4603      	mov	r3, r0
   ba758:	3901      	subs	r1, #1
   ba75a:	1884      	adds	r4, r0, r2
   ba75c:	f813 0b01 	ldrb.w	r0, [r3], #1
   ba760:	f811 2f01 	ldrb.w	r2, [r1, #1]!
   ba764:	4290      	cmp	r0, r2
   ba766:	d101      	bne.n	ba76c <strncmp+0x1a>
   ba768:	42a3      	cmp	r3, r4
   ba76a:	d101      	bne.n	ba770 <strncmp+0x1e>
   ba76c:	1a80      	subs	r0, r0, r2
   ba76e:	bd10      	pop	{r4, pc}
   ba770:	2800      	cmp	r0, #0
   ba772:	d1f3      	bne.n	ba75c <strncmp+0xa>
   ba774:	e7fa      	b.n	ba76c <strncmp+0x1a>
   ba776:	4610      	mov	r0, r2
   ba778:	e7f9      	b.n	ba76e <strncmp+0x1c>

000ba77a <strrchr>:
   ba77a:	b538      	push	{r3, r4, r5, lr}
   ba77c:	4603      	mov	r3, r0
   ba77e:	460c      	mov	r4, r1
   ba780:	b969      	cbnz	r1, ba79e <strrchr+0x24>
   ba782:	e8bd 4038 	ldmia.w	sp!, {r3, r4, r5, lr}
   ba786:	f7ff bfa7 	b.w	ba6d8 <strchr>
   ba78a:	1c43      	adds	r3, r0, #1
   ba78c:	4605      	mov	r5, r0
   ba78e:	4621      	mov	r1, r4
   ba790:	4618      	mov	r0, r3
   ba792:	f7ff ffa1 	bl	ba6d8 <strchr>
   ba796:	2800      	cmp	r0, #0
   ba798:	d1f7      	bne.n	ba78a <strrchr+0x10>
   ba79a:	4628      	mov	r0, r5
   ba79c:	bd38      	pop	{r3, r4, r5, pc}
   ba79e:	2500      	movs	r5, #0
   ba7a0:	e7f5      	b.n	ba78e <strrchr+0x14>

000ba7a2 <sulp>:
   ba7a2:	b570      	push	{r4, r5, r6, lr}
   ba7a4:	4604      	mov	r4, r0
   ba7a6:	460d      	mov	r5, r1
   ba7a8:	ec45 4b10 	vmov	d0, r4, r5
   ba7ac:	4616      	mov	r6, r2
   ba7ae:	f001 fe6b 	bl	bc488 <__ulp>
   ba7b2:	ec51 0b10 	vmov	r0, r1, d0
   ba7b6:	b17e      	cbz	r6, ba7d8 <sulp+0x36>
   ba7b8:	f3c5 530a 	ubfx	r3, r5, #20, #11
   ba7bc:	f1c3 036b 	rsb	r3, r3, #107	; 0x6b
   ba7c0:	2b00      	cmp	r3, #0
   ba7c2:	dd09      	ble.n	ba7d8 <sulp+0x36>
   ba7c4:	051b      	lsls	r3, r3, #20
   ba7c6:	f103 557f 	add.w	r5, r3, #1069547520	; 0x3fc00000
   ba7ca:	2400      	movs	r4, #0
   ba7cc:	f505 1540 	add.w	r5, r5, #3145728	; 0x300000
   ba7d0:	4622      	mov	r2, r4
   ba7d2:	462b      	mov	r3, r5
   ba7d4:	f7f9 fde0 	bl	b4398 <__aeabi_dmul>
   ba7d8:	bd70      	pop	{r4, r5, r6, pc}
   ba7da:	0000      	movs	r0, r0
   ba7dc:	0000      	movs	r0, r0
	...

000ba7e0 <_strtod_l>:
   ba7e0:	e92d 4ff0 	stmdb	sp!, {r4, r5, r6, r7, r8, r9, sl, fp, lr}
   ba7e4:	ed2d 8b02 	vpush	{d8}
   ba7e8:	b09d      	sub	sp, #116	; 0x74
   ba7ea:	461f      	mov	r7, r3
   ba7ec:	2300      	movs	r3, #0
   ba7ee:	9318      	str	r3, [sp, #96]	; 0x60
   ba7f0:	4ba2      	ldr	r3, [pc, #648]	; (baa7c <_strtod_l+0x29c>)
   ba7f2:	9213      	str	r2, [sp, #76]	; 0x4c
   ba7f4:	681b      	ldr	r3, [r3, #0]
   ba7f6:	9305      	str	r3, [sp, #20]
   ba7f8:	4604      	mov	r4, r0
   ba7fa:	4618      	mov	r0, r3
   ba7fc:	4688      	mov	r8, r1
   ba7fe:	f7fa fab3 	bl	b4d68 <strlen>
   ba802:	f04f 0a00 	mov.w	sl, #0
   ba806:	4605      	mov	r5, r0
   ba808:	f04f 0b00 	mov.w	fp, #0
   ba80c:	f8cd 805c 	str.w	r8, [sp, #92]	; 0x5c
   ba810:	9b17      	ldr	r3, [sp, #92]	; 0x5c
   ba812:	781a      	ldrb	r2, [r3, #0]
   ba814:	2a2b      	cmp	r2, #43	; 0x2b
   ba816:	d04e      	beq.n	ba8b6 <_strtod_l+0xd6>
   ba818:	d83b      	bhi.n	ba892 <_strtod_l+0xb2>
   ba81a:	2a0d      	cmp	r2, #13
   ba81c:	d834      	bhi.n	ba888 <_strtod_l+0xa8>
   ba81e:	2a08      	cmp	r2, #8
   ba820:	d834      	bhi.n	ba88c <_strtod_l+0xac>
   ba822:	2a00      	cmp	r2, #0
   ba824:	d03e      	beq.n	ba8a4 <_strtod_l+0xc4>
   ba826:	2300      	movs	r3, #0
   ba828:	930a      	str	r3, [sp, #40]	; 0x28
   ba82a:	9e17      	ldr	r6, [sp, #92]	; 0x5c
   ba82c:	7833      	ldrb	r3, [r6, #0]
   ba82e:	2b30      	cmp	r3, #48	; 0x30
   ba830:	f040 80b0 	bne.w	ba994 <_strtod_l+0x1b4>
   ba834:	7873      	ldrb	r3, [r6, #1]
   ba836:	f003 03df 	and.w	r3, r3, #223	; 0xdf
   ba83a:	2b58      	cmp	r3, #88	; 0x58
   ba83c:	d168      	bne.n	ba910 <_strtod_l+0x130>
   ba83e:	9b0a      	ldr	r3, [sp, #40]	; 0x28
   ba840:	9301      	str	r3, [sp, #4]
   ba842:	ab18      	add	r3, sp, #96	; 0x60
   ba844:	9702      	str	r7, [sp, #8]
   ba846:	9300      	str	r3, [sp, #0]
   ba848:	4a8d      	ldr	r2, [pc, #564]	; (baa80 <_strtod_l+0x2a0>)
   ba84a:	ab19      	add	r3, sp, #100	; 0x64
   ba84c:	a917      	add	r1, sp, #92	; 0x5c
   ba84e:	4620      	mov	r0, r4
   ba850:	f000 ff8a 	bl	bb768 <__gethex>
   ba854:	f010 0707 	ands.w	r7, r0, #7
   ba858:	4605      	mov	r5, r0
   ba85a:	d005      	beq.n	ba868 <_strtod_l+0x88>
   ba85c:	2f06      	cmp	r7, #6
   ba85e:	d12c      	bne.n	ba8ba <_strtod_l+0xda>
   ba860:	3601      	adds	r6, #1
   ba862:	2300      	movs	r3, #0
   ba864:	9617      	str	r6, [sp, #92]	; 0x5c
   ba866:	930a      	str	r3, [sp, #40]	; 0x28
   ba868:	9b13      	ldr	r3, [sp, #76]	; 0x4c
   ba86a:	2b00      	cmp	r3, #0
   ba86c:	f040 8590 	bne.w	bb390 <_strtod_l+0xbb0>
   ba870:	9b0a      	ldr	r3, [sp, #40]	; 0x28
   ba872:	b1eb      	cbz	r3, ba8b0 <_strtod_l+0xd0>
   ba874:	4652      	mov	r2, sl
   ba876:	f10b 4300 	add.w	r3, fp, #2147483648	; 0x80000000
   ba87a:	ec43 2b10 	vmov	d0, r2, r3
   ba87e:	b01d      	add	sp, #116	; 0x74
   ba880:	ecbd 8b02 	vpop	{d8}
   ba884:	e8bd 8ff0 	ldmia.w	sp!, {r4, r5, r6, r7, r8, r9, sl, fp, pc}
   ba888:	2a20      	cmp	r2, #32
   ba88a:	d1cc      	bne.n	ba826 <_strtod_l+0x46>
   ba88c:	3301      	adds	r3, #1
   ba88e:	9317      	str	r3, [sp, #92]	; 0x5c
   ba890:	e7be      	b.n	ba810 <_strtod_l+0x30>
   ba892:	2a2d      	cmp	r2, #45	; 0x2d
   ba894:	d1c7      	bne.n	ba826 <_strtod_l+0x46>
   ba896:	2201      	movs	r2, #1
   ba898:	920a      	str	r2, [sp, #40]	; 0x28
   ba89a:	1c5a      	adds	r2, r3, #1
   ba89c:	9217      	str	r2, [sp, #92]	; 0x5c
   ba89e:	785b      	ldrb	r3, [r3, #1]
   ba8a0:	2b00      	cmp	r3, #0
   ba8a2:	d1c2      	bne.n	ba82a <_strtod_l+0x4a>
   ba8a4:	9b13      	ldr	r3, [sp, #76]	; 0x4c
   ba8a6:	f8cd 805c 	str.w	r8, [sp, #92]	; 0x5c
   ba8aa:	2b00      	cmp	r3, #0
   ba8ac:	f040 856e 	bne.w	bb38c <_strtod_l+0xbac>
   ba8b0:	4652      	mov	r2, sl
   ba8b2:	465b      	mov	r3, fp
   ba8b4:	e7e1      	b.n	ba87a <_strtod_l+0x9a>
   ba8b6:	2200      	movs	r2, #0
   ba8b8:	e7ee      	b.n	ba898 <_strtod_l+0xb8>
   ba8ba:	9a18      	ldr	r2, [sp, #96]	; 0x60
   ba8bc:	b13a      	cbz	r2, ba8ce <_strtod_l+0xee>
   ba8be:	2135      	movs	r1, #53	; 0x35
   ba8c0:	a81a      	add	r0, sp, #104	; 0x68
   ba8c2:	f001 feec 	bl	bc69e <__copybits>
   ba8c6:	9918      	ldr	r1, [sp, #96]	; 0x60
   ba8c8:	4620      	mov	r0, r4
   ba8ca:	f001 faab 	bl	bbe24 <_Bfree>
   ba8ce:	3f01      	subs	r7, #1
   ba8d0:	2f04      	cmp	r7, #4
   ba8d2:	d806      	bhi.n	ba8e2 <_strtod_l+0x102>
   ba8d4:	e8df f007 	tbb	[pc, r7]
   ba8d8:	1714030a 	.word	0x1714030a
   ba8dc:	0a          	.byte	0x0a
   ba8dd:	00          	.byte	0x00
   ba8de:	e9dd ab1a 	ldrd	sl, fp, [sp, #104]	; 0x68
   ba8e2:	0728      	lsls	r0, r5, #28
   ba8e4:	d5c0      	bpl.n	ba868 <_strtod_l+0x88>
   ba8e6:	f04b 4b00 	orr.w	fp, fp, #2147483648	; 0x80000000
   ba8ea:	e7bd      	b.n	ba868 <_strtod_l+0x88>
   ba8ec:	e9dd a31a 	ldrd	sl, r3, [sp, #104]	; 0x68
   ba8f0:	9a19      	ldr	r2, [sp, #100]	; 0x64
   ba8f2:	f423 1380 	bic.w	r3, r3, #1048576	; 0x100000
   ba8f6:	f202 4233 	addw	r2, r2, #1075	; 0x433
   ba8fa:	ea43 5b02 	orr.w	fp, r3, r2, lsl #20
   ba8fe:	e7f0      	b.n	ba8e2 <_strtod_l+0x102>
   ba900:	f8df b180 	ldr.w	fp, [pc, #384]	; baa84 <_strtod_l+0x2a4>
   ba904:	e7ed      	b.n	ba8e2 <_strtod_l+0x102>
   ba906:	f06f 4b00 	mvn.w	fp, #2147483648	; 0x80000000
   ba90a:	f04f 3aff 	mov.w	sl, #4294967295
   ba90e:	e7e8      	b.n	ba8e2 <_strtod_l+0x102>
   ba910:	9b17      	ldr	r3, [sp, #92]	; 0x5c
   ba912:	1c5a      	adds	r2, r3, #1
   ba914:	9217      	str	r2, [sp, #92]	; 0x5c
   ba916:	785b      	ldrb	r3, [r3, #1]
   ba918:	2b30      	cmp	r3, #48	; 0x30
   ba91a:	d0f9      	beq.n	ba910 <_strtod_l+0x130>
   ba91c:	2b00      	cmp	r3, #0
   ba91e:	d0a3      	beq.n	ba868 <_strtod_l+0x88>
   ba920:	2301      	movs	r3, #1
   ba922:	f04f 0900 	mov.w	r9, #0
   ba926:	9304      	str	r3, [sp, #16]
   ba928:	9b17      	ldr	r3, [sp, #92]	; 0x5c
   ba92a:	9308      	str	r3, [sp, #32]
   ba92c:	f8cd 901c 	str.w	r9, [sp, #28]
   ba930:	464f      	mov	r7, r9
   ba932:	220a      	movs	r2, #10
   ba934:	9817      	ldr	r0, [sp, #92]	; 0x5c
   ba936:	7806      	ldrb	r6, [r0, #0]
   ba938:	f1a6 0330 	sub.w	r3, r6, #48	; 0x30
   ba93c:	b2d9      	uxtb	r1, r3
   ba93e:	2909      	cmp	r1, #9
   ba940:	d92a      	bls.n	ba998 <_strtod_l+0x1b8>
   ba942:	9905      	ldr	r1, [sp, #20]
   ba944:	462a      	mov	r2, r5
   ba946:	f7ff ff04 	bl	ba752 <strncmp>
   ba94a:	b398      	cbz	r0, ba9b4 <_strtod_l+0x1d4>
   ba94c:	2000      	movs	r0, #0
   ba94e:	4632      	mov	r2, r6
   ba950:	463d      	mov	r5, r7
   ba952:	9005      	str	r0, [sp, #20]
   ba954:	4603      	mov	r3, r0
   ba956:	2a65      	cmp	r2, #101	; 0x65
   ba958:	d001      	beq.n	ba95e <_strtod_l+0x17e>
   ba95a:	2a45      	cmp	r2, #69	; 0x45
   ba95c:	d118      	bne.n	ba990 <_strtod_l+0x1b0>
   ba95e:	b91d      	cbnz	r5, ba968 <_strtod_l+0x188>
   ba960:	9a04      	ldr	r2, [sp, #16]
   ba962:	4302      	orrs	r2, r0
   ba964:	d09e      	beq.n	ba8a4 <_strtod_l+0xc4>
   ba966:	2500      	movs	r5, #0
   ba968:	f8dd 805c 	ldr.w	r8, [sp, #92]	; 0x5c
   ba96c:	f108 0201 	add.w	r2, r8, #1
   ba970:	9217      	str	r2, [sp, #92]	; 0x5c
   ba972:	f898 2001 	ldrb.w	r2, [r8, #1]
   ba976:	2a2b      	cmp	r2, #43	; 0x2b
   ba978:	d075      	beq.n	baa66 <_strtod_l+0x286>
   ba97a:	2a2d      	cmp	r2, #45	; 0x2d
   ba97c:	d07b      	beq.n	baa76 <_strtod_l+0x296>
   ba97e:	f04f 0c00 	mov.w	ip, #0
   ba982:	f1a2 0130 	sub.w	r1, r2, #48	; 0x30
   ba986:	2909      	cmp	r1, #9
   ba988:	f240 8082 	bls.w	baa90 <_strtod_l+0x2b0>
   ba98c:	f8cd 805c 	str.w	r8, [sp, #92]	; 0x5c
   ba990:	2600      	movs	r6, #0
   ba992:	e09d      	b.n	baad0 <_strtod_l+0x2f0>
   ba994:	2300      	movs	r3, #0
   ba996:	e7c4      	b.n	ba922 <_strtod_l+0x142>
   ba998:	2f08      	cmp	r7, #8
   ba99a:	bfd8      	it	le
   ba99c:	9907      	ldrle	r1, [sp, #28]
   ba99e:	f100 0001 	add.w	r0, r0, #1
   ba9a2:	bfda      	itte	le
   ba9a4:	fb02 3301 	mlale	r3, r2, r1, r3
   ba9a8:	9307      	strle	r3, [sp, #28]
   ba9aa:	fb02 3909 	mlagt	r9, r2, r9, r3
   ba9ae:	3701      	adds	r7, #1
   ba9b0:	9017      	str	r0, [sp, #92]	; 0x5c
   ba9b2:	e7bf      	b.n	ba934 <_strtod_l+0x154>
   ba9b4:	9b17      	ldr	r3, [sp, #92]	; 0x5c
   ba9b6:	195a      	adds	r2, r3, r5
   ba9b8:	9217      	str	r2, [sp, #92]	; 0x5c
   ba9ba:	5d5a      	ldrb	r2, [r3, r5]
   ba9bc:	2f00      	cmp	r7, #0
   ba9be:	d037      	beq.n	baa30 <_strtod_l+0x250>
   ba9c0:	9005      	str	r0, [sp, #20]
   ba9c2:	463d      	mov	r5, r7
   ba9c4:	f1a2 0330 	sub.w	r3, r2, #48	; 0x30
   ba9c8:	2b09      	cmp	r3, #9
   ba9ca:	d912      	bls.n	ba9f2 <_strtod_l+0x212>
   ba9cc:	2301      	movs	r3, #1
   ba9ce:	e7c2      	b.n	ba956 <_strtod_l+0x176>
   ba9d0:	9b17      	ldr	r3, [sp, #92]	; 0x5c
   ba9d2:	1c5a      	adds	r2, r3, #1
   ba9d4:	9217      	str	r2, [sp, #92]	; 0x5c
   ba9d6:	785a      	ldrb	r2, [r3, #1]
   ba9d8:	3001      	adds	r0, #1
   ba9da:	2a30      	cmp	r2, #48	; 0x30
   ba9dc:	d0f8      	beq.n	ba9d0 <_strtod_l+0x1f0>
   ba9de:	f1a2 0331 	sub.w	r3, r2, #49	; 0x31
   ba9e2:	2b08      	cmp	r3, #8
   ba9e4:	f200 84d9 	bhi.w	bb39a <_strtod_l+0xbba>
   ba9e8:	9b17      	ldr	r3, [sp, #92]	; 0x5c
   ba9ea:	9005      	str	r0, [sp, #20]
   ba9ec:	2000      	movs	r0, #0
   ba9ee:	9308      	str	r3, [sp, #32]
   ba9f0:	4605      	mov	r5, r0
   ba9f2:	3a30      	subs	r2, #48	; 0x30
   ba9f4:	f100 0301 	add.w	r3, r0, #1
   ba9f8:	d014      	beq.n	baa24 <_strtod_l+0x244>
   ba9fa:	9905      	ldr	r1, [sp, #20]
   ba9fc:	4419      	add	r1, r3
   ba9fe:	9105      	str	r1, [sp, #20]
   baa00:	462b      	mov	r3, r5
   baa02:	eb00 0e05 	add.w	lr, r0, r5
   baa06:	210a      	movs	r1, #10
   baa08:	4573      	cmp	r3, lr
   baa0a:	d113      	bne.n	baa34 <_strtod_l+0x254>
   baa0c:	182b      	adds	r3, r5, r0
   baa0e:	2b08      	cmp	r3, #8
   baa10:	f105 0501 	add.w	r5, r5, #1
   baa14:	4405      	add	r5, r0
   baa16:	dc1c      	bgt.n	baa52 <_strtod_l+0x272>
   baa18:	9907      	ldr	r1, [sp, #28]
   baa1a:	230a      	movs	r3, #10
   baa1c:	fb03 2301 	mla	r3, r3, r1, r2
   baa20:	9307      	str	r3, [sp, #28]
   baa22:	2300      	movs	r3, #0
   baa24:	9a17      	ldr	r2, [sp, #92]	; 0x5c
   baa26:	1c51      	adds	r1, r2, #1
   baa28:	9117      	str	r1, [sp, #92]	; 0x5c
   baa2a:	7852      	ldrb	r2, [r2, #1]
   baa2c:	4618      	mov	r0, r3
   baa2e:	e7c9      	b.n	ba9c4 <_strtod_l+0x1e4>
   baa30:	4638      	mov	r0, r7
   baa32:	e7d2      	b.n	ba9da <_strtod_l+0x1fa>
   baa34:	2b08      	cmp	r3, #8
   baa36:	dc04      	bgt.n	baa42 <_strtod_l+0x262>
   baa38:	9e07      	ldr	r6, [sp, #28]
   baa3a:	434e      	muls	r6, r1
   baa3c:	9607      	str	r6, [sp, #28]
   baa3e:	3301      	adds	r3, #1
   baa40:	e7e2      	b.n	baa08 <_strtod_l+0x228>
   baa42:	f103 0c01 	add.w	ip, r3, #1
   baa46:	f1bc 0f10 	cmp.w	ip, #16
   baa4a:	bfd8      	it	le
   baa4c:	fb01 f909 	mulle.w	r9, r1, r9
   baa50:	e7f5      	b.n	baa3e <_strtod_l+0x25e>
   baa52:	2d10      	cmp	r5, #16
   baa54:	bfdc      	itt	le
   baa56:	230a      	movle	r3, #10
   baa58:	fb03 2909 	mlale	r9, r3, r9, r2
   baa5c:	e7e1      	b.n	baa22 <_strtod_l+0x242>
   baa5e:	2300      	movs	r3, #0
   baa60:	9305      	str	r3, [sp, #20]
   baa62:	2301      	movs	r3, #1
   baa64:	e77c      	b.n	ba960 <_strtod_l+0x180>
   baa66:	f04f 0c00 	mov.w	ip, #0
   baa6a:	f108 0202 	add.w	r2, r8, #2
   baa6e:	9217      	str	r2, [sp, #92]	; 0x5c
   baa70:	f898 2002 	ldrb.w	r2, [r8, #2]
   baa74:	e785      	b.n	ba982 <_strtod_l+0x1a2>
   baa76:	f04f 0c01 	mov.w	ip, #1
   baa7a:	e7f6      	b.n	baa6a <_strtod_l+0x28a>
   baa7c:	000bd2f0 	.word	0x000bd2f0
   baa80:	000bd104 	.word	0x000bd104
   baa84:	7ff00000 	.word	0x7ff00000
   baa88:	9a17      	ldr	r2, [sp, #92]	; 0x5c
   baa8a:	1c51      	adds	r1, r2, #1
   baa8c:	9117      	str	r1, [sp, #92]	; 0x5c
   baa8e:	7852      	ldrb	r2, [r2, #1]
   baa90:	2a30      	cmp	r2, #48	; 0x30
   baa92:	d0f9      	beq.n	baa88 <_strtod_l+0x2a8>
   baa94:	f1a2 0131 	sub.w	r1, r2, #49	; 0x31
   baa98:	2908      	cmp	r1, #8
   baa9a:	f63f af79 	bhi.w	ba990 <_strtod_l+0x1b0>
   baa9e:	f1a2 0e30 	sub.w	lr, r2, #48	; 0x30
   baaa2:	9a17      	ldr	r2, [sp, #92]	; 0x5c
   baaa4:	9206      	str	r2, [sp, #24]
   baaa6:	9a17      	ldr	r2, [sp, #92]	; 0x5c
   baaa8:	1c51      	adds	r1, r2, #1
   baaaa:	9117      	str	r1, [sp, #92]	; 0x5c
   baaac:	7852      	ldrb	r2, [r2, #1]
   baaae:	f1a2 0630 	sub.w	r6, r2, #48	; 0x30
   baab2:	2e09      	cmp	r6, #9
   baab4:	d937      	bls.n	bab26 <_strtod_l+0x346>
   baab6:	9e06      	ldr	r6, [sp, #24]
   baab8:	1b89      	subs	r1, r1, r6
   baaba:	2908      	cmp	r1, #8
   baabc:	f644 661f 	movw	r6, #19999	; 0x4e1f
   baac0:	dc02      	bgt.n	baac8 <_strtod_l+0x2e8>
   baac2:	4576      	cmp	r6, lr
   baac4:	bfa8      	it	ge
   baac6:	4676      	movge	r6, lr
   baac8:	f1bc 0f00 	cmp.w	ip, #0
   baacc:	d000      	beq.n	baad0 <_strtod_l+0x2f0>
   baace:	4276      	negs	r6, r6
   baad0:	2d00      	cmp	r5, #0
   baad2:	d14d      	bne.n	bab70 <_strtod_l+0x390>
   baad4:	9904      	ldr	r1, [sp, #16]
   baad6:	4301      	orrs	r1, r0
   baad8:	f47f aec6 	bne.w	ba868 <_strtod_l+0x88>
   baadc:	2b00      	cmp	r3, #0
   baade:	f47f aee1 	bne.w	ba8a4 <_strtod_l+0xc4>
   baae2:	2a69      	cmp	r2, #105	; 0x69
   baae4:	d027      	beq.n	bab36 <_strtod_l+0x356>
   baae6:	dc24      	bgt.n	bab32 <_strtod_l+0x352>
   baae8:	2a49      	cmp	r2, #73	; 0x49
   baaea:	d024      	beq.n	bab36 <_strtod_l+0x356>
   baaec:	2a4e      	cmp	r2, #78	; 0x4e
   baaee:	f47f aed9 	bne.w	ba8a4 <_strtod_l+0xc4>
   baaf2:	499f      	ldr	r1, [pc, #636]	; (bad70 <_strtod_l+0x590>)
   baaf4:	a817      	add	r0, sp, #92	; 0x5c
   baaf6:	f001 f88f 	bl	bbc18 <__match>
   baafa:	2800      	cmp	r0, #0
   baafc:	f43f aed2 	beq.w	ba8a4 <_strtod_l+0xc4>
   bab00:	9b17      	ldr	r3, [sp, #92]	; 0x5c
   bab02:	781b      	ldrb	r3, [r3, #0]
   bab04:	2b28      	cmp	r3, #40	; 0x28
   bab06:	d12d      	bne.n	bab64 <_strtod_l+0x384>
   bab08:	499a      	ldr	r1, [pc, #616]	; (bad74 <_strtod_l+0x594>)
   bab0a:	aa1a      	add	r2, sp, #104	; 0x68
   bab0c:	a817      	add	r0, sp, #92	; 0x5c
   bab0e:	f001 f897 	bl	bbc40 <__hexnan>
   bab12:	2805      	cmp	r0, #5
   bab14:	d126      	bne.n	bab64 <_strtod_l+0x384>
   bab16:	9b1b      	ldr	r3, [sp, #108]	; 0x6c
   bab18:	f8dd a068 	ldr.w	sl, [sp, #104]	; 0x68
   bab1c:	f043 4bff 	orr.w	fp, r3, #2139095040	; 0x7f800000
   bab20:	f44b 0be0 	orr.w	fp, fp, #7340032	; 0x700000
   bab24:	e6a0      	b.n	ba868 <_strtod_l+0x88>
   bab26:	210a      	movs	r1, #10
   bab28:	fb01 2e0e 	mla	lr, r1, lr, r2
   bab2c:	f1ae 0e30 	sub.w	lr, lr, #48	; 0x30
   bab30:	e7b9      	b.n	baaa6 <_strtod_l+0x2c6>
   bab32:	2a6e      	cmp	r2, #110	; 0x6e
   bab34:	e7db      	b.n	baaee <_strtod_l+0x30e>
   bab36:	4990      	ldr	r1, [pc, #576]	; (bad78 <_strtod_l+0x598>)
   bab38:	a817      	add	r0, sp, #92	; 0x5c
   bab3a:	f001 f86d 	bl	bbc18 <__match>
   bab3e:	2800      	cmp	r0, #0
   bab40:	f43f aeb0 	beq.w	ba8a4 <_strtod_l+0xc4>
   bab44:	9b17      	ldr	r3, [sp, #92]	; 0x5c
   bab46:	498d      	ldr	r1, [pc, #564]	; (bad7c <_strtod_l+0x59c>)
   bab48:	3b01      	subs	r3, #1
   bab4a:	a817      	add	r0, sp, #92	; 0x5c
   bab4c:	9317      	str	r3, [sp, #92]	; 0x5c
   bab4e:	f001 f863 	bl	bbc18 <__match>
   bab52:	b910      	cbnz	r0, bab5a <_strtod_l+0x37a>
   bab54:	9b17      	ldr	r3, [sp, #92]	; 0x5c
   bab56:	3301      	adds	r3, #1
   bab58:	9317      	str	r3, [sp, #92]	; 0x5c
   bab5a:	f8df b230 	ldr.w	fp, [pc, #560]	; bad8c <_strtod_l+0x5ac>
   bab5e:	f04f 0a00 	mov.w	sl, #0
   bab62:	e681      	b.n	ba868 <_strtod_l+0x88>
   bab64:	4886      	ldr	r0, [pc, #536]	; (bad80 <_strtod_l+0x5a0>)
   bab66:	f001 fe13 	bl	bc790 <nan>
   bab6a:	ec5b ab10 	vmov	sl, fp, d0
   bab6e:	e67b      	b.n	ba868 <_strtod_l+0x88>
   bab70:	9b05      	ldr	r3, [sp, #20]
   bab72:	9807      	ldr	r0, [sp, #28]
   bab74:	1af3      	subs	r3, r6, r3
   bab76:	2f00      	cmp	r7, #0
   bab78:	bf08      	it	eq
   bab7a:	462f      	moveq	r7, r5
   bab7c:	2d10      	cmp	r5, #16
   bab7e:	9306      	str	r3, [sp, #24]
   bab80:	46a8      	mov	r8, r5
   bab82:	bfa8      	it	ge
   bab84:	f04f 0810 	movge.w	r8, #16
   bab88:	f7f9 fb8c 	bl	b42a4 <__aeabi_ui2d>
   bab8c:	2d09      	cmp	r5, #9
   bab8e:	4682      	mov	sl, r0
   bab90:	468b      	mov	fp, r1
   bab92:	dd13      	ble.n	babbc <_strtod_l+0x3dc>
   bab94:	4b7b      	ldr	r3, [pc, #492]	; (bad84 <_strtod_l+0x5a4>)
   bab96:	eb03 03c8 	add.w	r3, r3, r8, lsl #3
   bab9a:	e953 2312 	ldrd	r2, r3, [r3, #-72]	; 0x48
   bab9e:	f7f9 fbfb 	bl	b4398 <__aeabi_dmul>
   baba2:	4682      	mov	sl, r0
   baba4:	4648      	mov	r0, r9
   baba6:	468b      	mov	fp, r1
   baba8:	f7f9 fb7c 	bl	b42a4 <__aeabi_ui2d>
   babac:	4602      	mov	r2, r0
   babae:	460b      	mov	r3, r1
   babb0:	4650      	mov	r0, sl
   babb2:	4659      	mov	r1, fp
   babb4:	f7f9 fa3a 	bl	b402c <__adddf3>
   babb8:	4682      	mov	sl, r0
   babba:	468b      	mov	fp, r1
   babbc:	2d0f      	cmp	r5, #15
   babbe:	dc38      	bgt.n	bac32 <_strtod_l+0x452>
   babc0:	9b06      	ldr	r3, [sp, #24]
   babc2:	2b00      	cmp	r3, #0
   babc4:	f43f ae50 	beq.w	ba868 <_strtod_l+0x88>
   babc8:	dd24      	ble.n	bac14 <_strtod_l+0x434>
   babca:	2b16      	cmp	r3, #22
   babcc:	dc0b      	bgt.n	babe6 <_strtod_l+0x406>
   babce:	496d      	ldr	r1, [pc, #436]	; (bad84 <_strtod_l+0x5a4>)
   babd0:	eb01 01c3 	add.w	r1, r1, r3, lsl #3
   babd4:	e9d1 0100 	ldrd	r0, r1, [r1]
   babd8:	4652      	mov	r2, sl
   babda:	465b      	mov	r3, fp
   babdc:	f7f9 fbdc 	bl	b4398 <__aeabi_dmul>
   babe0:	4682      	mov	sl, r0
   babe2:	468b      	mov	fp, r1
   babe4:	e640      	b.n	ba868 <_strtod_l+0x88>
   babe6:	9a06      	ldr	r2, [sp, #24]
   babe8:	f1c5 0325 	rsb	r3, r5, #37	; 0x25
   babec:	4293      	cmp	r3, r2
   babee:	db20      	blt.n	bac32 <_strtod_l+0x452>
   babf0:	4c64      	ldr	r4, [pc, #400]	; (bad84 <_strtod_l+0x5a4>)
   babf2:	f1c5 050f 	rsb	r5, r5, #15
   babf6:	eb04 01c5 	add.w	r1, r4, r5, lsl #3
   babfa:	4652      	mov	r2, sl
   babfc:	465b      	mov	r3, fp
   babfe:	e9d1 0100 	ldrd	r0, r1, [r1]
   bac02:	f7f9 fbc9 	bl	b4398 <__aeabi_dmul>
   bac06:	9b06      	ldr	r3, [sp, #24]
   bac08:	1b5d      	subs	r5, r3, r5
   bac0a:	eb04 04c5 	add.w	r4, r4, r5, lsl #3
   bac0e:	e9d4 2300 	ldrd	r2, r3, [r4]
   bac12:	e7e3      	b.n	babdc <_strtod_l+0x3fc>
   bac14:	9b06      	ldr	r3, [sp, #24]
   bac16:	3316      	adds	r3, #22
   bac18:	db0b      	blt.n	bac32 <_strtod_l+0x452>
   bac1a:	9b05      	ldr	r3, [sp, #20]
   bac1c:	1b9e      	subs	r6, r3, r6
   bac1e:	4b59      	ldr	r3, [pc, #356]	; (bad84 <_strtod_l+0x5a4>)
   bac20:	eb03 06c6 	add.w	r6, r3, r6, lsl #3
   bac24:	e9d6 2300 	ldrd	r2, r3, [r6]
   bac28:	4650      	mov	r0, sl
   bac2a:	4659      	mov	r1, fp
   bac2c:	f7f9 fcde 	bl	b45ec <__aeabi_ddiv>
   bac30:	e7d6      	b.n	babe0 <_strtod_l+0x400>
   bac32:	9b06      	ldr	r3, [sp, #24]
   bac34:	eba5 0808 	sub.w	r8, r5, r8
   bac38:	4498      	add	r8, r3
   bac3a:	f1b8 0f00 	cmp.w	r8, #0
   bac3e:	dd74      	ble.n	bad2a <_strtod_l+0x54a>
   bac40:	f018 030f 	ands.w	r3, r8, #15
   bac44:	d00a      	beq.n	bac5c <_strtod_l+0x47c>
   bac46:	494f      	ldr	r1, [pc, #316]	; (bad84 <_strtod_l+0x5a4>)
   bac48:	eb01 01c3 	add.w	r1, r1, r3, lsl #3
   bac4c:	4652      	mov	r2, sl
   bac4e:	465b      	mov	r3, fp
   bac50:	e9d1 0100 	ldrd	r0, r1, [r1]
   bac54:	f7f9 fba0 	bl	b4398 <__aeabi_dmul>
   bac58:	4682      	mov	sl, r0
   bac5a:	468b      	mov	fp, r1
   bac5c:	f038 080f 	bics.w	r8, r8, #15
   bac60:	d04f      	beq.n	bad02 <_strtod_l+0x522>
   bac62:	f5b8 7f9a 	cmp.w	r8, #308	; 0x134
   bac66:	dd22      	ble.n	bacae <_strtod_l+0x4ce>
   bac68:	2500      	movs	r5, #0
   bac6a:	462e      	mov	r6, r5
   bac6c:	9507      	str	r5, [sp, #28]
   bac6e:	9505      	str	r5, [sp, #20]
   bac70:	2322      	movs	r3, #34	; 0x22
   bac72:	f8df b118 	ldr.w	fp, [pc, #280]	; bad8c <_strtod_l+0x5ac>
   bac76:	6023      	str	r3, [r4, #0]
   bac78:	f04f 0a00 	mov.w	sl, #0
   bac7c:	9b07      	ldr	r3, [sp, #28]
   bac7e:	2b00      	cmp	r3, #0
   bac80:	f43f adf2 	beq.w	ba868 <_strtod_l+0x88>
   bac84:	9918      	ldr	r1, [sp, #96]	; 0x60
   bac86:	4620      	mov	r0, r4
   bac88:	f001 f8cc 	bl	bbe24 <_Bfree>
   bac8c:	9905      	ldr	r1, [sp, #20]
   bac8e:	4620      	mov	r0, r4
   bac90:	f001 f8c8 	bl	bbe24 <_Bfree>
   bac94:	4631      	mov	r1, r6
   bac96:	4620      	mov	r0, r4
   bac98:	f001 f8c4 	bl	bbe24 <_Bfree>
   bac9c:	9907      	ldr	r1, [sp, #28]
   bac9e:	4620      	mov	r0, r4
   baca0:	f001 f8c0 	bl	bbe24 <_Bfree>
   baca4:	4629      	mov	r1, r5
   baca6:	4620      	mov	r0, r4
   baca8:	f001 f8bc 	bl	bbe24 <_Bfree>
   bacac:	e5dc      	b.n	ba868 <_strtod_l+0x88>
   bacae:	4b36      	ldr	r3, [pc, #216]	; (bad88 <_strtod_l+0x5a8>)
   bacb0:	9304      	str	r3, [sp, #16]
   bacb2:	2300      	movs	r3, #0
   bacb4:	ea4f 1828 	mov.w	r8, r8, asr #4
   bacb8:	4650      	mov	r0, sl
   bacba:	4659      	mov	r1, fp
   bacbc:	4699      	mov	r9, r3
   bacbe:	f1b8 0f01 	cmp.w	r8, #1
   bacc2:	dc21      	bgt.n	bad08 <_strtod_l+0x528>
   bacc4:	b10b      	cbz	r3, bacca <_strtod_l+0x4ea>
   bacc6:	4682      	mov	sl, r0
   bacc8:	468b      	mov	fp, r1
   bacca:	4b2f      	ldr	r3, [pc, #188]	; (bad88 <_strtod_l+0x5a8>)
   baccc:	f1ab 7b54 	sub.w	fp, fp, #55574528	; 0x3500000
   bacd0:	eb03 09c9 	add.w	r9, r3, r9, lsl #3
   bacd4:	4652      	mov	r2, sl
   bacd6:	465b      	mov	r3, fp
   bacd8:	e9d9 0100 	ldrd	r0, r1, [r9]
   bacdc:	f7f9 fb5c 	bl	b4398 <__aeabi_dmul>
   bace0:	4b2a      	ldr	r3, [pc, #168]	; (bad8c <_strtod_l+0x5ac>)
   bace2:	460a      	mov	r2, r1
   bace4:	400b      	ands	r3, r1
   bace6:	492a      	ldr	r1, [pc, #168]	; (bad90 <_strtod_l+0x5b0>)
   bace8:	428b      	cmp	r3, r1
   bacea:	4682      	mov	sl, r0
   bacec:	d8bc      	bhi.n	bac68 <_strtod_l+0x488>
   bacee:	f5a1 1180 	sub.w	r1, r1, #1048576	; 0x100000
   bacf2:	428b      	cmp	r3, r1
   bacf4:	bf86      	itte	hi
   bacf6:	f8df b09c 	ldrhi.w	fp, [pc, #156]	; bad94 <_strtod_l+0x5b4>
   bacfa:	f04f 3aff 	movhi.w	sl, #4294967295
   bacfe:	f102 7b54 	addls.w	fp, r2, #55574528	; 0x3500000
   bad02:	2300      	movs	r3, #0
   bad04:	9304      	str	r3, [sp, #16]
   bad06:	e084      	b.n	bae12 <_strtod_l+0x632>
   bad08:	f018 0f01 	tst.w	r8, #1
   bad0c:	d005      	beq.n	bad1a <_strtod_l+0x53a>
   bad0e:	9b04      	ldr	r3, [sp, #16]
   bad10:	e9d3 2300 	ldrd	r2, r3, [r3]
   bad14:	f7f9 fb40 	bl	b4398 <__aeabi_dmul>
   bad18:	2301      	movs	r3, #1
   bad1a:	9a04      	ldr	r2, [sp, #16]
   bad1c:	3208      	adds	r2, #8
   bad1e:	f109 0901 	add.w	r9, r9, #1
   bad22:	ea4f 0868 	mov.w	r8, r8, asr #1
   bad26:	9204      	str	r2, [sp, #16]
   bad28:	e7c9      	b.n	bacbe <_strtod_l+0x4de>
   bad2a:	d0ea      	beq.n	bad02 <_strtod_l+0x522>
   bad2c:	f1c8 0800 	rsb	r8, r8, #0
   bad30:	f018 020f 	ands.w	r2, r8, #15
   bad34:	d00a      	beq.n	bad4c <_strtod_l+0x56c>
   bad36:	4b13      	ldr	r3, [pc, #76]	; (bad84 <_strtod_l+0x5a4>)
   bad38:	eb03 03c2 	add.w	r3, r3, r2, lsl #3
   bad3c:	4650      	mov	r0, sl
   bad3e:	4659      	mov	r1, fp
   bad40:	e9d3 2300 	ldrd	r2, r3, [r3]
   bad44:	f7f9 fc52 	bl	b45ec <__aeabi_ddiv>
   bad48:	4682      	mov	sl, r0
   bad4a:	468b      	mov	fp, r1
   bad4c:	ea5f 1828 	movs.w	r8, r8, asr #4
   bad50:	d0d7      	beq.n	bad02 <_strtod_l+0x522>
   bad52:	f1b8 0f1f 	cmp.w	r8, #31
   bad56:	dd1f      	ble.n	bad98 <_strtod_l+0x5b8>
   bad58:	2500      	movs	r5, #0
   bad5a:	462e      	mov	r6, r5
   bad5c:	9507      	str	r5, [sp, #28]
   bad5e:	9505      	str	r5, [sp, #20]
   bad60:	2322      	movs	r3, #34	; 0x22
   bad62:	f04f 0a00 	mov.w	sl, #0
   bad66:	f04f 0b00 	mov.w	fp, #0
   bad6a:	6023      	str	r3, [r4, #0]
   bad6c:	e786      	b.n	bac7c <_strtod_l+0x49c>
   bad6e:	bf00      	nop
   bad70:	000bd0fe 	.word	0x000bd0fe
   bad74:	000bd118 	.word	0x000bd118
   bad78:	000bd0f5 	.word	0x000bd0f5
   bad7c:	000bd0f8 	.word	0x000bd0f8
   bad80:	000bce4a 	.word	0x000bce4a
   bad84:	000bd3b0 	.word	0x000bd3b0
   bad88:	000bd388 	.word	0x000bd388
   bad8c:	7ff00000 	.word	0x7ff00000
   bad90:	7ca00000 	.word	0x7ca00000
   bad94:	7fefffff 	.word	0x7fefffff
   bad98:	f018 0310 	ands.w	r3, r8, #16
   bad9c:	bf18      	it	ne
   bad9e:	236a      	movne	r3, #106	; 0x6a
   bada0:	f8df 93ac 	ldr.w	r9, [pc, #940]	; bb150 <_strtod_l+0x970>
   bada4:	9304      	str	r3, [sp, #16]
   bada6:	4650      	mov	r0, sl
   bada8:	4659      	mov	r1, fp
   badaa:	2300      	movs	r3, #0
   badac:	f018 0f01 	tst.w	r8, #1
   badb0:	d004      	beq.n	badbc <_strtod_l+0x5dc>
   badb2:	e9d9 2300 	ldrd	r2, r3, [r9]
   badb6:	f7f9 faef 	bl	b4398 <__aeabi_dmul>
   badba:	2301      	movs	r3, #1
   badbc:	ea5f 0868 	movs.w	r8, r8, asr #1
   badc0:	f109 0908 	add.w	r9, r9, #8
   badc4:	d1f2      	bne.n	badac <_strtod_l+0x5cc>
   badc6:	b10b      	cbz	r3, badcc <_strtod_l+0x5ec>
   badc8:	4682      	mov	sl, r0
   badca:	468b      	mov	fp, r1
   badcc:	9b04      	ldr	r3, [sp, #16]
   badce:	b1c3      	cbz	r3, bae02 <_strtod_l+0x622>
   badd0:	f3cb 520a 	ubfx	r2, fp, #20, #11
   badd4:	f1c2 036b 	rsb	r3, r2, #107	; 0x6b
   badd8:	2b00      	cmp	r3, #0
   badda:	4659      	mov	r1, fp
   baddc:	dd11      	ble.n	bae02 <_strtod_l+0x622>
   badde:	2b1f      	cmp	r3, #31
   bade0:	f340 8124 	ble.w	bb02c <_strtod_l+0x84c>
   bade4:	2b34      	cmp	r3, #52	; 0x34
   bade6:	bfde      	ittt	le
   bade8:	f1c2 024b 	rsble	r2, r2, #75	; 0x4b
   badec:	f04f 33ff 	movle.w	r3, #4294967295
   badf0:	fa03 f202 	lslle.w	r2, r3, r2
   badf4:	f04f 0a00 	mov.w	sl, #0
   badf8:	bfcc      	ite	gt
   badfa:	f04f 7b5c 	movgt.w	fp, #57671680	; 0x3700000
   badfe:	ea02 0b01 	andle.w	fp, r2, r1
   bae02:	2200      	movs	r2, #0
   bae04:	2300      	movs	r3, #0
   bae06:	4650      	mov	r0, sl
   bae08:	4659      	mov	r1, fp
   bae0a:	f7f9 fd2d 	bl	b4868 <__aeabi_dcmpeq>
   bae0e:	2800      	cmp	r0, #0
   bae10:	d1a2      	bne.n	bad58 <_strtod_l+0x578>
   bae12:	9b07      	ldr	r3, [sp, #28]
   bae14:	9300      	str	r3, [sp, #0]
   bae16:	9908      	ldr	r1, [sp, #32]
   bae18:	462b      	mov	r3, r5
   bae1a:	463a      	mov	r2, r7
   bae1c:	4620      	mov	r0, r4
   bae1e:	f001 f869 	bl	bbef4 <__s2b>
   bae22:	9007      	str	r0, [sp, #28]
   bae24:	2800      	cmp	r0, #0
   bae26:	f43f af1f 	beq.w	bac68 <_strtod_l+0x488>
   bae2a:	9b05      	ldr	r3, [sp, #20]
   bae2c:	1b9e      	subs	r6, r3, r6
   bae2e:	9b06      	ldr	r3, [sp, #24]
   bae30:	2b00      	cmp	r3, #0
   bae32:	bfb4      	ite	lt
   bae34:	4633      	movlt	r3, r6
   bae36:	2300      	movge	r3, #0
   bae38:	930c      	str	r3, [sp, #48]	; 0x30
   bae3a:	9b06      	ldr	r3, [sp, #24]
   bae3c:	2500      	movs	r5, #0
   bae3e:	ea23 73e3 	bic.w	r3, r3, r3, asr #31
   bae42:	9312      	str	r3, [sp, #72]	; 0x48
   bae44:	462e      	mov	r6, r5
   bae46:	9b07      	ldr	r3, [sp, #28]
   bae48:	4620      	mov	r0, r4
   bae4a:	6859      	ldr	r1, [r3, #4]
   bae4c:	f000 ffaa 	bl	bbda4 <_Balloc>
   bae50:	9005      	str	r0, [sp, #20]
   bae52:	2800      	cmp	r0, #0
   bae54:	f43f af0c 	beq.w	bac70 <_strtod_l+0x490>
   bae58:	9b07      	ldr	r3, [sp, #28]
   bae5a:	691a      	ldr	r2, [r3, #16]
   bae5c:	3202      	adds	r2, #2
   bae5e:	f103 010c 	add.w	r1, r3, #12
   bae62:	0092      	lsls	r2, r2, #2
   bae64:	300c      	adds	r0, #12
   bae66:	f7ff fbd9 	bl	ba61c <memcpy>
   bae6a:	ec4b ab10 	vmov	d0, sl, fp
   bae6e:	aa1a      	add	r2, sp, #104	; 0x68
   bae70:	a919      	add	r1, sp, #100	; 0x64
   bae72:	4620      	mov	r0, r4
   bae74:	f001 fb84 	bl	bc580 <__d2b>
   bae78:	ec4b ab18 	vmov	d8, sl, fp
   bae7c:	9018      	str	r0, [sp, #96]	; 0x60
   bae7e:	2800      	cmp	r0, #0
   bae80:	f43f aef6 	beq.w	bac70 <_strtod_l+0x490>
   bae84:	2101      	movs	r1, #1
   bae86:	4620      	mov	r0, r4
   bae88:	f001 f8ce 	bl	bc028 <__i2b>
   bae8c:	4606      	mov	r6, r0
   bae8e:	2800      	cmp	r0, #0
   bae90:	f43f aeee 	beq.w	bac70 <_strtod_l+0x490>
   bae94:	9b19      	ldr	r3, [sp, #100]	; 0x64
   bae96:	9904      	ldr	r1, [sp, #16]
   bae98:	2b00      	cmp	r3, #0
   bae9a:	bfab      	itete	ge
   bae9c:	9a0c      	ldrge	r2, [sp, #48]	; 0x30
   bae9e:	9a12      	ldrlt	r2, [sp, #72]	; 0x48
   baea0:	9f12      	ldrge	r7, [sp, #72]	; 0x48
   baea2:	f8dd 9030 	ldrlt.w	r9, [sp, #48]	; 0x30
   baea6:	bfac      	ite	ge
   baea8:	eb03 0902 	addge.w	r9, r3, r2
   baeac:	1ad7      	sublt	r7, r2, r3
   baeae:	9a1a      	ldr	r2, [sp, #104]	; 0x68
   baeb0:	eba3 0801 	sub.w	r8, r3, r1
   baeb4:	4490      	add	r8, r2
   baeb6:	4ba1      	ldr	r3, [pc, #644]	; (bb13c <_strtod_l+0x95c>)
   baeb8:	f108 38ff 	add.w	r8, r8, #4294967295
   baebc:	4598      	cmp	r8, r3
   baebe:	f1c2 0236 	rsb	r2, r2, #54	; 0x36
   baec2:	f280 80c7 	bge.w	bb054 <_strtod_l+0x874>
   baec6:	eba3 0308 	sub.w	r3, r3, r8
   baeca:	2b1f      	cmp	r3, #31
   baecc:	eba2 0203 	sub.w	r2, r2, r3
   baed0:	f04f 0101 	mov.w	r1, #1
   baed4:	f300 80b1 	bgt.w	bb03a <_strtod_l+0x85a>
   baed8:	fa01 f303 	lsl.w	r3, r1, r3
   baedc:	930d      	str	r3, [sp, #52]	; 0x34
   baede:	2300      	movs	r3, #0
   baee0:	9308      	str	r3, [sp, #32]
   baee2:	eb09 0802 	add.w	r8, r9, r2
   baee6:	9b04      	ldr	r3, [sp, #16]
   baee8:	45c1      	cmp	r9, r8
   baeea:	4417      	add	r7, r2
   baeec:	441f      	add	r7, r3
   baeee:	464b      	mov	r3, r9
   baef0:	bfa8      	it	ge
   baef2:	4643      	movge	r3, r8
   baef4:	42bb      	cmp	r3, r7
   baef6:	bfa8      	it	ge
   baef8:	463b      	movge	r3, r7
   baefa:	2b00      	cmp	r3, #0
   baefc:	bfc2      	ittt	gt
   baefe:	eba8 0803 	subgt.w	r8, r8, r3
   baf02:	1aff      	subgt	r7, r7, r3
   baf04:	eba9 0903 	subgt.w	r9, r9, r3
   baf08:	9b0c      	ldr	r3, [sp, #48]	; 0x30
   baf0a:	2b00      	cmp	r3, #0
   baf0c:	dd17      	ble.n	baf3e <_strtod_l+0x75e>
   baf0e:	4631      	mov	r1, r6
   baf10:	461a      	mov	r2, r3
   baf12:	4620      	mov	r0, r4
   baf14:	f001 f948 	bl	bc1a8 <__pow5mult>
   baf18:	4606      	mov	r6, r0
   baf1a:	2800      	cmp	r0, #0
   baf1c:	f43f aea8 	beq.w	bac70 <_strtod_l+0x490>
   baf20:	4601      	mov	r1, r0
   baf22:	9a18      	ldr	r2, [sp, #96]	; 0x60
   baf24:	4620      	mov	r0, r4
   baf26:	f001 f895 	bl	bc054 <__multiply>
   baf2a:	900b      	str	r0, [sp, #44]	; 0x2c
   baf2c:	2800      	cmp	r0, #0
   baf2e:	f43f ae9f 	beq.w	bac70 <_strtod_l+0x490>
   baf32:	9918      	ldr	r1, [sp, #96]	; 0x60
   baf34:	4620      	mov	r0, r4
   baf36:	f000 ff75 	bl	bbe24 <_Bfree>
   baf3a:	9b0b      	ldr	r3, [sp, #44]	; 0x2c
   baf3c:	9318      	str	r3, [sp, #96]	; 0x60
   baf3e:	f1b8 0f00 	cmp.w	r8, #0
   baf42:	f300 808c 	bgt.w	bb05e <_strtod_l+0x87e>
   baf46:	9b06      	ldr	r3, [sp, #24]
   baf48:	2b00      	cmp	r3, #0
   baf4a:	dd08      	ble.n	baf5e <_strtod_l+0x77e>
   baf4c:	9a12      	ldr	r2, [sp, #72]	; 0x48
   baf4e:	9905      	ldr	r1, [sp, #20]
   baf50:	4620      	mov	r0, r4
   baf52:	f001 f929 	bl	bc1a8 <__pow5mult>
   baf56:	9005      	str	r0, [sp, #20]
   baf58:	2800      	cmp	r0, #0
   baf5a:	f43f ae89 	beq.w	bac70 <_strtod_l+0x490>
   baf5e:	2f00      	cmp	r7, #0
   baf60:	dd08      	ble.n	baf74 <_strtod_l+0x794>
   baf62:	9905      	ldr	r1, [sp, #20]
   baf64:	463a      	mov	r2, r7
   baf66:	4620      	mov	r0, r4
   baf68:	f001 f978 	bl	bc25c <__lshift>
   baf6c:	9005      	str	r0, [sp, #20]
   baf6e:	2800      	cmp	r0, #0
   baf70:	f43f ae7e 	beq.w	bac70 <_strtod_l+0x490>
   baf74:	f1b9 0f00 	cmp.w	r9, #0
   baf78:	dd08      	ble.n	baf8c <_strtod_l+0x7ac>
   baf7a:	4631      	mov	r1, r6
   baf7c:	464a      	mov	r2, r9
   baf7e:	4620      	mov	r0, r4
   baf80:	f001 f96c 	bl	bc25c <__lshift>
   baf84:	4606      	mov	r6, r0
   baf86:	2800      	cmp	r0, #0
   baf88:	f43f ae72 	beq.w	bac70 <_strtod_l+0x490>
   baf8c:	9a05      	ldr	r2, [sp, #20]
   baf8e:	9918      	ldr	r1, [sp, #96]	; 0x60
   baf90:	4620      	mov	r0, r4
   baf92:	f001 f9ef 	bl	bc374 <__mdiff>
   baf96:	4605      	mov	r5, r0
   baf98:	2800      	cmp	r0, #0
   baf9a:	f43f ae69 	beq.w	bac70 <_strtod_l+0x490>
   baf9e:	68c3      	ldr	r3, [r0, #12]
   bafa0:	930b      	str	r3, [sp, #44]	; 0x2c
   bafa2:	2300      	movs	r3, #0
   bafa4:	60c3      	str	r3, [r0, #12]
   bafa6:	4631      	mov	r1, r6
   bafa8:	f001 f9c8 	bl	bc33c <__mcmp>
   bafac:	2800      	cmp	r0, #0
   bafae:	da60      	bge.n	bb072 <_strtod_l+0x892>
   bafb0:	9b0b      	ldr	r3, [sp, #44]	; 0x2c
   bafb2:	ea53 030a 	orrs.w	r3, r3, sl
   bafb6:	f040 8082 	bne.w	bb0be <_strtod_l+0x8de>
   bafba:	f3cb 0313 	ubfx	r3, fp, #0, #20
   bafbe:	2b00      	cmp	r3, #0
   bafc0:	d17d      	bne.n	bb0be <_strtod_l+0x8de>
   bafc2:	f02b 4300 	bic.w	r3, fp, #2147483648	; 0x80000000
   bafc6:	0d1b      	lsrs	r3, r3, #20
   bafc8:	051b      	lsls	r3, r3, #20
   bafca:	f1b3 6fd6 	cmp.w	r3, #112197632	; 0x6b00000
   bafce:	d976      	bls.n	bb0be <_strtod_l+0x8de>
   bafd0:	696b      	ldr	r3, [r5, #20]
   bafd2:	b913      	cbnz	r3, bafda <_strtod_l+0x7fa>
   bafd4:	692b      	ldr	r3, [r5, #16]
   bafd6:	2b01      	cmp	r3, #1
   bafd8:	dd71      	ble.n	bb0be <_strtod_l+0x8de>
   bafda:	4629      	mov	r1, r5
   bafdc:	2201      	movs	r2, #1
   bafde:	4620      	mov	r0, r4
   bafe0:	f001 f93c 	bl	bc25c <__lshift>
   bafe4:	4631      	mov	r1, r6
   bafe6:	4605      	mov	r5, r0
   bafe8:	f001 f9a8 	bl	bc33c <__mcmp>
   bafec:	2800      	cmp	r0, #0
   bafee:	dd66      	ble.n	bb0be <_strtod_l+0x8de>
   baff0:	9904      	ldr	r1, [sp, #16]
   baff2:	4a53      	ldr	r2, [pc, #332]	; (bb140 <_strtod_l+0x960>)
   baff4:	465b      	mov	r3, fp
   baff6:	2900      	cmp	r1, #0
   baff8:	f000 8081 	beq.w	bb0fe <_strtod_l+0x91e>
   baffc:	ea02 010b 	and.w	r1, r2, fp
   bb000:	f1b1 6fd6 	cmp.w	r1, #112197632	; 0x6b00000
   bb004:	dc7b      	bgt.n	bb0fe <_strtod_l+0x91e>
   bb006:	f1b1 7f5c 	cmp.w	r1, #57671680	; 0x3700000
   bb00a:	f77f aea9 	ble.w	bad60 <_strtod_l+0x580>
   bb00e:	4b4d      	ldr	r3, [pc, #308]	; (bb144 <_strtod_l+0x964>)
   bb010:	4650      	mov	r0, sl
   bb012:	4659      	mov	r1, fp
   bb014:	2200      	movs	r2, #0
   bb016:	f7f9 f9bf 	bl	b4398 <__aeabi_dmul>
   bb01a:	460b      	mov	r3, r1
   bb01c:	4303      	orrs	r3, r0
   bb01e:	bf08      	it	eq
   bb020:	2322      	moveq	r3, #34	; 0x22
   bb022:	4682      	mov	sl, r0
   bb024:	468b      	mov	fp, r1
   bb026:	bf08      	it	eq
   bb028:	6023      	streq	r3, [r4, #0]
   bb02a:	e62b      	b.n	bac84 <_strtod_l+0x4a4>
   bb02c:	f04f 32ff 	mov.w	r2, #4294967295
   bb030:	fa02 f303 	lsl.w	r3, r2, r3
   bb034:	ea03 0a0a 	and.w	sl, r3, sl
   bb038:	e6e3      	b.n	bae02 <_strtod_l+0x622>
   bb03a:	f1c8 487f 	rsb	r8, r8, #4278190080	; 0xff000000
   bb03e:	f508 087f 	add.w	r8, r8, #16711680	; 0xff0000
   bb042:	f508 487b 	add.w	r8, r8, #64256	; 0xfb00
   bb046:	f108 08e2 	add.w	r8, r8, #226	; 0xe2
   bb04a:	fa01 f308 	lsl.w	r3, r1, r8
   bb04e:	9308      	str	r3, [sp, #32]
   bb050:	910d      	str	r1, [sp, #52]	; 0x34
   bb052:	e746      	b.n	baee2 <_strtod_l+0x702>
   bb054:	2300      	movs	r3, #0
   bb056:	9308      	str	r3, [sp, #32]
   bb058:	2301      	movs	r3, #1
   bb05a:	930d      	str	r3, [sp, #52]	; 0x34
   bb05c:	e741      	b.n	baee2 <_strtod_l+0x702>
   bb05e:	9918      	ldr	r1, [sp, #96]	; 0x60
   bb060:	4642      	mov	r2, r8
   bb062:	4620      	mov	r0, r4
   bb064:	f001 f8fa 	bl	bc25c <__lshift>
   bb068:	9018      	str	r0, [sp, #96]	; 0x60
   bb06a:	2800      	cmp	r0, #0
   bb06c:	f47f af6b 	bne.w	baf46 <_strtod_l+0x766>
   bb070:	e5fe      	b.n	bac70 <_strtod_l+0x490>
   bb072:	465f      	mov	r7, fp
   bb074:	d16e      	bne.n	bb154 <_strtod_l+0x974>
   bb076:	9a0b      	ldr	r2, [sp, #44]	; 0x2c
   bb078:	f3cb 0313 	ubfx	r3, fp, #0, #20
   bb07c:	b342      	cbz	r2, bb0d0 <_strtod_l+0x8f0>
   bb07e:	4a32      	ldr	r2, [pc, #200]	; (bb148 <_strtod_l+0x968>)
   bb080:	4293      	cmp	r3, r2
   bb082:	d128      	bne.n	bb0d6 <_strtod_l+0x8f6>
   bb084:	9b04      	ldr	r3, [sp, #16]
   bb086:	4651      	mov	r1, sl
   bb088:	b1eb      	cbz	r3, bb0c6 <_strtod_l+0x8e6>
   bb08a:	4b2d      	ldr	r3, [pc, #180]	; (bb140 <_strtod_l+0x960>)
   bb08c:	403b      	ands	r3, r7
   bb08e:	f1b3 6fd4 	cmp.w	r3, #111149056	; 0x6a00000
   bb092:	f04f 32ff 	mov.w	r2, #4294967295
   bb096:	d819      	bhi.n	bb0cc <_strtod_l+0x8ec>
   bb098:	0d1b      	lsrs	r3, r3, #20
   bb09a:	f1c3 036b 	rsb	r3, r3, #107	; 0x6b
   bb09e:	fa02 f303 	lsl.w	r3, r2, r3
   bb0a2:	4299      	cmp	r1, r3
   bb0a4:	d117      	bne.n	bb0d6 <_strtod_l+0x8f6>
   bb0a6:	4b29      	ldr	r3, [pc, #164]	; (bb14c <_strtod_l+0x96c>)
   bb0a8:	429f      	cmp	r7, r3
   bb0aa:	d102      	bne.n	bb0b2 <_strtod_l+0x8d2>
   bb0ac:	3101      	adds	r1, #1
   bb0ae:	f43f addf 	beq.w	bac70 <_strtod_l+0x490>
   bb0b2:	4b23      	ldr	r3, [pc, #140]	; (bb140 <_strtod_l+0x960>)
   bb0b4:	403b      	ands	r3, r7
   bb0b6:	f503 1b80 	add.w	fp, r3, #1048576	; 0x100000
   bb0ba:	f04f 0a00 	mov.w	sl, #0
   bb0be:	9b04      	ldr	r3, [sp, #16]
   bb0c0:	2b00      	cmp	r3, #0
   bb0c2:	d1a4      	bne.n	bb00e <_strtod_l+0x82e>
   bb0c4:	e5de      	b.n	bac84 <_strtod_l+0x4a4>
   bb0c6:	f04f 33ff 	mov.w	r3, #4294967295
   bb0ca:	e7ea      	b.n	bb0a2 <_strtod_l+0x8c2>
   bb0cc:	4613      	mov	r3, r2
   bb0ce:	e7e8      	b.n	bb0a2 <_strtod_l+0x8c2>
   bb0d0:	ea53 030a 	orrs.w	r3, r3, sl
   bb0d4:	d08c      	beq.n	baff0 <_strtod_l+0x810>
   bb0d6:	9b08      	ldr	r3, [sp, #32]
   bb0d8:	b1db      	cbz	r3, bb112 <_strtod_l+0x932>
   bb0da:	423b      	tst	r3, r7
   bb0dc:	d0ef      	beq.n	bb0be <_strtod_l+0x8de>
   bb0de:	9b0b      	ldr	r3, [sp, #44]	; 0x2c
   bb0e0:	9a04      	ldr	r2, [sp, #16]
   bb0e2:	4650      	mov	r0, sl
   bb0e4:	4659      	mov	r1, fp
   bb0e6:	b1c3      	cbz	r3, bb11a <_strtod_l+0x93a>
   bb0e8:	f7ff fb5b 	bl	ba7a2 <sulp>
   bb0ec:	4602      	mov	r2, r0
   bb0ee:	460b      	mov	r3, r1
   bb0f0:	ec51 0b18 	vmov	r0, r1, d8
   bb0f4:	f7f8 ff9a 	bl	b402c <__adddf3>
   bb0f8:	4682      	mov	sl, r0
   bb0fa:	468b      	mov	fp, r1
   bb0fc:	e7df      	b.n	bb0be <_strtod_l+0x8de>
   bb0fe:	4013      	ands	r3, r2
   bb100:	f5a3 1380 	sub.w	r3, r3, #1048576	; 0x100000
   bb104:	ea6f 5b13 	mvn.w	fp, r3, lsr #20
   bb108:	ea6f 5b0b 	mvn.w	fp, fp, lsl #20
   bb10c:	f04f 3aff 	mov.w	sl, #4294967295
   bb110:	e7d5      	b.n	bb0be <_strtod_l+0x8de>
   bb112:	9b0d      	ldr	r3, [sp, #52]	; 0x34
   bb114:	ea13 0f0a 	tst.w	r3, sl
   bb118:	e7e0      	b.n	bb0dc <_strtod_l+0x8fc>
   bb11a:	f7ff fb42 	bl	ba7a2 <sulp>
   bb11e:	4602      	mov	r2, r0
   bb120:	460b      	mov	r3, r1
   bb122:	ec51 0b18 	vmov	r0, r1, d8
   bb126:	f7f8 ff7f 	bl	b4028 <__aeabi_dsub>
   bb12a:	2200      	movs	r2, #0
   bb12c:	2300      	movs	r3, #0
   bb12e:	4682      	mov	sl, r0
   bb130:	468b      	mov	fp, r1
   bb132:	f7f9 fb99 	bl	b4868 <__aeabi_dcmpeq>
   bb136:	2800      	cmp	r0, #0
   bb138:	d0c1      	beq.n	bb0be <_strtod_l+0x8de>
   bb13a:	e611      	b.n	bad60 <_strtod_l+0x580>
   bb13c:	fffffc02 	.word	0xfffffc02
   bb140:	7ff00000 	.word	0x7ff00000
   bb144:	39500000 	.word	0x39500000
   bb148:	000fffff 	.word	0x000fffff
   bb14c:	7fefffff 	.word	0x7fefffff
   bb150:	000bd130 	.word	0x000bd130
   bb154:	4631      	mov	r1, r6
   bb156:	4628      	mov	r0, r5
   bb158:	f001 fa6e 	bl	bc638 <__ratio>
   bb15c:	ec59 8b10 	vmov	r8, r9, d0
   bb160:	ee10 0a10 	vmov	r0, s0
   bb164:	2200      	movs	r2, #0
   bb166:	f04f 4380 	mov.w	r3, #1073741824	; 0x40000000
   bb16a:	4649      	mov	r1, r9
   bb16c:	f7f9 fb90 	bl	b4890 <__aeabi_dcmple>
   bb170:	2800      	cmp	r0, #0
   bb172:	d07a      	beq.n	bb26a <_strtod_l+0xa8a>
   bb174:	9b0b      	ldr	r3, [sp, #44]	; 0x2c
   bb176:	2b00      	cmp	r3, #0
   bb178:	d04a      	beq.n	bb210 <_strtod_l+0xa30>
   bb17a:	4b95      	ldr	r3, [pc, #596]	; (bb3d0 <_strtod_l+0xbf0>)
   bb17c:	2200      	movs	r2, #0
   bb17e:	e9cd 2308 	strd	r2, r3, [sp, #32]
   bb182:	f8df 924c 	ldr.w	r9, [pc, #588]	; bb3d0 <_strtod_l+0xbf0>
   bb186:	f04f 0800 	mov.w	r8, #0
   bb18a:	4b92      	ldr	r3, [pc, #584]	; (bb3d4 <_strtod_l+0xbf4>)
   bb18c:	403b      	ands	r3, r7
   bb18e:	930d      	str	r3, [sp, #52]	; 0x34
   bb190:	9a0d      	ldr	r2, [sp, #52]	; 0x34
   bb192:	4b91      	ldr	r3, [pc, #580]	; (bb3d8 <_strtod_l+0xbf8>)
   bb194:	429a      	cmp	r2, r3
   bb196:	f040 80b0 	bne.w	bb2fa <_strtod_l+0xb1a>
   bb19a:	e9dd 0108 	ldrd	r0, r1, [sp, #32]
   bb19e:	f1a7 7b54 	sub.w	fp, r7, #55574528	; 0x3500000
   bb1a2:	ec4b ab10 	vmov	d0, sl, fp
   bb1a6:	e9cd 0108 	strd	r0, r1, [sp, #32]
   bb1aa:	f001 f96d 	bl	bc488 <__ulp>
   bb1ae:	e9dd 0108 	ldrd	r0, r1, [sp, #32]
   bb1b2:	ec53 2b10 	vmov	r2, r3, d0
   bb1b6:	f7f9 f8ef 	bl	b4398 <__aeabi_dmul>
   bb1ba:	4652      	mov	r2, sl
   bb1bc:	465b      	mov	r3, fp
   bb1be:	f7f8 ff35 	bl	b402c <__adddf3>
   bb1c2:	460b      	mov	r3, r1
   bb1c4:	4983      	ldr	r1, [pc, #524]	; (bb3d4 <_strtod_l+0xbf4>)
   bb1c6:	4a85      	ldr	r2, [pc, #532]	; (bb3dc <_strtod_l+0xbfc>)
   bb1c8:	4019      	ands	r1, r3
   bb1ca:	4291      	cmp	r1, r2
   bb1cc:	4682      	mov	sl, r0
   bb1ce:	d960      	bls.n	bb292 <_strtod_l+0xab2>
   bb1d0:	ee18 3a90 	vmov	r3, s17
   bb1d4:	f102 7254 	add.w	r2, r2, #55574528	; 0x3500000
   bb1d8:	4293      	cmp	r3, r2
   bb1da:	d104      	bne.n	bb1e6 <_strtod_l+0xa06>
   bb1dc:	ee18 3a10 	vmov	r3, s16
   bb1e0:	3301      	adds	r3, #1
   bb1e2:	f43f ad45 	beq.w	bac70 <_strtod_l+0x490>
   bb1e6:	f8df b200 	ldr.w	fp, [pc, #512]	; bb3e8 <_strtod_l+0xc08>
   bb1ea:	f04f 3aff 	mov.w	sl, #4294967295
   bb1ee:	9918      	ldr	r1, [sp, #96]	; 0x60
   bb1f0:	4620      	mov	r0, r4
   bb1f2:	f000 fe17 	bl	bbe24 <_Bfree>
   bb1f6:	9905      	ldr	r1, [sp, #20]
   bb1f8:	4620      	mov	r0, r4
   bb1fa:	f000 fe13 	bl	bbe24 <_Bfree>
   bb1fe:	4631      	mov	r1, r6
   bb200:	4620      	mov	r0, r4
   bb202:	f000 fe0f 	bl	bbe24 <_Bfree>
   bb206:	4629      	mov	r1, r5
   bb208:	4620      	mov	r0, r4
   bb20a:	f000 fe0b 	bl	bbe24 <_Bfree>
   bb20e:	e61a      	b.n	bae46 <_strtod_l+0x666>
   bb210:	f1ba 0f00 	cmp.w	sl, #0
   bb214:	d11b      	bne.n	bb24e <_strtod_l+0xa6e>
   bb216:	f3cb 0313 	ubfx	r3, fp, #0, #20
   bb21a:	b9f3      	cbnz	r3, bb25a <_strtod_l+0xa7a>
   bb21c:	4b6c      	ldr	r3, [pc, #432]	; (bb3d0 <_strtod_l+0xbf0>)
   bb21e:	2200      	movs	r2, #0
   bb220:	4640      	mov	r0, r8
   bb222:	4649      	mov	r1, r9
   bb224:	f7f9 fb2a 	bl	b487c <__aeabi_dcmplt>
   bb228:	b9d0      	cbnz	r0, bb260 <_strtod_l+0xa80>
   bb22a:	4640      	mov	r0, r8
   bb22c:	4649      	mov	r1, r9
   bb22e:	4b6c      	ldr	r3, [pc, #432]	; (bb3e0 <_strtod_l+0xc00>)
   bb230:	2200      	movs	r2, #0
   bb232:	f7f9 f8b1 	bl	b4398 <__aeabi_dmul>
   bb236:	4680      	mov	r8, r0
   bb238:	4689      	mov	r9, r1
   bb23a:	f109 4300 	add.w	r3, r9, #2147483648	; 0x80000000
   bb23e:	f8cd 8050 	str.w	r8, [sp, #80]	; 0x50
   bb242:	9315      	str	r3, [sp, #84]	; 0x54
   bb244:	e9dd 2314 	ldrd	r2, r3, [sp, #80]	; 0x50
   bb248:	e9cd 2308 	strd	r2, r3, [sp, #32]
   bb24c:	e79d      	b.n	bb18a <_strtod_l+0x9aa>
   bb24e:	f1ba 0f01 	cmp.w	sl, #1
   bb252:	d102      	bne.n	bb25a <_strtod_l+0xa7a>
   bb254:	2f00      	cmp	r7, #0
   bb256:	f43f ad83 	beq.w	bad60 <_strtod_l+0x580>
   bb25a:	4b62      	ldr	r3, [pc, #392]	; (bb3e4 <_strtod_l+0xc04>)
   bb25c:	2200      	movs	r2, #0
   bb25e:	e78e      	b.n	bb17e <_strtod_l+0x99e>
   bb260:	f8df 917c 	ldr.w	r9, [pc, #380]	; bb3e0 <_strtod_l+0xc00>
   bb264:	f04f 0800 	mov.w	r8, #0
   bb268:	e7e7      	b.n	bb23a <_strtod_l+0xa5a>
   bb26a:	4b5d      	ldr	r3, [pc, #372]	; (bb3e0 <_strtod_l+0xc00>)
   bb26c:	4640      	mov	r0, r8
   bb26e:	4649      	mov	r1, r9
   bb270:	2200      	movs	r2, #0
   bb272:	f7f9 f891 	bl	b4398 <__aeabi_dmul>
   bb276:	9b0b      	ldr	r3, [sp, #44]	; 0x2c
   bb278:	4680      	mov	r8, r0
   bb27a:	4689      	mov	r9, r1
   bb27c:	b933      	cbnz	r3, bb28c <_strtod_l+0xaac>
   bb27e:	f101 4300 	add.w	r3, r1, #2147483648	; 0x80000000
   bb282:	900e      	str	r0, [sp, #56]	; 0x38
   bb284:	930f      	str	r3, [sp, #60]	; 0x3c
   bb286:	e9dd 230e 	ldrd	r2, r3, [sp, #56]	; 0x38
   bb28a:	e7dd      	b.n	bb248 <_strtod_l+0xa68>
   bb28c:	e9cd 890e 	strd	r8, r9, [sp, #56]	; 0x38
   bb290:	e7f9      	b.n	bb286 <_strtod_l+0xaa6>
   bb292:	f103 7b54 	add.w	fp, r3, #55574528	; 0x3500000
   bb296:	9b04      	ldr	r3, [sp, #16]
   bb298:	2b00      	cmp	r3, #0
   bb29a:	d1a8      	bne.n	bb1ee <_strtod_l+0xa0e>
   bb29c:	f02b 4300 	bic.w	r3, fp, #2147483648	; 0x80000000
   bb2a0:	9a0d      	ldr	r2, [sp, #52]	; 0x34
   bb2a2:	0d1b      	lsrs	r3, r3, #20
   bb2a4:	051b      	lsls	r3, r3, #20
   bb2a6:	429a      	cmp	r2, r3
   bb2a8:	d1a1      	bne.n	bb1ee <_strtod_l+0xa0e>
   bb2aa:	4640      	mov	r0, r8
   bb2ac:	4649      	mov	r1, r9
   bb2ae:	f7f9 fd63 	bl	b4d78 <__aeabi_d2lz>
   bb2b2:	f7f9 f843 	bl	b433c <__aeabi_l2d>
   bb2b6:	4602      	mov	r2, r0
   bb2b8:	460b      	mov	r3, r1
   bb2ba:	4640      	mov	r0, r8
   bb2bc:	4649      	mov	r1, r9
   bb2be:	f7f8 feb3 	bl	b4028 <__aeabi_dsub>
   bb2c2:	9a0b      	ldr	r2, [sp, #44]	; 0x2c
   bb2c4:	f3cb 0313 	ubfx	r3, fp, #0, #20
   bb2c8:	ea43 030a 	orr.w	r3, r3, sl
   bb2cc:	4313      	orrs	r3, r2
   bb2ce:	4680      	mov	r8, r0
   bb2d0:	4689      	mov	r9, r1
   bb2d2:	d055      	beq.n	bb380 <_strtod_l+0xba0>
   bb2d4:	a336      	add	r3, pc, #216	; (adr r3, bb3b0 <_strtod_l+0xbd0>)
   bb2d6:	e9d3 2300 	ldrd	r2, r3, [r3]
   bb2da:	f7f9 facf 	bl	b487c <__aeabi_dcmplt>
   bb2de:	2800      	cmp	r0, #0
   bb2e0:	f47f acd0 	bne.w	bac84 <_strtod_l+0x4a4>
   bb2e4:	a334      	add	r3, pc, #208	; (adr r3, bb3b8 <_strtod_l+0xbd8>)
   bb2e6:	e9d3 2300 	ldrd	r2, r3, [r3]
   bb2ea:	4640      	mov	r0, r8
   bb2ec:	4649      	mov	r1, r9
   bb2ee:	f7f9 fae3 	bl	b48b8 <__aeabi_dcmpgt>
   bb2f2:	2800      	cmp	r0, #0
   bb2f4:	f43f af7b 	beq.w	bb1ee <_strtod_l+0xa0e>
   bb2f8:	e4c4      	b.n	bac84 <_strtod_l+0x4a4>
   bb2fa:	9b04      	ldr	r3, [sp, #16]
   bb2fc:	b333      	cbz	r3, bb34c <_strtod_l+0xb6c>
   bb2fe:	9b0d      	ldr	r3, [sp, #52]	; 0x34
   bb300:	f1b3 6fd4 	cmp.w	r3, #111149056	; 0x6a00000
   bb304:	d822      	bhi.n	bb34c <_strtod_l+0xb6c>
   bb306:	a32e      	add	r3, pc, #184	; (adr r3, bb3c0 <_strtod_l+0xbe0>)
   bb308:	e9d3 2300 	ldrd	r2, r3, [r3]
   bb30c:	4640      	mov	r0, r8
   bb30e:	4649      	mov	r1, r9
   bb310:	f7f9 fabe 	bl	b4890 <__aeabi_dcmple>
   bb314:	b1a0      	cbz	r0, bb340 <_strtod_l+0xb60>
   bb316:	4649      	mov	r1, r9
   bb318:	4640      	mov	r0, r8
   bb31a:	f7f9 fcfb 	bl	b4d14 <__aeabi_d2uiz>
   bb31e:	2801      	cmp	r0, #1
   bb320:	bf38      	it	cc
   bb322:	2001      	movcc	r0, #1
   bb324:	f7f8 ffbe 	bl	b42a4 <__aeabi_ui2d>
   bb328:	9b0b      	ldr	r3, [sp, #44]	; 0x2c
   bb32a:	4680      	mov	r8, r0
   bb32c:	4689      	mov	r9, r1
   bb32e:	bb23      	cbnz	r3, bb37a <_strtod_l+0xb9a>
   bb330:	f101 4300 	add.w	r3, r1, #2147483648	; 0x80000000
   bb334:	9010      	str	r0, [sp, #64]	; 0x40
   bb336:	9311      	str	r3, [sp, #68]	; 0x44
   bb338:	e9dd 2310 	ldrd	r2, r3, [sp, #64]	; 0x40
   bb33c:	e9cd 2308 	strd	r2, r3, [sp, #32]
   bb340:	9b09      	ldr	r3, [sp, #36]	; 0x24
   bb342:	9a0d      	ldr	r2, [sp, #52]	; 0x34
   bb344:	f103 63d6 	add.w	r3, r3, #112197632	; 0x6b00000
   bb348:	1a9b      	subs	r3, r3, r2
   bb34a:	9309      	str	r3, [sp, #36]	; 0x24
   bb34c:	e9dd 0108 	ldrd	r0, r1, [sp, #32]
   bb350:	eeb0 0a48 	vmov.f32	s0, s16
   bb354:	eef0 0a68 	vmov.f32	s1, s17
   bb358:	e9cd 0108 	strd	r0, r1, [sp, #32]
   bb35c:	f001 f894 	bl	bc488 <__ulp>
   bb360:	e9dd 0108 	ldrd	r0, r1, [sp, #32]
   bb364:	ec53 2b10 	vmov	r2, r3, d0
   bb368:	f7f9 f816 	bl	b4398 <__aeabi_dmul>
   bb36c:	ec53 2b18 	vmov	r2, r3, d8
   bb370:	f7f8 fe5c 	bl	b402c <__adddf3>
   bb374:	4682      	mov	sl, r0
   bb376:	468b      	mov	fp, r1
   bb378:	e78d      	b.n	bb296 <_strtod_l+0xab6>
   bb37a:	e9cd 8910 	strd	r8, r9, [sp, #64]	; 0x40
   bb37e:	e7db      	b.n	bb338 <_strtod_l+0xb58>
   bb380:	a311      	add	r3, pc, #68	; (adr r3, bb3c8 <_strtod_l+0xbe8>)
   bb382:	e9d3 2300 	ldrd	r2, r3, [r3]
   bb386:	f7f9 fa79 	bl	b487c <__aeabi_dcmplt>
   bb38a:	e7b2      	b.n	bb2f2 <_strtod_l+0xb12>
   bb38c:	2300      	movs	r3, #0
   bb38e:	930a      	str	r3, [sp, #40]	; 0x28
   bb390:	9a13      	ldr	r2, [sp, #76]	; 0x4c
   bb392:	9b17      	ldr	r3, [sp, #92]	; 0x5c
   bb394:	6013      	str	r3, [r2, #0]
   bb396:	f7ff ba6b 	b.w	ba870 <_strtod_l+0x90>
   bb39a:	2a65      	cmp	r2, #101	; 0x65
   bb39c:	f43f ab5f 	beq.w	baa5e <_strtod_l+0x27e>
   bb3a0:	2a45      	cmp	r2, #69	; 0x45
   bb3a2:	f43f ab5c 	beq.w	baa5e <_strtod_l+0x27e>
   bb3a6:	2301      	movs	r3, #1
   bb3a8:	f7ff bb94 	b.w	baad4 <_strtod_l+0x2f4>
   bb3ac:	f3af 8000 	nop.w
   bb3b0:	94a03595 	.word	0x94a03595
   bb3b4:	3fdfffff 	.word	0x3fdfffff
   bb3b8:	35afe535 	.word	0x35afe535
   bb3bc:	3fe00000 	.word	0x3fe00000
   bb3c0:	ffc00000 	.word	0xffc00000
   bb3c4:	41dfffff 	.word	0x41dfffff
   bb3c8:	94a03595 	.word	0x94a03595
   bb3cc:	3fcfffff 	.word	0x3fcfffff
   bb3d0:	3ff00000 	.word	0x3ff00000
   bb3d4:	7ff00000 	.word	0x7ff00000
   bb3d8:	7fe00000 	.word	0x7fe00000
   bb3dc:	7c9fffff 	.word	0x7c9fffff
   bb3e0:	3fe00000 	.word	0x3fe00000
   bb3e4:	bff00000 	.word	0xbff00000
   bb3e8:	7fefffff 	.word	0x7fefffff

000bb3ec <strtod>:
   bb3ec:	460a      	mov	r2, r1
   bb3ee:	4601      	mov	r1, r0
   bb3f0:	4802      	ldr	r0, [pc, #8]	; (bb3fc <strtod+0x10>)
   bb3f2:	4b03      	ldr	r3, [pc, #12]	; (bb400 <strtod+0x14>)
   bb3f4:	6800      	ldr	r0, [r0, #0]
   bb3f6:	f7ff b9f3 	b.w	ba7e0 <_strtod_l>
   bb3fa:	bf00      	nop
   bb3fc:	2003706c 	.word	0x2003706c
   bb400:	200370d8 	.word	0x200370d8

000bb404 <_strtol_l.constprop.0>:
   bb404:	2b01      	cmp	r3, #1
   bb406:	e92d 47f0 	stmdb	sp!, {r4, r5, r6, r7, r8, r9, sl, lr}
   bb40a:	d001      	beq.n	bb410 <_strtol_l.constprop.0+0xc>
   bb40c:	2b24      	cmp	r3, #36	; 0x24
   bb40e:	d906      	bls.n	bb41e <_strtol_l.constprop.0+0x1a>
   bb410:	f7fc fa50 	bl	b78b4 <__errno>
   bb414:	2316      	movs	r3, #22
   bb416:	6003      	str	r3, [r0, #0]
   bb418:	2000      	movs	r0, #0
   bb41a:	e8bd 87f0 	ldmia.w	sp!, {r4, r5, r6, r7, r8, r9, sl, pc}
   bb41e:	f8df c0e4 	ldr.w	ip, [pc, #228]	; bb504 <_strtol_l.constprop.0+0x100>
   bb422:	460d      	mov	r5, r1
   bb424:	462e      	mov	r6, r5
   bb426:	f815 4b01 	ldrb.w	r4, [r5], #1
   bb42a:	f814 700c 	ldrb.w	r7, [r4, ip]
   bb42e:	f017 0708 	ands.w	r7, r7, #8
   bb432:	d1f7      	bne.n	bb424 <_strtol_l.constprop.0+0x20>
   bb434:	2c2d      	cmp	r4, #45	; 0x2d
   bb436:	d132      	bne.n	bb49e <_strtol_l.constprop.0+0x9a>
   bb438:	782c      	ldrb	r4, [r5, #0]
   bb43a:	2701      	movs	r7, #1
   bb43c:	1cb5      	adds	r5, r6, #2
   bb43e:	2b00      	cmp	r3, #0
   bb440:	d05b      	beq.n	bb4fa <_strtol_l.constprop.0+0xf6>
   bb442:	2b10      	cmp	r3, #16
   bb444:	d109      	bne.n	bb45a <_strtol_l.constprop.0+0x56>
   bb446:	2c30      	cmp	r4, #48	; 0x30
   bb448:	d107      	bne.n	bb45a <_strtol_l.constprop.0+0x56>
   bb44a:	782c      	ldrb	r4, [r5, #0]
   bb44c:	f004 04df 	and.w	r4, r4, #223	; 0xdf
   bb450:	2c58      	cmp	r4, #88	; 0x58
   bb452:	d14d      	bne.n	bb4f0 <_strtol_l.constprop.0+0xec>
   bb454:	786c      	ldrb	r4, [r5, #1]
   bb456:	2310      	movs	r3, #16
   bb458:	3502      	adds	r5, #2
   bb45a:	f107 4800 	add.w	r8, r7, #2147483648	; 0x80000000
   bb45e:	f108 38ff 	add.w	r8, r8, #4294967295
   bb462:	f04f 0c00 	mov.w	ip, #0
   bb466:	fbb8 f9f3 	udiv	r9, r8, r3
   bb46a:	4666      	mov	r6, ip
   bb46c:	fb03 8a19 	mls	sl, r3, r9, r8
   bb470:	f1a4 0e30 	sub.w	lr, r4, #48	; 0x30
   bb474:	f1be 0f09 	cmp.w	lr, #9
   bb478:	d816      	bhi.n	bb4a8 <_strtol_l.constprop.0+0xa4>
   bb47a:	4674      	mov	r4, lr
   bb47c:	42a3      	cmp	r3, r4
   bb47e:	dd24      	ble.n	bb4ca <_strtol_l.constprop.0+0xc6>
   bb480:	f1bc 0f00 	cmp.w	ip, #0
   bb484:	db1e      	blt.n	bb4c4 <_strtol_l.constprop.0+0xc0>
   bb486:	45b1      	cmp	r9, r6
   bb488:	d31c      	bcc.n	bb4c4 <_strtol_l.constprop.0+0xc0>
   bb48a:	d101      	bne.n	bb490 <_strtol_l.constprop.0+0x8c>
   bb48c:	45a2      	cmp	sl, r4
   bb48e:	db19      	blt.n	bb4c4 <_strtol_l.constprop.0+0xc0>
   bb490:	fb06 4603 	mla	r6, r6, r3, r4
   bb494:	f04f 0c01 	mov.w	ip, #1
   bb498:	f815 4b01 	ldrb.w	r4, [r5], #1
   bb49c:	e7e8      	b.n	bb470 <_strtol_l.constprop.0+0x6c>
   bb49e:	2c2b      	cmp	r4, #43	; 0x2b
   bb4a0:	bf04      	itt	eq
   bb4a2:	782c      	ldrbeq	r4, [r5, #0]
   bb4a4:	1cb5      	addeq	r5, r6, #2
   bb4a6:	e7ca      	b.n	bb43e <_strtol_l.constprop.0+0x3a>
   bb4a8:	f1a4 0e41 	sub.w	lr, r4, #65	; 0x41
   bb4ac:	f1be 0f19 	cmp.w	lr, #25
   bb4b0:	d801      	bhi.n	bb4b6 <_strtol_l.constprop.0+0xb2>
   bb4b2:	3c37      	subs	r4, #55	; 0x37
   bb4b4:	e7e2      	b.n	bb47c <_strtol_l.constprop.0+0x78>
   bb4b6:	f1a4 0e61 	sub.w	lr, r4, #97	; 0x61
   bb4ba:	f1be 0f19 	cmp.w	lr, #25
   bb4be:	d804      	bhi.n	bb4ca <_strtol_l.constprop.0+0xc6>
   bb4c0:	3c57      	subs	r4, #87	; 0x57
   bb4c2:	e7db      	b.n	bb47c <_strtol_l.constprop.0+0x78>
   bb4c4:	f04f 3cff 	mov.w	ip, #4294967295
   bb4c8:	e7e6      	b.n	bb498 <_strtol_l.constprop.0+0x94>
   bb4ca:	f1bc 0f00 	cmp.w	ip, #0
   bb4ce:	da05      	bge.n	bb4dc <_strtol_l.constprop.0+0xd8>
   bb4d0:	2322      	movs	r3, #34	; 0x22
   bb4d2:	6003      	str	r3, [r0, #0]
   bb4d4:	4646      	mov	r6, r8
   bb4d6:	b942      	cbnz	r2, bb4ea <_strtol_l.constprop.0+0xe6>
   bb4d8:	4630      	mov	r0, r6
   bb4da:	e79e      	b.n	bb41a <_strtol_l.constprop.0+0x16>
   bb4dc:	b107      	cbz	r7, bb4e0 <_strtol_l.constprop.0+0xdc>
   bb4de:	4276      	negs	r6, r6
   bb4e0:	2a00      	cmp	r2, #0
   bb4e2:	d0f9      	beq.n	bb4d8 <_strtol_l.constprop.0+0xd4>
   bb4e4:	f1bc 0f00 	cmp.w	ip, #0
   bb4e8:	d000      	beq.n	bb4ec <_strtol_l.constprop.0+0xe8>
   bb4ea:	1e69      	subs	r1, r5, #1
   bb4ec:	6011      	str	r1, [r2, #0]
   bb4ee:	e7f3      	b.n	bb4d8 <_strtol_l.constprop.0+0xd4>
   bb4f0:	2430      	movs	r4, #48	; 0x30
   bb4f2:	2b00      	cmp	r3, #0
   bb4f4:	d1b1      	bne.n	bb45a <_strtol_l.constprop.0+0x56>
   bb4f6:	2308      	movs	r3, #8
   bb4f8:	e7af      	b.n	bb45a <_strtol_l.constprop.0+0x56>
   bb4fa:	2c30      	cmp	r4, #48	; 0x30
   bb4fc:	d0a5      	beq.n	bb44a <_strtol_l.constprop.0+0x46>
   bb4fe:	230a      	movs	r3, #10
   bb500:	e7ab      	b.n	bb45a <_strtol_l.constprop.0+0x56>
   bb502:	bf00      	nop
   bb504:	000bd159 	.word	0x000bd159

000bb508 <strtol>:
   bb508:	4613      	mov	r3, r2
   bb50a:	460a      	mov	r2, r1
   bb50c:	4601      	mov	r1, r0
   bb50e:	4802      	ldr	r0, [pc, #8]	; (bb518 <strtol+0x10>)
   bb510:	6800      	ldr	r0, [r0, #0]
   bb512:	f7ff bf77 	b.w	bb404 <_strtol_l.constprop.0>
   bb516:	bf00      	nop
   bb518:	2003706c 	.word	0x2003706c

000bb51c <close>:
   bb51c:	4b02      	ldr	r3, [pc, #8]	; (bb528 <close+0xc>)
   bb51e:	4601      	mov	r1, r0
   bb520:	6818      	ldr	r0, [r3, #0]
   bb522:	f000 b8a9 	b.w	bb678 <_close_r>
   bb526:	bf00      	nop
   bb528:	2003706c 	.word	0x2003706c

000bb52c <open>:
   bb52c:	b40e      	push	{r1, r2, r3}
   bb52e:	b503      	push	{r0, r1, lr}
   bb530:	ab03      	add	r3, sp, #12
   bb532:	4601      	mov	r1, r0
   bb534:	4806      	ldr	r0, [pc, #24]	; (bb550 <open+0x24>)
   bb536:	f853 2b04 	ldr.w	r2, [r3], #4
   bb53a:	9301      	str	r3, [sp, #4]
   bb53c:	6800      	ldr	r0, [r0, #0]
   bb53e:	9b04      	ldr	r3, [sp, #16]
   bb540:	f001 f900 	bl	bc744 <_open_r>
   bb544:	b002      	add	sp, #8
   bb546:	f85d eb04 	ldr.w	lr, [sp], #4
   bb54a:	b003      	add	sp, #12
   bb54c:	4770      	bx	lr
   bb54e:	bf00      	nop
   bb550:	2003706c 	.word	0x2003706c

000bb554 <read>:
   bb554:	4613      	mov	r3, r2
   bb556:	460a      	mov	r2, r1
   bb558:	4601      	mov	r1, r0
   bb55a:	4802      	ldr	r0, [pc, #8]	; (bb564 <read+0x10>)
   bb55c:	6800      	ldr	r0, [r0, #0]
   bb55e:	f001 b903 	b.w	bc768 <_read_r>
   bb562:	bf00      	nop
   bb564:	2003706c 	.word	0x2003706c

000bb568 <write>:
   bb568:	4613      	mov	r3, r2
   bb56a:	460a      	mov	r2, r1
   bb56c:	4601      	mov	r1, r0
   bb56e:	4802      	ldr	r0, [pc, #8]	; (bb578 <write+0x10>)
   bb570:	6800      	ldr	r0, [r0, #0]
   bb572:	f000 b80d 	b.w	bb590 <_write_r>
   bb576:	bf00      	nop
   bb578:	2003706c 	.word	0x2003706c

000bb57c <tolower>:
   bb57c:	4b03      	ldr	r3, [pc, #12]	; (bb58c <tolower+0x10>)
   bb57e:	5cc3      	ldrb	r3, [r0, r3]
   bb580:	f003 0303 	and.w	r3, r3, #3
   bb584:	2b01      	cmp	r3, #1
   bb586:	bf08      	it	eq
   bb588:	3020      	addeq	r0, #32
   bb58a:	4770      	bx	lr
   bb58c:	000bd159 	.word	0x000bd159

000bb590 <_write_r>:
   bb590:	b538      	push	{r3, r4, r5, lr}
   bb592:	4d07      	ldr	r5, [pc, #28]	; (bb5b0 <_write_r+0x20>)
   bb594:	4604      	mov	r4, r0
   bb596:	4608      	mov	r0, r1
   bb598:	4611      	mov	r1, r2
   bb59a:	2200      	movs	r2, #0
   bb59c:	602a      	str	r2, [r5, #0]
   bb59e:	461a      	mov	r2, r3
   bb5a0:	f7fb fe82 	bl	b72a8 <_write>
   bb5a4:	1c43      	adds	r3, r0, #1
   bb5a6:	d102      	bne.n	bb5ae <_write_r+0x1e>
   bb5a8:	682b      	ldr	r3, [r5, #0]
   bb5aa:	b103      	cbz	r3, bb5ae <_write_r+0x1e>
   bb5ac:	6023      	str	r3, [r4, #0]
   bb5ae:	bd38      	pop	{r3, r4, r5, pc}
   bb5b0:	2003e7f8 	.word	0x2003e7f8

000bb5b4 <__register_exitproc>:
   bb5b4:	e92d 43f8 	stmdb	sp!, {r3, r4, r5, r6, r7, r8, r9, lr}
   bb5b8:	f8df 80b8 	ldr.w	r8, [pc, #184]	; bb674 <__register_exitproc+0xc0>
   bb5bc:	4606      	mov	r6, r0
   bb5be:	f8d8 0000 	ldr.w	r0, [r8]
   bb5c2:	461f      	mov	r7, r3
   bb5c4:	460d      	mov	r5, r1
   bb5c6:	4691      	mov	r9, r2
   bb5c8:	f000 fbd6 	bl	bbd78 <__retarget_lock_acquire_recursive>
   bb5cc:	4b25      	ldr	r3, [pc, #148]	; (bb664 <__register_exitproc+0xb0>)
   bb5ce:	681c      	ldr	r4, [r3, #0]
   bb5d0:	b934      	cbnz	r4, bb5e0 <__register_exitproc+0x2c>
   bb5d2:	4c25      	ldr	r4, [pc, #148]	; (bb668 <__register_exitproc+0xb4>)
   bb5d4:	601c      	str	r4, [r3, #0]
   bb5d6:	4b25      	ldr	r3, [pc, #148]	; (bb66c <__register_exitproc+0xb8>)
   bb5d8:	b113      	cbz	r3, bb5e0 <__register_exitproc+0x2c>
   bb5da:	681b      	ldr	r3, [r3, #0]
   bb5dc:	f8c4 3088 	str.w	r3, [r4, #136]	; 0x88
   bb5e0:	6863      	ldr	r3, [r4, #4]
   bb5e2:	2b1f      	cmp	r3, #31
   bb5e4:	dd07      	ble.n	bb5f6 <__register_exitproc+0x42>
   bb5e6:	f8d8 0000 	ldr.w	r0, [r8]
   bb5ea:	f000 fbc7 	bl	bbd7c <__retarget_lock_release_recursive>
   bb5ee:	f04f 30ff 	mov.w	r0, #4294967295
   bb5f2:	e8bd 83f8 	ldmia.w	sp!, {r3, r4, r5, r6, r7, r8, r9, pc}
   bb5f6:	b34e      	cbz	r6, bb64c <__register_exitproc+0x98>
   bb5f8:	f8d4 0088 	ldr.w	r0, [r4, #136]	; 0x88
   bb5fc:	b988      	cbnz	r0, bb622 <__register_exitproc+0x6e>
   bb5fe:	4b1c      	ldr	r3, [pc, #112]	; (bb670 <__register_exitproc+0xbc>)
   bb600:	b923      	cbnz	r3, bb60c <__register_exitproc+0x58>
   bb602:	f8d8 0000 	ldr.w	r0, [r8]
   bb606:	f000 fbb8 	bl	bbd7a <__retarget_lock_release>
   bb60a:	e7f0      	b.n	bb5ee <__register_exitproc+0x3a>
   bb60c:	f44f 7084 	mov.w	r0, #264	; 0x108
   bb610:	f7fc f918 	bl	b7844 <malloc>
   bb614:	2800      	cmp	r0, #0
   bb616:	d0f4      	beq.n	bb602 <__register_exitproc+0x4e>
   bb618:	2300      	movs	r3, #0
   bb61a:	e9c0 3340 	strd	r3, r3, [r0, #256]	; 0x100
   bb61e:	f8c4 0088 	str.w	r0, [r4, #136]	; 0x88
   bb622:	6863      	ldr	r3, [r4, #4]
   bb624:	f840 9023 	str.w	r9, [r0, r3, lsl #2]
   bb628:	2201      	movs	r2, #1
   bb62a:	409a      	lsls	r2, r3
   bb62c:	eb00 0183 	add.w	r1, r0, r3, lsl #2
   bb630:	f8d0 3100 	ldr.w	r3, [r0, #256]	; 0x100
   bb634:	4313      	orrs	r3, r2
   bb636:	f8c0 3100 	str.w	r3, [r0, #256]	; 0x100
   bb63a:	2e02      	cmp	r6, #2
   bb63c:	f8c1 7080 	str.w	r7, [r1, #128]	; 0x80
   bb640:	bf02      	ittt	eq
   bb642:	f8d0 3104 	ldreq.w	r3, [r0, #260]	; 0x104
   bb646:	4313      	orreq	r3, r2
   bb648:	f8c0 3104 	streq.w	r3, [r0, #260]	; 0x104
   bb64c:	6863      	ldr	r3, [r4, #4]
   bb64e:	f8d8 0000 	ldr.w	r0, [r8]
   bb652:	1c5a      	adds	r2, r3, #1
   bb654:	3302      	adds	r3, #2
   bb656:	6062      	str	r2, [r4, #4]
   bb658:	f844 5023 	str.w	r5, [r4, r3, lsl #2]
   bb65c:	f000 fb8e 	bl	bbd7c <__retarget_lock_release_recursive>
   bb660:	2000      	movs	r0, #0
   bb662:	e7c6      	b.n	bb5f2 <__register_exitproc+0x3e>
   bb664:	2003e7f0 	.word	0x2003e7f0
   bb668:	2003e764 	.word	0x2003e764
   bb66c:	00000000 	.word	0x00000000
   bb670:	000b7845 	.word	0x000b7845
   bb674:	200370d0 	.word	0x200370d0

000bb678 <_close_r>:
   bb678:	b538      	push	{r3, r4, r5, lr}
   bb67a:	4d06      	ldr	r5, [pc, #24]	; (bb694 <_close_r+0x1c>)
   bb67c:	2300      	movs	r3, #0
   bb67e:	4604      	mov	r4, r0
   bb680:	4608      	mov	r0, r1
   bb682:	602b      	str	r3, [r5, #0]
   bb684:	f7fb fe20 	bl	b72c8 <_close>
   bb688:	1c43      	adds	r3, r0, #1
   bb68a:	d102      	bne.n	bb692 <_close_r+0x1a>
   bb68c:	682b      	ldr	r3, [r5, #0]
   bb68e:	b103      	cbz	r3, bb692 <_close_r+0x1a>
   bb690:	6023      	str	r3, [r4, #0]
   bb692:	bd38      	pop	{r3, r4, r5, pc}
   bb694:	2003e7f8 	.word	0x2003e7f8

000bb698 <rshift>:
   bb698:	6903      	ldr	r3, [r0, #16]
   bb69a:	ebb3 1f61 	cmp.w	r3, r1, asr #5
   bb69e:	e92d 43f0 	stmdb	sp!, {r4, r5, r6, r7, r8, r9, lr}
   bb6a2:	ea4f 1261 	mov.w	r2, r1, asr #5
   bb6a6:	f100 0414 	add.w	r4, r0, #20
   bb6aa:	dd45      	ble.n	bb738 <rshift+0xa0>
   bb6ac:	f011 011f 	ands.w	r1, r1, #31
   bb6b0:	eb04 0683 	add.w	r6, r4, r3, lsl #2
   bb6b4:	eb04 0582 	add.w	r5, r4, r2, lsl #2
   bb6b8:	d10c      	bne.n	bb6d4 <rshift+0x3c>
   bb6ba:	f100 0710 	add.w	r7, r0, #16
   bb6be:	4629      	mov	r1, r5
   bb6c0:	42b1      	cmp	r1, r6
   bb6c2:	d334      	bcc.n	bb72e <rshift+0x96>
   bb6c4:	1a9b      	subs	r3, r3, r2
   bb6c6:	009b      	lsls	r3, r3, #2
   bb6c8:	1eea      	subs	r2, r5, #3
   bb6ca:	4296      	cmp	r6, r2
   bb6cc:	bf38      	it	cc
   bb6ce:	2300      	movcc	r3, #0
   bb6d0:	4423      	add	r3, r4
   bb6d2:	e015      	b.n	bb700 <rshift+0x68>
   bb6d4:	f854 7022 	ldr.w	r7, [r4, r2, lsl #2]
   bb6d8:	f1c1 0820 	rsb	r8, r1, #32
   bb6dc:	40cf      	lsrs	r7, r1
   bb6de:	f105 0e04 	add.w	lr, r5, #4
   bb6e2:	46a1      	mov	r9, r4
   bb6e4:	4576      	cmp	r6, lr
   bb6e6:	46f4      	mov	ip, lr
   bb6e8:	d815      	bhi.n	bb716 <rshift+0x7e>
   bb6ea:	1a9a      	subs	r2, r3, r2
   bb6ec:	0092      	lsls	r2, r2, #2
   bb6ee:	3a04      	subs	r2, #4
   bb6f0:	3501      	adds	r5, #1
   bb6f2:	42ae      	cmp	r6, r5
   bb6f4:	bf38      	it	cc
   bb6f6:	2200      	movcc	r2, #0
   bb6f8:	18a3      	adds	r3, r4, r2
   bb6fa:	50a7      	str	r7, [r4, r2]
   bb6fc:	b107      	cbz	r7, bb700 <rshift+0x68>
   bb6fe:	3304      	adds	r3, #4
   bb700:	1b1a      	subs	r2, r3, r4
   bb702:	42a3      	cmp	r3, r4
   bb704:	ea4f 02a2 	mov.w	r2, r2, asr #2
   bb708:	bf08      	it	eq
   bb70a:	2300      	moveq	r3, #0
   bb70c:	6102      	str	r2, [r0, #16]
   bb70e:	bf08      	it	eq
   bb710:	6143      	streq	r3, [r0, #20]
   bb712:	e8bd 83f0 	ldmia.w	sp!, {r4, r5, r6, r7, r8, r9, pc}
   bb716:	f8dc c000 	ldr.w	ip, [ip]
   bb71a:	fa0c fc08 	lsl.w	ip, ip, r8
   bb71e:	ea4c 0707 	orr.w	r7, ip, r7
   bb722:	f849 7b04 	str.w	r7, [r9], #4
   bb726:	f85e 7b04 	ldr.w	r7, [lr], #4
   bb72a:	40cf      	lsrs	r7, r1
   bb72c:	e7da      	b.n	bb6e4 <rshift+0x4c>
   bb72e:	f851 cb04 	ldr.w	ip, [r1], #4
   bb732:	f847 cf04 	str.w	ip, [r7, #4]!
   bb736:	e7c3      	b.n	bb6c0 <rshift+0x28>
   bb738:	4623      	mov	r3, r4
   bb73a:	e7e1      	b.n	bb700 <rshift+0x68>

000bb73c <__hexdig_fun>:
   bb73c:	f1a0 0330 	sub.w	r3, r0, #48	; 0x30
   bb740:	2b09      	cmp	r3, #9
   bb742:	d802      	bhi.n	bb74a <__hexdig_fun+0xe>
   bb744:	3820      	subs	r0, #32
   bb746:	b2c0      	uxtb	r0, r0
   bb748:	4770      	bx	lr
   bb74a:	f1a0 0361 	sub.w	r3, r0, #97	; 0x61
   bb74e:	2b05      	cmp	r3, #5
   bb750:	d801      	bhi.n	bb756 <__hexdig_fun+0x1a>
   bb752:	3847      	subs	r0, #71	; 0x47
   bb754:	e7f7      	b.n	bb746 <__hexdig_fun+0xa>
   bb756:	f1a0 0341 	sub.w	r3, r0, #65	; 0x41
   bb75a:	2b05      	cmp	r3, #5
   bb75c:	d801      	bhi.n	bb762 <__hexdig_fun+0x26>
   bb75e:	3827      	subs	r0, #39	; 0x27
   bb760:	e7f1      	b.n	bb746 <__hexdig_fun+0xa>
   bb762:	2000      	movs	r0, #0
   bb764:	4770      	bx	lr
	...

000bb768 <__gethex>:
   bb768:	e92d 4ff0 	stmdb	sp!, {r4, r5, r6, r7, r8, r9, sl, fp, lr}
   bb76c:	ed2d 8b02 	vpush	{d8}
   bb770:	b089      	sub	sp, #36	; 0x24
   bb772:	ee08 0a10 	vmov	s16, r0
   bb776:	9304      	str	r3, [sp, #16]
   bb778:	4bb4      	ldr	r3, [pc, #720]	; (bba4c <__gethex+0x2e4>)
   bb77a:	681b      	ldr	r3, [r3, #0]
   bb77c:	9301      	str	r3, [sp, #4]
   bb77e:	4618      	mov	r0, r3
   bb780:	468b      	mov	fp, r1
   bb782:	4690      	mov	r8, r2
   bb784:	f7f9 faf0 	bl	b4d68 <strlen>
   bb788:	9b01      	ldr	r3, [sp, #4]
   bb78a:	f8db 2000 	ldr.w	r2, [fp]
   bb78e:	4403      	add	r3, r0
   bb790:	4682      	mov	sl, r0
   bb792:	f813 3c01 	ldrb.w	r3, [r3, #-1]
   bb796:	9305      	str	r3, [sp, #20]
   bb798:	1c93      	adds	r3, r2, #2
   bb79a:	f1c2 22ff 	rsb	r2, r2, #4278255360	; 0xff00ff00
   bb79e:	f502 027f 	add.w	r2, r2, #16711680	; 0xff0000
   bb7a2:	32fe      	adds	r2, #254	; 0xfe
   bb7a4:	18d1      	adds	r1, r2, r3
   bb7a6:	461f      	mov	r7, r3
   bb7a8:	f813 0b01 	ldrb.w	r0, [r3], #1
   bb7ac:	9100      	str	r1, [sp, #0]
   bb7ae:	2830      	cmp	r0, #48	; 0x30
   bb7b0:	d0f8      	beq.n	bb7a4 <__gethex+0x3c>
   bb7b2:	f7ff ffc3 	bl	bb73c <__hexdig_fun>
   bb7b6:	4604      	mov	r4, r0
   bb7b8:	2800      	cmp	r0, #0
   bb7ba:	d13a      	bne.n	bb832 <__gethex+0xca>
   bb7bc:	9901      	ldr	r1, [sp, #4]
   bb7be:	4652      	mov	r2, sl
   bb7c0:	4638      	mov	r0, r7
   bb7c2:	f7fe ffc6 	bl	ba752 <strncmp>
   bb7c6:	4605      	mov	r5, r0
   bb7c8:	2800      	cmp	r0, #0
   bb7ca:	d168      	bne.n	bb89e <__gethex+0x136>
   bb7cc:	f817 000a 	ldrb.w	r0, [r7, sl]
   bb7d0:	eb07 060a 	add.w	r6, r7, sl
   bb7d4:	f7ff ffb2 	bl	bb73c <__hexdig_fun>
   bb7d8:	2800      	cmp	r0, #0
   bb7da:	d062      	beq.n	bb8a2 <__gethex+0x13a>
   bb7dc:	4633      	mov	r3, r6
   bb7de:	7818      	ldrb	r0, [r3, #0]
   bb7e0:	2830      	cmp	r0, #48	; 0x30
   bb7e2:	461f      	mov	r7, r3
   bb7e4:	f103 0301 	add.w	r3, r3, #1
   bb7e8:	d0f9      	beq.n	bb7de <__gethex+0x76>
   bb7ea:	f7ff ffa7 	bl	bb73c <__hexdig_fun>
   bb7ee:	2301      	movs	r3, #1
   bb7f0:	fab0 f480 	clz	r4, r0
   bb7f4:	0964      	lsrs	r4, r4, #5
   bb7f6:	4635      	mov	r5, r6
   bb7f8:	9300      	str	r3, [sp, #0]
   bb7fa:	463a      	mov	r2, r7
   bb7fc:	4616      	mov	r6, r2
   bb7fe:	3201      	adds	r2, #1
   bb800:	7830      	ldrb	r0, [r6, #0]
   bb802:	f7ff ff9b 	bl	bb73c <__hexdig_fun>
   bb806:	2800      	cmp	r0, #0
   bb808:	d1f8      	bne.n	bb7fc <__gethex+0x94>
   bb80a:	9901      	ldr	r1, [sp, #4]
   bb80c:	4652      	mov	r2, sl
   bb80e:	4630      	mov	r0, r6
   bb810:	f7fe ff9f 	bl	ba752 <strncmp>
   bb814:	b980      	cbnz	r0, bb838 <__gethex+0xd0>
   bb816:	b94d      	cbnz	r5, bb82c <__gethex+0xc4>
   bb818:	eb06 050a 	add.w	r5, r6, sl
   bb81c:	462a      	mov	r2, r5
   bb81e:	4616      	mov	r6, r2
   bb820:	3201      	adds	r2, #1
   bb822:	7830      	ldrb	r0, [r6, #0]
   bb824:	f7ff ff8a 	bl	bb73c <__hexdig_fun>
   bb828:	2800      	cmp	r0, #0
   bb82a:	d1f8      	bne.n	bb81e <__gethex+0xb6>
   bb82c:	1bad      	subs	r5, r5, r6
   bb82e:	00ad      	lsls	r5, r5, #2
   bb830:	e004      	b.n	bb83c <__gethex+0xd4>
   bb832:	2400      	movs	r4, #0
   bb834:	4625      	mov	r5, r4
   bb836:	e7e0      	b.n	bb7fa <__gethex+0x92>
   bb838:	2d00      	cmp	r5, #0
   bb83a:	d1f7      	bne.n	bb82c <__gethex+0xc4>
   bb83c:	7833      	ldrb	r3, [r6, #0]
   bb83e:	f003 03df 	and.w	r3, r3, #223	; 0xdf
   bb842:	2b50      	cmp	r3, #80	; 0x50
   bb844:	d13b      	bne.n	bb8be <__gethex+0x156>
   bb846:	7873      	ldrb	r3, [r6, #1]
   bb848:	2b2b      	cmp	r3, #43	; 0x2b
   bb84a:	d02c      	beq.n	bb8a6 <__gethex+0x13e>
   bb84c:	2b2d      	cmp	r3, #45	; 0x2d
   bb84e:	d02e      	beq.n	bb8ae <__gethex+0x146>
   bb850:	1c71      	adds	r1, r6, #1
   bb852:	f04f 0900 	mov.w	r9, #0
   bb856:	7808      	ldrb	r0, [r1, #0]
   bb858:	f7ff ff70 	bl	bb73c <__hexdig_fun>
   bb85c:	1e43      	subs	r3, r0, #1
   bb85e:	b2db      	uxtb	r3, r3
   bb860:	2b18      	cmp	r3, #24
   bb862:	d82c      	bhi.n	bb8be <__gethex+0x156>
   bb864:	f1a0 0210 	sub.w	r2, r0, #16
   bb868:	f811 0f01 	ldrb.w	r0, [r1, #1]!
   bb86c:	f7ff ff66 	bl	bb73c <__hexdig_fun>
   bb870:	1e43      	subs	r3, r0, #1
   bb872:	b2db      	uxtb	r3, r3
   bb874:	2b18      	cmp	r3, #24
   bb876:	d91d      	bls.n	bb8b4 <__gethex+0x14c>
   bb878:	f1b9 0f00 	cmp.w	r9, #0
   bb87c:	d000      	beq.n	bb880 <__gethex+0x118>
   bb87e:	4252      	negs	r2, r2
   bb880:	4415      	add	r5, r2
   bb882:	f8cb 1000 	str.w	r1, [fp]
   bb886:	b1e4      	cbz	r4, bb8c2 <__gethex+0x15a>
   bb888:	9b00      	ldr	r3, [sp, #0]
   bb88a:	2b00      	cmp	r3, #0
   bb88c:	bf14      	ite	ne
   bb88e:	2700      	movne	r7, #0
   bb890:	2706      	moveq	r7, #6
   bb892:	4638      	mov	r0, r7
   bb894:	b009      	add	sp, #36	; 0x24
   bb896:	ecbd 8b02 	vpop	{d8}
   bb89a:	e8bd 8ff0 	ldmia.w	sp!, {r4, r5, r6, r7, r8, r9, sl, fp, pc}
   bb89e:	463e      	mov	r6, r7
   bb8a0:	4625      	mov	r5, r4
   bb8a2:	2401      	movs	r4, #1
   bb8a4:	e7ca      	b.n	bb83c <__gethex+0xd4>
   bb8a6:	f04f 0900 	mov.w	r9, #0
   bb8aa:	1cb1      	adds	r1, r6, #2
   bb8ac:	e7d3      	b.n	bb856 <__gethex+0xee>
   bb8ae:	f04f 0901 	mov.w	r9, #1
   bb8b2:	e7fa      	b.n	bb8aa <__gethex+0x142>
   bb8b4:	230a      	movs	r3, #10
   bb8b6:	fb03 0202 	mla	r2, r3, r2, r0
   bb8ba:	3a10      	subs	r2, #16
   bb8bc:	e7d4      	b.n	bb868 <__gethex+0x100>
   bb8be:	4631      	mov	r1, r6
   bb8c0:	e7df      	b.n	bb882 <__gethex+0x11a>
   bb8c2:	1bf3      	subs	r3, r6, r7
   bb8c4:	3b01      	subs	r3, #1
   bb8c6:	4621      	mov	r1, r4
   bb8c8:	2b07      	cmp	r3, #7
   bb8ca:	dc0b      	bgt.n	bb8e4 <__gethex+0x17c>
   bb8cc:	ee18 0a10 	vmov	r0, s16
   bb8d0:	f000 fa68 	bl	bbda4 <_Balloc>
   bb8d4:	4604      	mov	r4, r0
   bb8d6:	b940      	cbnz	r0, bb8ea <__gethex+0x182>
   bb8d8:	4b5d      	ldr	r3, [pc, #372]	; (bba50 <__gethex+0x2e8>)
   bb8da:	4602      	mov	r2, r0
   bb8dc:	21de      	movs	r1, #222	; 0xde
   bb8de:	485d      	ldr	r0, [pc, #372]	; (bba54 <__gethex+0x2ec>)
   bb8e0:	f7fb fff0 	bl	b78c4 <__assert_func>
   bb8e4:	3101      	adds	r1, #1
   bb8e6:	105b      	asrs	r3, r3, #1
   bb8e8:	e7ee      	b.n	bb8c8 <__gethex+0x160>
   bb8ea:	f100 0914 	add.w	r9, r0, #20
   bb8ee:	f04f 0b00 	mov.w	fp, #0
   bb8f2:	f1ca 0301 	rsb	r3, sl, #1
   bb8f6:	f8cd 9008 	str.w	r9, [sp, #8]
   bb8fa:	f8cd b000 	str.w	fp, [sp]
   bb8fe:	9306      	str	r3, [sp, #24]
   bb900:	42b7      	cmp	r7, r6
   bb902:	d340      	bcc.n	bb986 <__gethex+0x21e>
   bb904:	9802      	ldr	r0, [sp, #8]
   bb906:	9b00      	ldr	r3, [sp, #0]
   bb908:	f840 3b04 	str.w	r3, [r0], #4
   bb90c:	eba0 0009 	sub.w	r0, r0, r9
   bb910:	1080      	asrs	r0, r0, #2
   bb912:	0146      	lsls	r6, r0, #5
   bb914:	6120      	str	r0, [r4, #16]
   bb916:	4618      	mov	r0, r3
   bb918:	f000 fb36 	bl	bbf88 <__hi0bits>
   bb91c:	1a30      	subs	r0, r6, r0
   bb91e:	f8d8 6000 	ldr.w	r6, [r8]
   bb922:	42b0      	cmp	r0, r6
   bb924:	dd63      	ble.n	bb9ee <__gethex+0x286>
   bb926:	1b87      	subs	r7, r0, r6
   bb928:	4639      	mov	r1, r7
   bb92a:	4620      	mov	r0, r4
   bb92c:	f000 feda 	bl	bc6e4 <__any_on>
   bb930:	4682      	mov	sl, r0
   bb932:	b1a8      	cbz	r0, bb960 <__gethex+0x1f8>
   bb934:	1e7b      	subs	r3, r7, #1
   bb936:	1159      	asrs	r1, r3, #5
   bb938:	f003 021f 	and.w	r2, r3, #31
   bb93c:	f859 1021 	ldr.w	r1, [r9, r1, lsl #2]
   bb940:	f04f 0a01 	mov.w	sl, #1
   bb944:	fa0a f202 	lsl.w	r2, sl, r2
   bb948:	420a      	tst	r2, r1
   bb94a:	d009      	beq.n	bb960 <__gethex+0x1f8>
   bb94c:	4553      	cmp	r3, sl
   bb94e:	dd05      	ble.n	bb95c <__gethex+0x1f4>
   bb950:	1eb9      	subs	r1, r7, #2
   bb952:	4620      	mov	r0, r4
   bb954:	f000 fec6 	bl	bc6e4 <__any_on>
   bb958:	2800      	cmp	r0, #0
   bb95a:	d145      	bne.n	bb9e8 <__gethex+0x280>
   bb95c:	f04f 0a02 	mov.w	sl, #2
   bb960:	4639      	mov	r1, r7
   bb962:	4620      	mov	r0, r4
   bb964:	f7ff fe98 	bl	bb698 <rshift>
   bb968:	443d      	add	r5, r7
   bb96a:	f8d8 3008 	ldr.w	r3, [r8, #8]
   bb96e:	42ab      	cmp	r3, r5
   bb970:	da4c      	bge.n	bba0c <__gethex+0x2a4>
   bb972:	ee18 0a10 	vmov	r0, s16
   bb976:	4621      	mov	r1, r4
   bb978:	f000 fa54 	bl	bbe24 <_Bfree>
   bb97c:	9a14      	ldr	r2, [sp, #80]	; 0x50
   bb97e:	2300      	movs	r3, #0
   bb980:	6013      	str	r3, [r2, #0]
   bb982:	27a3      	movs	r7, #163	; 0xa3
   bb984:	e785      	b.n	bb892 <__gethex+0x12a>
   bb986:	1e73      	subs	r3, r6, #1
   bb988:	9a05      	ldr	r2, [sp, #20]
   bb98a:	9303      	str	r3, [sp, #12]
   bb98c:	f816 3c01 	ldrb.w	r3, [r6, #-1]
   bb990:	4293      	cmp	r3, r2
   bb992:	d019      	beq.n	bb9c8 <__gethex+0x260>
   bb994:	f1bb 0f20 	cmp.w	fp, #32
   bb998:	d107      	bne.n	bb9aa <__gethex+0x242>
   bb99a:	9b02      	ldr	r3, [sp, #8]
   bb99c:	9a00      	ldr	r2, [sp, #0]
   bb99e:	f843 2b04 	str.w	r2, [r3], #4
   bb9a2:	9302      	str	r3, [sp, #8]
   bb9a4:	2300      	movs	r3, #0
   bb9a6:	9300      	str	r3, [sp, #0]
   bb9a8:	469b      	mov	fp, r3
   bb9aa:	f816 0c01 	ldrb.w	r0, [r6, #-1]
   bb9ae:	f7ff fec5 	bl	bb73c <__hexdig_fun>
   bb9b2:	9b00      	ldr	r3, [sp, #0]
   bb9b4:	f000 000f 	and.w	r0, r0, #15
   bb9b8:	fa00 f00b 	lsl.w	r0, r0, fp
   bb9bc:	4303      	orrs	r3, r0
   bb9be:	9300      	str	r3, [sp, #0]
   bb9c0:	f10b 0b04 	add.w	fp, fp, #4
   bb9c4:	9b03      	ldr	r3, [sp, #12]
   bb9c6:	e00d      	b.n	bb9e4 <__gethex+0x27c>
   bb9c8:	9b03      	ldr	r3, [sp, #12]
   bb9ca:	9a06      	ldr	r2, [sp, #24]
   bb9cc:	4413      	add	r3, r2
   bb9ce:	42bb      	cmp	r3, r7
   bb9d0:	d3e0      	bcc.n	bb994 <__gethex+0x22c>
   bb9d2:	4618      	mov	r0, r3
   bb9d4:	9901      	ldr	r1, [sp, #4]
   bb9d6:	9307      	str	r3, [sp, #28]
   bb9d8:	4652      	mov	r2, sl
   bb9da:	f7fe feba 	bl	ba752 <strncmp>
   bb9de:	9b07      	ldr	r3, [sp, #28]
   bb9e0:	2800      	cmp	r0, #0
   bb9e2:	d1d7      	bne.n	bb994 <__gethex+0x22c>
   bb9e4:	461e      	mov	r6, r3
   bb9e6:	e78b      	b.n	bb900 <__gethex+0x198>
   bb9e8:	f04f 0a03 	mov.w	sl, #3
   bb9ec:	e7b8      	b.n	bb960 <__gethex+0x1f8>
   bb9ee:	da0a      	bge.n	bba06 <__gethex+0x29e>
   bb9f0:	1a37      	subs	r7, r6, r0
   bb9f2:	4621      	mov	r1, r4
   bb9f4:	ee18 0a10 	vmov	r0, s16
   bb9f8:	463a      	mov	r2, r7
   bb9fa:	f000 fc2f 	bl	bc25c <__lshift>
   bb9fe:	1bed      	subs	r5, r5, r7
   bba00:	4604      	mov	r4, r0
   bba02:	f100 0914 	add.w	r9, r0, #20
   bba06:	f04f 0a00 	mov.w	sl, #0
   bba0a:	e7ae      	b.n	bb96a <__gethex+0x202>
   bba0c:	f8d8 0004 	ldr.w	r0, [r8, #4]
   bba10:	42a8      	cmp	r0, r5
   bba12:	dd72      	ble.n	bbafa <__gethex+0x392>
   bba14:	1b45      	subs	r5, r0, r5
   bba16:	42ae      	cmp	r6, r5
   bba18:	dc36      	bgt.n	bba88 <__gethex+0x320>
   bba1a:	f8d8 300c 	ldr.w	r3, [r8, #12]
   bba1e:	2b02      	cmp	r3, #2
   bba20:	d02a      	beq.n	bba78 <__gethex+0x310>
   bba22:	2b03      	cmp	r3, #3
   bba24:	d02c      	beq.n	bba80 <__gethex+0x318>
   bba26:	2b01      	cmp	r3, #1
   bba28:	d11c      	bne.n	bba64 <__gethex+0x2fc>
   bba2a:	42ae      	cmp	r6, r5
   bba2c:	d11a      	bne.n	bba64 <__gethex+0x2fc>
   bba2e:	2e01      	cmp	r6, #1
   bba30:	d112      	bne.n	bba58 <__gethex+0x2f0>
   bba32:	9a04      	ldr	r2, [sp, #16]
   bba34:	f8d8 3004 	ldr.w	r3, [r8, #4]
   bba38:	6013      	str	r3, [r2, #0]
   bba3a:	2301      	movs	r3, #1
   bba3c:	6123      	str	r3, [r4, #16]
   bba3e:	f8c9 3000 	str.w	r3, [r9]
   bba42:	9b14      	ldr	r3, [sp, #80]	; 0x50
   bba44:	2762      	movs	r7, #98	; 0x62
   bba46:	601c      	str	r4, [r3, #0]
   bba48:	e723      	b.n	bb892 <__gethex+0x12a>
   bba4a:	bf00      	nop
   bba4c:	000bd2f0 	.word	0x000bd2f0
   bba50:	000bd259 	.word	0x000bd259
   bba54:	000bd26a 	.word	0x000bd26a
   bba58:	1e71      	subs	r1, r6, #1
   bba5a:	4620      	mov	r0, r4
   bba5c:	f000 fe42 	bl	bc6e4 <__any_on>
   bba60:	2800      	cmp	r0, #0
   bba62:	d1e6      	bne.n	bba32 <__gethex+0x2ca>
   bba64:	ee18 0a10 	vmov	r0, s16
   bba68:	4621      	mov	r1, r4
   bba6a:	f000 f9db 	bl	bbe24 <_Bfree>
   bba6e:	9a14      	ldr	r2, [sp, #80]	; 0x50
   bba70:	2300      	movs	r3, #0
   bba72:	6013      	str	r3, [r2, #0]
   bba74:	2750      	movs	r7, #80	; 0x50
   bba76:	e70c      	b.n	bb892 <__gethex+0x12a>
   bba78:	9b15      	ldr	r3, [sp, #84]	; 0x54
   bba7a:	2b00      	cmp	r3, #0
   bba7c:	d1f2      	bne.n	bba64 <__gethex+0x2fc>
   bba7e:	e7d8      	b.n	bba32 <__gethex+0x2ca>
   bba80:	9b15      	ldr	r3, [sp, #84]	; 0x54
   bba82:	2b00      	cmp	r3, #0
   bba84:	d1d5      	bne.n	bba32 <__gethex+0x2ca>
   bba86:	e7ed      	b.n	bba64 <__gethex+0x2fc>
   bba88:	1e6f      	subs	r7, r5, #1
   bba8a:	f1ba 0f00 	cmp.w	sl, #0
   bba8e:	d131      	bne.n	bbaf4 <__gethex+0x38c>
   bba90:	b127      	cbz	r7, bba9c <__gethex+0x334>
   bba92:	4639      	mov	r1, r7
   bba94:	4620      	mov	r0, r4
   bba96:	f000 fe25 	bl	bc6e4 <__any_on>
   bba9a:	4682      	mov	sl, r0
   bba9c:	117b      	asrs	r3, r7, #5
   bba9e:	2101      	movs	r1, #1
   bbaa0:	f859 3023 	ldr.w	r3, [r9, r3, lsl #2]
   bbaa4:	f007 071f 	and.w	r7, r7, #31
   bbaa8:	fa01 f707 	lsl.w	r7, r1, r7
   bbaac:	421f      	tst	r7, r3
   bbaae:	4629      	mov	r1, r5
   bbab0:	4620      	mov	r0, r4
   bbab2:	bf18      	it	ne
   bbab4:	f04a 0a02 	orrne.w	sl, sl, #2
   bbab8:	1b76      	subs	r6, r6, r5
   bbaba:	f7ff fded 	bl	bb698 <rshift>
   bbabe:	f8d8 5004 	ldr.w	r5, [r8, #4]
   bbac2:	2702      	movs	r7, #2
   bbac4:	f1ba 0f00 	cmp.w	sl, #0
   bbac8:	d048      	beq.n	bbb5c <__gethex+0x3f4>
   bbaca:	f8d8 300c 	ldr.w	r3, [r8, #12]
   bbace:	2b02      	cmp	r3, #2
   bbad0:	d015      	beq.n	bbafe <__gethex+0x396>
   bbad2:	2b03      	cmp	r3, #3
   bbad4:	d017      	beq.n	bbb06 <__gethex+0x39e>
   bbad6:	2b01      	cmp	r3, #1
   bbad8:	d109      	bne.n	bbaee <__gethex+0x386>
   bbada:	f01a 0f02 	tst.w	sl, #2
   bbade:	d006      	beq.n	bbaee <__gethex+0x386>
   bbae0:	f8d9 0000 	ldr.w	r0, [r9]
   bbae4:	ea4a 0a00 	orr.w	sl, sl, r0
   bbae8:	f01a 0f01 	tst.w	sl, #1
   bbaec:	d10e      	bne.n	bbb0c <__gethex+0x3a4>
   bbaee:	f047 0710 	orr.w	r7, r7, #16
   bbaf2:	e033      	b.n	bbb5c <__gethex+0x3f4>
   bbaf4:	f04f 0a01 	mov.w	sl, #1
   bbaf8:	e7d0      	b.n	bba9c <__gethex+0x334>
   bbafa:	2701      	movs	r7, #1
   bbafc:	e7e2      	b.n	bbac4 <__gethex+0x35c>
   bbafe:	9b15      	ldr	r3, [sp, #84]	; 0x54
   bbb00:	f1c3 0301 	rsb	r3, r3, #1
   bbb04:	9315      	str	r3, [sp, #84]	; 0x54
   bbb06:	9b15      	ldr	r3, [sp, #84]	; 0x54
   bbb08:	2b00      	cmp	r3, #0
   bbb0a:	d0f0      	beq.n	bbaee <__gethex+0x386>
   bbb0c:	f8d4 b010 	ldr.w	fp, [r4, #16]
   bbb10:	f104 0314 	add.w	r3, r4, #20
   bbb14:	ea4f 0a8b 	mov.w	sl, fp, lsl #2
   bbb18:	eb03 018b 	add.w	r1, r3, fp, lsl #2
   bbb1c:	f04f 0c00 	mov.w	ip, #0
   bbb20:	4618      	mov	r0, r3
   bbb22:	f853 2b04 	ldr.w	r2, [r3], #4
   bbb26:	f1b2 3fff 	cmp.w	r2, #4294967295
   bbb2a:	d01c      	beq.n	bbb66 <__gethex+0x3fe>
   bbb2c:	3201      	adds	r2, #1
   bbb2e:	6002      	str	r2, [r0, #0]
   bbb30:	2f02      	cmp	r7, #2
   bbb32:	f104 0314 	add.w	r3, r4, #20
   bbb36:	d13f      	bne.n	bbbb8 <__gethex+0x450>
   bbb38:	f8d8 2000 	ldr.w	r2, [r8]
   bbb3c:	3a01      	subs	r2, #1
   bbb3e:	42b2      	cmp	r2, r6
   bbb40:	d10a      	bne.n	bbb58 <__gethex+0x3f0>
   bbb42:	1171      	asrs	r1, r6, #5
   bbb44:	2201      	movs	r2, #1
   bbb46:	f853 3021 	ldr.w	r3, [r3, r1, lsl #2]
   bbb4a:	f006 061f 	and.w	r6, r6, #31
   bbb4e:	fa02 f606 	lsl.w	r6, r2, r6
   bbb52:	421e      	tst	r6, r3
   bbb54:	bf18      	it	ne
   bbb56:	4617      	movne	r7, r2
   bbb58:	f047 0720 	orr.w	r7, r7, #32
   bbb5c:	9b14      	ldr	r3, [sp, #80]	; 0x50
   bbb5e:	601c      	str	r4, [r3, #0]
   bbb60:	9b04      	ldr	r3, [sp, #16]
   bbb62:	601d      	str	r5, [r3, #0]
   bbb64:	e695      	b.n	bb892 <__gethex+0x12a>
   bbb66:	4299      	cmp	r1, r3
   bbb68:	f843 cc04 	str.w	ip, [r3, #-4]
   bbb6c:	d8d8      	bhi.n	bbb20 <__gethex+0x3b8>
   bbb6e:	68a3      	ldr	r3, [r4, #8]
   bbb70:	459b      	cmp	fp, r3
   bbb72:	db19      	blt.n	bbba8 <__gethex+0x440>
   bbb74:	6861      	ldr	r1, [r4, #4]
   bbb76:	ee18 0a10 	vmov	r0, s16
   bbb7a:	3101      	adds	r1, #1
   bbb7c:	f000 f912 	bl	bbda4 <_Balloc>
   bbb80:	4681      	mov	r9, r0
   bbb82:	b918      	cbnz	r0, bbb8c <__gethex+0x424>
   bbb84:	4b1a      	ldr	r3, [pc, #104]	; (bbbf0 <__gethex+0x488>)
   bbb86:	4602      	mov	r2, r0
   bbb88:	2184      	movs	r1, #132	; 0x84
   bbb8a:	e6a8      	b.n	bb8de <__gethex+0x176>
   bbb8c:	6922      	ldr	r2, [r4, #16]
   bbb8e:	3202      	adds	r2, #2
   bbb90:	f104 010c 	add.w	r1, r4, #12
   bbb94:	0092      	lsls	r2, r2, #2
   bbb96:	300c      	adds	r0, #12
   bbb98:	f7fe fd40 	bl	ba61c <memcpy>
   bbb9c:	4621      	mov	r1, r4
   bbb9e:	ee18 0a10 	vmov	r0, s16
   bbba2:	f000 f93f 	bl	bbe24 <_Bfree>
   bbba6:	464c      	mov	r4, r9
   bbba8:	6923      	ldr	r3, [r4, #16]
   bbbaa:	1c5a      	adds	r2, r3, #1
   bbbac:	eb04 0383 	add.w	r3, r4, r3, lsl #2
   bbbb0:	6122      	str	r2, [r4, #16]
   bbbb2:	2201      	movs	r2, #1
   bbbb4:	615a      	str	r2, [r3, #20]
   bbbb6:	e7bb      	b.n	bbb30 <__gethex+0x3c8>
   bbbb8:	6922      	ldr	r2, [r4, #16]
   bbbba:	455a      	cmp	r2, fp
   bbbbc:	dd0b      	ble.n	bbbd6 <__gethex+0x46e>
   bbbbe:	2101      	movs	r1, #1
   bbbc0:	4620      	mov	r0, r4
   bbbc2:	f7ff fd69 	bl	bb698 <rshift>
   bbbc6:	f8d8 3008 	ldr.w	r3, [r8, #8]
   bbbca:	3501      	adds	r5, #1
   bbbcc:	42ab      	cmp	r3, r5
   bbbce:	f6ff aed0 	blt.w	bb972 <__gethex+0x20a>
   bbbd2:	2701      	movs	r7, #1
   bbbd4:	e7c0      	b.n	bbb58 <__gethex+0x3f0>
   bbbd6:	f016 061f 	ands.w	r6, r6, #31
   bbbda:	d0fa      	beq.n	bbbd2 <__gethex+0x46a>
   bbbdc:	4453      	add	r3, sl
   bbbde:	f1c6 0620 	rsb	r6, r6, #32
   bbbe2:	f853 0c04 	ldr.w	r0, [r3, #-4]
   bbbe6:	f000 f9cf 	bl	bbf88 <__hi0bits>
   bbbea:	42b0      	cmp	r0, r6
   bbbec:	dbe7      	blt.n	bbbbe <__gethex+0x456>
   bbbee:	e7f0      	b.n	bbbd2 <__gethex+0x46a>
   bbbf0:	000bd259 	.word	0x000bd259

000bbbf4 <L_shift>:
   bbbf4:	f1c2 0208 	rsb	r2, r2, #8
   bbbf8:	0092      	lsls	r2, r2, #2
   bbbfa:	b570      	push	{r4, r5, r6, lr}
   bbbfc:	f1c2 0620 	rsb	r6, r2, #32
   bbc00:	6843      	ldr	r3, [r0, #4]
   bbc02:	6804      	ldr	r4, [r0, #0]
   bbc04:	fa03 f506 	lsl.w	r5, r3, r6
   bbc08:	432c      	orrs	r4, r5
   bbc0a:	40d3      	lsrs	r3, r2
   bbc0c:	6004      	str	r4, [r0, #0]
   bbc0e:	f840 3f04 	str.w	r3, [r0, #4]!
   bbc12:	4288      	cmp	r0, r1
   bbc14:	d3f4      	bcc.n	bbc00 <L_shift+0xc>
   bbc16:	bd70      	pop	{r4, r5, r6, pc}

000bbc18 <__match>:
   bbc18:	b530      	push	{r4, r5, lr}
   bbc1a:	6803      	ldr	r3, [r0, #0]
   bbc1c:	3301      	adds	r3, #1
   bbc1e:	f811 4b01 	ldrb.w	r4, [r1], #1
   bbc22:	b914      	cbnz	r4, bbc2a <__match+0x12>
   bbc24:	6003      	str	r3, [r0, #0]
   bbc26:	2001      	movs	r0, #1
   bbc28:	bd30      	pop	{r4, r5, pc}
   bbc2a:	f813 2b01 	ldrb.w	r2, [r3], #1
   bbc2e:	f1a2 0541 	sub.w	r5, r2, #65	; 0x41
   bbc32:	2d19      	cmp	r5, #25
   bbc34:	bf98      	it	ls
   bbc36:	3220      	addls	r2, #32
   bbc38:	42a2      	cmp	r2, r4
   bbc3a:	d0f0      	beq.n	bbc1e <__match+0x6>
   bbc3c:	2000      	movs	r0, #0
   bbc3e:	e7f3      	b.n	bbc28 <__match+0x10>

000bbc40 <__hexnan>:
   bbc40:	e92d 4ff0 	stmdb	sp!, {r4, r5, r6, r7, r8, r9, sl, fp, lr}
   bbc44:	680b      	ldr	r3, [r1, #0]
   bbc46:	115e      	asrs	r6, r3, #5
   bbc48:	eb02 0686 	add.w	r6, r2, r6, lsl #2
   bbc4c:	f013 031f 	ands.w	r3, r3, #31
   bbc50:	b087      	sub	sp, #28
   bbc52:	bf18      	it	ne
   bbc54:	3604      	addne	r6, #4
   bbc56:	2500      	movs	r5, #0
   bbc58:	1f37      	subs	r7, r6, #4
   bbc5a:	4690      	mov	r8, r2
   bbc5c:	6802      	ldr	r2, [r0, #0]
   bbc5e:	9301      	str	r3, [sp, #4]
   bbc60:	4682      	mov	sl, r0
   bbc62:	f846 5c04 	str.w	r5, [r6, #-4]
   bbc66:	46b9      	mov	r9, r7
   bbc68:	463c      	mov	r4, r7
   bbc6a:	9502      	str	r5, [sp, #8]
   bbc6c:	46ab      	mov	fp, r5
   bbc6e:	7851      	ldrb	r1, [r2, #1]
   bbc70:	1c53      	adds	r3, r2, #1
   bbc72:	9303      	str	r3, [sp, #12]
   bbc74:	b341      	cbz	r1, bbcc8 <__hexnan+0x88>
   bbc76:	4608      	mov	r0, r1
   bbc78:	9205      	str	r2, [sp, #20]
   bbc7a:	9104      	str	r1, [sp, #16]
   bbc7c:	f7ff fd5e 	bl	bb73c <__hexdig_fun>
   bbc80:	2800      	cmp	r0, #0
   bbc82:	d14f      	bne.n	bbd24 <__hexnan+0xe4>
   bbc84:	9904      	ldr	r1, [sp, #16]
   bbc86:	9a05      	ldr	r2, [sp, #20]
   bbc88:	2920      	cmp	r1, #32
   bbc8a:	d818      	bhi.n	bbcbe <__hexnan+0x7e>
   bbc8c:	9b02      	ldr	r3, [sp, #8]
   bbc8e:	459b      	cmp	fp, r3
   bbc90:	dd13      	ble.n	bbcba <__hexnan+0x7a>
   bbc92:	454c      	cmp	r4, r9
   bbc94:	d206      	bcs.n	bbca4 <__hexnan+0x64>
   bbc96:	2d07      	cmp	r5, #7
   bbc98:	dc04      	bgt.n	bbca4 <__hexnan+0x64>
   bbc9a:	462a      	mov	r2, r5
   bbc9c:	4649      	mov	r1, r9
   bbc9e:	4620      	mov	r0, r4
   bbca0:	f7ff ffa8 	bl	bbbf4 <L_shift>
   bbca4:	4544      	cmp	r4, r8
   bbca6:	d950      	bls.n	bbd4a <__hexnan+0x10a>
   bbca8:	2300      	movs	r3, #0
   bbcaa:	f1a4 0904 	sub.w	r9, r4, #4
   bbcae:	f844 3c04 	str.w	r3, [r4, #-4]
   bbcb2:	f8cd b008 	str.w	fp, [sp, #8]
   bbcb6:	464c      	mov	r4, r9
   bbcb8:	461d      	mov	r5, r3
   bbcba:	9a03      	ldr	r2, [sp, #12]
   bbcbc:	e7d7      	b.n	bbc6e <__hexnan+0x2e>
   bbcbe:	2929      	cmp	r1, #41	; 0x29
   bbcc0:	d156      	bne.n	bbd70 <__hexnan+0x130>
   bbcc2:	3202      	adds	r2, #2
   bbcc4:	f8ca 2000 	str.w	r2, [sl]
   bbcc8:	f1bb 0f00 	cmp.w	fp, #0
   bbccc:	d050      	beq.n	bbd70 <__hexnan+0x130>
   bbcce:	454c      	cmp	r4, r9
   bbcd0:	d206      	bcs.n	bbce0 <__hexnan+0xa0>
   bbcd2:	2d07      	cmp	r5, #7
   bbcd4:	dc04      	bgt.n	bbce0 <__hexnan+0xa0>
   bbcd6:	462a      	mov	r2, r5
   bbcd8:	4649      	mov	r1, r9
   bbcda:	4620      	mov	r0, r4
   bbcdc:	f7ff ff8a 	bl	bbbf4 <L_shift>
   bbce0:	4544      	cmp	r4, r8
   bbce2:	d934      	bls.n	bbd4e <__hexnan+0x10e>
   bbce4:	f1a8 0204 	sub.w	r2, r8, #4
   bbce8:	4623      	mov	r3, r4
   bbcea:	f853 1b04 	ldr.w	r1, [r3], #4
   bbcee:	f842 1f04 	str.w	r1, [r2, #4]!
   bbcf2:	429f      	cmp	r7, r3
   bbcf4:	d2f9      	bcs.n	bbcea <__hexnan+0xaa>
   bbcf6:	1b3b      	subs	r3, r7, r4
   bbcf8:	f023 0303 	bic.w	r3, r3, #3
   bbcfc:	3304      	adds	r3, #4
   bbcfe:	3401      	adds	r4, #1
   bbd00:	3e03      	subs	r6, #3
   bbd02:	42b4      	cmp	r4, r6
   bbd04:	bf88      	it	hi
   bbd06:	2304      	movhi	r3, #4
   bbd08:	4443      	add	r3, r8
   bbd0a:	2200      	movs	r2, #0
   bbd0c:	f843 2b04 	str.w	r2, [r3], #4
   bbd10:	429f      	cmp	r7, r3
   bbd12:	d2fb      	bcs.n	bbd0c <__hexnan+0xcc>
   bbd14:	683b      	ldr	r3, [r7, #0]
   bbd16:	b91b      	cbnz	r3, bbd20 <__hexnan+0xe0>
   bbd18:	4547      	cmp	r7, r8
   bbd1a:	d127      	bne.n	bbd6c <__hexnan+0x12c>
   bbd1c:	2301      	movs	r3, #1
   bbd1e:	603b      	str	r3, [r7, #0]
   bbd20:	2005      	movs	r0, #5
   bbd22:	e026      	b.n	bbd72 <__hexnan+0x132>
   bbd24:	3501      	adds	r5, #1
   bbd26:	2d08      	cmp	r5, #8
   bbd28:	f10b 0b01 	add.w	fp, fp, #1
   bbd2c:	dd06      	ble.n	bbd3c <__hexnan+0xfc>
   bbd2e:	4544      	cmp	r4, r8
   bbd30:	d9c3      	bls.n	bbcba <__hexnan+0x7a>
   bbd32:	2300      	movs	r3, #0
   bbd34:	f844 3c04 	str.w	r3, [r4, #-4]
   bbd38:	2501      	movs	r5, #1
   bbd3a:	3c04      	subs	r4, #4
   bbd3c:	6822      	ldr	r2, [r4, #0]
   bbd3e:	f000 000f 	and.w	r0, r0, #15
   bbd42:	ea40 1202 	orr.w	r2, r0, r2, lsl #4
   bbd46:	6022      	str	r2, [r4, #0]
   bbd48:	e7b7      	b.n	bbcba <__hexnan+0x7a>
   bbd4a:	2508      	movs	r5, #8
   bbd4c:	e7b5      	b.n	bbcba <__hexnan+0x7a>
   bbd4e:	9b01      	ldr	r3, [sp, #4]
   bbd50:	2b00      	cmp	r3, #0
   bbd52:	d0df      	beq.n	bbd14 <__hexnan+0xd4>
   bbd54:	f04f 32ff 	mov.w	r2, #4294967295
   bbd58:	f1c3 0320 	rsb	r3, r3, #32
   bbd5c:	fa22 f303 	lsr.w	r3, r2, r3
   bbd60:	f856 2c04 	ldr.w	r2, [r6, #-4]
   bbd64:	401a      	ands	r2, r3
   bbd66:	f846 2c04 	str.w	r2, [r6, #-4]
   bbd6a:	e7d3      	b.n	bbd14 <__hexnan+0xd4>
   bbd6c:	3f04      	subs	r7, #4
   bbd6e:	e7d1      	b.n	bbd14 <__hexnan+0xd4>
   bbd70:	2004      	movs	r0, #4
   bbd72:	b007      	add	sp, #28
   bbd74:	e8bd 8ff0 	ldmia.w	sp!, {r4, r5, r6, r7, r8, r9, sl, fp, pc}

000bbd78 <__retarget_lock_acquire_recursive>:
   bbd78:	4770      	bx	lr

000bbd7a <__retarget_lock_release>:
   bbd7a:	4770      	bx	lr

000bbd7c <__retarget_lock_release_recursive>:
   bbd7c:	4770      	bx	lr

000bbd7e <__ascii_mbtowc>:
   bbd7e:	b082      	sub	sp, #8
   bbd80:	b901      	cbnz	r1, bbd84 <__ascii_mbtowc+0x6>
   bbd82:	a901      	add	r1, sp, #4
   bbd84:	b142      	cbz	r2, bbd98 <__ascii_mbtowc+0x1a>
   bbd86:	b14b      	cbz	r3, bbd9c <__ascii_mbtowc+0x1e>
   bbd88:	7813      	ldrb	r3, [r2, #0]
   bbd8a:	600b      	str	r3, [r1, #0]
   bbd8c:	7812      	ldrb	r2, [r2, #0]
   bbd8e:	1e10      	subs	r0, r2, #0
   bbd90:	bf18      	it	ne
   bbd92:	2001      	movne	r0, #1
   bbd94:	b002      	add	sp, #8
   bbd96:	4770      	bx	lr
   bbd98:	4610      	mov	r0, r2
   bbd9a:	e7fb      	b.n	bbd94 <__ascii_mbtowc+0x16>
   bbd9c:	f06f 0001 	mvn.w	r0, #1
   bbda0:	e7f8      	b.n	bbd94 <__ascii_mbtowc+0x16>
	...

000bbda4 <_Balloc>:
   bbda4:	b570      	push	{r4, r5, r6, lr}
   bbda6:	6a46      	ldr	r6, [r0, #36]	; 0x24
   bbda8:	4604      	mov	r4, r0
   bbdaa:	460d      	mov	r5, r1
   bbdac:	b976      	cbnz	r6, bbdcc <_Balloc+0x28>
   bbdae:	2010      	movs	r0, #16
   bbdb0:	f7fb fd48 	bl	b7844 <malloc>
   bbdb4:	4602      	mov	r2, r0
   bbdb6:	6260      	str	r0, [r4, #36]	; 0x24
   bbdb8:	b920      	cbnz	r0, bbdc4 <_Balloc+0x20>
   bbdba:	4b18      	ldr	r3, [pc, #96]	; (bbe1c <_Balloc+0x78>)
   bbdbc:	4818      	ldr	r0, [pc, #96]	; (bbe20 <_Balloc+0x7c>)
   bbdbe:	2166      	movs	r1, #102	; 0x66
   bbdc0:	f7fb fd80 	bl	b78c4 <__assert_func>
   bbdc4:	e9c0 6601 	strd	r6, r6, [r0, #4]
   bbdc8:	6006      	str	r6, [r0, #0]
   bbdca:	60c6      	str	r6, [r0, #12]
   bbdcc:	6a66      	ldr	r6, [r4, #36]	; 0x24
   bbdce:	68f3      	ldr	r3, [r6, #12]
   bbdd0:	b183      	cbz	r3, bbdf4 <_Balloc+0x50>
   bbdd2:	6a63      	ldr	r3, [r4, #36]	; 0x24
   bbdd4:	68db      	ldr	r3, [r3, #12]
   bbdd6:	f853 0025 	ldr.w	r0, [r3, r5, lsl #2]
   bbdda:	b9b8      	cbnz	r0, bbe0c <_Balloc+0x68>
   bbddc:	2101      	movs	r1, #1
   bbdde:	fa01 f605 	lsl.w	r6, r1, r5
   bbde2:	1d72      	adds	r2, r6, #5
   bbde4:	0092      	lsls	r2, r2, #2
   bbde6:	4620      	mov	r0, r4
   bbde8:	f000 fc9d 	bl	bc726 <_calloc_r>
   bbdec:	b160      	cbz	r0, bbe08 <_Balloc+0x64>
   bbdee:	e9c0 5601 	strd	r5, r6, [r0, #4]
   bbdf2:	e00e      	b.n	bbe12 <_Balloc+0x6e>
   bbdf4:	2221      	movs	r2, #33	; 0x21
   bbdf6:	2104      	movs	r1, #4
   bbdf8:	4620      	mov	r0, r4
   bbdfa:	f000 fc94 	bl	bc726 <_calloc_r>
   bbdfe:	6a63      	ldr	r3, [r4, #36]	; 0x24
   bbe00:	60f0      	str	r0, [r6, #12]
   bbe02:	68db      	ldr	r3, [r3, #12]
   bbe04:	2b00      	cmp	r3, #0
   bbe06:	d1e4      	bne.n	bbdd2 <_Balloc+0x2e>
   bbe08:	2000      	movs	r0, #0
   bbe0a:	bd70      	pop	{r4, r5, r6, pc}
   bbe0c:	6802      	ldr	r2, [r0, #0]
   bbe0e:	f843 2025 	str.w	r2, [r3, r5, lsl #2]
   bbe12:	2300      	movs	r3, #0
   bbe14:	e9c0 3303 	strd	r3, r3, [r0, #12]
   bbe18:	e7f7      	b.n	bbe0a <_Balloc+0x66>
   bbe1a:	bf00      	nop
   bbe1c:	000bd061 	.word	0x000bd061
   bbe20:	000bd304 	.word	0x000bd304

000bbe24 <_Bfree>:
   bbe24:	b570      	push	{r4, r5, r6, lr}
   bbe26:	6a46      	ldr	r6, [r0, #36]	; 0x24
   bbe28:	4605      	mov	r5, r0
   bbe2a:	460c      	mov	r4, r1
   bbe2c:	b976      	cbnz	r6, bbe4c <_Bfree+0x28>
   bbe2e:	2010      	movs	r0, #16
   bbe30:	f7fb fd08 	bl	b7844 <malloc>
   bbe34:	4602      	mov	r2, r0
   bbe36:	6268      	str	r0, [r5, #36]	; 0x24
   bbe38:	b920      	cbnz	r0, bbe44 <_Bfree+0x20>
   bbe3a:	4b09      	ldr	r3, [pc, #36]	; (bbe60 <_Bfree+0x3c>)
   bbe3c:	4809      	ldr	r0, [pc, #36]	; (bbe64 <_Bfree+0x40>)
   bbe3e:	218a      	movs	r1, #138	; 0x8a
   bbe40:	f7fb fd40 	bl	b78c4 <__assert_func>
   bbe44:	e9c0 6601 	strd	r6, r6, [r0, #4]
   bbe48:	6006      	str	r6, [r0, #0]
   bbe4a:	60c6      	str	r6, [r0, #12]
   bbe4c:	b13c      	cbz	r4, bbe5e <_Bfree+0x3a>
   bbe4e:	6a6b      	ldr	r3, [r5, #36]	; 0x24
   bbe50:	6862      	ldr	r2, [r4, #4]
   bbe52:	68db      	ldr	r3, [r3, #12]
   bbe54:	f853 1022 	ldr.w	r1, [r3, r2, lsl #2]
   bbe58:	6021      	str	r1, [r4, #0]
   bbe5a:	f843 4022 	str.w	r4, [r3, r2, lsl #2]
   bbe5e:	bd70      	pop	{r4, r5, r6, pc}
   bbe60:	000bd061 	.word	0x000bd061
   bbe64:	000bd304 	.word	0x000bd304

000bbe68 <__multadd>:
   bbe68:	e92d 41f0 	stmdb	sp!, {r4, r5, r6, r7, r8, lr}
   bbe6c:	690d      	ldr	r5, [r1, #16]
   bbe6e:	4607      	mov	r7, r0
   bbe70:	460c      	mov	r4, r1
   bbe72:	461e      	mov	r6, r3
   bbe74:	f101 0c14 	add.w	ip, r1, #20
   bbe78:	2000      	movs	r0, #0
   bbe7a:	f8dc 3000 	ldr.w	r3, [ip]
   bbe7e:	b299      	uxth	r1, r3
   bbe80:	fb02 6101 	mla	r1, r2, r1, r6
   bbe84:	0c1e      	lsrs	r6, r3, #16
   bbe86:	0c0b      	lsrs	r3, r1, #16
   bbe88:	fb02 3306 	mla	r3, r2, r6, r3
   bbe8c:	b289      	uxth	r1, r1
   bbe8e:	3001      	adds	r0, #1
   bbe90:	eb01 4103 	add.w	r1, r1, r3, lsl #16
   bbe94:	4285      	cmp	r5, r0
   bbe96:	f84c 1b04 	str.w	r1, [ip], #4
   bbe9a:	ea4f 4613 	mov.w	r6, r3, lsr #16
   bbe9e:	dcec      	bgt.n	bbe7a <__multadd+0x12>
   bbea0:	b30e      	cbz	r6, bbee6 <__multadd+0x7e>
   bbea2:	68a3      	ldr	r3, [r4, #8]
   bbea4:	42ab      	cmp	r3, r5
   bbea6:	dc19      	bgt.n	bbedc <__multadd+0x74>
   bbea8:	6861      	ldr	r1, [r4, #4]
   bbeaa:	4638      	mov	r0, r7
   bbeac:	3101      	adds	r1, #1
   bbeae:	f7ff ff79 	bl	bbda4 <_Balloc>
   bbeb2:	4680      	mov	r8, r0
   bbeb4:	b928      	cbnz	r0, bbec2 <__multadd+0x5a>
   bbeb6:	4602      	mov	r2, r0
   bbeb8:	4b0c      	ldr	r3, [pc, #48]	; (bbeec <__multadd+0x84>)
   bbeba:	480d      	ldr	r0, [pc, #52]	; (bbef0 <__multadd+0x88>)
   bbebc:	21b5      	movs	r1, #181	; 0xb5
   bbebe:	f7fb fd01 	bl	b78c4 <__assert_func>
   bbec2:	6922      	ldr	r2, [r4, #16]
   bbec4:	3202      	adds	r2, #2
   bbec6:	f104 010c 	add.w	r1, r4, #12
   bbeca:	0092      	lsls	r2, r2, #2
   bbecc:	300c      	adds	r0, #12
   bbece:	f7fe fba5 	bl	ba61c <memcpy>
   bbed2:	4621      	mov	r1, r4
   bbed4:	4638      	mov	r0, r7
   bbed6:	f7ff ffa5 	bl	bbe24 <_Bfree>
   bbeda:	4644      	mov	r4, r8
   bbedc:	eb04 0385 	add.w	r3, r4, r5, lsl #2
   bbee0:	3501      	adds	r5, #1
   bbee2:	615e      	str	r6, [r3, #20]
   bbee4:	6125      	str	r5, [r4, #16]
   bbee6:	4620      	mov	r0, r4
   bbee8:	e8bd 81f0 	ldmia.w	sp!, {r4, r5, r6, r7, r8, pc}
   bbeec:	000bd259 	.word	0x000bd259
   bbef0:	000bd304 	.word	0x000bd304

000bbef4 <__s2b>:
   bbef4:	e92d 43f8 	stmdb	sp!, {r3, r4, r5, r6, r7, r8, r9, lr}
   bbef8:	460c      	mov	r4, r1
   bbefa:	4615      	mov	r5, r2
   bbefc:	461f      	mov	r7, r3
   bbefe:	2209      	movs	r2, #9
   bbf00:	3308      	adds	r3, #8
   bbf02:	4606      	mov	r6, r0
   bbf04:	fb93 f3f2 	sdiv	r3, r3, r2
   bbf08:	2100      	movs	r1, #0
   bbf0a:	2201      	movs	r2, #1
   bbf0c:	429a      	cmp	r2, r3
   bbf0e:	db09      	blt.n	bbf24 <__s2b+0x30>
   bbf10:	4630      	mov	r0, r6
   bbf12:	f7ff ff47 	bl	bbda4 <_Balloc>
   bbf16:	b940      	cbnz	r0, bbf2a <__s2b+0x36>
   bbf18:	4602      	mov	r2, r0
   bbf1a:	4b19      	ldr	r3, [pc, #100]	; (bbf80 <__s2b+0x8c>)
   bbf1c:	4819      	ldr	r0, [pc, #100]	; (bbf84 <__s2b+0x90>)
   bbf1e:	21ce      	movs	r1, #206	; 0xce
   bbf20:	f7fb fcd0 	bl	b78c4 <__assert_func>
   bbf24:	0052      	lsls	r2, r2, #1
   bbf26:	3101      	adds	r1, #1
   bbf28:	e7f0      	b.n	bbf0c <__s2b+0x18>
   bbf2a:	9b08      	ldr	r3, [sp, #32]
   bbf2c:	6143      	str	r3, [r0, #20]
   bbf2e:	2d09      	cmp	r5, #9
   bbf30:	f04f 0301 	mov.w	r3, #1
   bbf34:	6103      	str	r3, [r0, #16]
   bbf36:	dd16      	ble.n	bbf66 <__s2b+0x72>
   bbf38:	f104 0909 	add.w	r9, r4, #9
   bbf3c:	46c8      	mov	r8, r9
   bbf3e:	442c      	add	r4, r5
   bbf40:	f818 3b01 	ldrb.w	r3, [r8], #1
   bbf44:	4601      	mov	r1, r0
   bbf46:	3b30      	subs	r3, #48	; 0x30
   bbf48:	220a      	movs	r2, #10
   bbf4a:	4630      	mov	r0, r6
   bbf4c:	f7ff ff8c 	bl	bbe68 <__multadd>
   bbf50:	45a0      	cmp	r8, r4
   bbf52:	d1f5      	bne.n	bbf40 <__s2b+0x4c>
   bbf54:	f1a5 0408 	sub.w	r4, r5, #8
   bbf58:	444c      	add	r4, r9
   bbf5a:	1b2d      	subs	r5, r5, r4
   bbf5c:	1963      	adds	r3, r4, r5
   bbf5e:	42bb      	cmp	r3, r7
   bbf60:	db04      	blt.n	bbf6c <__s2b+0x78>
   bbf62:	e8bd 83f8 	ldmia.w	sp!, {r3, r4, r5, r6, r7, r8, r9, pc}
   bbf66:	340a      	adds	r4, #10
   bbf68:	2509      	movs	r5, #9
   bbf6a:	e7f6      	b.n	bbf5a <__s2b+0x66>
   bbf6c:	f814 3b01 	ldrb.w	r3, [r4], #1
   bbf70:	4601      	mov	r1, r0
   bbf72:	3b30      	subs	r3, #48	; 0x30
   bbf74:	220a      	movs	r2, #10
   bbf76:	4630      	mov	r0, r6
   bbf78:	f7ff ff76 	bl	bbe68 <__multadd>
   bbf7c:	e7ee      	b.n	bbf5c <__s2b+0x68>
   bbf7e:	bf00      	nop
   bbf80:	000bd259 	.word	0x000bd259
   bbf84:	000bd304 	.word	0x000bd304

000bbf88 <__hi0bits>:
   bbf88:	0c03      	lsrs	r3, r0, #16
   bbf8a:	041b      	lsls	r3, r3, #16
   bbf8c:	b9d3      	cbnz	r3, bbfc4 <__hi0bits+0x3c>
   bbf8e:	0400      	lsls	r0, r0, #16
   bbf90:	2310      	movs	r3, #16
   bbf92:	f010 4f7f 	tst.w	r0, #4278190080	; 0xff000000
   bbf96:	bf04      	itt	eq
   bbf98:	0200      	lsleq	r0, r0, #8
   bbf9a:	3308      	addeq	r3, #8
   bbf9c:	f010 4f70 	tst.w	r0, #4026531840	; 0xf0000000
   bbfa0:	bf04      	itt	eq
   bbfa2:	0100      	lsleq	r0, r0, #4
   bbfa4:	3304      	addeq	r3, #4
   bbfa6:	f010 4f40 	tst.w	r0, #3221225472	; 0xc0000000
   bbfaa:	bf04      	itt	eq
   bbfac:	0080      	lsleq	r0, r0, #2
   bbfae:	3302      	addeq	r3, #2
   bbfb0:	2800      	cmp	r0, #0
   bbfb2:	db05      	blt.n	bbfc0 <__hi0bits+0x38>
   bbfb4:	f010 4f80 	tst.w	r0, #1073741824	; 0x40000000
   bbfb8:	f103 0301 	add.w	r3, r3, #1
   bbfbc:	bf08      	it	eq
   bbfbe:	2320      	moveq	r3, #32
   bbfc0:	4618      	mov	r0, r3
   bbfc2:	4770      	bx	lr
   bbfc4:	2300      	movs	r3, #0
   bbfc6:	e7e4      	b.n	bbf92 <__hi0bits+0xa>

000bbfc8 <__lo0bits>:
   bbfc8:	6803      	ldr	r3, [r0, #0]
   bbfca:	f013 0207 	ands.w	r2, r3, #7
   bbfce:	4601      	mov	r1, r0
   bbfd0:	d00b      	beq.n	bbfea <__lo0bits+0x22>
   bbfd2:	07da      	lsls	r2, r3, #31
   bbfd4:	d423      	bmi.n	bc01e <__lo0bits+0x56>
   bbfd6:	0798      	lsls	r0, r3, #30
   bbfd8:	bf49      	itett	mi
   bbfda:	085b      	lsrmi	r3, r3, #1
   bbfdc:	089b      	lsrpl	r3, r3, #2
   bbfde:	2001      	movmi	r0, #1
   bbfe0:	600b      	strmi	r3, [r1, #0]
   bbfe2:	bf5c      	itt	pl
   bbfe4:	600b      	strpl	r3, [r1, #0]
   bbfe6:	2002      	movpl	r0, #2
   bbfe8:	4770      	bx	lr
   bbfea:	b298      	uxth	r0, r3
   bbfec:	b9a8      	cbnz	r0, bc01a <__lo0bits+0x52>
   bbfee:	0c1b      	lsrs	r3, r3, #16
   bbff0:	2010      	movs	r0, #16
   bbff2:	b2da      	uxtb	r2, r3
   bbff4:	b90a      	cbnz	r2, bbffa <__lo0bits+0x32>
   bbff6:	3008      	adds	r0, #8
   bbff8:	0a1b      	lsrs	r3, r3, #8
   bbffa:	071a      	lsls	r2, r3, #28
   bbffc:	bf04      	itt	eq
   bbffe:	091b      	lsreq	r3, r3, #4
   bc000:	3004      	addeq	r0, #4
   bc002:	079a      	lsls	r2, r3, #30
   bc004:	bf04      	itt	eq
   bc006:	089b      	lsreq	r3, r3, #2
   bc008:	3002      	addeq	r0, #2
   bc00a:	07da      	lsls	r2, r3, #31
   bc00c:	d403      	bmi.n	bc016 <__lo0bits+0x4e>
   bc00e:	085b      	lsrs	r3, r3, #1
   bc010:	f100 0001 	add.w	r0, r0, #1
   bc014:	d005      	beq.n	bc022 <__lo0bits+0x5a>
   bc016:	600b      	str	r3, [r1, #0]
   bc018:	4770      	bx	lr
   bc01a:	4610      	mov	r0, r2
   bc01c:	e7e9      	b.n	bbff2 <__lo0bits+0x2a>
   bc01e:	2000      	movs	r0, #0
   bc020:	4770      	bx	lr
   bc022:	2020      	movs	r0, #32
   bc024:	4770      	bx	lr
	...

000bc028 <__i2b>:
   bc028:	b510      	push	{r4, lr}
   bc02a:	460c      	mov	r4, r1
   bc02c:	2101      	movs	r1, #1
   bc02e:	f7ff feb9 	bl	bbda4 <_Balloc>
   bc032:	4602      	mov	r2, r0
   bc034:	b928      	cbnz	r0, bc042 <__i2b+0x1a>
   bc036:	4b05      	ldr	r3, [pc, #20]	; (bc04c <__i2b+0x24>)
   bc038:	4805      	ldr	r0, [pc, #20]	; (bc050 <__i2b+0x28>)
   bc03a:	f44f 71a0 	mov.w	r1, #320	; 0x140
   bc03e:	f7fb fc41 	bl	b78c4 <__assert_func>
   bc042:	2301      	movs	r3, #1
   bc044:	6144      	str	r4, [r0, #20]
   bc046:	6103      	str	r3, [r0, #16]
   bc048:	bd10      	pop	{r4, pc}
   bc04a:	bf00      	nop
   bc04c:	000bd259 	.word	0x000bd259
   bc050:	000bd304 	.word	0x000bd304

000bc054 <__multiply>:
   bc054:	e92d 4ff0 	stmdb	sp!, {r4, r5, r6, r7, r8, r9, sl, fp, lr}
   bc058:	4691      	mov	r9, r2
   bc05a:	690a      	ldr	r2, [r1, #16]
   bc05c:	f8d9 3010 	ldr.w	r3, [r9, #16]
   bc060:	429a      	cmp	r2, r3
   bc062:	bfb8      	it	lt
   bc064:	460b      	movlt	r3, r1
   bc066:	460c      	mov	r4, r1
   bc068:	bfbc      	itt	lt
   bc06a:	464c      	movlt	r4, r9
   bc06c:	4699      	movlt	r9, r3
   bc06e:	6927      	ldr	r7, [r4, #16]
   bc070:	f8d9 a010 	ldr.w	sl, [r9, #16]
   bc074:	68a3      	ldr	r3, [r4, #8]
   bc076:	6861      	ldr	r1, [r4, #4]
   bc078:	eb07 060a 	add.w	r6, r7, sl
   bc07c:	42b3      	cmp	r3, r6
   bc07e:	b085      	sub	sp, #20
   bc080:	bfb8      	it	lt
   bc082:	3101      	addlt	r1, #1
   bc084:	f7ff fe8e 	bl	bbda4 <_Balloc>
   bc088:	b930      	cbnz	r0, bc098 <__multiply+0x44>
   bc08a:	4602      	mov	r2, r0
   bc08c:	4b44      	ldr	r3, [pc, #272]	; (bc1a0 <__multiply+0x14c>)
   bc08e:	4845      	ldr	r0, [pc, #276]	; (bc1a4 <__multiply+0x150>)
   bc090:	f240 115d 	movw	r1, #349	; 0x15d
   bc094:	f7fb fc16 	bl	b78c4 <__assert_func>
   bc098:	f100 0514 	add.w	r5, r0, #20
   bc09c:	eb05 0886 	add.w	r8, r5, r6, lsl #2
   bc0a0:	462b      	mov	r3, r5
   bc0a2:	2200      	movs	r2, #0
   bc0a4:	4543      	cmp	r3, r8
   bc0a6:	d321      	bcc.n	bc0ec <__multiply+0x98>
   bc0a8:	f104 0314 	add.w	r3, r4, #20
   bc0ac:	eb03 0787 	add.w	r7, r3, r7, lsl #2
   bc0b0:	f109 0314 	add.w	r3, r9, #20
   bc0b4:	eb03 028a 	add.w	r2, r3, sl, lsl #2
   bc0b8:	9202      	str	r2, [sp, #8]
   bc0ba:	1b3a      	subs	r2, r7, r4
   bc0bc:	3a15      	subs	r2, #21
   bc0be:	f022 0203 	bic.w	r2, r2, #3
   bc0c2:	3204      	adds	r2, #4
   bc0c4:	f104 0115 	add.w	r1, r4, #21
   bc0c8:	428f      	cmp	r7, r1
   bc0ca:	bf38      	it	cc
   bc0cc:	2204      	movcc	r2, #4
   bc0ce:	9201      	str	r2, [sp, #4]
   bc0d0:	9a02      	ldr	r2, [sp, #8]
   bc0d2:	9303      	str	r3, [sp, #12]
   bc0d4:	429a      	cmp	r2, r3
   bc0d6:	d80c      	bhi.n	bc0f2 <__multiply+0x9e>
   bc0d8:	2e00      	cmp	r6, #0
   bc0da:	dd03      	ble.n	bc0e4 <__multiply+0x90>
   bc0dc:	f858 3d04 	ldr.w	r3, [r8, #-4]!
   bc0e0:	2b00      	cmp	r3, #0
   bc0e2:	d05a      	beq.n	bc19a <__multiply+0x146>
   bc0e4:	6106      	str	r6, [r0, #16]
   bc0e6:	b005      	add	sp, #20
   bc0e8:	e8bd 8ff0 	ldmia.w	sp!, {r4, r5, r6, r7, r8, r9, sl, fp, pc}
   bc0ec:	f843 2b04 	str.w	r2, [r3], #4
   bc0f0:	e7d8      	b.n	bc0a4 <__multiply+0x50>
   bc0f2:	f8b3 a000 	ldrh.w	sl, [r3]
   bc0f6:	f1ba 0f00 	cmp.w	sl, #0
   bc0fa:	d024      	beq.n	bc146 <__multiply+0xf2>
   bc0fc:	f104 0e14 	add.w	lr, r4, #20
   bc100:	46a9      	mov	r9, r5
   bc102:	f04f 0c00 	mov.w	ip, #0
   bc106:	f85e 2b04 	ldr.w	r2, [lr], #4
   bc10a:	f8d9 1000 	ldr.w	r1, [r9]
   bc10e:	fa1f fb82 	uxth.w	fp, r2
   bc112:	b289      	uxth	r1, r1
   bc114:	fb0a 110b 	mla	r1, sl, fp, r1
   bc118:	ea4f 4b12 	mov.w	fp, r2, lsr #16
   bc11c:	f8d9 2000 	ldr.w	r2, [r9]
   bc120:	4461      	add	r1, ip
   bc122:	ea4f 4c12 	mov.w	ip, r2, lsr #16
   bc126:	fb0a c20b 	mla	r2, sl, fp, ip
   bc12a:	eb02 4211 	add.w	r2, r2, r1, lsr #16
   bc12e:	b289      	uxth	r1, r1
   bc130:	ea41 4102 	orr.w	r1, r1, r2, lsl #16
   bc134:	4577      	cmp	r7, lr
   bc136:	f849 1b04 	str.w	r1, [r9], #4
   bc13a:	ea4f 4c12 	mov.w	ip, r2, lsr #16
   bc13e:	d8e2      	bhi.n	bc106 <__multiply+0xb2>
   bc140:	9a01      	ldr	r2, [sp, #4]
   bc142:	f845 c002 	str.w	ip, [r5, r2]
   bc146:	9a03      	ldr	r2, [sp, #12]
   bc148:	f8b2 9002 	ldrh.w	r9, [r2, #2]
   bc14c:	3304      	adds	r3, #4
   bc14e:	f1b9 0f00 	cmp.w	r9, #0
   bc152:	d020      	beq.n	bc196 <__multiply+0x142>
   bc154:	6829      	ldr	r1, [r5, #0]
   bc156:	f104 0c14 	add.w	ip, r4, #20
   bc15a:	46ae      	mov	lr, r5
   bc15c:	f04f 0a00 	mov.w	sl, #0
   bc160:	f8bc b000 	ldrh.w	fp, [ip]
   bc164:	f8be 2002 	ldrh.w	r2, [lr, #2]
   bc168:	fb09 220b 	mla	r2, r9, fp, r2
   bc16c:	4492      	add	sl, r2
   bc16e:	b289      	uxth	r1, r1
   bc170:	ea41 410a 	orr.w	r1, r1, sl, lsl #16
   bc174:	f84e 1b04 	str.w	r1, [lr], #4
   bc178:	f85c 2b04 	ldr.w	r2, [ip], #4
   bc17c:	f8be 1000 	ldrh.w	r1, [lr]
   bc180:	0c12      	lsrs	r2, r2, #16
   bc182:	fb09 1102 	mla	r1, r9, r2, r1
   bc186:	eb01 411a 	add.w	r1, r1, sl, lsr #16
   bc18a:	4567      	cmp	r7, ip
   bc18c:	ea4f 4a11 	mov.w	sl, r1, lsr #16
   bc190:	d8e6      	bhi.n	bc160 <__multiply+0x10c>
   bc192:	9a01      	ldr	r2, [sp, #4]
   bc194:	50a9      	str	r1, [r5, r2]
   bc196:	3504      	adds	r5, #4
   bc198:	e79a      	b.n	bc0d0 <__multiply+0x7c>
   bc19a:	3e01      	subs	r6, #1
   bc19c:	e79c      	b.n	bc0d8 <__multiply+0x84>
   bc19e:	bf00      	nop
   bc1a0:	000bd259 	.word	0x000bd259
   bc1a4:	000bd304 	.word	0x000bd304

000bc1a8 <__pow5mult>:
   bc1a8:	e92d 43f8 	stmdb	sp!, {r3, r4, r5, r6, r7, r8, r9, lr}
   bc1ac:	4615      	mov	r5, r2
   bc1ae:	f012 0203 	ands.w	r2, r2, #3
   bc1b2:	4606      	mov	r6, r0
   bc1b4:	460f      	mov	r7, r1
   bc1b6:	d007      	beq.n	bc1c8 <__pow5mult+0x20>
   bc1b8:	4c25      	ldr	r4, [pc, #148]	; (bc250 <__pow5mult+0xa8>)
   bc1ba:	3a01      	subs	r2, #1
   bc1bc:	2300      	movs	r3, #0
   bc1be:	f854 2022 	ldr.w	r2, [r4, r2, lsl #2]
   bc1c2:	f7ff fe51 	bl	bbe68 <__multadd>
   bc1c6:	4607      	mov	r7, r0
   bc1c8:	10ad      	asrs	r5, r5, #2
   bc1ca:	d03d      	beq.n	bc248 <__pow5mult+0xa0>
   bc1cc:	6a74      	ldr	r4, [r6, #36]	; 0x24
   bc1ce:	b97c      	cbnz	r4, bc1f0 <__pow5mult+0x48>
   bc1d0:	2010      	movs	r0, #16
   bc1d2:	f7fb fb37 	bl	b7844 <malloc>
   bc1d6:	4602      	mov	r2, r0
   bc1d8:	6270      	str	r0, [r6, #36]	; 0x24
   bc1da:	b928      	cbnz	r0, bc1e8 <__pow5mult+0x40>
   bc1dc:	4b1d      	ldr	r3, [pc, #116]	; (bc254 <__pow5mult+0xac>)
   bc1de:	481e      	ldr	r0, [pc, #120]	; (bc258 <__pow5mult+0xb0>)
   bc1e0:	f44f 71d7 	mov.w	r1, #430	; 0x1ae
   bc1e4:	f7fb fb6e 	bl	b78c4 <__assert_func>
   bc1e8:	e9c0 4401 	strd	r4, r4, [r0, #4]
   bc1ec:	6004      	str	r4, [r0, #0]
   bc1ee:	60c4      	str	r4, [r0, #12]
   bc1f0:	f8d6 8024 	ldr.w	r8, [r6, #36]	; 0x24
   bc1f4:	f8d8 4008 	ldr.w	r4, [r8, #8]
   bc1f8:	b94c      	cbnz	r4, bc20e <__pow5mult+0x66>
   bc1fa:	f240 2171 	movw	r1, #625	; 0x271
   bc1fe:	4630      	mov	r0, r6
   bc200:	f7ff ff12 	bl	bc028 <__i2b>
   bc204:	2300      	movs	r3, #0
   bc206:	f8c8 0008 	str.w	r0, [r8, #8]
   bc20a:	4604      	mov	r4, r0
   bc20c:	6003      	str	r3, [r0, #0]
   bc20e:	f04f 0900 	mov.w	r9, #0
   bc212:	07eb      	lsls	r3, r5, #31
   bc214:	d50a      	bpl.n	bc22c <__pow5mult+0x84>
   bc216:	4639      	mov	r1, r7
   bc218:	4622      	mov	r2, r4
   bc21a:	4630      	mov	r0, r6
   bc21c:	f7ff ff1a 	bl	bc054 <__multiply>
   bc220:	4639      	mov	r1, r7
   bc222:	4680      	mov	r8, r0
   bc224:	4630      	mov	r0, r6
   bc226:	f7ff fdfd 	bl	bbe24 <_Bfree>
   bc22a:	4647      	mov	r7, r8
   bc22c:	106d      	asrs	r5, r5, #1
   bc22e:	d00b      	beq.n	bc248 <__pow5mult+0xa0>
   bc230:	6820      	ldr	r0, [r4, #0]
   bc232:	b938      	cbnz	r0, bc244 <__pow5mult+0x9c>
   bc234:	4622      	mov	r2, r4
   bc236:	4621      	mov	r1, r4
   bc238:	4630      	mov	r0, r6
   bc23a:	f7ff ff0b 	bl	bc054 <__multiply>
   bc23e:	6020      	str	r0, [r4, #0]
   bc240:	f8c0 9000 	str.w	r9, [r0]
   bc244:	4604      	mov	r4, r0
   bc246:	e7e4      	b.n	bc212 <__pow5mult+0x6a>
   bc248:	4638      	mov	r0, r7
   bc24a:	e8bd 83f8 	ldmia.w	sp!, {r3, r4, r5, r6, r7, r8, r9, pc}
   bc24e:	bf00      	nop
   bc250:	000bd478 	.word	0x000bd478
   bc254:	000bd061 	.word	0x000bd061
   bc258:	000bd304 	.word	0x000bd304

000bc25c <__lshift>:
   bc25c:	e92d 47f0 	stmdb	sp!, {r4, r5, r6, r7, r8, r9, sl, lr}
   bc260:	460c      	mov	r4, r1
   bc262:	6849      	ldr	r1, [r1, #4]
   bc264:	6923      	ldr	r3, [r4, #16]
   bc266:	eb03 1862 	add.w	r8, r3, r2, asr #5
   bc26a:	68a3      	ldr	r3, [r4, #8]
   bc26c:	4607      	mov	r7, r0
   bc26e:	4691      	mov	r9, r2
   bc270:	ea4f 1a62 	mov.w	sl, r2, asr #5
   bc274:	f108 0601 	add.w	r6, r8, #1
   bc278:	42b3      	cmp	r3, r6
   bc27a:	db0b      	blt.n	bc294 <__lshift+0x38>
   bc27c:	4638      	mov	r0, r7
   bc27e:	f7ff fd91 	bl	bbda4 <_Balloc>
   bc282:	4605      	mov	r5, r0
   bc284:	b948      	cbnz	r0, bc29a <__lshift+0x3e>
   bc286:	4602      	mov	r2, r0
   bc288:	4b2a      	ldr	r3, [pc, #168]	; (bc334 <__lshift+0xd8>)
   bc28a:	482b      	ldr	r0, [pc, #172]	; (bc338 <__lshift+0xdc>)
   bc28c:	f240 11d9 	movw	r1, #473	; 0x1d9
   bc290:	f7fb fb18 	bl	b78c4 <__assert_func>
   bc294:	3101      	adds	r1, #1
   bc296:	005b      	lsls	r3, r3, #1
   bc298:	e7ee      	b.n	bc278 <__lshift+0x1c>
   bc29a:	2300      	movs	r3, #0
   bc29c:	f100 0114 	add.w	r1, r0, #20
   bc2a0:	f100 0210 	add.w	r2, r0, #16
   bc2a4:	4618      	mov	r0, r3
   bc2a6:	4553      	cmp	r3, sl
   bc2a8:	db37      	blt.n	bc31a <__lshift+0xbe>
   bc2aa:	6920      	ldr	r0, [r4, #16]
   bc2ac:	ea2a 7aea 	bic.w	sl, sl, sl, asr #31
   bc2b0:	f104 0314 	add.w	r3, r4, #20
   bc2b4:	f019 091f 	ands.w	r9, r9, #31
   bc2b8:	eb01 018a 	add.w	r1, r1, sl, lsl #2
   bc2bc:	eb03 0080 	add.w	r0, r3, r0, lsl #2
   bc2c0:	d02f      	beq.n	bc322 <__lshift+0xc6>
   bc2c2:	f1c9 0e20 	rsb	lr, r9, #32
   bc2c6:	468a      	mov	sl, r1
   bc2c8:	f04f 0c00 	mov.w	ip, #0
   bc2cc:	681a      	ldr	r2, [r3, #0]
   bc2ce:	fa02 f209 	lsl.w	r2, r2, r9
   bc2d2:	ea42 020c 	orr.w	r2, r2, ip
   bc2d6:	f84a 2b04 	str.w	r2, [sl], #4
   bc2da:	f853 2b04 	ldr.w	r2, [r3], #4
   bc2de:	4298      	cmp	r0, r3
   bc2e0:	fa22 fc0e 	lsr.w	ip, r2, lr
   bc2e4:	d8f2      	bhi.n	bc2cc <__lshift+0x70>
   bc2e6:	1b03      	subs	r3, r0, r4
   bc2e8:	3b15      	subs	r3, #21
   bc2ea:	f023 0303 	bic.w	r3, r3, #3
   bc2ee:	3304      	adds	r3, #4
   bc2f0:	f104 0215 	add.w	r2, r4, #21
   bc2f4:	4290      	cmp	r0, r2
   bc2f6:	bf38      	it	cc
   bc2f8:	2304      	movcc	r3, #4
   bc2fa:	f841 c003 	str.w	ip, [r1, r3]
   bc2fe:	f1bc 0f00 	cmp.w	ip, #0
   bc302:	d001      	beq.n	bc308 <__lshift+0xac>
   bc304:	f108 0602 	add.w	r6, r8, #2
   bc308:	3e01      	subs	r6, #1
   bc30a:	4638      	mov	r0, r7
   bc30c:	612e      	str	r6, [r5, #16]
   bc30e:	4621      	mov	r1, r4
   bc310:	f7ff fd88 	bl	bbe24 <_Bfree>
   bc314:	4628      	mov	r0, r5
   bc316:	e8bd 87f0 	ldmia.w	sp!, {r4, r5, r6, r7, r8, r9, sl, pc}
   bc31a:	f842 0f04 	str.w	r0, [r2, #4]!
   bc31e:	3301      	adds	r3, #1
   bc320:	e7c1      	b.n	bc2a6 <__lshift+0x4a>
   bc322:	3904      	subs	r1, #4
   bc324:	f853 2b04 	ldr.w	r2, [r3], #4
   bc328:	f841 2f04 	str.w	r2, [r1, #4]!
   bc32c:	4298      	cmp	r0, r3
   bc32e:	d8f9      	bhi.n	bc324 <__lshift+0xc8>
   bc330:	e7ea      	b.n	bc308 <__lshift+0xac>
   bc332:	bf00      	nop
   bc334:	000bd259 	.word	0x000bd259
   bc338:	000bd304 	.word	0x000bd304

000bc33c <__mcmp>:
   bc33c:	b530      	push	{r4, r5, lr}
   bc33e:	6902      	ldr	r2, [r0, #16]
   bc340:	690c      	ldr	r4, [r1, #16]
   bc342:	1b12      	subs	r2, r2, r4
   bc344:	d10e      	bne.n	bc364 <__mcmp+0x28>
   bc346:	f100 0314 	add.w	r3, r0, #20
   bc34a:	3114      	adds	r1, #20
   bc34c:	eb03 0084 	add.w	r0, r3, r4, lsl #2
   bc350:	eb01 0184 	add.w	r1, r1, r4, lsl #2
   bc354:	f850 5d04 	ldr.w	r5, [r0, #-4]!
   bc358:	f851 4d04 	ldr.w	r4, [r1, #-4]!
   bc35c:	42a5      	cmp	r5, r4
   bc35e:	d003      	beq.n	bc368 <__mcmp+0x2c>
   bc360:	d305      	bcc.n	bc36e <__mcmp+0x32>
   bc362:	2201      	movs	r2, #1
   bc364:	4610      	mov	r0, r2
   bc366:	bd30      	pop	{r4, r5, pc}
   bc368:	4283      	cmp	r3, r0
   bc36a:	d3f3      	bcc.n	bc354 <__mcmp+0x18>
   bc36c:	e7fa      	b.n	bc364 <__mcmp+0x28>
   bc36e:	f04f 32ff 	mov.w	r2, #4294967295
   bc372:	e7f7      	b.n	bc364 <__mcmp+0x28>

000bc374 <__mdiff>:
   bc374:	e92d 4ff8 	stmdb	sp!, {r3, r4, r5, r6, r7, r8, r9, sl, fp, lr}
   bc378:	460c      	mov	r4, r1
   bc37a:	4606      	mov	r6, r0
   bc37c:	4611      	mov	r1, r2
   bc37e:	4620      	mov	r0, r4
   bc380:	4690      	mov	r8, r2
   bc382:	f7ff ffdb 	bl	bc33c <__mcmp>
   bc386:	1e05      	subs	r5, r0, #0
   bc388:	d110      	bne.n	bc3ac <__mdiff+0x38>
   bc38a:	4629      	mov	r1, r5
   bc38c:	4630      	mov	r0, r6
   bc38e:	f7ff fd09 	bl	bbda4 <_Balloc>
   bc392:	b930      	cbnz	r0, bc3a2 <__mdiff+0x2e>
   bc394:	4b3a      	ldr	r3, [pc, #232]	; (bc480 <__mdiff+0x10c>)
   bc396:	4602      	mov	r2, r0
   bc398:	f240 2132 	movw	r1, #562	; 0x232
   bc39c:	4839      	ldr	r0, [pc, #228]	; (bc484 <__mdiff+0x110>)
   bc39e:	f7fb fa91 	bl	b78c4 <__assert_func>
   bc3a2:	2301      	movs	r3, #1
   bc3a4:	e9c0 3504 	strd	r3, r5, [r0, #16]
   bc3a8:	e8bd 8ff8 	ldmia.w	sp!, {r3, r4, r5, r6, r7, r8, r9, sl, fp, pc}
   bc3ac:	bfa4      	itt	ge
   bc3ae:	4643      	movge	r3, r8
   bc3b0:	46a0      	movge	r8, r4
   bc3b2:	4630      	mov	r0, r6
   bc3b4:	f8d8 1004 	ldr.w	r1, [r8, #4]
   bc3b8:	bfa6      	itte	ge
   bc3ba:	461c      	movge	r4, r3
   bc3bc:	2500      	movge	r5, #0
   bc3be:	2501      	movlt	r5, #1
   bc3c0:	f7ff fcf0 	bl	bbda4 <_Balloc>
   bc3c4:	b920      	cbnz	r0, bc3d0 <__mdiff+0x5c>
   bc3c6:	4b2e      	ldr	r3, [pc, #184]	; (bc480 <__mdiff+0x10c>)
   bc3c8:	4602      	mov	r2, r0
   bc3ca:	f44f 7110 	mov.w	r1, #576	; 0x240
   bc3ce:	e7e5      	b.n	bc39c <__mdiff+0x28>
   bc3d0:	f8d8 7010 	ldr.w	r7, [r8, #16]
   bc3d4:	6926      	ldr	r6, [r4, #16]
   bc3d6:	60c5      	str	r5, [r0, #12]
   bc3d8:	f104 0914 	add.w	r9, r4, #20
   bc3dc:	f108 0514 	add.w	r5, r8, #20
   bc3e0:	f100 0e14 	add.w	lr, r0, #20
   bc3e4:	eb05 0c87 	add.w	ip, r5, r7, lsl #2
   bc3e8:	eb09 0686 	add.w	r6, r9, r6, lsl #2
   bc3ec:	f108 0210 	add.w	r2, r8, #16
   bc3f0:	46f2      	mov	sl, lr
   bc3f2:	2100      	movs	r1, #0
   bc3f4:	f859 3b04 	ldr.w	r3, [r9], #4
   bc3f8:	f852 bf04 	ldr.w	fp, [r2, #4]!
   bc3fc:	fa1f f883 	uxth.w	r8, r3
   bc400:	fa11 f18b 	uxtah	r1, r1, fp
   bc404:	0c1b      	lsrs	r3, r3, #16
   bc406:	eba1 0808 	sub.w	r8, r1, r8
   bc40a:	ebc3 431b 	rsb	r3, r3, fp, lsr #16
   bc40e:	eb03 4328 	add.w	r3, r3, r8, asr #16
   bc412:	fa1f f888 	uxth.w	r8, r8
   bc416:	1419      	asrs	r1, r3, #16
   bc418:	454e      	cmp	r6, r9
   bc41a:	ea48 4303 	orr.w	r3, r8, r3, lsl #16
   bc41e:	f84a 3b04 	str.w	r3, [sl], #4
   bc422:	d8e7      	bhi.n	bc3f4 <__mdiff+0x80>
   bc424:	1b33      	subs	r3, r6, r4
   bc426:	3b15      	subs	r3, #21
   bc428:	f023 0303 	bic.w	r3, r3, #3
   bc42c:	3304      	adds	r3, #4
   bc42e:	3415      	adds	r4, #21
   bc430:	42a6      	cmp	r6, r4
   bc432:	bf38      	it	cc
   bc434:	2304      	movcc	r3, #4
   bc436:	441d      	add	r5, r3
   bc438:	4473      	add	r3, lr
   bc43a:	469e      	mov	lr, r3
   bc43c:	462e      	mov	r6, r5
   bc43e:	4566      	cmp	r6, ip
   bc440:	d30e      	bcc.n	bc460 <__mdiff+0xec>
   bc442:	f10c 0203 	add.w	r2, ip, #3
   bc446:	1b52      	subs	r2, r2, r5
   bc448:	f022 0203 	bic.w	r2, r2, #3
   bc44c:	3d03      	subs	r5, #3
   bc44e:	45ac      	cmp	ip, r5
   bc450:	bf38      	it	cc
   bc452:	2200      	movcc	r2, #0
   bc454:	441a      	add	r2, r3
   bc456:	f852 3d04 	ldr.w	r3, [r2, #-4]!
   bc45a:	b17b      	cbz	r3, bc47c <__mdiff+0x108>
   bc45c:	6107      	str	r7, [r0, #16]
   bc45e:	e7a3      	b.n	bc3a8 <__mdiff+0x34>
   bc460:	f856 8b04 	ldr.w	r8, [r6], #4
   bc464:	fa11 f288 	uxtah	r2, r1, r8
   bc468:	1414      	asrs	r4, r2, #16
   bc46a:	eb04 4418 	add.w	r4, r4, r8, lsr #16
   bc46e:	b292      	uxth	r2, r2
   bc470:	ea42 4204 	orr.w	r2, r2, r4, lsl #16
   bc474:	f84e 2b04 	str.w	r2, [lr], #4
   bc478:	1421      	asrs	r1, r4, #16
   bc47a:	e7e0      	b.n	bc43e <__mdiff+0xca>
   bc47c:	3f01      	subs	r7, #1
   bc47e:	e7ea      	b.n	bc456 <__mdiff+0xe2>
   bc480:	000bd259 	.word	0x000bd259
   bc484:	000bd304 	.word	0x000bd304

000bc488 <__ulp>:
   bc488:	b082      	sub	sp, #8
   bc48a:	ed8d 0b00 	vstr	d0, [sp]
   bc48e:	9b01      	ldr	r3, [sp, #4]
   bc490:	4912      	ldr	r1, [pc, #72]	; (bc4dc <__ulp+0x54>)
   bc492:	4019      	ands	r1, r3
   bc494:	f1a1 7150 	sub.w	r1, r1, #54525952	; 0x3400000
   bc498:	2900      	cmp	r1, #0
   bc49a:	dd05      	ble.n	bc4a8 <__ulp+0x20>
   bc49c:	2200      	movs	r2, #0
   bc49e:	460b      	mov	r3, r1
   bc4a0:	ec43 2b10 	vmov	d0, r2, r3
   bc4a4:	b002      	add	sp, #8
   bc4a6:	4770      	bx	lr
   bc4a8:	4249      	negs	r1, r1
   bc4aa:	f1b1 7fa0 	cmp.w	r1, #20971520	; 0x1400000
   bc4ae:	ea4f 5021 	mov.w	r0, r1, asr #20
   bc4b2:	f04f 0200 	mov.w	r2, #0
   bc4b6:	f04f 0300 	mov.w	r3, #0
   bc4ba:	da04      	bge.n	bc4c6 <__ulp+0x3e>
   bc4bc:	f44f 2100 	mov.w	r1, #524288	; 0x80000
   bc4c0:	fa41 f300 	asr.w	r3, r1, r0
   bc4c4:	e7ec      	b.n	bc4a0 <__ulp+0x18>
   bc4c6:	f1a0 0114 	sub.w	r1, r0, #20
   bc4ca:	291e      	cmp	r1, #30
   bc4cc:	bfda      	itte	le
   bc4ce:	f04f 4000 	movle.w	r0, #2147483648	; 0x80000000
   bc4d2:	fa20 f101 	lsrle.w	r1, r0, r1
   bc4d6:	2101      	movgt	r1, #1
   bc4d8:	460a      	mov	r2, r1
   bc4da:	e7e1      	b.n	bc4a0 <__ulp+0x18>
   bc4dc:	7ff00000 	.word	0x7ff00000

000bc4e0 <__b2d>:
   bc4e0:	b5f8      	push	{r3, r4, r5, r6, r7, lr}
   bc4e2:	6905      	ldr	r5, [r0, #16]
   bc4e4:	f100 0714 	add.w	r7, r0, #20
   bc4e8:	eb07 0585 	add.w	r5, r7, r5, lsl #2
   bc4ec:	1f2e      	subs	r6, r5, #4
   bc4ee:	f855 4c04 	ldr.w	r4, [r5, #-4]
   bc4f2:	4620      	mov	r0, r4
   bc4f4:	f7ff fd48 	bl	bbf88 <__hi0bits>
   bc4f8:	f1c0 0320 	rsb	r3, r0, #32
   bc4fc:	280a      	cmp	r0, #10
   bc4fe:	f8df c07c 	ldr.w	ip, [pc, #124]	; bc57c <__b2d+0x9c>
   bc502:	600b      	str	r3, [r1, #0]
   bc504:	dc14      	bgt.n	bc530 <__b2d+0x50>
   bc506:	f1c0 0e0b 	rsb	lr, r0, #11
   bc50a:	fa24 f10e 	lsr.w	r1, r4, lr
   bc50e:	42b7      	cmp	r7, r6
   bc510:	ea41 030c 	orr.w	r3, r1, ip
   bc514:	bf34      	ite	cc
   bc516:	f855 1c08 	ldrcc.w	r1, [r5, #-8]
   bc51a:	2100      	movcs	r1, #0
   bc51c:	3015      	adds	r0, #21
   bc51e:	fa04 f000 	lsl.w	r0, r4, r0
   bc522:	fa21 f10e 	lsr.w	r1, r1, lr
   bc526:	ea40 0201 	orr.w	r2, r0, r1
   bc52a:	ec43 2b10 	vmov	d0, r2, r3
   bc52e:	bdf8      	pop	{r3, r4, r5, r6, r7, pc}
   bc530:	42b7      	cmp	r7, r6
   bc532:	bf3a      	itte	cc
   bc534:	f855 1c08 	ldrcc.w	r1, [r5, #-8]
   bc538:	f1a5 0608 	subcc.w	r6, r5, #8
   bc53c:	2100      	movcs	r1, #0
   bc53e:	380b      	subs	r0, #11
   bc540:	d017      	beq.n	bc572 <__b2d+0x92>
   bc542:	f1c0 0c20 	rsb	ip, r0, #32
   bc546:	fa04 f500 	lsl.w	r5, r4, r0
   bc54a:	42be      	cmp	r6, r7
   bc54c:	fa21 f40c 	lsr.w	r4, r1, ip
   bc550:	ea45 0504 	orr.w	r5, r5, r4
   bc554:	bf8c      	ite	hi
   bc556:	f856 4c04 	ldrhi.w	r4, [r6, #-4]
   bc55a:	2400      	movls	r4, #0
   bc55c:	f045 537f 	orr.w	r3, r5, #1069547520	; 0x3fc00000
   bc560:	fa01 f000 	lsl.w	r0, r1, r0
   bc564:	fa24 f40c 	lsr.w	r4, r4, ip
   bc568:	f443 1340 	orr.w	r3, r3, #3145728	; 0x300000
   bc56c:	ea40 0204 	orr.w	r2, r0, r4
   bc570:	e7db      	b.n	bc52a <__b2d+0x4a>
   bc572:	ea44 030c 	orr.w	r3, r4, ip
   bc576:	460a      	mov	r2, r1
   bc578:	e7d7      	b.n	bc52a <__b2d+0x4a>
   bc57a:	bf00      	nop
   bc57c:	3ff00000 	.word	0x3ff00000

000bc580 <__d2b>:
   bc580:	e92d 43f7 	stmdb	sp!, {r0, r1, r2, r4, r5, r6, r7, r8, r9, lr}
   bc584:	4689      	mov	r9, r1
   bc586:	2101      	movs	r1, #1
   bc588:	ec57 6b10 	vmov	r6, r7, d0
   bc58c:	4690      	mov	r8, r2
   bc58e:	f7ff fc09 	bl	bbda4 <_Balloc>
   bc592:	4604      	mov	r4, r0
   bc594:	b930      	cbnz	r0, bc5a4 <__d2b+0x24>
   bc596:	4602      	mov	r2, r0
   bc598:	4b25      	ldr	r3, [pc, #148]	; (bc630 <__d2b+0xb0>)
   bc59a:	4826      	ldr	r0, [pc, #152]	; (bc634 <__d2b+0xb4>)
   bc59c:	f240 310a 	movw	r1, #778	; 0x30a
   bc5a0:	f7fb f990 	bl	b78c4 <__assert_func>
   bc5a4:	f3c7 550a 	ubfx	r5, r7, #20, #11
   bc5a8:	f3c7 0313 	ubfx	r3, r7, #0, #20
   bc5ac:	bb35      	cbnz	r5, bc5fc <__d2b+0x7c>
   bc5ae:	2e00      	cmp	r6, #0
   bc5b0:	9301      	str	r3, [sp, #4]
   bc5b2:	d028      	beq.n	bc606 <__d2b+0x86>
   bc5b4:	4668      	mov	r0, sp
   bc5b6:	9600      	str	r6, [sp, #0]
   bc5b8:	f7ff fd06 	bl	bbfc8 <__lo0bits>
   bc5bc:	9900      	ldr	r1, [sp, #0]
   bc5be:	b300      	cbz	r0, bc602 <__d2b+0x82>
   bc5c0:	9a01      	ldr	r2, [sp, #4]
   bc5c2:	f1c0 0320 	rsb	r3, r0, #32
   bc5c6:	fa02 f303 	lsl.w	r3, r2, r3
   bc5ca:	430b      	orrs	r3, r1
   bc5cc:	40c2      	lsrs	r2, r0
   bc5ce:	6163      	str	r3, [r4, #20]
   bc5d0:	9201      	str	r2, [sp, #4]
   bc5d2:	9b01      	ldr	r3, [sp, #4]
   bc5d4:	61a3      	str	r3, [r4, #24]
   bc5d6:	2b00      	cmp	r3, #0
   bc5d8:	bf14      	ite	ne
   bc5da:	2202      	movne	r2, #2
   bc5dc:	2201      	moveq	r2, #1
   bc5de:	6122      	str	r2, [r4, #16]
   bc5e0:	b1d5      	cbz	r5, bc618 <__d2b+0x98>
   bc5e2:	f2a5 4533 	subw	r5, r5, #1075	; 0x433
   bc5e6:	4405      	add	r5, r0
   bc5e8:	f8c9 5000 	str.w	r5, [r9]
   bc5ec:	f1c0 0035 	rsb	r0, r0, #53	; 0x35
   bc5f0:	f8c8 0000 	str.w	r0, [r8]
   bc5f4:	4620      	mov	r0, r4
   bc5f6:	b003      	add	sp, #12
   bc5f8:	e8bd 83f0 	ldmia.w	sp!, {r4, r5, r6, r7, r8, r9, pc}
   bc5fc:	f443 1380 	orr.w	r3, r3, #1048576	; 0x100000
   bc600:	e7d5      	b.n	bc5ae <__d2b+0x2e>
   bc602:	6161      	str	r1, [r4, #20]
   bc604:	e7e5      	b.n	bc5d2 <__d2b+0x52>
   bc606:	a801      	add	r0, sp, #4
   bc608:	f7ff fcde 	bl	bbfc8 <__lo0bits>
   bc60c:	9b01      	ldr	r3, [sp, #4]
   bc60e:	6163      	str	r3, [r4, #20]
   bc610:	2201      	movs	r2, #1
   bc612:	6122      	str	r2, [r4, #16]
   bc614:	3020      	adds	r0, #32
   bc616:	e7e3      	b.n	bc5e0 <__d2b+0x60>
   bc618:	eb04 0382 	add.w	r3, r4, r2, lsl #2
   bc61c:	f2a0 4032 	subw	r0, r0, #1074	; 0x432
   bc620:	f8c9 0000 	str.w	r0, [r9]
   bc624:	6918      	ldr	r0, [r3, #16]
   bc626:	f7ff fcaf 	bl	bbf88 <__hi0bits>
   bc62a:	ebc0 1042 	rsb	r0, r0, r2, lsl #5
   bc62e:	e7df      	b.n	bc5f0 <__d2b+0x70>
   bc630:	000bd259 	.word	0x000bd259
   bc634:	000bd304 	.word	0x000bd304

000bc638 <__ratio>:
   bc638:	e92d 4ff7 	stmdb	sp!, {r0, r1, r2, r4, r5, r6, r7, r8, r9, sl, fp, lr}
   bc63c:	4688      	mov	r8, r1
   bc63e:	4669      	mov	r1, sp
   bc640:	4681      	mov	r9, r0
   bc642:	f7ff ff4d 	bl	bc4e0 <__b2d>
   bc646:	a901      	add	r1, sp, #4
   bc648:	4640      	mov	r0, r8
   bc64a:	ec55 4b10 	vmov	r4, r5, d0
   bc64e:	f7ff ff47 	bl	bc4e0 <__b2d>
   bc652:	f8d9 3010 	ldr.w	r3, [r9, #16]
   bc656:	f8d8 2010 	ldr.w	r2, [r8, #16]
   bc65a:	eba3 0c02 	sub.w	ip, r3, r2
   bc65e:	e9dd 3200 	ldrd	r3, r2, [sp]
   bc662:	1a9b      	subs	r3, r3, r2
   bc664:	eb03 134c 	add.w	r3, r3, ip, lsl #5
   bc668:	ec51 0b10 	vmov	r0, r1, d0
   bc66c:	2b00      	cmp	r3, #0
   bc66e:	bfd6      	itet	le
   bc670:	460a      	movle	r2, r1
   bc672:	462a      	movgt	r2, r5
   bc674:	ebc3 3303 	rsble	r3, r3, r3, lsl #12
   bc678:	468b      	mov	fp, r1
   bc67a:	462f      	mov	r7, r5
   bc67c:	bfd4      	ite	le
   bc67e:	eb02 5b03 	addle.w	fp, r2, r3, lsl #20
   bc682:	eb02 5703 	addgt.w	r7, r2, r3, lsl #20
   bc686:	4620      	mov	r0, r4
   bc688:	ee10 2a10 	vmov	r2, s0
   bc68c:	465b      	mov	r3, fp
   bc68e:	4639      	mov	r1, r7
   bc690:	f7f7 ffac 	bl	b45ec <__aeabi_ddiv>
   bc694:	ec41 0b10 	vmov	d0, r0, r1
   bc698:	b003      	add	sp, #12
   bc69a:	e8bd 8ff0 	ldmia.w	sp!, {r4, r5, r6, r7, r8, r9, sl, fp, pc}

000bc69e <__copybits>:
   bc69e:	3901      	subs	r1, #1
   bc6a0:	b570      	push	{r4, r5, r6, lr}
   bc6a2:	1149      	asrs	r1, r1, #5
   bc6a4:	6914      	ldr	r4, [r2, #16]
   bc6a6:	3101      	adds	r1, #1
   bc6a8:	f102 0314 	add.w	r3, r2, #20
   bc6ac:	eb00 0181 	add.w	r1, r0, r1, lsl #2
   bc6b0:	eb03 0484 	add.w	r4, r3, r4, lsl #2
   bc6b4:	1f05      	subs	r5, r0, #4
   bc6b6:	42a3      	cmp	r3, r4
   bc6b8:	d30c      	bcc.n	bc6d4 <__copybits+0x36>
   bc6ba:	1aa3      	subs	r3, r4, r2
   bc6bc:	3b11      	subs	r3, #17
   bc6be:	f023 0303 	bic.w	r3, r3, #3
   bc6c2:	3211      	adds	r2, #17
   bc6c4:	42a2      	cmp	r2, r4
   bc6c6:	bf88      	it	hi
   bc6c8:	2300      	movhi	r3, #0
   bc6ca:	4418      	add	r0, r3
   bc6cc:	2300      	movs	r3, #0
   bc6ce:	4288      	cmp	r0, r1
   bc6d0:	d305      	bcc.n	bc6de <__copybits+0x40>
   bc6d2:	bd70      	pop	{r4, r5, r6, pc}
   bc6d4:	f853 6b04 	ldr.w	r6, [r3], #4
   bc6d8:	f845 6f04 	str.w	r6, [r5, #4]!
   bc6dc:	e7eb      	b.n	bc6b6 <__copybits+0x18>
   bc6de:	f840 3b04 	str.w	r3, [r0], #4
   bc6e2:	e7f4      	b.n	bc6ce <__copybits+0x30>

000bc6e4 <__any_on>:
   bc6e4:	f100 0214 	add.w	r2, r0, #20
   bc6e8:	6900      	ldr	r0, [r0, #16]
   bc6ea:	114b      	asrs	r3, r1, #5
   bc6ec:	4298      	cmp	r0, r3
   bc6ee:	b510      	push	{r4, lr}
   bc6f0:	db11      	blt.n	bc716 <__any_on+0x32>
   bc6f2:	dd0a      	ble.n	bc70a <__any_on+0x26>
   bc6f4:	f011 011f 	ands.w	r1, r1, #31
   bc6f8:	d007      	beq.n	bc70a <__any_on+0x26>
   bc6fa:	f852 4023 	ldr.w	r4, [r2, r3, lsl #2]
   bc6fe:	fa24 f001 	lsr.w	r0, r4, r1
   bc702:	fa00 f101 	lsl.w	r1, r0, r1
   bc706:	428c      	cmp	r4, r1
   bc708:	d10b      	bne.n	bc722 <__any_on+0x3e>
   bc70a:	eb02 0383 	add.w	r3, r2, r3, lsl #2
   bc70e:	4293      	cmp	r3, r2
   bc710:	d803      	bhi.n	bc71a <__any_on+0x36>
   bc712:	2000      	movs	r0, #0
   bc714:	bd10      	pop	{r4, pc}
   bc716:	4603      	mov	r3, r0
   bc718:	e7f7      	b.n	bc70a <__any_on+0x26>
   bc71a:	f853 1d04 	ldr.w	r1, [r3, #-4]!
   bc71e:	2900      	cmp	r1, #0
   bc720:	d0f5      	beq.n	bc70e <__any_on+0x2a>
   bc722:	2001      	movs	r0, #1
   bc724:	e7f6      	b.n	bc714 <__any_on+0x30>

000bc726 <_calloc_r>:
   bc726:	b513      	push	{r0, r1, r4, lr}
   bc728:	434a      	muls	r2, r1
   bc72a:	4611      	mov	r1, r2
   bc72c:	9201      	str	r2, [sp, #4]
   bc72e:	f7fb f8b9 	bl	b78a4 <_malloc_r>
   bc732:	4604      	mov	r4, r0
   bc734:	b118      	cbz	r0, bc73e <_calloc_r+0x18>
   bc736:	9a01      	ldr	r2, [sp, #4]
   bc738:	2100      	movs	r1, #0
   bc73a:	f7fd ff97 	bl	ba66c <memset>
   bc73e:	4620      	mov	r0, r4
   bc740:	b002      	add	sp, #8
   bc742:	bd10      	pop	{r4, pc}

000bc744 <_open_r>:
   bc744:	b538      	push	{r3, r4, r5, lr}
   bc746:	4d07      	ldr	r5, [pc, #28]	; (bc764 <_open_r+0x20>)
   bc748:	4604      	mov	r4, r0
   bc74a:	4608      	mov	r0, r1
   bc74c:	4611      	mov	r1, r2
   bc74e:	2200      	movs	r2, #0
   bc750:	602a      	str	r2, [r5, #0]
   bc752:	461a      	mov	r2, r3
   bc754:	f7fa fda0 	bl	b7298 <_open>
   bc758:	1c43      	adds	r3, r0, #1
   bc75a:	d102      	bne.n	bc762 <_open_r+0x1e>
   bc75c:	682b      	ldr	r3, [r5, #0]
   bc75e:	b103      	cbz	r3, bc762 <_open_r+0x1e>
   bc760:	6023      	str	r3, [r4, #0]
   bc762:	bd38      	pop	{r3, r4, r5, pc}
   bc764:	2003e7f8 	.word	0x2003e7f8

000bc768 <_read_r>:
   bc768:	b538      	push	{r3, r4, r5, lr}
   bc76a:	4d07      	ldr	r5, [pc, #28]	; (bc788 <_read_r+0x20>)
   bc76c:	4604      	mov	r4, r0
   bc76e:	4608      	mov	r0, r1
   bc770:	4611      	mov	r1, r2
   bc772:	2200      	movs	r2, #0
   bc774:	602a      	str	r2, [r5, #0]
   bc776:	461a      	mov	r2, r3
   bc778:	f7fa fd9e 	bl	b72b8 <_read>
   bc77c:	1c43      	adds	r3, r0, #1
   bc77e:	d102      	bne.n	bc786 <_read_r+0x1e>
   bc780:	682b      	ldr	r3, [r5, #0]
   bc782:	b103      	cbz	r3, bc786 <_read_r+0x1e>
   bc784:	6023      	str	r3, [r4, #0]
   bc786:	bd38      	pop	{r3, r4, r5, pc}
   bc788:	2003e7f8 	.word	0x2003e7f8
   bc78c:	00000000 	.word	0x00000000

000bc790 <nan>:
   bc790:	ed9f 0b01 	vldr	d0, [pc, #4]	; bc798 <nan+0x8>
   bc794:	4770      	bx	lr
   bc796:	bf00      	nop
   bc798:	00000000 	.word	0x00000000
   bc79c:	7ff80000 	.word	0x7ff80000

000bc7a0 <__ascii_wctomb>:
   bc7a0:	b149      	cbz	r1, bc7b6 <__ascii_wctomb+0x16>
   bc7a2:	2aff      	cmp	r2, #255	; 0xff
   bc7a4:	bf85      	ittet	hi
   bc7a6:	238a      	movhi	r3, #138	; 0x8a
   bc7a8:	6003      	strhi	r3, [r0, #0]
   bc7aa:	700a      	strbls	r2, [r1, #0]
   bc7ac:	f04f 30ff 	movhi.w	r0, #4294967295
   bc7b0:	bf98      	it	ls
   bc7b2:	2001      	movls	r0, #1
   bc7b4:	4770      	bx	lr
   bc7b6:	4608      	mov	r0, r1
   bc7b8:	4770      	bx	lr

000bc7ba <link_code_end>:
	...

000bc7bc <link_const_data_start>:
   bc7bc:	40a00000 	.word	0x40a00000
   bc7c0:	41f00000 	.word	0x41f00000
   bc7c4:	00000100 	.word	0x00000100
   bc7c8:	00000014 	.word	0x00000014
   bc7cc:	2003d52d 	.word	0x2003d52d
   bc7d0:	00001000 	.word	0x00001000
   bc7d4:	2003e52d 	.word	0x2003e52d
   bc7d8:	00000100 	.word	0x00000100

000bc7dc <dynalib_user>:
   bc7dc:	000b4da9 000b4de5 000b4e0d 000b4e11     .M...M...N...N..
   bc7ec:	00000000 6c6c6143 206e6f20 65727570     ....Call on pure
   bc7fc:	72697620 6c617574 73752f00 6d672f72      virtual./usr/gm
   bc80c:	72657465 7461642e 73752f00 656c2f72     eter.dat./usr/le
   bc81c:	6f6d6b61 2e6c6564 00746164 53524550     akmodel.dat.PERS
   bc82c:	3a545349 654d6720 28726574 20297525     IST: gMeter(%u) 
   bc83c:	6f6d202b 206c6564 65766173 45500064     + model saved.PE
   bc84c:	53495352 67203a54 6574654d 65722072     RSIST: gMeter re
   bc85c:	726f7473 28206465 73207525 6c706d61     stored (%u sampl
   bc86c:	00297365 53524550 3a545349 654d6720     es).PERSIST: gMe
   bc87c:	20726574 73657266 45500068 53495352     ter fresh.PERSIS
   bc88c:	6c203a54 206b6165 65646f6d 7266206c     T: leak model fr
   bc89c:	20687365 772d3128 206b6565 7261656c     esh (1-week lear
   bc8ac:	676e696e 73657220 74726174 50002973     ning restarts).P
   bc8bc:	49535245 203a5453 6b61656c 646f6d20     ERSIST: leak mod
   bc8cc:	72206c65 6f747365 00646572 574f4c46     el restored.FLOW
   bc8dc:	4c41435f 2e25203a 43006634 203a4746     _CAL: %.4f.CFG: 
   bc8ec:	6b61656c 322e253d 68732066 666f7475     leak=%.2f shutof
   bc8fc:	6c6f5666 312e253d 75612066 253d6f74     fVol=%.1f auto=%
   bc90c:	6c612075 3d747265 48007525 2072756f     u alert=%u.Hour 
   bc91c:	64206425 3a656e6f 322e2520 61672066     %d done: %.2f ga
   bc92c:	3e2d206c 756f6820 64252072 64694d00     l -> hour %d.Mid
   bc93c:	6867696e 64203a74 796c6961 322e253d     night: daily=%.2
   bc94c:	61672066 6572206c 00746573 20554d49     f gal reset.IMU 
   bc95c:	20746f6e 69617661 6c62616c 4c530065     not available.SL
   bc96c:	3a504545 6d697420 72207265 61747365     EEP: timer resta
   bc97c:	64657472 73252820 68730029 666f7475     rted (%s).shutof
   bc98c:	69775366 00686374 736f6c63 706f0065     fSwitch.close.op
   bc99c:	50006e65 203a4349 656d6974 766e6920     en.PIC: time inv
   bc9ac:	64696c61 7264202c 6970706f 6220676e     alid, dropping b
   bc9bc:	68637461 43495000 6e69203a 74736567     atch.PIC: ingest
   bc9cc:	25206465 61732064 656c706d 64202c73     ed %d samples, d
   bc9dc:	796c6961 322e253d 61672066 4950006c     aily=%.2f gal.PI
   bc9ec:	70752043 64616f6c 72726520 00642520     C upload err %d.
   bc9fc:	3a434950 6e657020 676e6964 6e6f6320     PIC: pending con
   bca0c:	20676966 696c6564 65726576 656c0064     fig delivered.le
   bca1c:	6e696b61 69775367 00686374 636e7973     akingSwitch.sync
   bca2c:	00636950 57746573 00694669 61656c63     Pic.setWiFi.clea
   bca3c:	46695772 65730069 6f6c4674 6c614377     rWiFi.setFlowCal
   bca4c:	4f4c4600 41435f57 6573204c 2e252074     .FLOW_CAL set %.
   bca5c:	73006634 6f437465 6769666e 74657300     4f.setConfig.set
   bca6c:	666e6f43 203a6769 6465656e 43203420     Config: need 4 C
   bca7c:	76205653 65756c61 46430073 65732047     SV values.CFG se
   bca8c:	656c2074 253d6b61 2066322e 3d6c6f76     t leak=%.2f vol=
   bca9c:	66312e25 74756120 64253d6f 656c6120     %.1f auto=%d ale
   bcaac:	253d7472 4c530064 3a504545 64252320     rt=%d.SLEEP: #%d
   bcabc:	726f6620 20707520 25206f74 7320756c      for up to %lu s
   bcacc:	4b415700 50203a45 2d204349 666f203e     .WAKE: PIC -> of
   bcadc:	616f6c66 6e6f2064 5700796c 3a454b41     fload only.WAKE:
   bcaec:	74756220 206e6f74 70203e2d 696c6275      button -> publi
   bcafc:	57006873 3a454b41 68343220 6d697420     sh.WAKE: 24h tim
   bcb0c:	2d207265 6164203e 20796c69 756f6c63     er -> daily clou
   bcb1c:	79732064 4100636e 6e6f6772 61654c00     d sync.Argon.Lea
   bcb2c:	6e65536b 50206573 6f622032 6f20746f     kSense P2 boot o
   bcb3c:	7325206e 74656700 776f6c46 006c6143     n %s.getFlowCal.
   bcb4c:	43746567 69666e6f 65530067 20707574     getConfig.Setup 
   bcb5c:	706d6f63 6574656c 33302500 6c700075     complete.%03u.pl
   bcb6c:	6f667461 64006d72 55307961 69006374     atform.day0Utc.i
   bcb7c:	7265746e 536c6176 63006365 6b6e7568     ntervalSec.chunk
   bcb8c:	746f7400 68436c61 736b6e75 6d617300     .totalChunks.sam
   bcb9c:	53656c70 74726174 6d617300 43656c70     pleStart.sampleC
   bcbac:	746e756f 74616400 656d0061 49726574     ount.data.meterI
   bcbbc:	7265746e 736c6176 46695700 61662069     ntervals.WiFi fa
   bcbcc:	73006c69 6f736e65 656c0072 6e696b61     il.sensor.leakin
   bcbdc:	68730067 666f7475 766f0066 6c667265     g.shutoff.overfl
   bcbec:	7400776f 00706d65 776f6c66 006c6143     ow.temp.flowCal.
   bcbfc:	4c676663 476b6165 63006d70 68536766     cfgLeakGpm.cfgSh
   bcc0c:	666f7475 6c6f5666 67666300 6f747541     utoffVol.cfgAuto
   bcc1c:	74756853 0066666f 41676663 7472656c     Shutoff.cfgAlert
   bcc2c:	65646f4d 63697000 44676643 79747269     Mode.picCfgDirty
   bcc3c:	756f6800 47796c72 6f6c6c61 7200736e     .hourlyGallons.r
   bcc4c:	00697373 74746162 00797265 65657266     ssi.battery.free
   bcc5c:	006d654d 69747075 7300656d 6f736e65     Mem.uptime.senso
   bcc6c:	74614472 75500061 73696c62 3a646568     rData.Published:
   bcc7c:	00732520 74654d67 72207265 656c6c6f      %s.gMeter rolle
   bcc8c:	75620064 6e6f7474 00000000              d.button....

000bcc98 <_ZTV5Timer>:
	...
   bcca0:	000b5081 000b50c5 000b4ec7              .P...P...N..

000bccac <_ZTVN5spark10LogHandlerE>:
	...
   bccbc:	000b4e2d 000b4e55                       -N..UN..

000bccc4 <_ZTVN5spark16SerialLogHandlerE>:
	...
   bcccc:	000b5025 000b5059 000b8ac5 000b8c69     %P..YP......i...

000bccdc <_ZTV16JsonWriterStaticILj512EE>:
	...
   bcce4:	000b4e9d 000b4eb1                       .N...N..

000bccec <_ZL16MODEL_FILE_MAGIC>:
   bccec:	4c4d444c 3a434950 6e6f6320 20676966     LDMLPIC: config 
   bccfc:	004b4341 3a434950 6e6f6320 20676966     ACK.PIC: config 
   bcd0c:	746e6573 6f6e202c 4b434120 72662820     sent, no ACK (fr
   bcd1c:	20656d61 696c6564 65726576 6e612064     ame delivered an
   bcd2c:	79617779 755c0029 58343025 2a2e2500     yway).\u%04X.%.*
   bcd3c:	66250066 00000000                       f.%f....

000bcd44 <_ZTV10JsonBuffer>:
	...
   bcd4c:	000b6e85 000b6ea1                       .n...n..

000bcd54 <_ZTV10JsonWriter>:
	...
   bcd5c:	000b6eb5 000b6ec9                       .n...n..

000bcd64 <_ZTVN5spark13EthernetClassE>:
	...
   bcd6c:	000b7953 000b7949 000b793f 000b7935     Sy..Iy..?y..5y..
   bcd7c:	000b7929 000b791d 000ba179 000ba181     )y...y..y.......
   bcd8c:	000b7911 000b7909 000b78ff 000b78f5     .y...y...x...x..
   bcd9c:	000ba2a9 000ba1b1 000ba1b9 69726977     ............wiri
   bcdac:	5300676e 65747379 6c73206d 20706565     ng.System sleep 
   bcdbc:	666e6f63 72756769 6f697461 7369206e     configuration is
   bcdcc:	766e6920 64696c61 0000002e               invalid....

000bcdd8 <_ZTVN5spark16JSONStreamWriterE>:
	...
   bcde0:	000b7e05 000b7e07 000b7dc5 000b99b3     .~...~...}......
   bcdf0:	64756162 72655300 006c6169 69726553     baud.Serial.Seri
   bce00:	00316c61 4e4f534a 65727453 6f4c6d61     al1.JSONStreamLo
   bce10:	6e614867 72656c64 70706100 31302500     gHandler.app.%01
   bce20:	00207530 2c00205d 29280020 2000203a     0u .] ., .(): . 
   bce30:	6f63005b 3d206564 69250020 74656400     [.code = .%i.det
   bce40:	736c6961 00203d20 6c000a0d 6e66006e     ails = ....ln.fn
   bce50:	646f6300 65640065 6c696174 00000000     .code.detail....

000bce60 <_ZTVN5spark16StreamLogHandlerE>:
	...
   bce68:	000b8349 000b8361 000b8ac5 000b8c69     I...a.......i...

000bce78 <_ZTVN5spark20JSONStreamLogHandlerE>:
	...
   bce80:	000b8375 000b8389 000b8ca1 000b7ecf     u............~..

000bce90 <_ZTVN5spark24DefaultLogHandlerFactoryE>:
	...
   bce98:	000b7ee1 000b7f07 000b8a29 000b7ed1     .~......)....~..

000bcea8 <_ZTVN5spark26DefaultOutputStreamFactoryE>:
	...
   bceb0:	000b7edf 000b7f15 000b82b1 000b7f37     .~..........7...
   bcec0:	252d5925 64252d6d 3a482554 253a4d25     %Y-%m-%dT%H:%M:%
   bced0:	007a2553 74637361 00656d69              S%z.asctime.

000bcedc <_ZTVSt15_Sp_counted_ptrIPN8particle6detail10FutureImplIbNS1_13FutureContextEEELN9__gnu_cxx12_Lock_policyE0EE>:
	...
   bcee4:	000b91b9 000b91bf 000b91fd 000b91cd     ................
   bcef4:	000b91bb                                ....

000bcef8 <_ZTV9IPAddress>:
	...
   bcf00:	000b9791 000b9781 000b9783              ............

000bcf0c <_ZTV9USBSerial>:
	...
   bcf14:	000b9877 000b98df 000b98b5 000b7dd9     w............}..
   bcf24:	000b98a7 000b9879 000b9889 000b98d9     ....y...........
   bcf34:	000b7ea5 000b9899 000b9871 34302575     .~......q...u%04
   bcf44:	00000078                                x...

000bcf48 <_ZTV11USARTSerial>:
	...
   bcf50:	000b9d35 000b9da1 000b9d79 000b7dd9     5.......y....}..
   bcf60:	000b9d49 000b9d65 000b9d57 000b9d73     I...e...W...s...
   bcf70:	000b7ea5 000b9d37 000b9d3b              .~..7...;...

000bcf7c <_ZTV7TwoWire>:
	...
   bcf84:	000b9e1b 000b9e65 000b9e3d 000b9e1d     ....e...=.......
   bcf94:	000b9e45 000b9e4d 000b9e55 000b9e5d     E...M...U...]...
   bcfa4:	000b7ea5                                .~..

000bcfa8 <_ZTVN5spark9WiFiClassE>:
	...
   bcfb0:	000b50e5 000b9fb3 000b9fa9 000b50ef     .P...........P..
   bcfc0:	000b50d9 000b9f9d 000ba179 000ba181     .P......y.......
   bcfd0:	000b9f91 000b9f89 000b9f7f 000b9f75     ............u...
   bcfe0:	000ba2a9 000ba1b1 000ba1b9              ............

000bcfec <_ZTV10WiFiSignal>:
	...
   bcff4:	000b9f61 000b9f67 000b9f63 000b9fbd     a...g...c.......
   bd004:	000b9ff1 000ba01d 000ba051              ........Q...

000bd010 <CSWTCH.109>:
   bd010:	2003e630 2003e70c 2003e714              0.. ... ... 

000bd01c <_ZTVN5spark12NetworkClassE>:
	...
   bd024:	000ba139 000ba143 000ba14d 000ba157     9...C...M...W...
   bd034:	000ba161 000ba16d 000ba179 000ba181     a...m...y.......
   bd044:	000ba189 000ba195 000ba19d 000ba1a7     ................
   bd054:	000ba2a9 000ba1b1 000ba1b9              ............

000bd060 <_ZSt7nothrow>:
   bd060:	45455200 6d20544e 6f6c6c61 75732063     .REENT malloc su
   bd070:	65656363 00646564 746e6d2f 726f772f     cceeded./mnt/wor
   bd080:	6170736b 772f6563 736b726f 65636170     kspace/workspace
   bd090:	4343472f 2d30312d 65706970 656e696c     /GCC-10-pipeline
   bd0a0:	6e656a2f 736e696b 4343472d 2d30312d     /jenkins-GCC-10-
   bd0b0:	65706970 656e696c 5f38342d 30323032     pipeline-48_2020
   bd0c0:	34323131 3036315f 30383136 2f313436     1124_1606180641/
   bd0d0:	2f637273 6c77656e 6e2f6269 696c7765     src/newlib/newli
   bd0e0:	696c2f62 732f6362 696c6474 61722f62     b/libc/stdlib/ra
   bd0f0:	632e646e 00666e00 74696e69 6e610079     nd.c.nf.inity.an
   bd100:	00000000                                ....

000bd104 <fpi.1>:
   bd104:	00000035 fffffbce 000003cb 00000001     5...............
   bd114:	00000000                                ....

000bd118 <fpinan.0>:
   bd118:	00000034 fffffbce 000003cb 00000001     4...............
	...

000bd130 <tinytens>:
   bd130:	97d889bc 3c9cd2b2 d5a8a733 3949f623     .......<3...#.I9
   bd140:	44f4a73d 32a50ffd cf8c979d 255bba08     =..D...2......[%
   bd150:	64ac6f43 11680628                       Co.d(.h.

000bd158 <_ctype_>:
   bd158:	20202000 20202020 28282020 20282828     .         ((((( 
   bd168:	20202020 20202020 20202020 20202020                     
   bd178:	10108820 10101010 10101010 10101010      ...............
   bd188:	04040410 04040404 10040404 10101010     ................
   bd198:	41411010 41414141 01010101 01010101     ..AAAAAA........
   bd1a8:	01010101 01010101 01010101 10101010     ................
   bd1b8:	42421010 42424242 02020202 02020202     ..BBBBBB........
   bd1c8:	02020202 02020202 02020202 10101010     ................
   bd1d8:	00000020 00000000 00000000 00000000      ...............
	...
   bd258:	6c614200 20636f6c 63637573 65646565     .Balloc succeede
   bd268:	6d2f0064 772f746e 736b726f 65636170     d./mnt/workspace
   bd278:	726f772f 6170736b 472f6563 312d4343     /workspace/GCC-1
   bd288:	69702d30 696c6570 6a2f656e 696b6e65     0-pipeline/jenki
   bd298:	472d736e 312d4343 69702d30 696c6570     ns-GCC-10-pipeli
   bd2a8:	342d656e 30325f38 31313032 315f3432     ne-48_20201124_1
   bd2b8:	31363036 34363038 72732f31 656e2f63     606180641/src/ne
   bd2c8:	62696c77 77656e2f 2f62696c 6362696c     wlib/newlib/libc
   bd2d8:	6474732f 2f62696c 6f746467 65672d61     /stdlib/gdtoa-ge
   bd2e8:	78656874 0000632e                       thex.c..

000bd2f0 <_C_numeric_locale>:
   bd2f0:	000bcdd4 000bce4a 200370d4 4f500043     ....J....p. C.PO
   bd300:	00584953 746e6d2f 726f772f 6170736b     SIX./mnt/workspa
   bd310:	772f6563 736b726f 65636170 4343472f     ce/workspace/GCC
   bd320:	2d30312d 65706970 656e696c 6e656a2f     -10-pipeline/jen
   bd330:	736e696b 4343472d 2d30312d 65706970     kins-GCC-10-pipe
   bd340:	656e696c 5f38342d 30323032 34323131     line-48_20201124
   bd350:	3036315f 30383136 2f313436 2f637273     _1606180641/src/
   bd360:	6c77656e 6e2f6269 696c7765 696c2f62     newlib/newlib/li
   bd370:	732f6362 696c6474 706d2f62 2e636572     bc/stdlib/mprec.
   bd380:	00000063 00000000                       c.......

000bd388 <__mprec_bigtens>:
   bd388:	37e08000 4341c379 b5056e17 4693b8b5     ...7y.AC.n.....F
   bd398:	e93ff9f5 4d384f03 f9301d32 5a827748     ..?..O8M2.0.Hw.Z
   bd3a8:	7f73bf3c 75154fdd                       <.s..O.u

000bd3b0 <__mprec_tens>:
   bd3b0:	00000000 3ff00000 00000000 40240000     .......?......$@
   bd3c0:	00000000 40590000 00000000 408f4000     ......Y@.....@.@
   bd3d0:	00000000 40c38800 00000000 40f86a00     .......@.....j.@
   bd3e0:	00000000 412e8480 00000000 416312d0     .......A......cA
   bd3f0:	00000000 4197d784 00000000 41cdcd65     .......A....e..A
   bd400:	20000000 4202a05f e8000000 42374876     ... _..B....vH7B
   bd410:	a2000000 426d1a94 e5400000 42a2309c     ......mB..@..0.B
   bd420:	1e900000 42d6bcc4 26340000 430c6bf5     .......B..4&.k.C
   bd430:	37e08000 4341c379 85d8a000 43763457     ...7y.AC....W4vC
   bd440:	674ec800 43abc16d 60913d00 43e158e4     ..Ngm..C.=.`.X.C
   bd450:	78b58c40 4415af1d d6e2ef50 444b1ae4     @..x...DP.....KD
   bd460:	064dd592 4480f0cf c7e14af6 44b52d02     ..M....D.J...-.D
   bd470:	79d99db4 44ea7843                       ...yCx.D

000bd478 <p05.0>:
   bd478:	00000005 00000019 0000007d              ........}...

000bd484 <link_const_data_end>:
   bd484:	000b6a35 	.word	0x000b6a35
   bd488:	000b795d 	.word	0x000b795d
   bd48c:	000b7ad9 	.word	0x000b7ad9
   bd490:	000b7db5 	.word	0x000b7db5
   bd494:	000b8ab5 	.word	0x000b8ab5
   bd498:	000b8f59 	.word	0x000b8f59
   bd49c:	000b8f75 	.word	0x000b8f75
   bd4a0:	000b9f45 	.word	0x000b9f45
   bd4a4:	000ba125 	.word	0x000ba125
   bd4a8:	000ba2bd 	.word	0x000ba2bd
