

Microchip MPLAB XC8 Assembler V3.10 build 20250813170317 
                                                                                               Wed Jun 10 11:25:42 2026

Microchip MPLAB XC8 C Compiler v3.10 (Free license) build 20250813170317 Og1 
     1                           	processor	18F16Q40
     2                           	fnconf	rparam,??,?,0
     3                           	pagewidth 120
     4                           	opt	flic
     5                           	psect	cinit,global,reloc=2,class=CODE,space=0,delta=1
     6                           	psect	bssCOMRAM,global,class=COMRAM,space=1,delta=1,lowdata,noexec
     7                           	psect	cstackCOMRAM,global,class=COMRAM,space=1,delta=1,lowdata,noexec
     8                           	psect	text0,global,reloc=2,class=CODE,space=0,delta=1
     9                           	psect	text1,global,reloc=2,class=CODE,space=0,delta=1
    10                           	psect	text2,global,reloc=2,class=CODE,space=0,delta=1
    11                           	psect	text3,global,reloc=2,class=CODE,space=0,delta=1
    12                           	psect	text4,global,reloc=2,class=CODE,space=0,delta=1
    13                           	psect	text5,global,reloc=2,class=CODE,space=0,delta=1
    14                           	psect	text6,global,reloc=2,class=CODE,space=0,delta=1
    15                           	psect	text7,global,reloc=2,class=CODE,space=0,delta=1
    16                           	psect	text8,global,reloc=2,class=CODE,space=0,delta=1
    17                           	psect	text9,global,reloc=2,class=CODE,space=0,delta=1
    18                           	psect	text10,global,reloc=2,class=CODE,space=0,delta=1
    19                           	psect	text11,global,reloc=2,class=CODE,space=0,delta=1
    20                           	psect	text12,global,reloc=2,class=CODE,space=0,delta=1
    21                           	psect	text13,global,reloc=2,class=CODE,space=0,delta=1
    22                           	psect	ivt0x8,global,reloc=2,class=CODE,space=0,delta=1,noexec,keep,optim=
    23                           	psect	smallconst,global,reloc=2,class=SMALLCONST,space=0,delta=1,noexec
    24                           	psect	intsave_regs,global,class=BIGRAM,space=1,delta=1,noexec
    25                           	psect	rparam,global,class=COMRAM,space=1,delta=1,noexec
    26                           	psect	config,global,abs,ovrld,class=CONFIG,space=4,delta=1,noexec
    27   000000                     
    28                           ; Generated 18/12/2023 GMT
    29                           ; 
    30                           ; Copyright © 2023, Microchip Technology Inc. and its subsidiaries ("Microchip")
    31                           ; All rights reserved.
    32                           ; 
    33                           ; This software is developed by Microchip Technology Inc. and its subsidiaries ("Microch
      +                          ip").
    34                           ; 
    35                           ; Redistribution and use in source and binary forms, with or without modification, are
    36                           ; permitted provided that the following conditions are met:
    37                           ; 
    38                           ;     1. Redistributions of source code must retain the above copyright notice, this lis
      +                          t of
    39                           ;        conditions and the following disclaimer.
    40                           ; 
    41                           ;     2. Redistributions in binary form must reproduce the above copyright notice, this 
      +                          list
    42                           ;        of conditions and the following disclaimer in the documentation and/or other
    43                           ;        materials provided with the distribution. Publication is not required when
    44                           ;        this file is used in an embedded application.
    45                           ; 
    46                           ;     3. Microchip's name may not be used to endorse or promote products derived from th
      +                          is
    47                           ;        software without specific prior written permission.
    48                           ; 
    49                           ; THIS SOFTWARE IS PROVIDED BY MICROCHIP "AS IS" AND ANY EXPRESS OR IMPLIED WARRANTIES,
    50                           ; INCLUDING, BUT NOT LIMITED TO, THE IMPLIED WARRANTIES OF MERCHANTABILITY AND FITNESS F
      +                          OR
    51                           ; PURPOSE ARE DISCLAIMED.  IN NO EVENT SHALL MICROCHIP BE LIABLE FOR ANY DIRECT, INDIREC
      +                          T,
    52                           ; INCIDENTAL, SPECIAL, EXEMPLARY, OR CONSEQUENTIAL DAMAGES (INCLUDING BUT NOT LIMITED TO
    53                           ; PROCUREMENT OF SUBSTITUTE GOODS OR SERVICES; LOSS OF USE, DATA OR PROFITS; OR BUSINESS
    54                           ; INTERRUPTION) HOWSOEVER CAUSED AND ON ANY THEORY OF LIABILITY, WHETHER IN CONTRACT, ST
      +                          RICT
    55                           ; LIABILITY, OR TORT (INCLUDING NEGLIGENCE OR OTHERWISE) ARISING IN ANY WAY OUT OF THE U
      +                          SE OF
    56                           ; THIS SOFTWARE, EVEN IF ADVISED OF THE POSSIBILITY OF SUCH DAMAGE.
    57                           ; 
    58                           ; 
    59                           ; Code-generator required, PIC18F16Q40 Definitions
    60                           ; 
    61                           ; SFR Addresses
    62   0004E0                     bsr             equ	1248
    63   0004E9                     fsr0            equ	1257
    64   0004EA                     fsr0h           equ	1258
    65   0004E9                     fsr0l           equ	1257
    66   0004E1                     fsr1            equ	1249
    67   0004E2                     fsr1h           equ	1250
    68   0004E1                     fsr1l           equ	1249
    69   0004D9                     fsr2            equ	1241
    70   0004DA                     fsr2h           equ	1242
    71   0004D9                     fsr2l           equ	1241
    72   0004EF                     indf0           equ	1263
    73   0004E7                     indf1           equ	1255
    74   0004DF                     indf2           equ	1247
    75   0004D6                     intcon          equ	1238
    76   000041                     nvmcon          equ	65
    77   0004F9                     pcl             equ	1273
    78   0004FA                     pclath          equ	1274
    79   0004FB                     pclatu          equ	1275
    80   0004EB                     plusw0          equ	1259
    81   0004E3                     plusw1          equ	1251
    82   0004DB                     plusw2          equ	1243
    83   0004ED                     postdec0        equ	1261
    84   0004E5                     postdec1        equ	1253
    85   0004DD                     postdec2        equ	1245
    86   0004EE                     postinc0        equ	1262
    87   0004E6                     postinc1        equ	1254
    88   0004DE                     postinc2        equ	1246
    89   0004EC                     preinc0         equ	1260
    90   0004E4                     preinc1         equ	1252
    91   0004DC                     preinc2         equ	1244
    92   0004F3                     prod            equ	1267
    93   0004F4                     prodh           equ	1268
    94   0004F3                     prodl           equ	1267
    95   0004D8                     status          equ	1240
    96   0004F5                     tablat          equ	1269
    97   0004F6                     tblptr          equ	1270
    98   0004F7                     tblptrh         equ	1271
    99   0004F6                     tblptrl         equ	1270
   100   0004F8                     tblptru         equ	1272
   101   0004FD                     tosl            equ	1277
   102   0004E8                     wreg            equ	1256
   103   000039                     CLKRCON         equ	57	;# 
   104   00003A                     CLKRCLK         equ	58	;# 
   105   000040                     NVMCON0         equ	64	;# 
   106   000041                     NVMCON1         equ	65	;# 
   107   000042                     NVMLOCK         equ	66	;# 
   108   000043                     NVMADR          equ	67	;# 
   109   000043                     NVMADRL         equ	67	;# 
   110   000044                     NVMADRH         equ	68	;# 
   111   000045                     NVMADRU         equ	69	;# 
   112   000046                     NVMDAT          equ	70	;# 
   113   000046                     NVMDATL         equ	70	;# 
   114   000047                     NVMDATH         equ	71	;# 
   115   000048                     VREGCON         equ	72	;# 
   116   000049                     BORCON          equ	73	;# 
   117   00004A                     HLVDCON0        equ	74	;# 
   118   00004B                     HLVDCON1        equ	75	;# 
   119   00004C                     ZCDCON          equ	76	;# 
   120   000063                     PMD0            equ	99	;# 
   121   000064                     PMD1            equ	100	;# 
   122   000065                     PMD2            equ	101	;# 
   123   000066                     PMD3            equ	102	;# 
   124   000067                     PMD4            equ	103	;# 
   125   000068                     PMD5            equ	104	;# 
   126   00006A                     MD1CON0         equ	106	;# 
   127   00006B                     MD1CON1         equ	107	;# 
   128   00006C                     MD1SRC          equ	108	;# 
   129   00006D                     MD1CARL         equ	109	;# 
   130   00006E                     MD1CARH         equ	110	;# 
   131   00006F                     CMOUT           equ	111	;# 
   132   000070                     CM1CON0         equ	112	;# 
   133   000071                     CM1CON1         equ	113	;# 
   134   000072                     CM1NCH          equ	114	;# 
   135   000073                     CM1PCH          equ	115	;# 
   136   000074                     CM2CON0         equ	116	;# 
   137   000075                     CM2CON1         equ	117	;# 
   138   000076                     CM2NCH          equ	118	;# 
   139   000077                     CM2PCH          equ	119	;# 
   140   000078                     WDTCON0         equ	120	;# 
   141   000079                     WDTCON1         equ	121	;# 
   142   00007A                     WDTPS           equ	122	;# 
   143   00007A                     WDTPSL          equ	122	;# 
   144   00007B                     WDTPSH          equ	123	;# 
   145   00007C                     WDTTMR          equ	124	;# 
   146   00007D                     DAC1DAT         equ	125	;# 
   147   00007D                     DAC1DATL        equ	125	;# 
   148   00007F                     DAC1CON         equ	127	;# 
   149   000080                     SPI1RXB         equ	128	;# 
   150   000081                     SPI1TXB         equ	129	;# 
   151   000082                     SPI1TCNT        equ	130	;# 
   152   000082                     SPI1TCNTL       equ	130	;# 
   153   000083                     SPI1TCNTH       equ	131	;# 
   154   000084                     SPI1CON0        equ	132	;# 
   155   000085                     SPI1CON1        equ	133	;# 
   156   000086                     SPI1CON2        equ	134	;# 
   157   000087                     SPI1STATUS      equ	135	;# 
   158   000088                     SPI1TWIDTH      equ	136	;# 
   159   000089                     SPI1BAUD        equ	137	;# 
   160   00008A                     SPI1INTF        equ	138	;# 
   161   00008B                     SPI1INTE        equ	139	;# 
   162   00008C                     SPI1CLK         equ	140	;# 
   163   00008D                     SPI2RXB         equ	141	;# 
   164   00008E                     SPI2TXB         equ	142	;# 
   165   00008F                     SPI2TCNT        equ	143	;# 
   166   00008F                     SPI2TCNTL       equ	143	;# 
   167   000090                     SPI2TCNTH       equ	144	;# 
   168   000091                     SPI2CON0        equ	145	;# 
   169   000092                     SPI2CON1        equ	146	;# 
   170   000093                     SPI2CON2        equ	147	;# 
   171   000094                     SPI2STATUS      equ	148	;# 
   172   000095                     SPI2TWIDTH      equ	149	;# 
   173   000096                     SPI2BAUD        equ	150	;# 
   174   000097                     SPI2INTF        equ	151	;# 
   175   000098                     SPI2INTE        equ	152	;# 
   176   000099                     SPI2CLK         equ	153	;# 
   177   0000A0                     DAC2DAT         equ	160	;# 
   178   0000A0                     DAC2DATL        equ	160	;# 
   179   0000A2                     DAC2CON         equ	162	;# 
   180   0000AC                     ACTCON          equ	172	;# 
   181   0000AD                     OSCCON1         equ	173	;# 
   182   0000AE                     OSCCON2         equ	174	;# 
   183   0000AF                     OSCCON3         equ	175	;# 
   184   0000B0                     OSCTUNE         equ	176	;# 
   185   0000B1                     OSCFRQ          equ	177	;# 
   186   0000B1                     OSCFREQ         equ	177	;# 
   187   0000B2                     OSCSTAT         equ	178	;# 
   188   0000B2                     OSCSTAT1        equ	178	;# 
   189   0000B3                     OSCEN           equ	179	;# 
   190   0000B4                     PRLOCK          equ	180	;# 
   191   0000B5                     SCANPR          equ	181	;# 
   192   0000B6                     DMA1PR          equ	182	;# 
   193   0000B7                     DMA2PR          equ	183	;# 
   194   0000B8                     DMA3PR          equ	184	;# 
   195   0000B9                     DMA4PR          equ	185	;# 
   196   0000BE                     MAINPR          equ	190	;# 
   197   0000BF                     ISRPR           equ	191	;# 
   198   0000D4                     CLCDATA         equ	212	;# 
   199   0000D5                     CLCSELECT       equ	213	;# 
   200   0000D6                     CLCnCON         equ	214	;# 
   201   0000D7                     CLCnPOL         equ	215	;# 
   202   0000D8                     CLCnSEL0        equ	216	;# 
   203   0000D9                     CLCnSEL1        equ	217	;# 
   204   0000DA                     CLCnSEL2        equ	218	;# 
   205   0000DB                     CLCnSEL3        equ	219	;# 
   206   0000DC                     CLCnGLS0        equ	220	;# 
   207   0000DD                     CLCnGLS1        equ	221	;# 
   208   0000DE                     CLCnGLS2        equ	222	;# 
   209   0000DF                     CLCnGLS3        equ	223	;# 
   210   0000E8                     DMASELECT       equ	232	;# 
   211   0000E9                     DMAnBUF         equ	233	;# 
   212   0000EA                     DMAnDCNT        equ	234	;# 
   213   0000EA                     DMAnDCNTL       equ	234	;# 
   214   0000EB                     DMAnDCNTH       equ	235	;# 
   215   0000EC                     DMAnDPTR        equ	236	;# 
   216   0000EC                     DMAnDPTRL       equ	236	;# 
   217   0000ED                     DMAnDPTRH       equ	237	;# 
   218   0000EE                     DMAnDSZ         equ	238	;# 
   219   0000EE                     DMAnDSZL        equ	238	;# 
   220   0000EF                     DMAnDSZH        equ	239	;# 
   221   0000F0                     DMAnDSA         equ	240	;# 
   222   0000F0                     DMAnDSAL        equ	240	;# 
   223   0000F1                     DMAnDSAH        equ	241	;# 
   224   0000F2                     DMAnSCNT        equ	242	;# 
   225   0000F2                     DMAnSCNTL       equ	242	;# 
   226   0000F3                     DMAnSCNTH       equ	243	;# 
   227   0000F4                     DMAnSPTR        equ	244	;# 
   228   0000F4                     DMAnSPTRL       equ	244	;# 
   229   0000F5                     DMAnSPTRH       equ	245	;# 
   230   0000F6                     DMAnSPTRU       equ	246	;# 
   231   0000F7                     DMAnSSZ         equ	247	;# 
   232   0000F7                     DMAnSSZL        equ	247	;# 
   233   0000F8                     DMAnSSZH        equ	248	;# 
   234   0000F9                     DMAnSSA         equ	249	;# 
   235   0000F9                     DMAnSSAL        equ	249	;# 
   236   0000FA                     DMAnSSAH        equ	250	;# 
   237   0000FB                     DMAnSSAU        equ	251	;# 
   238   0000FC                     DMAnCON0        equ	252	;# 
   239   0000FD                     DMAnCON1        equ	253	;# 
   240   0000FE                     DMAnAIRQ        equ	254	;# 
   241   0000FF                     DMAnSIRQ        equ	255	;# 
   242   000200                     PPSLOCK         equ	512	;# 
   243   000201                     RA0PPS          equ	513	;# 
   244   000202                     RA1PPS          equ	514	;# 
   245   000203                     RA2PPS          equ	515	;# 
   246   000205                     RA4PPS          equ	517	;# 
   247   000206                     RA5PPS          equ	518	;# 
   248   00020D                     RB4PPS          equ	525	;# 
   249   00020E                     RB5PPS          equ	526	;# 
   250   00020F                     RB6PPS          equ	527	;# 
   251   000210                     RB7PPS          equ	528	;# 
   252   000211                     RC0PPS          equ	529	;# 
   253   000212                     RC1PPS          equ	530	;# 
   254   000213                     RC2PPS          equ	531	;# 
   255   000214                     RC3PPS          equ	532	;# 
   256   000215                     RC4PPS          equ	533	;# 
   257   000216                     RC5PPS          equ	534	;# 
   258   000217                     RC6PPS          equ	535	;# 
   259   000218                     RC7PPS          equ	536	;# 
   260   00023E                     INT0PPS         equ	574	;# 
   261   00023F                     INT1PPS         equ	575	;# 
   262   000240                     INT2PPS         equ	576	;# 
   263   000241                     T0CKIPPS        equ	577	;# 
   264   000242                     T1CKIPPS        equ	578	;# 
   265   000243                     T1GPPS          equ	579	;# 
   266   000244                     T3CKIPPS        equ	580	;# 
   267   000245                     T3GPPS          equ	581	;# 
   268   000248                     T2INPPS         equ	584	;# 
   269   000249                     T4INPPS         equ	585	;# 
   270   00024F                     CCP1PPS         equ	591	;# 
   271   000251                     PWM1ERSPPS      equ	593	;# 
   272   000252                     PWM2ERSPPS      equ	594	;# 
   273   000253                     PWM3ERSPPS      equ	595	;# 
   274   000257                     PWMIN0PPS       equ	599	;# 
   275   000258                     PWMIN1PPS       equ	600	;# 
   276   000259                     SMT1WINPPS      equ	601	;# 
   277   00025A                     SMT1SIGPPS      equ	602	;# 
   278   00025B                     CWG1PPS         equ	603	;# 
   279   00025B                     CWG1INPPS       equ	603	;# 
   280   00025E                     MD1CARLPPS      equ	606	;# 
   281   00025E                     MDCARLPPS       equ	606	;# 
   282   00025F                     MD1CARHPPS      equ	607	;# 
   283   00025F                     MDCARHPPS       equ	607	;# 
   284   000260                     MD1SRCPPS       equ	608	;# 
   285   000260                     MDSRCPPS        equ	608	;# 
   286   000261                     CLCIN0PPS       equ	609	;# 
   287   000262                     CLCIN1PPS       equ	610	;# 
   288   000263                     CLCIN2PPS       equ	611	;# 
   289   000264                     CLCIN3PPS       equ	612	;# 
   290   000269                     ADACTPPS        equ	617	;# 
   291   00026A                     SPI1SCKPPS      equ	618	;# 
   292   00026B                     SPI1SDIPPS      equ	619	;# 
   293   00026C                     SPI1SSPPS       equ	620	;# 
   294   00026D                     SPI2SCKPPS      equ	621	;# 
   295   00026E                     SPI2SDIPPS      equ	622	;# 
   296   00026F                     SPI2SSPPS       equ	623	;# 
   297   000270                     I2C1SDAPPS      equ	624	;# 
   298   000271                     I2C1SCLPPS      equ	625	;# 
   299   000272                     U1RXPPS         equ	626	;# 
   300   000273                     U1CTSPPS        equ	627	;# 
   301   000274                     U2RXPPS         equ	628	;# 
   302   000275                     U2CTSPPS        equ	629	;# 
   303   000276                     U3RXPPS         equ	630	;# 
   304   000277                     U3CTSPPS        equ	631	;# 
   305   000286                     RB6I2C          equ	646	;# 
   306   000287                     RB4I2C          equ	647	;# 
   307   00028A                     I2C1RXB         equ	650	;# 
   308   00028B                     I2C1TXB         equ	651	;# 
   309   00028C                     I2C1CNTL        equ	652	;# 
   310   00028D                     I2C1CNTH        equ	653	;# 
   311   00028E                     I2C1ADB0        equ	654	;# 
   312   00028F                     I2C1ADB1        equ	655	;# 
   313   000290                     I2C1ADR0        equ	656	;# 
   314   000291                     I2C1ADR1        equ	657	;# 
   315   000292                     I2C1ADR2        equ	658	;# 
   316   000293                     I2C1ADR3        equ	659	;# 
   317   000294                     I2C1CON0        equ	660	;# 
   318   000295                     I2C1CON1        equ	661	;# 
   319   000296                     I2C1CON2        equ	662	;# 
   320   000297                     I2C1ERR         equ	663	;# 
   321   000298                     I2C1STAT0       equ	664	;# 
   322   000299                     I2C1STAT1       equ	665	;# 
   323   00029A                     I2C1PIR         equ	666	;# 
   324   00029B                     I2C1PIE         equ	667	;# 
   325   00029C                     I2C1BTO         equ	668	;# 
   326   00029D                     I2C1BAUD        equ	669	;# 
   327   00029E                     I2C1CLK         equ	670	;# 
   328   00029F                     I2C1BTOC        equ	671	;# 
   329   0002A1                     U1RXB           equ	673	;# 
   330   0002A1                     U1RXBL          equ	673	;# 
   331   0002A2                     U1RXCHK         equ	674	;# 
   332   0002A3                     U1TXB           equ	675	;# 
   333   0002A3                     U1TXBL          equ	675	;# 
   334   0002A4                     U1TXCHK         equ	676	;# 
   335   0002A5                     U1P1            equ	677	;# 
   336   0002A5                     U1P1L           equ	677	;# 
   337   0002A6                     U1P1H           equ	678	;# 
   338   0002A7                     U1P2            equ	679	;# 
   339   0002A7                     U1P2L           equ	679	;# 
   340   0002A8                     U1P2H           equ	680	;# 
   341   0002A9                     U1P3            equ	681	;# 
   342   0002A9                     U1P3L           equ	681	;# 
   343   0002AA                     U1P3H           equ	682	;# 
   344   0002AB                     U1CON0          equ	683	;# 
   345   0002AC                     U1CON1          equ	684	;# 
   346   0002AD                     U1CON2          equ	685	;# 
   347   0002AE                     U1BRG           equ	686	;# 
   348   0002AE                     U1BRGL          equ	686	;# 
   349   0002AF                     U1BRGH          equ	687	;# 
   350   0002B0                     U1FIFO          equ	688	;# 
   351   0002B1                     U1UIR           equ	689	;# 
   352   0002B2                     U1ERRIR         equ	690	;# 
   353   0002B3                     U1ERRIE         equ	691	;# 
   354   0002B4                     U2RXB           equ	692	;# 
   355   0002B4                     U2RXBL          equ	692	;# 
   356   0002B6                     U2TXB           equ	694	;# 
   357   0002B6                     U2TXBL          equ	694	;# 
   358   0002B8                     U2P1            equ	696	;# 
   359   0002B8                     U2P1L           equ	696	;# 
   360   0002BA                     U2P2            equ	698	;# 
   361   0002BA                     U2P2L           equ	698	;# 
   362   0002BC                     U2P3            equ	700	;# 
   363   0002BC                     U2P3L           equ	700	;# 
   364   0002BE                     U2CON0          equ	702	;# 
   365   0002BF                     U2CON1          equ	703	;# 
   366   0002C0                     U2CON2          equ	704	;# 
   367   0002C1                     U2BRG           equ	705	;# 
   368   0002C1                     U2BRGL          equ	705	;# 
   369   0002C2                     U2BRGH          equ	706	;# 
   370   0002C3                     U2FIFO          equ	707	;# 
   371   0002C4                     U2UIR           equ	708	;# 
   372   0002C5                     U2ERRIR         equ	709	;# 
   373   0002C6                     U2ERRIE         equ	710	;# 
   374   0002C7                     U3RXB           equ	711	;# 
   375   0002C7                     U3RXBL          equ	711	;# 
   376   0002C9                     U3TXB           equ	713	;# 
   377   0002C9                     U3TXBL          equ	713	;# 
   378   0002CB                     U3P1            equ	715	;# 
   379   0002CB                     U3P1L           equ	715	;# 
   380   0002CD                     U3P2            equ	717	;# 
   381   0002CD                     U3P2L           equ	717	;# 
   382   0002CF                     U3P3            equ	719	;# 
   383   0002CF                     U3P3L           equ	719	;# 
   384   0002D1                     U3CON0          equ	721	;# 
   385   0002D2                     U3CON1          equ	722	;# 
   386   0002D3                     U3CON2          equ	723	;# 
   387   0002D4                     U3BRG           equ	724	;# 
   388   0002D4                     U3BRGL          equ	724	;# 
   389   0002D5                     U3BRGH          equ	725	;# 
   390   0002D6                     U3FIFO          equ	726	;# 
   391   0002D7                     U3UIR           equ	727	;# 
   392   0002D8                     U3ERRIR         equ	728	;# 
   393   0002D9                     U3ERRIE         equ	729	;# 
   394   000300                     SMT1TMR         equ	768	;# 
   395   000300                     SMT1TMRL        equ	768	;# 
   396   000301                     SMT1TMRH        equ	769	;# 
   397   000302                     SMT1TMRU        equ	770	;# 
   398   000303                     SMT1CPR         equ	771	;# 
   399   000303                     SMT1CPRL        equ	771	;# 
   400   000304                     SMT1CPRH        equ	772	;# 
   401   000305                     SMT1CPRU        equ	773	;# 
   402   000306                     SMT1CPW         equ	774	;# 
   403   000306                     SMT1CPWL        equ	774	;# 
   404   000307                     SMT1CPWH        equ	775	;# 
   405   000308                     SMT1CPWU        equ	776	;# 
   406   000309                     SMT1PR          equ	777	;# 
   407   000309                     SMT1PRL         equ	777	;# 
   408   00030A                     SMT1PRH         equ	778	;# 
   409   00030B                     SMT1PRU         equ	779	;# 
   410   00030C                     SMT1CON0        equ	780	;# 
   411   00030D                     SMT1CON1        equ	781	;# 
   412   00030E                     SMT1STAT        equ	782	;# 
   413   00030F                     SMT1CLK         equ	783	;# 
   414   000310                     SMT1SIG         equ	784	;# 
   415   000311                     SMT1WIN         equ	785	;# 
   416   000312                     TMR1            equ	786	;# 
   417   000312                     TMR1L           equ	786	;# 
   418   000313                     TMR1H           equ	787	;# 
   419   000314                     T1CON           equ	788	;# 
   420   000314                     TMR1CON         equ	788	;# 
   421   000315                     T1GCON          equ	789	;# 
   422   000315                     TMR1GCON        equ	789	;# 
   423   000316                     T1GATE          equ	790	;# 
   424   000316                     TMR1GATE        equ	790	;# 
   425   000317                     T1CLK           equ	791	;# 
   426   000317                     TMR1CLK         equ	791	;# 
   427   000317                     PR1             equ	791	;# 
   428   000318                     TMR0L           equ	792	;# 
   429   000318                     TMR0            equ	792	;# 
   430   000319                     TMR0H           equ	793	;# 
   431   000319                     PR0             equ	793	;# 
   432   00031A                     T0CON0          equ	794	;# 
   433   00031B                     T0CON1          equ	795	;# 
   434   00031C                     T2TMR           equ	796	;# 
   435   00031C                     TMR2            equ	796	;# 
   436   00031D                     T2PR            equ	797	;# 
   437   00031D                     PR2             equ	797	;# 
   438   00031E                     T2CON           equ	798	;# 
   439   00031F                     T2HLT           equ	799	;# 
   440   000320                     T2CLKCON        equ	800	;# 
   441   000320                     T2CLK           equ	800	;# 
   442   000321                     T2RST           equ	801	;# 
   443   000323                     TMR3            equ	803	;# 
   444   000323                     TMR3L           equ	803	;# 
   445   000324                     TMR3H           equ	804	;# 
   446   000325                     T3CON           equ	805	;# 
   447   000325                     TMR3CON         equ	805	;# 
   448   000326                     T3GCON          equ	806	;# 
   449   000326                     TMR3GCON        equ	806	;# 
   450   000327                     T3GATE          equ	807	;# 
   451   000327                     TMR3GATE        equ	807	;# 
   452   000328                     T3CLK           equ	808	;# 
   453   000328                     TMR3CLK         equ	808	;# 
   454   000328                     PR3             equ	808	;# 
   455   000329                     T4TMR           equ	809	;# 
   456   000329                     TMR4            equ	809	;# 
   457   00032A                     T4PR            equ	810	;# 
   458   00032A                     PR4             equ	810	;# 
   459   00032B                     T4CON           equ	811	;# 
   460   00032C                     T4HLT           equ	812	;# 
   461   00032D                     T4CLKCON        equ	813	;# 
   462   00032D                     T4CLK           equ	813	;# 
   463   00032E                     T4RST           equ	814	;# 
   464   000340                     CCPR1           equ	832	;# 
   465   000340                     CCPR1L          equ	832	;# 
   466   000341                     CCPR1H          equ	833	;# 
   467   000342                     CCP1CON         equ	834	;# 
   468   000343                     CCP1CAP         equ	835	;# 
   469   00034C                     CCPTMRS0        equ	844	;# 
   470   00034E                     CRCDATA         equ	846	;# 
   471   00034E                     CRCDATAL        equ	846	;# 
   472   00034F                     CRCDATAH        equ	847	;# 
   473   000350                     CRCDATAU        equ	848	;# 
   474   000351                     CRCDATAT        equ	849	;# 
   475   000352                     CRCOUT          equ	850	;# 
   476   000352                     CRCSHFT         equ	850	;# 
   477   000352                     CRCXOR          equ	850	;# 
   478   000352                     CRCOUTL         equ	850	;# 
   479   000352                     CRCSHFTL        equ	850	;# 
   480   000352                     CRCSHIFTL       equ	850	;# 
   481   000352                     CRCXORL         equ	850	;# 
   482   000353                     CRCOUTH         equ	851	;# 
   483   000353                     CRCSHFTH        equ	851	;# 
   484   000353                     CRCSHIFTH       equ	851	;# 
   485   000353                     CRCXORH         equ	851	;# 
   486   000354                     CRCOUTU         equ	852	;# 
   487   000354                     CRCSHFTU        equ	852	;# 
   488   000354                     CRCSHIFTU       equ	852	;# 
   489   000354                     CRCXORU         equ	852	;# 
   490   000355                     CRCOUTT         equ	853	;# 
   491   000355                     CRCSHFTT        equ	853	;# 
   492   000355                     CRCSHIFTT       equ	853	;# 
   493   000355                     CRCXORT         equ	853	;# 
   494   000356                     CRCCON0         equ	854	;# 
   495   000357                     CRCCON1         equ	855	;# 
   496   000358                     CRCCON2         equ	856	;# 
   497   00035A                     SCANLADR        equ	858	;# 
   498   00035A                     SCANLADRL       equ	858	;# 
   499   00035B                     SCANLADRH       equ	859	;# 
   500   00035C                     SCANLADRU       equ	860	;# 
   501   00035D                     SCANHADR        equ	861	;# 
   502   00035D                     SCANHADRL       equ	861	;# 
   503   00035E                     SCANHADRH       equ	862	;# 
   504   00035F                     SCANHADRU       equ	863	;# 
   505   000360                     SCANCON0        equ	864	;# 
   506   000361                     SCANTRIG        equ	865	;# 
   507   000367                     IPR0            equ	871	;# 
   508   000368                     IPR1            equ	872	;# 
   509   000369                     IPR2            equ	873	;# 
   510   00036A                     IPR3            equ	874	;# 
   511   00036B                     IPR4            equ	875	;# 
   512   00036C                     IPR5            equ	876	;# 
   513   00036D                     IPR6            equ	877	;# 
   514   00036E                     IPR7            equ	878	;# 
   515   00036F                     IPR8            equ	879	;# 
   516   000370                     IPR9            equ	880	;# 
   517   000371                     IPR10           equ	881	;# 
   518   000373                     STATUS_CSHAD    equ	883	;# 
   519   000374                     WREG_CSHAD      equ	884	;# 
   520   000375                     BSR_CSHAD       equ	885	;# 
   521   000376                     SHADCON         equ	886	;# 
   522   000377                     STATUS_SHAD     equ	887	;# 
   523   000378                     WREG_SHAD       equ	888	;# 
   524   000379                     BSR_SHAD        equ	889	;# 
   525   00037A                     PCLATH_SHAD     equ	890	;# 
   526   00037B                     PCLATU_SHAD     equ	891	;# 
   527   00037C                     FSR0SH          equ	892	;# 
   528   00037C                     FSR0L_SHAD      equ	892	;# 
   529   00037D                     FSR0H_SHAD      equ	893	;# 
   530   00037E                     FSR1SH          equ	894	;# 
   531   00037E                     FSR1L_SHAD      equ	894	;# 
   532   00037F                     FSR1H_SHAD      equ	895	;# 
   533   000380                     FSR2SH          equ	896	;# 
   534   000380                     FSR2L_SHAD      equ	896	;# 
   535   000381                     FSR2H_SHAD      equ	897	;# 
   536   000382                     PRODSH          equ	898	;# 
   537   000382                     PRODL_SHAD      equ	898	;# 
   538   000383                     PRODH_SHAD      equ	899	;# 
   539   0003BC                     CWG1CLK         equ	956	;# 
   540   0003BC                     CWG1CLKCON      equ	956	;# 
   541   0003BD                     CWG1ISM         equ	957	;# 
   542   0003BD                     CWG1DAT         equ	957	;# 
   543   0003BE                     CWG1DBR         equ	958	;# 
   544   0003BF                     CWG1DBF         equ	959	;# 
   545   0003C0                     CWG1CON0        equ	960	;# 
   546   0003C1                     CWG1CON1        equ	961	;# 
   547   0003C2                     CWG1AS0         equ	962	;# 
   548   0003C3                     CWG1AS1         equ	963	;# 
   549   0003C4                     CWG1STR         equ	964	;# 
   550   0003D7                     FVRCON          equ	983	;# 
   551   0003D8                     ADCPCON         equ	984	;# 
   552   0003D8                     ADCP            equ	984	;# 
   553   0003D9                     ADLTH           equ	985	;# 
   554   0003D9                     ADLTHL          equ	985	;# 
   555   0003DA                     ADLTHH          equ	986	;# 
   556   0003DB                     ADUTH           equ	987	;# 
   557   0003DB                     ADUTHL          equ	987	;# 
   558   0003DC                     ADUTHH          equ	988	;# 
   559   0003DD                     ADERR           equ	989	;# 
   560   0003DD                     ADERRL          equ	989	;# 
   561   0003DE                     ADERRH          equ	990	;# 
   562   0003DF                     ADSTPT          equ	991	;# 
   563   0003DF                     ADSTPTL         equ	991	;# 
   564   0003E0                     ADSTPTH         equ	992	;# 
   565   0003E1                     ADFLTR          equ	993	;# 
   566   0003E1                     ADFLTRL         equ	993	;# 
   567   0003E2                     ADFLTRH         equ	994	;# 
   568   0003E3                     ADACC           equ	995	;# 
   569   0003E3                     ADACCL          equ	995	;# 
   570   0003E4                     ADACCH          equ	996	;# 
   571   0003E5                     ADACCU          equ	997	;# 
   572   0003E6                     ADCNT           equ	998	;# 
   573   0003E7                     ADRPT           equ	999	;# 
   574   0003E8                     ADPREV          equ	1000	;# 
   575   0003E8                     ADPREVL         equ	1000	;# 
   576   0003E9                     ADPREVH         equ	1001	;# 
   577   0003EA                     ADRES           equ	1002	;# 
   578   0003EA                     ADRESL          equ	1002	;# 
   579   0003EB                     ADRESH          equ	1003	;# 
   580   0003EC                     ADPCH           equ	1004	;# 
   581   0003EE                     ADACQ           equ	1006	;# 
   582   0003EE                     ADACQL          equ	1006	;# 
   583   0003EF                     ADACQH          equ	1007	;# 
   584   0003F0                     ADCAP           equ	1008	;# 
   585   0003F1                     ADPRE           equ	1009	;# 
   586   0003F1                     ADPREL          equ	1009	;# 
   587   0003F2                     ADPREH          equ	1010	;# 
   588   0003F3                     ADCON0          equ	1011	;# 
   589   0003F4                     ADCON1          equ	1012	;# 
   590   0003F5                     ADCON2          equ	1013	;# 
   591   0003F6                     ADCON3          equ	1014	;# 
   592   0003F7                     ADSTAT          equ	1015	;# 
   593   0003F8                     ADREF           equ	1016	;# 
   594   0003F9                     ADACT           equ	1017	;# 
   595   0003FA                     ADCLK           equ	1018	;# 
   596   000400                     ANSELA          equ	1024	;# 
   597   000401                     WPUA            equ	1025	;# 
   598   000402                     ODCONA          equ	1026	;# 
   599   000403                     SLRCONA         equ	1027	;# 
   600   000404                     INLVLA          equ	1028	;# 
   601   000405                     IOCAP           equ	1029	;# 
   602   000406                     IOCAN           equ	1030	;# 
   603   000407                     IOCAF           equ	1031	;# 
   604   000408                     ANSELB          equ	1032	;# 
   605   000409                     WPUB            equ	1033	;# 
   606   00040A                     ODCONB          equ	1034	;# 
   607   00040B                     SLRCONB         equ	1035	;# 
   608   00040C                     INLVLB          equ	1036	;# 
   609   00040D                     IOCBP           equ	1037	;# 
   610   00040E                     IOCBN           equ	1038	;# 
   611   00040F                     IOCBF           equ	1039	;# 
   612   000410                     ANSELC          equ	1040	;# 
   613   000411                     WPUC            equ	1041	;# 
   614   000412                     ODCONC          equ	1042	;# 
   615   000413                     SLRCONC         equ	1043	;# 
   616   000414                     INLVLC          equ	1044	;# 
   617   000415                     IOCCP           equ	1045	;# 
   618   000416                     IOCCN           equ	1046	;# 
   619   000417                     IOCCF           equ	1047	;# 
   620   000440                     NCO1ACC         equ	1088	;# 
   621   000440                     NCO1ACCL        equ	1088	;# 
   622   000441                     NCO1ACCH        equ	1089	;# 
   623   000442                     NCO1ACCU        equ	1090	;# 
   624   000443                     NCO1INC         equ	1091	;# 
   625   000443                     NCO1INCL        equ	1091	;# 
   626   000444                     NCO1INCH        equ	1092	;# 
   627   000445                     NCO1INCU        equ	1093	;# 
   628   000446                     NCO1CON         equ	1094	;# 
   629   000447                     NCO1CLK         equ	1095	;# 
   630   000458                     FSCMCON         equ	1112	;# 
   631   000459                     IVTLOCK         equ	1113	;# 
   632   00045A                     IVTAD           equ	1114	;# 
   633   00045A                     IVTADL          equ	1114	;# 
   634   00045B                     IVTADH          equ	1115	;# 
   635   00045C                     IVTADU          equ	1116	;# 
   636   00045D                     IVTBASE         equ	1117	;# 
   637   00045D                     IVTBASEL        equ	1117	;# 
   638   00045E                     IVTBASEH        equ	1118	;# 
   639   00045F                     IVTBASEU        equ	1119	;# 
   640   000460                     PWM1ERS         equ	1120	;# 
   641   000461                     PWM1CLK         equ	1121	;# 
   642   000462                     PWM1LDS         equ	1122	;# 
   643   000463                     PWM1PR          equ	1123	;# 
   644   000463                     PWM1PRL         equ	1123	;# 
   645   000464                     PWM1PRH         equ	1124	;# 
   646   000465                     PWM1CPRE        equ	1125	;# 
   647   000466                     PWM1PIPOS       equ	1126	;# 
   648   000467                     PWM1GIR         equ	1127	;# 
   649   000468                     PWM1GIE         equ	1128	;# 
   650   000469                     PWM1CON         equ	1129	;# 
   651   00046A                     PWM1S1CFG       equ	1130	;# 
   652   00046B                     PWM1S1P1        equ	1131	;# 
   653   00046B                     PWM1S1P1L       equ	1131	;# 
   654   00046C                     PWM1S1P1H       equ	1132	;# 
   655   00046D                     PWM1S1P2        equ	1133	;# 
   656   00046D                     PWM1S1P2L       equ	1133	;# 
   657   00046E                     PWM1S1P2H       equ	1134	;# 
   658   00046F                     PWM2ERS         equ	1135	;# 
   659   000470                     PWM2CLK         equ	1136	;# 
   660   000471                     PWM2LDS         equ	1137	;# 
   661   000472                     PWM2PR          equ	1138	;# 
   662   000472                     PWM2PRL         equ	1138	;# 
   663   000473                     PWM2PRH         equ	1139	;# 
   664   000474                     PWM2CPRE        equ	1140	;# 
   665   000475                     PWM2PIPOS       equ	1141	;# 
   666   000476                     PWM2GIR         equ	1142	;# 
   667   000477                     PWM2GIE         equ	1143	;# 
   668   000478                     PWM2CON         equ	1144	;# 
   669   000479                     PWM2S1CFG       equ	1145	;# 
   670   00047A                     PWM2S1P1        equ	1146	;# 
   671   00047A                     PWM2S1P1L       equ	1146	;# 
   672   00047B                     PWM2S1P1H       equ	1147	;# 
   673   00047C                     PWM2S1P2        equ	1148	;# 
   674   00047C                     PWM2S1P2L       equ	1148	;# 
   675   00047D                     PWM2S1P2H       equ	1149	;# 
   676   00047E                     PWM3ERS         equ	1150	;# 
   677   00047F                     PWM3CLK         equ	1151	;# 
   678   000480                     PWM3LDS         equ	1152	;# 
   679   000481                     PWM3PR          equ	1153	;# 
   680   000481                     PWM3PRL         equ	1153	;# 
   681   000482                     PWM3PRH         equ	1154	;# 
   682   000483                     PWM3CPRE        equ	1155	;# 
   683   000484                     PWM3PIPOS       equ	1156	;# 
   684   000485                     PWM3GIR         equ	1157	;# 
   685   000486                     PWM3GIE         equ	1158	;# 
   686   000487                     PWM3CON         equ	1159	;# 
   687   000488                     PWM3S1CFG       equ	1160	;# 
   688   000489                     PWM3S1P1        equ	1161	;# 
   689   000489                     PWM3S1P1L       equ	1161	;# 
   690   00048A                     PWM3S1P1H       equ	1162	;# 
   691   00048B                     PWM3S1P2        equ	1163	;# 
   692   00048B                     PWM3S1P2L       equ	1163	;# 
   693   00048C                     PWM3S1P2H       equ	1164	;# 
   694   00049C                     PWMLOAD         equ	1180	;# 
   695   00049D                     PWMEN           equ	1181	;# 
   696   0004A8                     PIE0            equ	1192	;# 
   697   0004A9                     PIE1            equ	1193	;# 
   698   0004AA                     PIE2            equ	1194	;# 
   699   0004AB                     PIE3            equ	1195	;# 
   700   0004AC                     PIE4            equ	1196	;# 
   701   0004AD                     PIE5            equ	1197	;# 
   702   0004AE                     PIE6            equ	1198	;# 
   703   0004AF                     PIE7            equ	1199	;# 
   704   0004B0                     PIE8            equ	1200	;# 
   705   0004B1                     PIE9            equ	1201	;# 
   706   0004B2                     PIE10           equ	1202	;# 
   707   0004B3                     PIR0            equ	1203	;# 
   708   0004B4                     PIR1            equ	1204	;# 
   709   0004B5                     PIR2            equ	1205	;# 
   710   0004B6                     PIR3            equ	1206	;# 
   711   0004B7                     PIR4            equ	1207	;# 
   712   0004B8                     PIR5            equ	1208	;# 
   713   0004B9                     PIR6            equ	1209	;# 
   714   0004BA                     PIR7            equ	1210	;# 
   715   0004BB                     PIR8            equ	1211	;# 
   716   0004BC                     PIR9            equ	1212	;# 
   717   0004BD                     PIR10           equ	1213	;# 
   718   0004BE                     LATA            equ	1214	;# 
   719   0004BF                     LATB            equ	1215	;# 
   720   0004C0                     LATC            equ	1216	;# 
   721   0004C6                     TRISA           equ	1222	;# 
   722   0004C7                     TRISB           equ	1223	;# 
   723   0004C8                     TRISC           equ	1224	;# 
   724   0004CE                     PORTA           equ	1230	;# 
   725   0004CF                     PORTB           equ	1231	;# 
   726   0004D0                     PORTC           equ	1232	;# 
   727   0004D6                     INTCON0         equ	1238	;# 
   728   0004D7                     INTCON1         equ	1239	;# 
   729   0004D8                     STATUS          equ	1240	;# 
   730   0004D9                     FSR2            equ	1241	;# 
   731   0004D9                     FSR2L           equ	1241	;# 
   732   0004DA                     FSR2H           equ	1242	;# 
   733   0004DB                     PLUSW2          equ	1243	;# 
   734   0004DC                     PREINC2         equ	1244	;# 
   735   0004DD                     POSTDEC2        equ	1245	;# 
   736   0004DE                     POSTINC2        equ	1246	;# 
   737   0004DF                     INDF2           equ	1247	;# 
   738   0004E0                     BSR             equ	1248	;# 
   739   0004E1                     FSR1            equ	1249	;# 
   740   0004E1                     FSR1L           equ	1249	;# 
   741   0004E2                     FSR1H           equ	1250	;# 
   742   0004E3                     PLUSW1          equ	1251	;# 
   743   0004E4                     PREINC1         equ	1252	;# 
   744   0004E5                     POSTDEC1        equ	1253	;# 
   745   0004E6                     POSTINC1        equ	1254	;# 
   746   0004E7                     INDF1           equ	1255	;# 
   747   0004E8                     WREG            equ	1256	;# 
   748   0004E9                     FSR0            equ	1257	;# 
   749   0004E9                     FSR0L           equ	1257	;# 
   750   0004EA                     FSR0H           equ	1258	;# 
   751   0004EB                     PLUSW0          equ	1259	;# 
   752   0004EC                     PREINC0         equ	1260	;# 
   753   0004ED                     POSTDEC0        equ	1261	;# 
   754   0004EE                     POSTINC0        equ	1262	;# 
   755   0004EF                     INDF0           equ	1263	;# 
   756   0004F0                     PCON0           equ	1264	;# 
   757   0004F1                     PCON1           equ	1265	;# 
   758   0004F2                     CPUDOZE         equ	1266	;# 
   759   0004F3                     PROD            equ	1267	;# 
   760   0004F3                     PRODL           equ	1267	;# 
   761   0004F4                     PRODH           equ	1268	;# 
   762   0004F5                     TABLAT          equ	1269	;# 
   763   0004F6                     TBLPTR          equ	1270	;# 
   764   0004F6                     TBLPTRL         equ	1270	;# 
   765   0004F7                     TBLPTRH         equ	1271	;# 
   766   0004F8                     TBLPTRU         equ	1272	;# 
   767   0004F9                     PCLAT           equ	1273	;# 
   768   0004F9                     PCL             equ	1273	;# 
   769   0004FA                     PCLATH          equ	1274	;# 
   770   0004FB                     PCLATU          equ	1275	;# 
   771   0004FC                     STKPTR          equ	1276	;# 
   772   0004FD                     TOS             equ	1277	;# 
   773   0004FD                     TOSL            equ	1277	;# 
   774   0004FE                     TOSH            equ	1278	;# 
   775   0004FF                     TOSU            equ	1279	;# 
   776   000070                     _CM1CON0        set	112
   777   0000B1                     _OSCFRQ         set	177
   778   0000AD                     _OSCCON1        set	173
   779   000312                     _TMR1L          set	786
   780   000313                     _TMR1H          set	787
   781   000314                     _TMR1CONbits    set	788
   782   0003F3                     _ADCON0bits     set	1011
   783   000407                     _IOCAFbits      set	1031
   784   000406                     _IOCANbits      set	1030
   785   000405                     _IOCAPbits      set	1029
   786   000401                     _WPUAbits       set	1025
   787   000401                     _WPUA           set	1025
   788   000403                     _SLRCONA        set	1027
   789   000402                     _ODCONA         set	1026
   790   000410                     _ANSELC         set	1040
   791   000400                     _ANSELA         set	1024
   792   0004CE                     _PORTAbits      set	1230
   793   0004D6                     _INTCON0bits    set	1238
   794   0004A8                     _PIE0bits       set	1192
   795   0004B3                     _PIR0bits       set	1203
   796   0004AB                     _PIE3bits       set	1195
   797   0004B6                     _PIR3bits       set	1206
   798   0004BE                     _LATAbits       set	1214
   799   0004C8                     _TRISCbits      set	1224
   800   0004C6                     _TRISAbits      set	1222
   801   0004C0                     _LATC           set	1216
   802   0004BE                     _LATA           set	1214
   803   0004C0                     _LATCbits       set	1216
   804                           
   805                           ; #config settings
   806                           
   807                           	psect	cinit
   808   001928                     __pcinit:
   809                           	callstack 0
   810   001928                     start_initialization:
   811                           	callstack 0
   812   001928                     __initialization:
   813                           	callstack 0
   814                           
   815                           ; Clear objects allocated to COMRAM (9 bytes)
   816   001928  EE01  F101         	lfsr	0,__pbssCOMRAM
   817   00192C  0E09               	movlw	9
   818   00192E                     clear_0:
   819   00192E  6AEE               	clrf	postinc0,c
   820   001930  06E8               	decf	wreg,f,c
   821   001932  E1FD               	bnz	clear_0
   822                           
   823                           ;
   824                           ; Setup IVTBASE
   825                           ;
   826   00045D                     IVTBASEL        equ	1117
   827   00045E                     IVTBASEH        equ	1118
   828   00045F                     IVTBASEU        equ	1119
   829   001934  0104               	movlb	4
   830   001936  0E08               	movlw	(ivt0x8_base shr 0)& (0+255)
   831   001938  6F5D               	movwf	93,b
   832   00193A  0E00               	movlw	(ivt0x8_base shr (0+8))& (0+255)
   833   00193C  6F5E               	movwf	94,b
   834   00193E  0E00               	movlw	(ivt0x8_base shr (0+16))& (0+255)
   835   001940  6F5F               	movwf	95,b
   836   001942                     end_of_initialization:
   837                           	callstack 0
   838   001942                     __end_of__initialization:
   839                           	callstack 0
   840   001942  0100               	movlb	0
   841   001944  EF01  F00B         	goto	_main	;jump to C main() function
   842                           
   843                           	psect	bssCOMRAM
   844   000501                     __pbssCOMRAM:
   845                           	callstack 0
   846   000501                     _tx_retry_cooldown_ms:
   847                           	callstack 0
   848   000501                     	ds	2
   849   000503                     _minute_count_latched:
   850                           	callstack 0
   851   000503                     	ds	2
   852   000505                     _pulse_count:
   853                           	callstack 0
   854   000505                     	ds	2
   855   000507                     _led_pulse_ticks:
   856                           	callstack 0
   857   000507                     	ds	1
   858   000508                     _sec_ticks:
   859                           	callstack 0
   860   000508                     	ds	1
   861   000509                     _minute_ready:
   862                           	callstack 0
   863   000509                     	ds	1
   864                           
   865                           	psect	cstackCOMRAM
   866   00050A                     __pcstackCOMRAM:
   867                           	callstack 0
   868   00050A                     wait_for_photon_start@timeout_ms:
   869                           	callstack 0
   870   00050A                     wait_for_ack_8clocks@timeout_ms:
   871                           	callstack 0
   872   00050A                     ??_send_bit:
   873   00050A                     
   874                           ; 1 bytes @ 0x0
   875   00050A                     	ds	1
   876   00050B                     send_bit@b:
   877                           	callstack 0
   878                           
   879                           ; 1 bytes @ 0x1
   880   00050B                     	ds	1
   881   00050C                     send_byte@v:
   882                           	callstack 0
   883   00050C                     wait_for_ack_8clocks@count:
   884                           	callstack 0
   885   00050C                     
   886                           ; 1 bytes @ 0x2
   887   00050C                     	ds	1
   888   00050D                     send_byte@i:
   889                           	callstack 0
   890                           
   891                           ; 1 bytes @ 0x3
   892   00050D                     	ds	1
   893   00050E                     service_particle_readout@c:
   894                           	callstack 0
   895   00050E                     
   896                           ; 1 bytes @ 0x4
   897   00050E                     	ds	2
   898   000510                     service_particle_readout@gie_was_enabled:
   899                           	callstack 0
   900                           
   901                           ; 1 bytes @ 0x6
   902   000510                     	ds	1
   903   000511                     
   904                           ; 1 bytes @ 0x7
   905 ;;
   906 ;;Main: autosize = 0, tempsize = 0, incstack = 0, save=0
   907 ;;
   908 ;; *************** function _main *****************
   909 ;; Defined at:
   910 ;;		line 315 in file "main.c"
   911 ;; Parameters:    Size  Location     Type
   912 ;;		None
   913 ;; Auto vars:     Size  Location     Type
   914 ;;		None
   915 ;; Return value:  Size  Location     Type
   916 ;;                  1    wreg      void 
   917 ;; Registers used:
   918 ;;		wreg, status,2, status,0, cstack
   919 ;; Tracked objects:
   920 ;;		On entry : 0/0
   921 ;;		On exit  : 0/0
   922 ;;		Unchanged: 0/0
   923 ;; Data sizes:     COMRAM   BANK5   BANK6   BANK7   BANK8   BANK9  BANK10  BANK11  BANK12  BANK13  BANK14  BANK15  BANK1
      +6  BANK17  BANK18  BANK19  BANK20
   924 ;;      Params:         0       0       0       0       0       0       0       0       0       0       0       0       
      +0       0       0       0       0
   925 ;;      Locals:         0       0       0       0       0       0       0       0       0       0       0       0       
      +0       0       0       0       0
   926 ;;      Temps:          0       0       0       0       0       0       0       0       0       0       0       0       
      +0       0       0       0       0
   927 ;;      Totals:         0       0       0       0       0       0       0       0       0       0       0       0       
      +0       0       0       0       0
   928 ;;Total ram usage:        0 bytes
   929 ;; Hardware stack levels required when called: 5
   930 ;; This function calls:
   931 ;;		_clock_init
   932 ;;		_gpio_init
   933 ;;		_interrupt_init
   934 ;;		_ioc_init
   935 ;;		_pps_init
   936 ;;		_service_particle_readout
   937 ;;		_timer1_init_1s
   938 ;; This function is called by:
   939 ;;		Startup code after reset
   940 ;; This function uses a non-reentrant model
   941 ;;
   942                           
   943                           	psect	text0
   944   001602                     __ptext0:
   945                           	callstack 0
   946   001602                     _main:
   947                           	callstack 122
   948   001602                     
   949                           ;main.c: 317:   clock_init();
   950   001602  ECB2  F00C         	call	_clock_init	;wreg free
   951   001606                     
   952                           ;main.c: 318:   gpio_init();
   953   001606  EC5F  F00C         	call	_gpio_init	;wreg free
   954   00160A                     
   955                           ;main.c: 319:   pps_init();
   956   00160A  ECC8  F00C         	call	_pps_init	;wreg free
   957   00160E                     
   958                           ;main.c: 320:   ioc_init();
   959   00160E  ECBE  F00C         	call	_ioc_init	;wreg free
   960   001612                     
   961                           ;main.c: 321:   timer1_init_1s();
   962   001612  ECA4  F00C         	call	_timer1_init_1s	;wreg free
   963                           
   964                           ;main.c: 322:   interrupt_init();
   965   001616  ECC3  F00C         	call	_interrupt_init	;wreg free
   966   00161A                     l1197:
   967                           
   968                           ;main.c: 332:     LATCbits.LATC1 = 1;
   969   00161A  82C0               	bsf	192,1,c	;volatile
   970   00161C                     
   971                           ;main.c: 334:     if (led_pulse_ticks) {
   972   00161C  5007               	movf	_led_pulse_ticks^(0+1280),w,c	;volatile
   973   00161E  B4D8               	btfsc	status,2,c
   974   001620  EF14  F00B         	goto	u491
   975   001624  EF16  F00B         	goto	u490
   976   001628                     u491:
   977   001628  EF20  F00B         	goto	l1207
   978   00162C                     u490:
   979   00162C                     
   980                           ;main.c: 335:       led_pulse_ticks--;
   981   00162C  0607               	decf	_led_pulse_ticks^(0+1280),f,c	;volatile
   982   00162E                     
   983                           ;main.c: 336:       if (led_pulse_ticks == 0) {
   984   00162E  5007               	movf	_led_pulse_ticks^(0+1280),w,c	;volatile
   985   001630  A4D8               	btfss	status,2,c
   986   001632  EF1D  F00B         	goto	u501
   987   001636  EF1F  F00B         	goto	u500
   988   00163A                     u501:
   989   00163A  EF20  F00B         	goto	l1207
   990   00163E                     u500:
   991   00163E                     
   992                           ;main.c: 337:         LATCbits.LATC1 = 0;
   993   00163E  92C0               	bcf	192,1,c	;volatile
   994   001640                     l1207:
   995                           
   996                           ;main.c: 341:     if (tx_retry_cooldown_ms) {
   997   001640  5001               	movf	_tx_retry_cooldown_ms^(0+1280),w,c	;volatile
   998   001642  1002               	iorwf	(_tx_retry_cooldown_ms+1)^(0+1280),w,c	;volatile
   999   001644  B4D8               	btfsc	status,2,c
  1000   001646  EF27  F00B         	goto	u511
  1001   00164A  EF29  F00B         	goto	u510
  1002   00164E                     u511:
  1003   00164E  EF2C  F00B         	goto	l1211
  1004   001652                     u510:
  1005   001652                     
  1006                           ;main.c: 342:       tx_retry_cooldown_ms--;
  1007   001652  0601               	decf	_tx_retry_cooldown_ms^(0+1280),f,c	;volatile
  1008   001654  A0D8               	btfss	status,0,c
  1009   001656  0602               	decf	(_tx_retry_cooldown_ms+1)^(0+1280),f,c	;volatile
  1010   001658                     l1211:
  1011                           
  1012                           ;main.c: 345:     if (minute_ready && (tx_retry_cooldown_ms == 0)) {
  1013   001658  5009               	movf	_minute_ready^(0+1280),w,c	;volatile
  1014   00165A  B4D8               	btfsc	status,2,c
  1015   00165C  EF32  F00B         	goto	u521
  1016   001660  EF34  F00B         	goto	u520
  1017   001664                     u521:
  1018   001664  EF4A  F00B         	goto	l1219
  1019   001668                     u520:
  1020   001668  5001               	movf	_tx_retry_cooldown_ms^(0+1280),w,c	;volatile
  1021   00166A  1002               	iorwf	(_tx_retry_cooldown_ms+1)^(0+1280),w,c	;volatile
  1022   00166C  A4D8               	btfss	status,2,c
  1023   00166E  EF3B  F00B         	goto	u531
  1024   001672  EF3D  F00B         	goto	u530
  1025   001676                     u531:
  1026   001676  EF4A  F00B         	goto	l1219
  1027   00167A                     u530:
  1028   00167A                     
  1029                           ;main.c: 346:       if (!service_particle_readout()) {
  1030   00167A  EC52  F00B         	call	_service_particle_readout	;wreg free
  1031   00167E  0900               	iorlw	0
  1032   001680  A4D8               	btfss	status,2,c
  1033   001682  EF45  F00B         	goto	u541
  1034   001686  EF47  F00B         	goto	u540
  1035   00168A                     u541:
  1036   00168A  EF4A  F00B         	goto	l1219
  1037   00168E                     u540:
  1038   00168E                     
  1039                           ;main.c: 347:         tx_retry_cooldown_ms = 5u;
  1040   00168E  6A02               	clrf	(_tx_retry_cooldown_ms+1)^(0+1280),c	;volatile
  1041   001690  0E05               	movlw	5
  1042   001692  6E01               	movwf	_tx_retry_cooldown_ms^(0+1280),c	;volatile
  1043   001694                     l1219:
  1044                           
  1045                           ;main.c: 350:     _delay((unsigned long)((1)*(1000000UL/4000.0)));
  1046   001694  0E53               	movlw	83
  1047   001696                     u557:
  1048   001696  2EE8               	decfsz	wreg,f,c
  1049   001698  D7FE               	bra	u557
  1050   00169A  0000               	nop	
  1051   00169C  EF0D  F00B         	goto	l1197
  1052   0016A0  EF0D  F000         	goto	start
  1053   0016A4                     __end_of_main:
  1054                           	callstack 0
  1055                           
  1056 ;; *************** function _timer1_init_1s *****************
  1057 ;; Defined at:
  1058 ;;		line 162 in file "main.c"
  1059 ;; Parameters:    Size  Location     Type
  1060 ;;		None
  1061 ;; Auto vars:     Size  Location     Type
  1062 ;;		None
  1063 ;; Return value:  Size  Location     Type
  1064 ;;                  1    wreg      void 
  1065 ;; Registers used:
  1066 ;;		wreg, status,2
  1067 ;; Tracked objects:
  1068 ;;		On entry : 0/0
  1069 ;;		On exit  : 0/0
  1070 ;;		Unchanged: 0/0
  1071 ;; Data sizes:     COMRAM   BANK5   BANK6   BANK7   BANK8   BANK9  BANK10  BANK11  BANK12  BANK13  BANK14  BANK15  BANK1
      +6  BANK17  BANK18  BANK19  BANK20
  1072 ;;      Params:         0       0       0       0       0       0       0       0       0       0       0       0       
      +0       0       0       0       0
  1073 ;;      Locals:         0       0       0       0       0       0       0       0       0       0       0       0       
      +0       0       0       0       0
  1074 ;;      Temps:          0       0       0       0       0       0       0       0       0       0       0       0       
      +0       0       0       0       0
  1075 ;;      Totals:         0       0       0       0       0       0       0       0       0       0       0       0       
      +0       0       0       0       0
  1076 ;;Total ram usage:        0 bytes
  1077 ;; Hardware stack levels used: 1
  1078 ;; Hardware stack levels required when called: 2
  1079 ;; This function calls:
  1080 ;;		Nothing
  1081 ;; This function is called by:
  1082 ;;		_main
  1083 ;; This function uses a non-reentrant model
  1084 ;;
  1085                           
  1086                           	psect	text1
  1087   001948                     __ptext1:
  1088                           	callstack 0
  1089   001948                     _timer1_init_1s:
  1090                           	callstack 124
  1091   001948                     
  1092                           ;main.c: 169:   TMR1CONbits.TMR1ON = 0;
  1093   001948  0103               	movlb	3	; () banked
  1094   00194A  9114               	bcf	20,0,b	;volatile
  1095                           
  1096                           ;main.c: 170:   TMR1CONbits.T1RD16 = 0;
  1097   00194C  9314               	bcf	20,1,b	;volatile
  1098                           
  1099                           ;main.c: 171:   TMR1CONbits.NOT_SYNC = 0;
  1100   00194E  9514               	bcf	20,2,b	;volatile
  1101   001950                     
  1102                           ; BSR set to: 3
  1103                           ;main.c: 172:   TMR1CONbits.CKPS = 0b11;
  1104   001950  0E30               	movlw	48
  1105   001952  1314               	iorwf	20,f,b	;volatile
  1106                           
  1107                           ;main.c: 173:   TMR1H = 0x85;
  1108   001954  0E85               	movlw	133
  1109   001956  6F13               	movwf	19,b	;volatile
  1110                           
  1111                           ;main.c: 174:   TMR1L = 0xEE;
  1112   001958  0EEE               	movlw	238
  1113   00195A  6F12               	movwf	18,b	;volatile
  1114   00195C                     
  1115                           ; BSR set to: 3
  1116                           ;main.c: 175:   PIR3bits.TMR1IF = 0;
  1117   00195C  98B6               	bcf	182,4,c	;volatile
  1118   00195E                     
  1119                           ; BSR set to: 3
  1120                           ;main.c: 176:   PIE3bits.TMR1IE = 1;
  1121   00195E  88AB               	bsf	171,4,c	;volatile
  1122   001960                     
  1123                           ; BSR set to: 3
  1124                           ;main.c: 177:   TMR1CONbits.TMR1ON = 1;
  1125   001960  8114               	bsf	20,0,b	;volatile
  1126   001962                     
  1127                           ; BSR set to: 3
  1128   001962  0012               	return		;funcret
  1129   001964                     __end_of_timer1_init_1s:
  1130                           	callstack 0
  1131                           
  1132 ;; *************** function _service_particle_readout *****************
  1133 ;; Defined at:
  1134 ;;		line 252 in file "main.c"
  1135 ;; Parameters:    Size  Location     Type
  1136 ;;		None
  1137 ;; Auto vars:     Size  Location     Type
  1138 ;;  c               2    4[COMRAM] unsigned short 
  1139 ;;  gie_was_enab    1    6[COMRAM] unsigned char 
  1140 ;;  flags           1    0        unsigned char 
  1141 ;; Return value:  Size  Location     Type
  1142 ;;                  1    wreg      unsigned char 
  1143 ;; Registers used:
  1144 ;;		wreg, status,2, status,0, cstack
  1145 ;; Tracked objects:
  1146 ;;		On entry : 0/0
  1147 ;;		On exit  : 0/0
  1148 ;;		Unchanged: 0/0
  1149 ;; Data sizes:     COMRAM   BANK5   BANK6   BANK7   BANK8   BANK9  BANK10  BANK11  BANK12  BANK13  BANK14  BANK15  BANK1
      +6  BANK17  BANK18  BANK19  BANK20
  1150 ;;      Params:         0       0       0       0       0       0       0       0       0       0       0       0       
      +0       0       0       0       0
  1151 ;;      Locals:         3       0       0       0       0       0       0       0       0       0       0       0       
      +0       0       0       0       0
  1152 ;;      Temps:          0       0       0       0       0       0       0       0       0       0       0       0       
      +0       0       0       0       0
  1153 ;;      Totals:         3       0       0       0       0       0       0       0       0       0       0       0       
      +0       0       0       0       0
  1154 ;;Total ram usage:        3 bytes
  1155 ;; Hardware stack levels used: 1
  1156 ;; Hardware stack levels required when called: 4
  1157 ;; This function calls:
  1158 ;;		_send_byte
  1159 ;;		_wait_for_ack_8clocks
  1160 ;;		_wait_for_photon_start
  1161 ;; This function is called by:
  1162 ;;		_main
  1163 ;; This function uses a non-reentrant model
  1164 ;;
  1165                           
  1166                           	psect	text2
  1167   0016A4                     __ptext2:
  1168                           	callstack 0
  1169   0016A4                     _service_particle_readout:
  1170                           	callstack 122
  1171   0016A4                     
  1172                           ;main.c: 255:   uint8_t gie_was_enabled = INTCON0bits.GIE;
  1173   0016A4  0E00               	movlw	0
  1174   0016A6  BED6               	btfsc	214,7,c	;volatile
  1175   0016A8  0E01               	movlw	1
  1176   0016AA  6E10               	movwf	service_particle_readout@gie_was_enabled^(0+1280),c
  1177   0016AC                     
  1178                           ;main.c: 258:   INTCON0bits.GIE = 0;
  1179   0016AC  9ED6               	bcf	214,7,c	;volatile
  1180   0016AE                     
  1181                           ;main.c: 260:   c = minute_count_latched;
  1182   0016AE  C503  F50E         	movff	_minute_count_latched,service_particle_readout@c	;volatile
  1183   0016B2  C504  F50F         	movff	_minute_count_latched+1,service_particle_readout@c+1	;volatile
  1184   0016B6                     
  1185                           ;main.c: 262:   LATAbits.LATA4 = 1;
  1186   0016B6  88BE               	bsf	190,4,c	;volatile
  1187   0016B8                     
  1188                           ;main.c: 263:   _delay((unsigned long)((2)*(1000000UL/4000.0)));
  1189   0016B8  0EA6               	movlw	166
  1190   0016BA                     u567:
  1191   0016BA  2EE8               	decfsz	wreg,f,c
  1192   0016BC  D7FE               	bra	u567
  1193   0016BE  D000               	nop2	
  1194   0016C0                     
  1195                           ;main.c: 265:   if (!wait_for_photon_start(5000u)) {
  1196   0016C0  0E13               	movlw	19
  1197   0016C2  6E0B               	movwf	(wait_for_photon_start@timeout_ms+1)^(0+1280),c
  1198   0016C4  0E88               	movlw	136
  1199   0016C6  6E0A               	movwf	wait_for_photon_start@timeout_ms^(0+1280),c
  1200   0016C8  EC39  F00C         	call	_wait_for_photon_start	;wreg free
  1201   0016CC  0900               	iorlw	0
  1202   0016CE  A4D8               	btfss	status,2,c
  1203   0016D0  EF6C  F00B         	goto	u441
  1204   0016D4  EF6E  F00B         	goto	u440
  1205   0016D8                     u441:
  1206   0016D8  EF77  F00B         	goto	l1173
  1207   0016DC                     u440:
  1208   0016DC                     
  1209                           ;main.c: 266:     LATAbits.LATA4 = 0;
  1210   0016DC  98BE               	bcf	190,4,c	;volatile
  1211                           
  1212                           ;main.c: 267:     INTCON0bits.GIE = gie_was_enabled;
  1213   0016DE  B010               	btfsc	service_particle_readout@gie_was_enabled^(0+1280),0,c
  1214   0016E0  D002               	bra	u455
  1215   0016E2  9ED6               	bcf	214,7,c	;volatile
  1216   0016E4  D001               	bra	u456
  1217   0016E6                     u455:
  1218   0016E6  8ED6               	bsf	214,7,c	;volatile
  1219   0016E8                     u456:
  1220   0016E8                     l1169:
  1221                           
  1222                           ;main.c: 268:     return 0;
  1223   0016E8  0E00               	movlw	0
  1224   0016EA  EF9F  F00B         	goto	l138
  1225   0016EE                     l1173:
  1226                           
  1227                           ;main.c: 271:   send_byte((uint8_t)(c >> 8));
  1228   0016EE  500F               	movf	(service_particle_readout@c+1)^(0+1280),w,c
  1229   0016F0  EC7B  F00C         	call	_send_byte
  1230                           
  1231                           ;main.c: 272:   send_byte((uint8_t)(c & 0xFF));
  1232   0016F4  500E               	movf	service_particle_readout@c^(0+1280),w,c
  1233   0016F6  EC7B  F00C         	call	_send_byte
  1234                           
  1235                           ;main.c: 273:   send_byte(flags);
  1236   0016FA  0EA5               	movlw	165
  1237   0016FC  EC7B  F00C         	call	_send_byte
  1238   001700                     
  1239                           ;main.c: 275:   LATAbits.LATA0 = 0;
  1240   001700  90BE               	bcf	190,0,c	;volatile
  1241                           
  1242                           ;main.c: 276:   if (!wait_for_ack_8clocks(1000u)) {
  1243   001702  0E03               	movlw	3
  1244   001704  6E0B               	movwf	(wait_for_ack_8clocks@timeout_ms+1)^(0+1280),c
  1245   001706  0EE8               	movlw	232
  1246   001708  6E0A               	movwf	wait_for_ack_8clocks@timeout_ms^(0+1280),c
  1247   00170A  ECA0  F00B         	call	_wait_for_ack_8clocks	;wreg free
  1248   00170E  0900               	iorlw	0
  1249   001710  A4D8               	btfss	status,2,c
  1250   001712  EF8D  F00B         	goto	u461
  1251   001716  EF8F  F00B         	goto	u460
  1252   00171A                     u461:
  1253   00171A  EF97  F00B         	goto	l139
  1254   00171E                     u460:
  1255   00171E                     
  1256                           ;main.c: 277:     LATAbits.LATA4 = 0;
  1257   00171E  98BE               	bcf	190,4,c	;volatile
  1258                           
  1259                           ;main.c: 278:     INTCON0bits.GIE = gie_was_enabled;
  1260   001720  B010               	btfsc	service_particle_readout@gie_was_enabled^(0+1280),0,c
  1261   001722  D002               	bra	u475
  1262   001724  9ED6               	bcf	214,7,c	;volatile
  1263   001726  D001               	bra	u476
  1264   001728                     u475:
  1265   001728  8ED6               	bsf	214,7,c	;volatile
  1266   00172A                     u476:
  1267   00172A  EF74  F00B         	goto	l1169
  1268   00172E                     l139:
  1269                           
  1270                           ;main.c: 282:   LATAbits.LATA4 = 0;
  1271   00172E  98BE               	bcf	190,4,c	;volatile
  1272                           
  1273                           ;main.c: 283:   minute_ready = 0;
  1274   001730  6A09               	clrf	_minute_ready^(0+1280),c	;volatile
  1275                           
  1276                           ;main.c: 284:   INTCON0bits.GIE = gie_was_enabled;
  1277   001732  B010               	btfsc	service_particle_readout@gie_was_enabled^(0+1280),0,c
  1278   001734  D002               	bra	u485
  1279   001736  9ED6               	bcf	214,7,c	;volatile
  1280   001738  D001               	bra	u486
  1281   00173A                     u485:
  1282   00173A  8ED6               	bsf	214,7,c	;volatile
  1283   00173C                     u486:
  1284   00173C                     
  1285                           ;main.c: 285:   return 1;
  1286   00173C  0E01               	movlw	1
  1287   00173E                     l138:
  1288   00173E  0012               	return		;funcret
  1289   001740                     __end_of_service_particle_readout:
  1290                           	callstack 0
  1291                           
  1292 ;; *************** function _wait_for_photon_start *****************
  1293 ;; Defined at:
  1294 ;;		line 218 in file "main.c"
  1295 ;; Parameters:    Size  Location     Type
  1296 ;;  timeout_ms      2    0[COMRAM] unsigned short 
  1297 ;; Auto vars:     Size  Location     Type
  1298 ;;		None
  1299 ;; Return value:  Size  Location     Type
  1300 ;;                  1    wreg      unsigned char 
  1301 ;; Registers used:
  1302 ;;		wreg, status,2, status,0
  1303 ;; Tracked objects:
  1304 ;;		On entry : 0/0
  1305 ;;		On exit  : 0/0
  1306 ;;		Unchanged: 0/0
  1307 ;; Data sizes:     COMRAM   BANK5   BANK6   BANK7   BANK8   BANK9  BANK10  BANK11  BANK12  BANK13  BANK14  BANK15  BANK1
      +6  BANK17  BANK18  BANK19  BANK20
  1308 ;;      Params:         2       0       0       0       0       0       0       0       0       0       0       0       
      +0       0       0       0       0
  1309 ;;      Locals:         0       0       0       0       0       0       0       0       0       0       0       0       
      +0       0       0       0       0
  1310 ;;      Temps:          0       0       0       0       0       0       0       0       0       0       0       0       
      +0       0       0       0       0
  1311 ;;      Totals:         2       0       0       0       0       0       0       0       0       0       0       0       
      +0       0       0       0       0
  1312 ;;Total ram usage:        2 bytes
  1313 ;; Hardware stack levels used: 1
  1314 ;; Hardware stack levels required when called: 2
  1315 ;; This function calls:
  1316 ;;		Nothing
  1317 ;; This function is called by:
  1318 ;;		_service_particle_readout
  1319 ;; This function uses a non-reentrant model
  1320 ;;
  1321                           
  1322                           	psect	text3
  1323   001872                     __ptext3:
  1324                           	callstack 0
  1325   001872                     _wait_for_photon_start:
  1326                           	callstack 123
  1327   001872                     
  1328                           ;main.c: 219:   while (timeout_ms--) {
  1329   001872  EF50  F00C         	goto	l1129
  1330   001876                     l115:
  1331                           
  1332                           ;main.c: 220:     if (PORTAbits.RA1 != 0) {
  1333   001876  A2CE               	btfss	206,1,c	;volatile
  1334   001878  EF40  F00C         	goto	u341
  1335   00187C  EF42  F00C         	goto	u340
  1336   001880                     u341:
  1337   001880  EF4C  F00C         	goto	l1127
  1338   001884                     u340:
  1339   001884                     l117:
  1340                           
  1341                           ;main.c: 221:       while (PORTAbits.RA1 != 0) {
  1342   001884  B2CE               	btfsc	206,1,c	;volatile
  1343   001886  EF47  F00C         	goto	u351
  1344   00188A  EF49  F00C         	goto	u350
  1345   00188E                     u351:
  1346   00188E  EF42  F00C         	goto	l117
  1347   001892                     u350:
  1348   001892                     
  1349                           ;main.c: 224:       return 1;
  1350   001892  0E01               	movlw	1
  1351   001894  EF5E  F00C         	goto	l120
  1352   001898                     l1127:
  1353                           
  1354                           ;main.c: 226:     _delay((unsigned long)((1)*(1000000UL/4000.0)));
  1355   001898  0E53               	movlw	83
  1356   00189A                     u577:
  1357   00189A  2EE8               	decfsz	wreg,f,c
  1358   00189C  D7FE               	bra	u577
  1359   00189E  0000               	nop	
  1360   0018A0                     l1129:
  1361                           
  1362                           ;main.c: 219:   while (timeout_ms--) {
  1363   0018A0  060A               	decf	wait_for_photon_start@timeout_ms^(0+1280),f,c
  1364   0018A2  A0D8               	btfss	status,0,c
  1365   0018A4  060B               	decf	(wait_for_photon_start@timeout_ms+1)^(0+1280),f,c
  1366   0018A6  280A               	incf	wait_for_photon_start@timeout_ms^(0+1280),w,c
  1367   0018A8  E106               	bnz	u361
  1368   0018AA  280B               	incf	(wait_for_photon_start@timeout_ms+1)^(0+1280),w,c
  1369   0018AC  A4D8               	btfss	status,2,c
  1370   0018AE  EF5B  F00C         	goto	u361
  1371   0018B2  EF5D  F00C         	goto	u360
  1372   0018B6                     u361:
  1373   0018B6  EF3B  F00C         	goto	l115
  1374   0018BA                     u360:
  1375   0018BA                     
  1376                           ;main.c: 228:   return 0;
  1377   0018BA  0E00               	movlw	0
  1378   0018BC                     l120:
  1379   0018BC  0012               	return		;funcret
  1380   0018BE                     __end_of_wait_for_photon_start:
  1381                           	callstack 0
  1382                           
  1383 ;; *************** function _wait_for_ack_8clocks *****************
  1384 ;; Defined at:
  1385 ;;		line 231 in file "main.c"
  1386 ;; Parameters:    Size  Location     Type
  1387 ;;  timeout_ms      2    0[COMRAM] unsigned short 
  1388 ;; Auto vars:     Size  Location     Type
  1389 ;;  count           1    2[COMRAM] unsigned char 
  1390 ;; Return value:  Size  Location     Type
  1391 ;;                  1    wreg      unsigned char 
  1392 ;; Registers used:
  1393 ;;		wreg, status,2, status,0
  1394 ;; Tracked objects:
  1395 ;;		On entry : 0/0
  1396 ;;		On exit  : 0/0
  1397 ;;		Unchanged: 0/0
  1398 ;; Data sizes:     COMRAM   BANK5   BANK6   BANK7   BANK8   BANK9  BANK10  BANK11  BANK12  BANK13  BANK14  BANK15  BANK1
      +6  BANK17  BANK18  BANK19  BANK20
  1399 ;;      Params:         2       0       0       0       0       0       0       0       0       0       0       0       
      +0       0       0       0       0
  1400 ;;      Locals:         1       0       0       0       0       0       0       0       0       0       0       0       
      +0       0       0       0       0
  1401 ;;      Temps:          0       0       0       0       0       0       0       0       0       0       0       0       
      +0       0       0       0       0
  1402 ;;      Totals:         3       0       0       0       0       0       0       0       0       0       0       0       
      +0       0       0       0       0
  1403 ;;Total ram usage:        3 bytes
  1404 ;; Hardware stack levels used: 1
  1405 ;; Hardware stack levels required when called: 2
  1406 ;; This function calls:
  1407 ;;		Nothing
  1408 ;; This function is called by:
  1409 ;;		_service_particle_readout
  1410 ;; This function uses a non-reentrant model
  1411 ;;
  1412                           
  1413                           	psect	text4
  1414   001740                     __ptext4:
  1415                           	callstack 0
  1416   001740                     _wait_for_ack_8clocks:
  1417                           	callstack 123
  1418   001740                     
  1419                           ;main.c: 232:   uint8_t count = 0;
  1420   001740  6A0C               	clrf	wait_for_ack_8clocks@count^(0+1280),c
  1421                           
  1422                           ;main.c: 234:   while (timeout_ms && count < 8) {
  1423   001742  EFC5  F00B         	goto	l124
  1424   001746                     l125:
  1425                           
  1426                           ;main.c: 235:     if (PORTAbits.RA1 == 0) {
  1427   001746  B2CE               	btfsc	206,1,c	;volatile
  1428   001748  EFA8  F00B         	goto	u371
  1429   00174C  EFAA  F00B         	goto	u370
  1430   001750                     u371:
  1431   001750  EFBE  F00B         	goto	l1143
  1432   001754                     u370:
  1433   001754                     
  1434                           ;main.c: 236:       _delay((unsigned long)((20)*(1000000UL/4000000.0)));
  1435   001754  D000               	nop2		;2 cycle nop
  1436   001756  D000               	nop2		;2 cycle nop
  1437   001758  0000               	nop	
  1438                           
  1439                           ;main.c: 237:       if (PORTAbits.RA1 != 0) {
  1440   00175A  A2CE               	btfss	206,1,c	;volatile
  1441   00175C  EFB2  F00B         	goto	u381
  1442   001760  EFB4  F00B         	goto	u380
  1443   001764                     u381:
  1444   001764  EFBE  F00B         	goto	l1143
  1445   001768                     u380:
  1446   001768                     l128:
  1447                           
  1448                           ;main.c: 238:         while (PORTAbits.RA1 != 0) {
  1449   001768  B2CE               	btfsc	206,1,c	;volatile
  1450   00176A  EFB9  F00B         	goto	u391
  1451   00176E  EFBB  F00B         	goto	u390
  1452   001772                     u391:
  1453   001772  EFB4  F00B         	goto	l128
  1454   001776                     u390:
  1455   001776                     
  1456                           ;main.c: 241:         count++;
  1457   001776  2A0C               	incf	wait_for_ack_8clocks@count^(0+1280),f,c
  1458                           
  1459                           ;main.c: 242:         continue;
  1460   001778  EFC5  F00B         	goto	l124
  1461   00177C                     l1143:
  1462                           
  1463                           ;main.c: 245:     _delay((unsigned long)((1)*(1000000UL/4000.0)));
  1464   00177C  0E53               	movlw	83
  1465   00177E                     u587:
  1466   00177E  2EE8               	decfsz	wreg,f,c
  1467   001780  D7FE               	bra	u587
  1468   001782  0000               	nop	
  1469   001784                     
  1470                           ;main.c: 246:     timeout_ms--;
  1471   001784  060A               	decf	wait_for_ack_8clocks@timeout_ms^(0+1280),f,c
  1472   001786  A0D8               	btfss	status,0,c
  1473   001788  060B               	decf	(wait_for_ack_8clocks@timeout_ms+1)^(0+1280),f,c
  1474   00178A                     l124:
  1475                           
  1476                           ;main.c: 234:   while (timeout_ms && count < 8) {
  1477   00178A  500A               	movf	wait_for_ack_8clocks@timeout_ms^(0+1280),w,c
  1478   00178C  100B               	iorwf	(wait_for_ack_8clocks@timeout_ms+1)^(0+1280),w,c
  1479   00178E  B4D8               	btfsc	status,2,c
  1480   001790  EFCC  F00B         	goto	u401
  1481   001794  EFCE  F00B         	goto	u400
  1482   001798                     u401:
  1483   001798  EFD6  F00B         	goto	l1149
  1484   00179C                     u400:
  1485   00179C  0E07               	movlw	7
  1486   00179E  640C               	cpfsgt	wait_for_ack_8clocks@count^(0+1280),c
  1487   0017A0  EFD4  F00B         	goto	u411
  1488   0017A4  EFD6  F00B         	goto	u410
  1489   0017A8                     u411:
  1490   0017A8  EFA3  F00B         	goto	l125
  1491   0017AC                     u410:
  1492   0017AC                     l1149:
  1493                           
  1494                           ;main.c: 249:   return (count == 8);
  1495   0017AC  0E08               	movlw	8
  1496   0017AE  180C               	xorwf	wait_for_ack_8clocks@count^(0+1280),w,c
  1497   0017B0  B4D8               	btfsc	status,2,c
  1498   0017B2  EFDD  F00B         	goto	u421
  1499   0017B6  EFE0  F00B         	goto	u420
  1500   0017BA                     u421:
  1501   0017BA  0E01               	movlw	1
  1502   0017BC  EFE1  F00B         	goto	u430
  1503   0017C0                     u420:
  1504   0017C0  0E00               	movlw	0
  1505   0017C2                     u430:
  1506   0017C2  0012               	return		;funcret
  1507   0017C4                     __end_of_wait_for_ack_8clocks:
  1508                           	callstack 0
  1509                           
  1510 ;; *************** function _send_byte *****************
  1511 ;; Defined at:
  1512 ;;		line 211 in file "main.c"
  1513 ;; Parameters:    Size  Location     Type
  1514 ;;  v               1    wreg     unsigned char 
  1515 ;; Auto vars:     Size  Location     Type
  1516 ;;  v               1    2[COMRAM] unsigned char 
  1517 ;;  i               1    3[COMRAM] unsigned char 
  1518 ;; Return value:  Size  Location     Type
  1519 ;;                  1    wreg      void 
  1520 ;; Registers used:
  1521 ;;		wreg, status,2, status,0, cstack
  1522 ;; Tracked objects:
  1523 ;;		On entry : 0/0
  1524 ;;		On exit  : 0/0
  1525 ;;		Unchanged: 0/0
  1526 ;; Data sizes:     COMRAM   BANK5   BANK6   BANK7   BANK8   BANK9  BANK10  BANK11  BANK12  BANK13  BANK14  BANK15  BANK1
      +6  BANK17  BANK18  BANK19  BANK20
  1527 ;;      Params:         0       0       0       0       0       0       0       0       0       0       0       0       
      +0       0       0       0       0
  1528 ;;      Locals:         2       0       0       0       0       0       0       0       0       0       0       0       
      +0       0       0       0       0
  1529 ;;      Temps:          0       0       0       0       0       0       0       0       0       0       0       0       
      +0       0       0       0       0
  1530 ;;      Totals:         2       0       0       0       0       0       0       0       0       0       0       0       
      +0       0       0       0       0
  1531 ;;Total ram usage:        2 bytes
  1532 ;; Hardware stack levels used: 1
  1533 ;; Hardware stack levels required when called: 3
  1534 ;; This function calls:
  1535 ;;		_send_bit
  1536 ;; This function is called by:
  1537 ;;		_service_particle_readout
  1538 ;; This function uses a non-reentrant model
  1539 ;;
  1540                           
  1541                           	psect	text5
  1542   0018F6                     __ptext5:
  1543                           	callstack 0
  1544   0018F6                     _send_byte:
  1545                           	callstack 122
  1546                           
  1547                           ;incstack = 0
  1548                           ;send_byte@v stored from wreg
  1549   0018F6  6E0C               	movwf	send_byte@v^(0+1280),c
  1550   0018F8                     
  1551                           ;main.c: 212:   for (uint8_t i = 0; i < 8; i++) {
  1552   0018F8  6A0D               	clrf	send_byte@i^(0+1280),c
  1553   0018FA                     l959:
  1554                           
  1555                           ;main.c: 213:     send_bit((v & 0x80) != 0);
  1556   0018FA  BE0C               	btfsc	send_byte@v^(0+1280),7,c
  1557   0018FC  EF82  F00C         	goto	u61
  1558   001900  EF85  F00C         	goto	u60
  1559   001904                     u61:
  1560   001904  0E01               	movlw	1
  1561   001906  EF86  F00C         	goto	u70
  1562   00190A                     u60:
  1563   00190A  0E00               	movlw	0
  1564   00190C                     u70:
  1565   00190C  EC10  F00C         	call	_send_bit
  1566   001910                     
  1567                           ;main.c: 214:     v <<= 1;
  1568   001910  90D8               	bcf	status,0,c
  1569   001912  360C               	rlcf	send_byte@v^(0+1280),f,c
  1570   001914                     
  1571                           ;main.c: 215:   }
  1572   001914  2A0D               	incf	send_byte@i^(0+1280),f,c
  1573   001916  0E07               	movlw	7
  1574   001918  640D               	cpfsgt	send_byte@i^(0+1280),c
  1575   00191A  EF91  F00C         	goto	u81
  1576   00191E  EF93  F00C         	goto	u80
  1577   001922                     u81:
  1578   001922  EF7D  F00C         	goto	l959
  1579   001926                     u80:
  1580   001926  0012               	return		;funcret
  1581   001928                     __end_of_send_byte:
  1582                           	callstack 0
  1583                           
  1584 ;; *************** function _send_bit *****************
  1585 ;; Defined at:
  1586 ;;		line 196 in file "main.c"
  1587 ;; Parameters:    Size  Location     Type
  1588 ;;  b               1    wreg     unsigned char 
  1589 ;; Auto vars:     Size  Location     Type
  1590 ;;  b               1    1[COMRAM] unsigned char 
  1591 ;; Return value:  Size  Location     Type
  1592 ;;                  1    wreg      void 
  1593 ;; Registers used:
  1594 ;;		wreg, status,2, status,0
  1595 ;; Tracked objects:
  1596 ;;		On entry : 0/0
  1597 ;;		On exit  : 0/0
  1598 ;;		Unchanged: 0/0
  1599 ;; Data sizes:     COMRAM   BANK5   BANK6   BANK7   BANK8   BANK9  BANK10  BANK11  BANK12  BANK13  BANK14  BANK15  BANK1
      +6  BANK17  BANK18  BANK19  BANK20
  1600 ;;      Params:         0       0       0       0       0       0       0       0       0       0       0       0       
      +0       0       0       0       0
  1601 ;;      Locals:         1       0       0       0       0       0       0       0       0       0       0       0       
      +0       0       0       0       0
  1602 ;;      Temps:          1       0       0       0       0       0       0       0       0       0       0       0       
      +0       0       0       0       0
  1603 ;;      Totals:         2       0       0       0       0       0       0       0       0       0       0       0       
      +0       0       0       0       0
  1604 ;;Total ram usage:        2 bytes
  1605 ;; Hardware stack levels used: 1
  1606 ;; Hardware stack levels required when called: 2
  1607 ;; This function calls:
  1608 ;;		Nothing
  1609 ;; This function is called by:
  1610 ;;		_send_byte
  1611 ;; This function uses a non-reentrant model
  1612 ;;
  1613                           
  1614                           	psect	text6
  1615   001820                     __ptext6:
  1616                           	callstack 0
  1617   001820                     _send_bit:
  1618                           	callstack 122
  1619                           
  1620                           ;incstack = 0
  1621                           ;send_bit@b stored from wreg
  1622   001820  6E0B               	movwf	send_bit@b^(0+1280),c
  1623   001822                     l97:
  1624                           
  1625                           ;main.c: 197:   while (PORTAbits.RA1 != 0) {
  1626   001822  B2CE               	btfsc	206,1,c	;volatile
  1627   001824  EF16  F00C         	goto	u11
  1628   001828  EF18  F00C         	goto	u10
  1629   00182C                     u11:
  1630   00182C  EF11  F00C         	goto	l97
  1631   001830                     u10:
  1632   001830                     
  1633                           ;main.c: 200:   LATAbits.LATA0 = b ? 1 : 0;
  1634   001830  500B               	movf	send_bit@b^(0+1280),w,c
  1635   001832  A4D8               	btfss	status,2,c
  1636   001834  EF1E  F00C         	goto	u21
  1637   001838  EF22  F00C         	goto	u20
  1638   00183C                     u21:
  1639   00183C  6A0A               	clrf	??_send_bit^(0+1280),c
  1640   00183E  2A0A               	incf	??_send_bit^(0+1280),f,c
  1641   001840  EF23  F00C         	goto	u38
  1642   001844                     u20:
  1643   001844  6A0A               	clrf	??_send_bit^(0+1280),c
  1644   001846                     u38:
  1645   001846  50BE               	movf	190,w,c	;volatile
  1646   001848  180A               	xorwf	??_send_bit^(0+1280),w,c
  1647   00184A  0BFE               	andlw	-2
  1648   00184C  180A               	xorwf	??_send_bit^(0+1280),w,c
  1649   00184E  6EBE               	movwf	190,c	;volatile
  1650   001850                     
  1651                           ;main.c: 201:   _delay((unsigned long)((5)*(1000000UL/4000000.0)));
  1652   001850  0000               	nop	
  1653   001852                     l100:
  1654                           
  1655                           ;main.c: 202:   while (PORTAbits.RA1 == 0) {
  1656   001852  A2CE               	btfss	206,1,c	;volatile
  1657   001854  EF2E  F00C         	goto	u41
  1658   001858  EF30  F00C         	goto	u40
  1659   00185C                     u41:
  1660   00185C  EF29  F00C         	goto	l100
  1661   001860                     u40:
  1662   001860                     
  1663                           ;main.c: 205:   _delay((unsigned long)((5)*(1000000UL/4000000.0)));
  1664   001860  0000               	nop	
  1665   001862                     l103:
  1666                           
  1667                           ;main.c: 206:   while (PORTAbits.RA1 != 0) {
  1668   001862  B2CE               	btfsc	206,1,c	;volatile
  1669   001864  EF36  F00C         	goto	u51
  1670   001868  EF38  F00C         	goto	u50
  1671   00186C                     u51:
  1672   00186C  EF31  F00C         	goto	l103
  1673   001870                     u50:
  1674   001870  0012               	return		;funcret
  1675   001872                     __end_of_send_bit:
  1676                           	callstack 0
  1677                           
  1678 ;; *************** function _pps_init *****************
  1679 ;; Defined at:
  1680 ;;		line 185 in file "main.c"
  1681 ;; Parameters:    Size  Location     Type
  1682 ;;		None
  1683 ;; Auto vars:     Size  Location     Type
  1684 ;;		None
  1685 ;; Return value:  Size  Location     Type
  1686 ;;                  1    wreg      void 
  1687 ;; Registers used:
  1688 ;;		None
  1689 ;; Tracked objects:
  1690 ;;		On entry : 0/0
  1691 ;;		On exit  : 0/0
  1692 ;;		Unchanged: 0/0
  1693 ;; Data sizes:     COMRAM   BANK5   BANK6   BANK7   BANK8   BANK9  BANK10  BANK11  BANK12  BANK13  BANK14  BANK15  BANK1
      +6  BANK17  BANK18  BANK19  BANK20
  1694 ;;      Params:         0       0       0       0       0       0       0       0       0       0       0       0       
      +0       0       0       0       0
  1695 ;;      Locals:         0       0       0       0       0       0       0       0       0       0       0       0       
      +0       0       0       0       0
  1696 ;;      Temps:          0       0       0       0       0       0       0       0       0       0       0       0       
      +0       0       0       0       0
  1697 ;;      Totals:         0       0       0       0       0       0       0       0       0       0       0       0       
      +0       0       0       0       0
  1698 ;;Total ram usage:        0 bytes
  1699 ;; Hardware stack levels used: 1
  1700 ;; Hardware stack levels required when called: 2
  1701 ;; This function calls:
  1702 ;;		Nothing
  1703 ;; This function is called by:
  1704 ;;		_main
  1705 ;; This function uses a non-reentrant model
  1706 ;;
  1707                           
  1708                           	psect	text7
  1709   001990                     __ptext7:
  1710                           	callstack 0
  1711   001990                     _pps_init:
  1712                           	callstack 124
  1713   001990  0012               	return		;funcret
  1714   001992                     __end_of_pps_init:
  1715                           	callstack 0
  1716                           
  1717 ;; *************** function _ioc_init *****************
  1718 ;; Defined at:
  1719 ;;		line 155 in file "main.c"
  1720 ;; Parameters:    Size  Location     Type
  1721 ;;		None
  1722 ;; Auto vars:     Size  Location     Type
  1723 ;;		None
  1724 ;; Return value:  Size  Location     Type
  1725 ;;                  1    wreg      void 
  1726 ;; Registers used:
  1727 ;;		None
  1728 ;; Tracked objects:
  1729 ;;		On entry : 0/0
  1730 ;;		On exit  : 0/0
  1731 ;;		Unchanged: 0/0
  1732 ;; Data sizes:     COMRAM   BANK5   BANK6   BANK7   BANK8   BANK9  BANK10  BANK11  BANK12  BANK13  BANK14  BANK15  BANK1
      +6  BANK17  BANK18  BANK19  BANK20
  1733 ;;      Params:         0       0       0       0       0       0       0       0       0       0       0       0       
      +0       0       0       0       0
  1734 ;;      Locals:         0       0       0       0       0       0       0       0       0       0       0       0       
      +0       0       0       0       0
  1735 ;;      Temps:          0       0       0       0       0       0       0       0       0       0       0       0       
      +0       0       0       0       0
  1736 ;;      Totals:         0       0       0       0       0       0       0       0       0       0       0       0       
      +0       0       0       0       0
  1737 ;;Total ram usage:        0 bytes
  1738 ;; Hardware stack levels used: 1
  1739 ;; Hardware stack levels required when called: 2
  1740 ;; This function calls:
  1741 ;;		Nothing
  1742 ;; This function is called by:
  1743 ;;		_main
  1744 ;; This function uses a non-reentrant model
  1745 ;;
  1746                           
  1747                           	psect	text8
  1748   00197C                     __ptext8:
  1749                           	callstack 0
  1750   00197C                     _ioc_init:
  1751                           	callstack 124
  1752   00197C                     
  1753                           ;main.c: 157:   IOCAPbits.IOCAP2 = 1;
  1754   00197C  0104               	movlb	4	; () banked
  1755   00197E  8505               	bsf	5,2,b	;volatile
  1756                           
  1757                           ;main.c: 158:   IOCANbits.IOCAN2 = 0;
  1758   001980  9506               	bcf	6,2,b	;volatile
  1759                           
  1760                           ;main.c: 159:   IOCAFbits.IOCAF2 = 0;
  1761   001982  9507               	bcf	7,2,b	;volatile
  1762   001984                     
  1763                           ; BSR set to: 4
  1764   001984  0012               	return		;funcret
  1765   001986                     __end_of_ioc_init:
  1766                           	callstack 0
  1767                           
  1768 ;; *************** function _interrupt_init *****************
  1769 ;; Defined at:
  1770 ;;		line 189 in file "main.c"
  1771 ;; Parameters:    Size  Location     Type
  1772 ;;		None
  1773 ;; Auto vars:     Size  Location     Type
  1774 ;;		None
  1775 ;; Return value:  Size  Location     Type
  1776 ;;                  1    wreg      void 
  1777 ;; Registers used:
  1778 ;;		None
  1779 ;; Tracked objects:
  1780 ;;		On entry : 0/0
  1781 ;;		On exit  : 0/0
  1782 ;;		Unchanged: 0/0
  1783 ;; Data sizes:     COMRAM   BANK5   BANK6   BANK7   BANK8   BANK9  BANK10  BANK11  BANK12  BANK13  BANK14  BANK15  BANK1
      +6  BANK17  BANK18  BANK19  BANK20
  1784 ;;      Params:         0       0       0       0       0       0       0       0       0       0       0       0       
      +0       0       0       0       0
  1785 ;;      Locals:         0       0       0       0       0       0       0       0       0       0       0       0       
      +0       0       0       0       0
  1786 ;;      Temps:          0       0       0       0       0       0       0       0       0       0       0       0       
      +0       0       0       0       0
  1787 ;;      Totals:         0       0       0       0       0       0       0       0       0       0       0       0       
      +0       0       0       0       0
  1788 ;;Total ram usage:        0 bytes
  1789 ;; Hardware stack levels used: 1
  1790 ;; Hardware stack levels required when called: 2
  1791 ;; This function calls:
  1792 ;;		Nothing
  1793 ;; This function is called by:
  1794 ;;		_main
  1795 ;; This function uses a non-reentrant model
  1796 ;;
  1797                           
  1798                           	psect	text9
  1799   001986                     __ptext9:
  1800                           	callstack 0
  1801   001986                     _interrupt_init:
  1802                           	callstack 124
  1803   001986                     
  1804                           ;main.c: 190:   PIR0bits.IOCIF = 0;
  1805   001986  9EB3               	bcf	179,7,c	;volatile
  1806                           
  1807                           ;main.c: 191:   PIE0bits.IOCIE = 1;
  1808   001988  8EA8               	bsf	168,7,c	;volatile
  1809                           
  1810                           ;main.c: 192:   INTCON0bits.GIEL = 1;
  1811   00198A  8CD6               	bsf	214,6,c	;volatile
  1812                           
  1813                           ;main.c: 193:   INTCON0bits.GIE = 1;
  1814   00198C  8ED6               	bsf	214,7,c	;volatile
  1815   00198E  0012               	return		;funcret
  1816   001990                     __end_of_interrupt_init:
  1817                           	callstack 0
  1818                           
  1819 ;; *************** function _gpio_init *****************
  1820 ;; Defined at:
  1821 ;;		line 110 in file "main.c"
  1822 ;; Parameters:    Size  Location     Type
  1823 ;;		None
  1824 ;; Auto vars:     Size  Location     Type
  1825 ;;		None
  1826 ;; Return value:  Size  Location     Type
  1827 ;;                  1    wreg      void 
  1828 ;; Registers used:
  1829 ;;		None
  1830 ;; Tracked objects:
  1831 ;;		On entry : 0/0
  1832 ;;		On exit  : 0/0
  1833 ;;		Unchanged: 0/0
  1834 ;; Data sizes:     COMRAM   BANK5   BANK6   BANK7   BANK8   BANK9  BANK10  BANK11  BANK12  BANK13  BANK14  BANK15  BANK1
      +6  BANK17  BANK18  BANK19  BANK20
  1835 ;;      Params:         0       0       0       0       0       0       0       0       0       0       0       0       
      +0       0       0       0       0
  1836 ;;      Locals:         0       0       0       0       0       0       0       0       0       0       0       0       
      +0       0       0       0       0
  1837 ;;      Temps:          0       0       0       0       0       0       0       0       0       0       0       0       
      +0       0       0       0       0
  1838 ;;      Totals:         0       0       0       0       0       0       0       0       0       0       0       0       
      +0       0       0       0       0
  1839 ;;Total ram usage:        0 bytes
  1840 ;; Hardware stack levels used: 1
  1841 ;; Hardware stack levels required when called: 2
  1842 ;; This function calls:
  1843 ;;		Nothing
  1844 ;; This function is called by:
  1845 ;;		_main
  1846 ;; This function uses a non-reentrant model
  1847 ;;
  1848                           
  1849                           	psect	text10
  1850   0018BE                     __ptext10:
  1851                           	callstack 0
  1852   0018BE                     _gpio_init:
  1853                           	callstack 124
  1854   0018BE                     
  1855                           ;main.c: 113:   ANSELA = 0x00;
  1856   0018BE  0104               	movlb	4	; () banked
  1857   0018C0  6B00               	clrf	0,b	;volatile
  1858                           
  1859                           ;main.c: 114:   ANSELC = 0x00;
  1860   0018C2  6B10               	clrf	16,b	;volatile
  1861                           
  1862                           ;main.c: 117:   ADCON0bits.ADON = 0;
  1863   0018C4  0103               	movlb	3	; () banked
  1864   0018C6  9FF3               	bcf	243,7,b	;volatile
  1865                           
  1866                           ;main.c: 118:   CM1CON0 = 0x00;
  1867   0018C8  0100               	movlb	0	; () banked
  1868   0018CA  6B70               	clrf	112,b	;volatile
  1869                           
  1870                           ;main.c: 122:   ODCONA = 0x00;
  1871   0018CC  0104               	movlb	4	; () banked
  1872   0018CE  6B02               	clrf	2,b	;volatile
  1873                           
  1874                           ;main.c: 125:   SLRCONA = 0x00;
  1875   0018D0  6B03               	clrf	3,b	;volatile
  1876                           
  1877                           ;main.c: 128:   LATA = 0x00;
  1878   0018D2  6ABE               	clrf	190,c	;volatile
  1879                           
  1880                           ;main.c: 129:   LATC = 0x00;
  1881   0018D4  6AC0               	clrf	192,c	;volatile
  1882                           
  1883                           ;main.c: 132:   TRISAbits.TRISA0 = 0;
  1884   0018D6  90C6               	bcf	198,0,c	;volatile
  1885                           
  1886                           ;main.c: 133:   TRISAbits.TRISA1 = 1;
  1887   0018D8  82C6               	bsf	198,1,c	;volatile
  1888                           
  1889                           ;main.c: 134:   TRISAbits.TRISA2 = 1;
  1890   0018DA  84C6               	bsf	198,2,c	;volatile
  1891                           
  1892                           ;main.c: 135:   TRISAbits.TRISA4 = 0;
  1893   0018DC  98C6               	bcf	198,4,c	;volatile
  1894                           
  1895                           ;main.c: 136:   TRISCbits.TRISC1 = 0;
  1896   0018DE  92C8               	bcf	200,1,c	;volatile
  1897                           
  1898                           ;main.c: 138:   WPUA = 0x00;
  1899   0018E0  6B01               	clrf	1,b	;volatile
  1900                           
  1901                           ;main.c: 140:   TRISAbits.TRISA0 = 0;
  1902   0018E2  90C6               	bcf	198,0,c	;volatile
  1903                           
  1904                           ;main.c: 141:   LATAbits.LATA0 = 0;
  1905   0018E4  90BE               	bcf	190,0,c	;volatile
  1906                           
  1907                           ;main.c: 143:   TRISAbits.TRISA1 = 1;
  1908   0018E6  82C6               	bsf	198,1,c	;volatile
  1909                           
  1910                           ;main.c: 145:   TRISAbits.TRISA2 = 1;
  1911   0018E8  84C6               	bsf	198,2,c	;volatile
  1912                           
  1913                           ;main.c: 146:   WPUAbits.WPUA2 = 0;
  1914   0018EA  9501               	bcf	1,2,b	;volatile
  1915                           
  1916                           ;main.c: 148:   TRISAbits.TRISA4 = 0;
  1917   0018EC  98C6               	bcf	198,4,c	;volatile
  1918                           
  1919                           ;main.c: 149:   LATAbits.LATA4 = 0;
  1920   0018EE  98BE               	bcf	190,4,c	;volatile
  1921                           
  1922                           ;main.c: 151:   TRISCbits.TRISC1 = 0;
  1923   0018F0  92C8               	bcf	200,1,c	;volatile
  1924                           
  1925                           ;main.c: 152:   LATCbits.LATC1 = 1;
  1926   0018F2  82C0               	bsf	192,1,c	;volatile
  1927   0018F4                     
  1928                           ; BSR set to: 4
  1929   0018F4  0012               	return		;funcret
  1930   0018F6                     __end_of_gpio_init:
  1931                           	callstack 0
  1932                           
  1933 ;; *************** function _clock_init *****************
  1934 ;; Defined at:
  1935 ;;		line 105 in file "main.c"
  1936 ;; Parameters:    Size  Location     Type
  1937 ;;		None
  1938 ;; Auto vars:     Size  Location     Type
  1939 ;;		None
  1940 ;; Return value:  Size  Location     Type
  1941 ;;                  1    wreg      void 
  1942 ;; Registers used:
  1943 ;;		wreg, status,2
  1944 ;; Tracked objects:
  1945 ;;		On entry : 0/0
  1946 ;;		On exit  : 0/0
  1947 ;;		Unchanged: 0/0
  1948 ;; Data sizes:     COMRAM   BANK5   BANK6   BANK7   BANK8   BANK9  BANK10  BANK11  BANK12  BANK13  BANK14  BANK15  BANK1
      +6  BANK17  BANK18  BANK19  BANK20
  1949 ;;      Params:         0       0       0       0       0       0       0       0       0       0       0       0       
      +0       0       0       0       0
  1950 ;;      Locals:         0       0       0       0       0       0       0       0       0       0       0       0       
      +0       0       0       0       0
  1951 ;;      Temps:          0       0       0       0       0       0       0       0       0       0       0       0       
      +0       0       0       0       0
  1952 ;;      Totals:         0       0       0       0       0       0       0       0       0       0       0       0       
      +0       0       0       0       0
  1953 ;;Total ram usage:        0 bytes
  1954 ;; Hardware stack levels used: 1
  1955 ;; Hardware stack levels required when called: 2
  1956 ;; This function calls:
  1957 ;;		Nothing
  1958 ;; This function is called by:
  1959 ;;		_main
  1960 ;; This function uses a non-reentrant model
  1961 ;;
  1962                           
  1963                           	psect	text11
  1964   001964                     __ptext11:
  1965                           	callstack 0
  1966   001964                     _clock_init:
  1967                           	callstack 124
  1968   001964                     
  1969                           ;main.c: 106:   OSCCON1 = 0x60;
  1970   001964  0E60               	movlw	96
  1971   001966  0100               	movlb	0	; () banked
  1972   001968  6FAD               	movwf	173,b	;volatile
  1973                           
  1974                           ;main.c: 107:   OSCFRQ = 0x03;
  1975   00196A  0E03               	movlw	3
  1976   00196C  6FB1               	movwf	177,b	;volatile
  1977   00196E                     
  1978                           ; BSR set to: 0
  1979   00196E  0012               	return		;funcret
  1980   001970                     __end_of_clock_init:
  1981                           	callstack 0
  1982                           
  1983 ;; *************** function _isr *****************
  1984 ;; Defined at:
  1985 ;;		line 288 in file "main.c"
  1986 ;; Parameters:    Size  Location     Type
  1987 ;;		None
  1988 ;; Auto vars:     Size  Location     Type
  1989 ;;		None
  1990 ;; Return value:  Size  Location     Type
  1991 ;;                  1    wreg      void 
  1992 ;; Registers used:
  1993 ;;		wreg, status,2, status,0, cstack
  1994 ;; Tracked objects:
  1995 ;;		On entry : 0/0
  1996 ;;		On exit  : 0/0
  1997 ;;		Unchanged: 0/0
  1998 ;; Data sizes:     COMRAM   BANK5   BANK6   BANK7   BANK8   BANK9  BANK10  BANK11  BANK12  BANK13  BANK14  BANK15  BANK1
      +6  BANK17  BANK18  BANK19  BANK20
  1999 ;;      Params:         0       0       0       0       0       0       0       0       0       0       0       0       
      +0       0       0       0       0
  2000 ;;      Locals:         0       0       0       0       0       0       0       0       0       0       0       0       
      +0       0       0       0       0
  2001 ;;      Temps:          0       0       0       0       0       0       0       0       0       0       0       0       
      +0       0       0       0       0
  2002 ;;      Totals:         0       0       0       0       0       0       0       0       0       0       0       0       
      +0       0       0       0       0
  2003 ;;Total ram usage:        0 bytes
  2004 ;; Hardware stack levels used: 1
  2005 ;; Hardware stack levels required when called: 1
  2006 ;; This function calls:
  2007 ;;		_timer1_reload_1s
  2008 ;; This function is called by:
  2009 ;;		Interrupt level 2
  2010 ;; This function uses a non-reentrant model
  2011 ;;
  2012                           
  2013                           	psect	text12
  2014   0017C4                     __ptext12:
  2015                           	callstack 0
  2016   0017C4                     _isr:
  2017                           	callstack 122
  2018   0017C4                     
  2019                           ;main.c: 289:   if (PIR0bits.IOCIF) {
  2020   0017C4  AEB3               	btfss	179,7,c	;volatile
  2021   0017C6  EFE7  F00B         	goto	i2u24_41
  2022   0017CA  EFE9  F00B         	goto	i2u24_40
  2023   0017CE                     i2u24_41:
  2024   0017CE  EFFB  F00B         	goto	i2l1073
  2025   0017D2                     i2u24_40:
  2026   0017D2                     
  2027                           ;main.c: 290:     if (IOCAFbits.IOCAF2) {
  2028   0017D2  0104               	movlb	4	; () banked
  2029   0017D4  A507               	btfss	7,2,b	;volatile
  2030   0017D6  EFEF  F00B         	goto	i2u25_41
  2031   0017DA  EFF1  F00B         	goto	i2u25_40
  2032   0017DE                     i2u25_41:
  2033   0017DE  EFFA  F00B         	goto	i2l1071
  2034   0017E2                     i2u25_40:
  2035   0017E2                     
  2036                           ; BSR set to: 4
  2037                           ;main.c: 291:       pulse_count++;
  2038   0017E2  4A05               	infsnz	_pulse_count^(0+1280),f,c	;volatile
  2039   0017E4  2A06               	incf	(_pulse_count+1)^(0+1280),f,c	;volatile
  2040   0017E6                     
  2041                           ; BSR set to: 4
  2042                           ;main.c: 292:       minute_count_latched = pulse_count;
  2043   0017E6  C505  F503         	movff	_pulse_count,_minute_count_latched	;volatile
  2044   0017EA  C506  F504         	movff	_pulse_count+1,_minute_count_latched+1	;volatile
  2045   0017EE                     
  2046                           ; BSR set to: 4
  2047                           ;main.c: 293:       minute_ready = 1;
  2048   0017EE  0E01               	movlw	1
  2049   0017F0  6E09               	movwf	_minute_ready^(0+1280),c	;volatile
  2050   0017F2                     
  2051                           ; BSR set to: 4
  2052                           ;main.c: 294:       IOCAFbits.IOCAF2 = 0;
  2053   0017F2  9507               	bcf	7,2,b	;volatile
  2054   0017F4                     i2l1071:
  2055                           
  2056                           ; BSR set to: 4
  2057                           ;main.c: 296:     PIR0bits.IOCIF = 0;
  2058   0017F4  9EB3               	bcf	179,7,c	;volatile
  2059   0017F6                     i2l1073:
  2060                           
  2061                           ;main.c: 299:   if (PIR3bits.TMR1IF) {
  2062   0017F6  A8B6               	btfss	182,4,c	;volatile
  2063   0017F8  EF00  F00C         	goto	i2u26_41
  2064   0017FC  EF02  F00C         	goto	i2u26_40
  2065   001800                     i2u26_41:
  2066   001800  EF0F  F00C         	goto	i2l148
  2067   001804                     i2u26_40:
  2068   001804                     
  2069                           ;main.c: 300:     PIR3bits.TMR1IF = 0;
  2070   001804  98B6               	bcf	182,4,c	;volatile
  2071   001806                     
  2072                           ;main.c: 301:     timer1_reload_1s();
  2073   001806  ECB8  F00C         	call	_timer1_reload_1s	;wreg free
  2074   00180A                     
  2075                           ;main.c: 303:     sec_ticks++;
  2076   00180A  2A08               	incf	_sec_ticks^(0+1280),f,c	;volatile
  2077   00180C                     
  2078                           ;main.c: 304:     if (sec_ticks >= 10u) {
  2079   00180C  0E09               	movlw	9
  2080   00180E  6408               	cpfsgt	_sec_ticks^(0+1280),c	;volatile
  2081   001810  EF0C  F00C         	goto	i2u27_41
  2082   001814  EF0E  F00C         	goto	i2u27_40
  2083   001818                     i2u27_41:
  2084   001818  EF0F  F00C         	goto	i2l148
  2085   00181C                     i2u27_40:
  2086   00181C                     
  2087                           ;main.c: 305:       sec_ticks = 0;
  2088   00181C  6A08               	clrf	_sec_ticks^(0+1280),c	;volatile
  2089   00181E                     i2l148:
  2090   00181E  0011               	retfie		f
  2091   001820                     __end_of_isr:
  2092                           	callstack 0
  2093                           
  2094 ;; *************** function _timer1_reload_1s *****************
  2095 ;; Defined at:
  2096 ;;		line 180 in file "main.c"
  2097 ;; Parameters:    Size  Location     Type
  2098 ;;		None
  2099 ;; Auto vars:     Size  Location     Type
  2100 ;;		None
  2101 ;; Return value:  Size  Location     Type
  2102 ;;                  1    wreg      void 
  2103 ;; Registers used:
  2104 ;;		wreg, status,2
  2105 ;; Tracked objects:
  2106 ;;		On entry : 0/0
  2107 ;;		On exit  : 0/0
  2108 ;;		Unchanged: 0/0
  2109 ;; Data sizes:     COMRAM   BANK5   BANK6   BANK7   BANK8   BANK9  BANK10  BANK11  BANK12  BANK13  BANK14  BANK15  BANK1
      +6  BANK17  BANK18  BANK19  BANK20
  2110 ;;      Params:         0       0       0       0       0       0       0       0       0       0       0       0       
      +0       0       0       0       0
  2111 ;;      Locals:         0       0       0       0       0       0       0       0       0       0       0       0       
      +0       0       0       0       0
  2112 ;;      Temps:          0       0       0       0       0       0       0       0       0       0       0       0       
      +0       0       0       0       0
  2113 ;;      Totals:         0       0       0       0       0       0       0       0       0       0       0       0       
      +0       0       0       0       0
  2114 ;;Total ram usage:        0 bytes
  2115 ;; Hardware stack levels used: 1
  2116 ;; This function calls:
  2117 ;;		Nothing
  2118 ;; This function is called by:
  2119 ;;		_isr
  2120 ;; This function uses a non-reentrant model
  2121 ;;
  2122                           
  2123                           	psect	text13
  2124   001970                     __ptext13:
  2125                           	callstack 0
  2126   001970                     _timer1_reload_1s:
  2127                           	callstack 122
  2128   001970                     
  2129                           ;main.c: 181:   TMR1H = 0x85;
  2130   001970  0E85               	movlw	133
  2131   001972  0103               	movlb	3	; () banked
  2132   001974  6F13               	movwf	19,b	;volatile
  2133                           
  2134                           ;main.c: 182:   TMR1L = 0xEE;
  2135   001976  0EEE               	movlw	238
  2136   001978  6F12               	movwf	18,b	;volatile
  2137   00197A                     
  2138                           ; BSR set to: 3
  2139   00197A  0012               	return		;funcret
  2140   00197C                     __end_of_timer1_reload_1s:
  2141                           	callstack 0
  2142                           
  2143                           ;
  2144                           ; H/W Interrupt Vector Table @ 0x8
  2145                           ;
  2146                           
  2147                           	psect	ivt0x8
  2148   000008                     __pivt0x8:
  2149                           	callstack 0
  2150   000008                     ivt0x8_base:
  2151                           	callstack 0
  2152                           
  2153                           ; high-priority vector
  2154   000008  EFE2  F00B         	goto	_isr
  2155   000018                     	org	16
  2156                           
  2157                           ; low-priority vector
  2158   000018  00FF               	reset	
  2159                           
  2160                           	psect	smallconst
  2161   001600                     __psmallconst:
  2162                           	callstack 0
  2163   001600  00                 	db	0
  2164   001601  00                 	db	0	; dummy byte at the end
  2165   001600                     __smallconst    set	__psmallconst
  2166   001600                     __mediumconst   set	__psmallconst
  2167   000000                     __activetblptr  equ	0
  2168                           
  2169                           	psect	rparam
  2170   000001                     ___rparam_used  equ	1
  2171   000000                     ___param_bank   equ	0
  2172   000000                     __Lparam        equ	__Lrparam
  2173   000000                     __Hparam        equ	__Hrparam
  2174                           
  2175                           	psect	config
  2176                           
  2177                           ;Config register CONFIG1 @ 0x300000
  2178                           ;	External Oscillator Selection
  2179                           ;	FEXTOSC = OFF, Oscillator not enabled
  2180                           ;	Reset Oscillator Selection
  2181                           ;	RSTOSC = HFINTOSC_1MHZ, HFINTOSC with HFFRQ = 4 MHz and CDIV = 4:1
  2182   300000                     	org	3145728
  2183   300000  EC                 	db	236
  2184                           
  2185                           ;Config register CONFIG2 @ 0x300001
  2186                           ;	Clock out Enable bit
  2187                           ;	CLKOUTEN = OFF, CLKOUT function is disabled
  2188                           ;	PRLOCKED One-Way Set Enable bit
  2189                           ;	PR1WAY = ON, PRLOCKED bit can be cleared and set only once
  2190                           ;	Clock Switch Enable bit
  2191                           ;	CSWEN = ON, Writing to NOSC and NDIV is allowed
  2192                           ;	Fail-Safe Clock Monitor Enable bit
  2193                           ;	FCMEN = ON, Fail-Safe Clock Monitor enabled
  2194                           ;	Fail-Safe Clock Monitor - Primary XTAL Enable bit
  2195                           ;	FCMENP = ON, Fail-Safe Clock Monitor enabled; timer will flag FSCMP bit and OSFIF inte
      +                          rrupt on EXTOSC failure.
  2196                           ;	Fail-Safe Clock Monitor - Secondary XTAL Enable bit
  2197                           ;	FCMENS = ON, Fail-Safe Clock Monitor enabled; timer will flag FSCMP bit and OSFIF inte
      +                          rrupt on SOSC failure.
  2198   300001                     	org	3145729
  2199   300001  FF                 	db	255
  2200                           
  2201                           ;Config register CONFIG3 @ 0x300002
  2202                           ;	MCLR Enable bit
  2203                           ;	MCLRE = EXTMCLR, If LVP = 0, MCLR pin is MCLR; If LVP = 1, RE3 pin function is MCLR
  2204                           ;	Power-up timer selection bits
  2205                           ;	PWRTS = PWRT_OFF, PWRT is disabled
  2206                           ;	Multi-vector enable bit
  2207                           ;	MVECEN = OFF, Interrupt contoller does not use vector table to prioritze interrupts
  2208                           ;	IVTLOCK bit One-way set enable bit
  2209                           ;	IVT1WAY = ON, IVTLOCKED bit can be cleared and set only once
  2210                           ;	Low Power BOR Enable bit
  2211                           ;	LPBOREN = OFF, Low-Power BOR disabled
  2212                           ;	Brown-out Reset Enable bits
  2213                           ;	BOREN = SBORDIS, Brown-out Reset enabled , SBOREN bit is ignored
  2214   300002                     	org	3145730
  2215   300002  F7                 	db	247
  2216                           
  2217                           ;Config register CONFIG4 @ 0x300003
  2218                           ;	Brown-out Reset Voltage Selection bits
  2219                           ;	BORV = VBOR_1P9, Brown-out Reset Voltage (VBOR) set to 1.9V
  2220                           ;	ZCD Disable bit
  2221                           ;	ZCD = OFF, ZCD module is disabled. ZCD can be enabled by setting the ZCDSEN bit of ZCD
      +                          CON
  2222                           ;	PPSLOCK bit One-Way Set Enable bit
  2223                           ;	PPS1WAY = ON, PPSLOCKED bit can be cleared and set only once; PPS registers remain loc
      +                          ked after one clear/set cycle
  2224                           ;	Stack Full/Underflow Reset Enable bit
  2225                           ;	STVREN = ON, Stack full/underflow will cause Reset
  2226                           ;	Low Voltage Programming Enable bit
  2227                           ;	LVP = ON, Low voltage programming enabled. MCLR/VPP pin function is MCLR. MCLRE config
      +                          uration bit is ignored
  2228                           ;	Extended Instruction Set Enable bit
  2229                           ;	XINST = OFF, Extended Instruction Set and Indexed Addressing Mode disabled
  2230   300003                     	org	3145731
  2231   300003  FF                 	db	255
  2232                           
  2233                           ;Config register CONFIG5 @ 0x300004
  2234                           ;	WDT Period selection bits
  2235                           ;	WDTCPS = WDTCPS_31, Divider ratio 1:65536; software control of WDTPS
  2236                           ;	WDT operating mode
  2237                           ;	WDTE = ON, WDT enabled regardless of sleep; SWDTEN is ignored
  2238   300004                     	org	3145732
  2239   300004  FF                 	db	255
  2240                           
  2241                           ;Config register CONFIG6 @ 0x300005
  2242                           ;	WDT Window Select bits
  2243                           ;	WDTCWS = WDTCWS_7, window always open (100%); software control; keyed access not requi
      +                          red
  2244                           ;	WDT input clock selector
  2245                           ;	WDTCCS = SC, Software Control
  2246   300005                     	org	3145733
  2247   300005  FF                 	db	255
  2248                           
  2249                           ;Config register CONFIG7 @ 0x300006
  2250                           ;	Boot Block Size selection bits
  2251                           ;	BBSIZE = BBSIZE_512, Boot Block size is 512 words
  2252                           ;	Boot Block enable bit
  2253                           ;	BBEN = OFF, Boot block disabled
  2254                           ;	Storage Area Flash enable bit
  2255                           ;	SAFEN = OFF, SAF disabled
  2256                           ;	Background Debugger
  2257                           ;	DEBUG = OFF, Background Debugger disabled
  2258   300006                     	org	3145734
  2259   300006  FF                 	db	255
  2260                           
  2261                           ;Config register CONFIG8 @ 0x300007
  2262                           ;	Boot Block Write Protection bit
  2263                           ;	WRTB = OFF, Boot Block not Write protected
  2264                           ;	Configuration Register Write Protection bit
  2265                           ;	WRTC = OFF, Configuration registers not Write protected
  2266                           ;	Data EEPROM Write Protection bit
  2267                           ;	WRTD = OFF, Data EEPROM not Write protected
  2268                           ;	SAF Write protection bit
  2269                           ;	WRTSAF = OFF, SAF not Write Protected
  2270                           ;	Application Block write protection bit
  2271                           ;	WRTAPP = OFF, Application Block not write protected
  2272   300007                     	org	3145735
  2273   300007  FF                 	db	255
  2274                           
  2275                           ;Config register CONFIG9 @ 0x300008
  2276                           ;	PFM and Data EEPROM Code Protection bit
  2277                           ;	CP = OFF, PFM and Data EEPROM code protection disabled
  2278   300008                     	org	3145736
  2279   300008  FF                 	db	255
  2280                           tosu	equ	0x4FF
  2281                           tosh	equ	0x4FE
  2282                           tosl	equ	0x4FD
  2283                           stkptr	equ	0x4FC
  2284                           pclatu	equ	0x4FB
  2285                           pclath	equ	0x4FA
  2286                           pcl	equ	0x4F9
  2287                           tblptru	equ	0x4F8
  2288                           tblptrh	equ	0x4F7
  2289                           tblptrl	equ	0x4F6
  2290                           tablat	equ	0x4F5
  2291                           prodh	equ	0x4F4
  2292                           prodl	equ	0x4F3
  2293                           indf0	equ	0x4EF
  2294                           postinc0	equ	0x4EE
  2295                           postdec0	equ	0x4ED
  2296                           preinc0	equ	0x4EC
  2297                           plusw0	equ	0x4EB
  2298                           fsr0h	equ	0x4EA
  2299                           fsr0l	equ	0x4E9
  2300                           wreg	equ	0x4E8
  2301                           indf1	equ	0x4E7
  2302                           postinc1	equ	0x4E6
  2303                           postdec1	equ	0x4E5
  2304                           preinc1	equ	0x4E4
  2305                           plusw1	equ	0x4E3
  2306                           fsr1h	equ	0x4E2
  2307                           fsr1l	equ	0x4E1
  2308                           bsr	equ	0x4E0
  2309                           indf2	equ	0x4DF
  2310                           postinc2	equ	0x4DE
  2311                           postdec2	equ	0x4DD
  2312                           preinc2	equ	0x4DC
  2313                           plusw2	equ	0x4DB
  2314                           fsr2h	equ	0x4DA
  2315                           fsr2l	equ	0x4D9
  2316                           status	equ	0x4D8

Data Sizes:
    Strings     0
    Constant    0
    Data        0
    BSS         9
    Persistent  0
    Stack       0

Auto Spaces:
    Space          Size  Autos    Used
    COMRAM           95      7      16
    BANK5           160      0       0
    BANK6           256      0       0
    BANK7           256      0       0
    BANK8           256      0       0
    BANK9           256      0       0
    BANK10          256      0       0
    BANK11          256      0       0
    BANK12          256      0       0
    BANK13          256      0       0
    BANK14          256      0       0
    BANK15          256      0       0
    BANK16          256      0       0
    BANK17          256      0       0
    BANK18          256      0       0
    BANK19          256      0       0
    BANK20          256      0       0

Pointer List with Targets:

    None.

Critical Paths under _main in COMRAM

    _main->_service_particle_readout
    _service_particle_readout->_send_byte
    _send_byte->_send_bit

Critical Paths under _isr in COMRAM

    None.

Critical Paths under _main in BANK5

    None.

Critical Paths under _isr in BANK5

    None.

Critical Paths under _main in BANK6

    None.

Critical Paths under _isr in BANK6

    None.

Critical Paths under _main in BANK7

    None.

Critical Paths under _isr in BANK7

    None.

Critical Paths under _main in BANK8

    None.

Critical Paths under _isr in BANK8

    None.

Critical Paths under _main in BANK9

    None.

Critical Paths under _isr in BANK9

    None.

Critical Paths under _main in BANK10

    None.

Critical Paths under _isr in BANK10

    None.

Critical Paths under _main in BANK11

    None.

Critical Paths under _isr in BANK11

    None.

Critical Paths under _main in BANK12

    None.

Critical Paths under _isr in BANK12

    None.

Critical Paths under _main in BANK13

    None.

Critical Paths under _isr in BANK13

    None.

Critical Paths under _main in BANK14

    None.

Critical Paths under _isr in BANK14

    None.

Critical Paths under _main in BANK15

    None.

Critical Paths under _isr in BANK15

    None.

Critical Paths under _main in BANK16

    None.

Critical Paths under _isr in BANK16

    None.

Critical Paths under _main in BANK17

    None.

Critical Paths under _isr in BANK17

    None.

Critical Paths under _main in BANK18

    None.

Critical Paths under _isr in BANK18

    None.

Critical Paths under _main in BANK19

    None.

Critical Paths under _isr in BANK19

    None.

Critical Paths under _main in BANK20

    None.

Critical Paths under _isr in BANK20

    None.

Call Graph Tables:

 ---------------------------------------------------------------------------------
 (Depth) Function   	        Calls       Base Space   Used Autos Params    Refs
 ---------------------------------------------------------------------------------
 (0) _main                                                 0     0      0     288
                         _clock_init
                          _gpio_init
                     _interrupt_init
                           _ioc_init
                           _pps_init
           _service_particle_readout
                     _timer1_init_1s
 ---------------------------------------------------------------------------------
 (1) _timer1_init_1s                                       0     0      0       0
 ---------------------------------------------------------------------------------
 (1) _service_particle_readout                             4     4      0     288
                                              4 COMRAM     3     3      0
                          _send_byte
               _wait_for_ack_8clocks
              _wait_for_photon_start
 ---------------------------------------------------------------------------------
 (2) _wait_for_photon_start                                2     0      2      23
                                              0 COMRAM     2     0      2
 ---------------------------------------------------------------------------------
 (2) _wait_for_ack_8clocks                                 3     1      2      70
                                              0 COMRAM     3     1      2
 ---------------------------------------------------------------------------------
 (2) _send_byte                                            2     2      0      60
                                              2 COMRAM     2     2      0
                           _send_bit
 ---------------------------------------------------------------------------------
 (3) _send_bit                                             2     2      0      15
                                              0 COMRAM     2     2      0
 ---------------------------------------------------------------------------------
 (1) _pps_init                                             0     0      0       0
 ---------------------------------------------------------------------------------
 (1) _ioc_init                                             0     0      0       0
 ---------------------------------------------------------------------------------
 (1) _interrupt_init                                       0     0      0       0
 ---------------------------------------------------------------------------------
 (1) _gpio_init                                            0     0      0       0
 ---------------------------------------------------------------------------------
 (1) _clock_init                                           0     0      0       0
 ---------------------------------------------------------------------------------
 Estimated maximum stack depth 3
 ---------------------------------------------------------------------------------
 (Depth) Function   	        Calls       Base Space   Used Autos Params    Refs
 ---------------------------------------------------------------------------------
 (4) _isr                                                  0     0      0       0
                   _timer1_reload_1s
 ---------------------------------------------------------------------------------
 (5) _timer1_reload_1s                                     0     0      0       0
 ---------------------------------------------------------------------------------
 Estimated maximum stack depth 5
 ---------------------------------------------------------------------------------

 Call Graph Graphs:

 _main (ROOT)
   _clock_init
   _gpio_init
   _interrupt_init
   _ioc_init
   _pps_init
   _service_particle_readout
     _send_byte
       _send_bit
     _wait_for_ack_8clocks
     _wait_for_photon_start
   _timer1_init_1s

 _isr (ROOT)
   _timer1_reload_1s

Address spaces:
Name               Size   Autos  Total    Usage
BIGRAM            4095      0       0      0.0%
BITBIGSFRlh        898      0       0      0.0%
BITBIGSFRh         268      0       0      0.0%
BITBIGSFR_1        256      0       0      0.0%
BITBANK20          256      0       0      0.0%
BANK20             256      0       0      0.0%
BITBANK19          256      0       0      0.0%
BANK19             256      0       0      0.0%
BITBANK18          256      0       0      0.0%
BANK18             256      0       0      0.0%
BITBANK17          256      0       0      0.0%
BANK17             256      0       0      0.0%
BITBANK16          256      0       0      0.0%
BANK16             256      0       0      0.0%
BITBANK15          256      0       0      0.0%
BANK15             256      0       0      0.0%
BITBANK14          256      0       0      0.0%
BANK14             256      0       0      0.0%
BITBANK13          256      0       0      0.0%
BANK13             256      0       0      0.0%
BITBANK12          256      0       0      0.0%
BANK12             256      0       0      0.0%
BITBANK11          256      0       0      0.0%
BANK11             256      0       0      0.0%
BITBANK10          256      0       0      0.0%
BANK10             256      0       0      0.0%
BITBANK9           256      0       0      0.0%
BANK9              256      0       0      0.0%
BITBANK8           256      0       0      0.0%
BANK8              256      0       0      0.0%
BITBANK7           256      0       0      0.0%
BANK7              256      0       0      0.0%
BITBANK6           256      0       0      0.0%
BANK6              256      0       0      0.0%
BITBANK5           160      0       0      0.0%
BANK5              160      0       0      0.0%
BITBIGSFRll        112      0       0      0.0%
BITCOMRAM           95      0       0      0.0%
COMRAM              95      7      16     16.8%
STACK                0      0       0      0.0%
DATA                 0      0      16      0.0%


Microchip Technology PIC18 Macro Assembler V3.10 build 20250813170317 
Symbol Table                                                                                   Wed Jun 10 11:25:42 2026

                                     l82 1984                                       l91 1990  
                                     l76 196E                                       l85 1962  
                                     l94 198E                                       l79 18F4  
                                     l97 1822                                       u10 1830  
                                     u11 182C                                       u20 1844  
                                     u21 183C                                       u40 1860  
                                     u41 185C                                       u50 1870  
                                     u51 186C                                       u60 190A  
                                     u61 1904                                       u38 1846  
                                     u70 190C                                       u80 1926  
                                     u81 1922                              _pulse_count 0505  
                  ?_wait_for_ack_8clocks 050A                   __end_of_interrupt_init 1990  
                                    l100 1852                                      l102 1860  
                                    l103 1862                                      l111 1926  
                                    l120 18BC                                      l106 1870  
                                    l115 1876                                      l124 178A  
                                    l125 1746                                      l117 1884  
                                    l134 17C2                                      l128 1768  
                                    l138 173E                                      l139 172E  
                                    l951 1850                                      l961 1910  
                                    l953 18F8                                      l947 1822  
                                    l963 1914                                      l949 1830  
                                    l965 1916                                      l959 18FA  
                                    u400 179C                                      u401 1798  
                                    u410 17AC                                      u411 17A8  
                                    u420 17C0                                      u340 1884  
                                    u500 163E                                      u421 17BA  
                                    u341 1880                                      u501 163A  
                                    u430 17C2                                      u350 1892  
                                    u510 1652                                      u351 188E  
                                    u511 164E                                      u360 18BA  
                                    u440 16DC                                      u520 1668  
                                    u361 18B6                                      u441 16D8  
                                    u521 1664                                      u370 1754  
                                    u530 167A                                      u371 1750  
                                    u531 1676                                      u380 1768  
                                    u460 171E                                      u540 168E  
                                    u381 1764                                      u461 171A  
                                    u541 168A                                      u390 1776  
                                    u391 1772                                      u455 16E6  
                                    u456 16E8                                      u490 162C  
                                    u475 1728                                      u491 1628  
                                    u476 172A                                      u485 173A  
                                    u557 1696                                      u486 173C  
                                    u567 16BA                                      u577 189A  
                                    u587 177E                                      _isr 17C4  
                                    wreg 04E8                                     l1001 1964  
                                   l1003 18BE                                     l1011 195C  
                                   l1005 197C                                     l1013 195E  
                                   l1015 1960                                     l1007 1948  
                                   l1009 1950                                     l1201 162C  
                                   l1019 1986                                     l1131 18BA  
                                   l1123 1892                                     l1211 1658  
                                   l1203 162E                                     l1141 1776  
                                   l1213 1668                                     l1205 163E  
                                   l1143 177C                                     l1135 1740  
                                   l1127 1898                                     l1119 1872  
                                   l1215 167A                                     l1207 1640  
                                   l1145 1784                                     l1137 1754  
                                   l1129 18A0                                     l1161 16B6  
                                   l1153 16A4                                     l1217 168E  
                                   l1209 1652                                     l1147 179C  
                                   l1163 16B8                                     l1155 16A4  
                                   l1219 1694                                     l1149 17AC  
                                   l1173 16EE                                     l1165 16C0  
                                   l1157 16AC                                     l1183 173C  
                                   l1175 1700                                     l1167 16DC  
                                   l1159 16AE                                     l1191 160A  
                                   l1177 171E                                     l1169 16E8  
                                   l1193 160E                                     l1195 1612  
                                   l1187 1602                                     l1197 161A  
                                   l1189 1606                                     l1199 161C  
                                   ?_isr 050A                                     _LATA 04BE  
                                   _LATC 04C0                                     i2l88 197A  
                                   _WPUA 0401                                     _main 1602  
                                   start 001A                             ___param_bank 0000  
                                  ??_isr 050A                                    ?_main 050A  
                        ?_interrupt_init 050A                                    i2l148 181E  
                                  _TMR1H 0313                                    _TMR1L 0312  
                                  status 04D8                          __initialization 1928  
                ??_wait_for_photon_start 050C                             __end_of_main 16A4  
                 ??_wait_for_ack_8clocks 050C                                   ??_main 0511  
                          __activetblptr 0000                                   _ANSELA 0400  
                                 _ANSELC 0410                          _led_pulse_ticks 0507  
                                 _ODCONA 0402                                   i2l1017 1970  
                                 i2l1061 17D2                                   i2l1063 17E2  
                                 i2l1071 17F4                                   i2l1081 180C  
                                 i2l1065 17E6                                   i2l1073 17F6  
                                 i2l1083 181C                                   i2l1075 1804  
                                 i2l1067 17EE                                   i2l1059 17C4  
                                 i2l1077 1806                                   i2l1069 17F2  
                                 i2l1079 180A  service_particle_readout@gie_was_enabled 0510  
                                 _OSCFRQ 00B1                         _timer1_reload_1s 1970  
                       __end_of_ioc_init 1986                                   clear_0 192E  
                                 isa$std 0001                         __end_of_send_bit 1872  
             ??_service_particle_readout 050E                             __mediumconst 1600  
                       __end_of_pps_init 1992                               __accesstop 0560  
                __end_of__initialization 1942                            ___rparam_used 0001  
                         __pcstackCOMRAM 050A                                  IVTBASEH 045E  
                                IVTBASEL 045D                                  IVTBASEU 045F  
                       ??_interrupt_init 050A                                  _CM1CON0 0070  
                             _clock_init 1964                                  _OSCCON1 00AD  
                                i2u24_40 17D2                                  i2u24_41 17CE  
                                i2u25_40 17E2                                  i2u25_41 17DE  
                                i2u26_40 1804                                  i2u26_41 1800  
                                i2u27_40 181C                                  i2u27_41 1818  
                                _SLRCONA 0403           wait_for_ack_8clocks@timeout_ms 050A  
                              ?_ioc_init 050A                                ?_send_bit 050A  
                                __Hparam 0000                                  __Lparam 0000  
                              ?_pps_init 050A            __end_of_wait_for_photon_start 18BE  
                           __psmallconst 1600                                  __pcinit 1928  
                                __ramtop 1600                                  __ptext0 1602  
                                __ptext1 1948                                  __ptext2 16A4  
                                __ptext3 1872                                  __ptext4 1740  
                                __ptext5 18F6                                  __ptext6 1820  
                                __ptext7 1990                                  __ptext8 197C  
                                __ptext9 1986                        __end_of_gpio_init 18F6  
       __end_of_service_particle_readout 1740                                _IOCAFbits 0407  
                              _IOCANbits 0406                                _IOCAPbits 0405  
               __end_of_timer1_reload_1s 197C                     end_of_initialization 1942  
                             ??_ioc_init 050A                        __end_of_send_byte 1928  
                             ??_send_bit 050A                               ??_pps_init 050A  
                                postinc0 04EE                                _PORTAbits 04CE  
                            ?_clock_init 050A                                _TRISAbits 04C6  
                              _TRISCbits 04C8                           _timer1_init_1s 1948  
                    start_initialization 1928                              __end_of_isr 1820  
                             ivt0x8_base 0008                ?_service_particle_readout 050A  
                 __end_of_timer1_init_1s 1964                              __pbssCOMRAM 0501  
                        ?_timer1_init_1s 050A                               send_byte@i 050D  
                             send_byte@v 050C                              __smallconst 1600  
                              _gpio_init 18BE                        ?_timer1_reload_1s 050A  
                     ??_timer1_reload_1s 050A                                _sec_ticks 0508  
                               _LATAbits 04BE                                 _LATCbits 04C0  
                               _PIE0bits 04A8                                 _PIE3bits 04AB  
                              _send_byte 18F6                                 _PIR0bits 04B3  
                               _PIR3bits 04B6                    _wait_for_photon_start 1872  
                           ??_clock_init 050A                               _ADCON0bits 03F3  
                               _WPUAbits 0401                               ?_gpio_init 050A  
              service_particle_readout@c 050E                              _INTCON0bits 04D6  
           __end_of_wait_for_ack_8clocks 17C4                             _minute_ready 0509  
                             ?_send_byte 050A                       __end_of_clock_init 1970  
                               __Hrparam 0000                                 __Lrparam 0000  
                               __pivt0x8 0008                                 __ptext10 18BE  
                               __ptext11 1964                                 __ptext12 17C4  
                               __ptext13 1970                                send_bit@b 050B  
                               _ioc_init 197C                     _minute_count_latched 0503  
                               _send_bit 1820          wait_for_photon_start@timeout_ms 050A  
                               isa$xinst 0000                                 _pps_init 1990  
                 ?_wait_for_photon_start 050A                              ??_gpio_init 050A  
                            _TMR1CONbits 0314                                 intlevel2 0000  
                       ??_timer1_init_1s 050A                              ??_send_byte 050C  
                   _tx_retry_cooldown_ms 0501                     _wait_for_ack_8clocks 1740  
                         _interrupt_init 1986                 _service_particle_readout 16A4  
              wait_for_ack_8clocks@count 050C  
