
d:/leaksense-p2/leaksense-p2/target/6.4.1/p2/leaksense-p2.elf:     file format elf32-littlearm

Sections:
Idx Name          Size      VMA       LMA       File off  Algn
  0 .module_info  00000018  085f5000  085f5000  00005000  2**0
                  CONTENTS, ALLOC, LOAD, READONLY, DATA
  1 .text         0000008c  085f5018  085f5018  00005018  2**2
                  CONTENTS, ALLOC, LOAD, READONLY, CODE
  2 .ARM.exidx    00000008  085f50a4  085f50a4  000050a4  2**2
                  CONTENTS, ALLOC, LOAD, READONLY, DATA
  3 .dynalib      00000008  023f5b30  085f50b0  00005b30  2**3
                  CONTENTS, ALLOC, LOAD, READONLY, DATA
  4 .psram_text   0000a4bc  023f5b38  085f50b8  00005b38  2**3
                  CONTENTS, ALLOC, LOAD, CODE
  5 .data_alt     00000000  023ffff4  023ffff4  00020000  2**0
                  CONTENTS
  6 .bss_alt      00000000  023ffff4  023ffff4  00020000  2**0
                  CONTENTS
  7 .data         000001e8  10072d28  085ff574  00012d28  2**2
                  CONTENTS, ALLOC, LOAD, DATA
  8 .bss          000080e8  10072f10  10072f10  00022f10  2**3
                  ALLOC
  9 .secure_ram_text 00000000  1007d000  1007d000  00020000  2**0
                  CONTENTS
 10 .backup       000000a8  1007b400  085ff75c  0001b400  2**2
                  CONTENTS, ALLOC, LOAD, DATA
 11 .module_info_suffix_align 000007b4  085ff804  085ff804  0001f804  2**0
                  ALLOC
 12 .module_info_suffix 0000003e  085fffbe  085fffbe  0001ffbe  2**0
                  CONTENTS, ALLOC, LOAD, READONLY, DATA
 13 .module_info_crc 00000004  085ffffc  085ffffc  0001fffc  2**0
                  CONTENTS, ALLOC, LOAD, READONLY, DATA
 14 .debug_info   0024beec  00000000  00000000  00020000  2**0
                  CONTENTS, READONLY, DEBUGGING, OCTETS
 15 .debug_abbrev 0001b803  00000000  00000000  0026beec  2**0
                  CONTENTS, READONLY, DEBUGGING, OCTETS
 16 .debug_loc    00093a84  00000000  00000000  002876ef  2**0
                  CONTENTS, READONLY, DEBUGGING, OCTETS
 17 .debug_aranges 00004ae0  00000000  00000000  0031b173  2**0
                  CONTENTS, READONLY, DEBUGGING, OCTETS
 18 .debug_ranges 00018050  00000000  00000000  0031fc53  2**0
                  CONTENTS, READONLY, DEBUGGING, OCTETS
 19 .debug_macro  000553a3  00000000  00000000  00337ca3  2**0
                  CONTENTS, READONLY, DEBUGGING, OCTETS
 20 .debug_line   0006d80a  00000000  00000000  0038d046  2**0
                  CONTENTS, READONLY, DEBUGGING, OCTETS
 21 .debug_str    0019024b  00000000  00000000  003fa850  2**0
                  CONTENTS, READONLY, DEBUGGING, OCTETS
 22 .debug_frame  0000e534  00000000  00000000  0058aa9c  2**2
                  CONTENTS, READONLY, DEBUGGING, OCTETS

Disassembly of section .text:

085f5018 <module_user_pre_init>:
 * Initializes this user module. Returns the start of the heap.
 */
__attribute__((section(".xip.text"))) void* module_user_pre_init() {
    // NOTE: Must invoke APIs in ROM
    // Copy .data
    if ( (&link_global_data_start != &link_global_data_initial_values) && (link_global_data_size != 0))
 85f5018:	4813      	ldr	r0, [pc, #76]	; (85f5068 <module_user_pre_init+0x50>)
 85f501a:	4914      	ldr	r1, [pc, #80]	; (85f506c <module_user_pre_init+0x54>)
__attribute__((section(".xip.text"))) void* module_user_pre_init() {
 85f501c:	b508      	push	{r3, lr}
    if ( (&link_global_data_start != &link_global_data_initial_values) && (link_global_data_size != 0))
 85f501e:	4288      	cmp	r0, r1
 85f5020:	d005      	beq.n	85f502e <module_user_pre_init+0x16>
 85f5022:	4a13      	ldr	r2, [pc, #76]	; (85f5070 <module_user_pre_init+0x58>)
 85f5024:	4282      	cmp	r2, r0
 85f5026:	d002      	beq.n	85f502e <module_user_pre_init+0x16>
    {
        _memcpy(&link_global_data_start, &link_global_data_initial_values, link_global_data_size);
 85f5028:	4b12      	ldr	r3, [pc, #72]	; (85f5074 <module_user_pre_init+0x5c>)
 85f502a:	1a12      	subs	r2, r2, r0
 85f502c:	4798      	blx	r3
    }

    // Initialize .bss
    _memset(&link_bss_location, 0, link_bss_size );
 85f502e:	4812      	ldr	r0, [pc, #72]	; (85f5078 <module_user_pre_init+0x60>)
 85f5030:	4a12      	ldr	r2, [pc, #72]	; (85f507c <module_user_pre_init+0x64>)
 85f5032:	2100      	movs	r1, #0
 85f5034:	4b12      	ldr	r3, [pc, #72]	; (85f5080 <module_user_pre_init+0x68>)
 85f5036:	1a12      	subs	r2, r2, r0
 85f5038:	4798      	blx	r3

    // Copy .dynalib
    if ( (&link_dynalib_start != &link_dynalib_flash_start) && (link_dynalib_size != 0))
 85f503a:	4812      	ldr	r0, [pc, #72]	; (85f5084 <module_user_pre_init+0x6c>)
 85f503c:	4912      	ldr	r1, [pc, #72]	; (85f5088 <module_user_pre_init+0x70>)
 85f503e:	4288      	cmp	r0, r1
 85f5040:	d005      	beq.n	85f504e <module_user_pre_init+0x36>
 85f5042:	4a12      	ldr	r2, [pc, #72]	; (85f508c <module_user_pre_init+0x74>)
 85f5044:	4282      	cmp	r2, r0
 85f5046:	d002      	beq.n	85f504e <module_user_pre_init+0x36>
    {
        _memcpy(&link_dynalib_start, &link_dynalib_flash_start, link_dynalib_size);
 85f5048:	4b0a      	ldr	r3, [pc, #40]	; (85f5074 <module_user_pre_init+0x5c>)
 85f504a:	1a12      	subs	r2, r2, r0
 85f504c:	4798      	blx	r3
    }

    // Copy .psram_text
    if ( (&link_psram_code_start != &link_psram_code_flash_start) && (link_psram_code_size != 0))
 85f504e:	4810      	ldr	r0, [pc, #64]	; (85f5090 <module_user_pre_init+0x78>)
 85f5050:	4910      	ldr	r1, [pc, #64]	; (85f5094 <module_user_pre_init+0x7c>)
 85f5052:	4288      	cmp	r0, r1
 85f5054:	d005      	beq.n	85f5062 <module_user_pre_init+0x4a>
 85f5056:	4a10      	ldr	r2, [pc, #64]	; (85f5098 <module_user_pre_init+0x80>)
 85f5058:	4282      	cmp	r2, r0
 85f505a:	d002      	beq.n	85f5062 <module_user_pre_init+0x4a>
    {
        _memcpy(&link_psram_code_start, &link_psram_code_flash_start, link_psram_code_size);
 85f505c:	4b05      	ldr	r3, [pc, #20]	; (85f5074 <module_user_pre_init+0x5c>)
 85f505e:	1a12      	subs	r2, r2, r0
 85f5060:	4798      	blx	r3
    }

    return &link_global_data_start;
}
 85f5062:	4801      	ldr	r0, [pc, #4]	; (85f5068 <module_user_pre_init+0x50>)
 85f5064:	bd08      	pop	{r3, pc}
 85f5066:	bf00      	nop
 85f5068:	10072d28 	.word	0x10072d28
 85f506c:	085ff574 	.word	0x085ff574
 85f5070:	10072f10 	.word	0x10072f10
 85f5074:	10110d2d 	.word	0x10110d2d
 85f5078:	10072f10 	.word	0x10072f10
 85f507c:	1007aff8 	.word	0x1007aff8
 85f5080:	10110ea1 	.word	0x10110ea1
 85f5084:	023f5b30 	.word	0x023f5b30
 85f5088:	085f50b0 	.word	0x085f50b0
 85f508c:	023f5b38 	.word	0x023f5b38
 85f5090:	023f5b38 	.word	0x023f5b38
 85f5094:	085f50b8 	.word	0x085f50b8
 85f5098:	023ffff4 	.word	0x023ffff4

085f509c <dynalib_preinit>:
 85f509c:	085f5019 00000000                       .P_.....

Disassembly of section .psram_text:

023f5b38 <__aeabi_drsub>:
 23f5b38:	f081 4100 	eor.w	r1, r1, #2147483648	; 0x80000000
 23f5b3c:	e002      	b.n	23f5b44 <__adddf3>
 23f5b3e:	bf00      	nop

023f5b40 <__aeabi_dsub>:
 23f5b40:	f083 4300 	eor.w	r3, r3, #2147483648	; 0x80000000

023f5b44 <__adddf3>:
 23f5b44:	b530      	push	{r4, r5, lr}
 23f5b46:	ea4f 0441 	mov.w	r4, r1, lsl #1
 23f5b4a:	ea4f 0543 	mov.w	r5, r3, lsl #1
 23f5b4e:	ea94 0f05 	teq	r4, r5
 23f5b52:	bf08      	it	eq
 23f5b54:	ea90 0f02 	teqeq	r0, r2
 23f5b58:	bf1f      	itttt	ne
 23f5b5a:	ea54 0c00 	orrsne.w	ip, r4, r0
 23f5b5e:	ea55 0c02 	orrsne.w	ip, r5, r2
 23f5b62:	ea7f 5c64 	mvnsne.w	ip, r4, asr #21
 23f5b66:	ea7f 5c65 	mvnsne.w	ip, r5, asr #21
 23f5b6a:	f000 80e2 	beq.w	23f5d32 <__adddf3+0x1ee>
 23f5b6e:	ea4f 5454 	mov.w	r4, r4, lsr #21
 23f5b72:	ebd4 5555 	rsbs	r5, r4, r5, lsr #21
 23f5b76:	bfb8      	it	lt
 23f5b78:	426d      	neglt	r5, r5
 23f5b7a:	dd0c      	ble.n	23f5b96 <__adddf3+0x52>
 23f5b7c:	442c      	add	r4, r5
 23f5b7e:	ea80 0202 	eor.w	r2, r0, r2
 23f5b82:	ea81 0303 	eor.w	r3, r1, r3
 23f5b86:	ea82 0000 	eor.w	r0, r2, r0
 23f5b8a:	ea83 0101 	eor.w	r1, r3, r1
 23f5b8e:	ea80 0202 	eor.w	r2, r0, r2
 23f5b92:	ea81 0303 	eor.w	r3, r1, r3
 23f5b96:	2d36      	cmp	r5, #54	; 0x36
 23f5b98:	bf88      	it	hi
 23f5b9a:	bd30      	pophi	{r4, r5, pc}
 23f5b9c:	f011 4f00 	tst.w	r1, #2147483648	; 0x80000000
 23f5ba0:	ea4f 3101 	mov.w	r1, r1, lsl #12
 23f5ba4:	f44f 1c80 	mov.w	ip, #1048576	; 0x100000
 23f5ba8:	ea4c 3111 	orr.w	r1, ip, r1, lsr #12
 23f5bac:	d002      	beq.n	23f5bb4 <__adddf3+0x70>
 23f5bae:	4240      	negs	r0, r0
 23f5bb0:	eb61 0141 	sbc.w	r1, r1, r1, lsl #1
 23f5bb4:	f013 4f00 	tst.w	r3, #2147483648	; 0x80000000
 23f5bb8:	ea4f 3303 	mov.w	r3, r3, lsl #12
 23f5bbc:	ea4c 3313 	orr.w	r3, ip, r3, lsr #12
 23f5bc0:	d002      	beq.n	23f5bc8 <__adddf3+0x84>
 23f5bc2:	4252      	negs	r2, r2
 23f5bc4:	eb63 0343 	sbc.w	r3, r3, r3, lsl #1
 23f5bc8:	ea94 0f05 	teq	r4, r5
 23f5bcc:	f000 80a7 	beq.w	23f5d1e <__adddf3+0x1da>
 23f5bd0:	f1a4 0401 	sub.w	r4, r4, #1
 23f5bd4:	f1d5 0e20 	rsbs	lr, r5, #32
 23f5bd8:	db0d      	blt.n	23f5bf6 <__adddf3+0xb2>
 23f5bda:	fa02 fc0e 	lsl.w	ip, r2, lr
 23f5bde:	fa22 f205 	lsr.w	r2, r2, r5
 23f5be2:	1880      	adds	r0, r0, r2
 23f5be4:	f141 0100 	adc.w	r1, r1, #0
 23f5be8:	fa03 f20e 	lsl.w	r2, r3, lr
 23f5bec:	1880      	adds	r0, r0, r2
 23f5bee:	fa43 f305 	asr.w	r3, r3, r5
 23f5bf2:	4159      	adcs	r1, r3
 23f5bf4:	e00e      	b.n	23f5c14 <__adddf3+0xd0>
 23f5bf6:	f1a5 0520 	sub.w	r5, r5, #32
 23f5bfa:	f10e 0e20 	add.w	lr, lr, #32
 23f5bfe:	2a01      	cmp	r2, #1
 23f5c00:	fa03 fc0e 	lsl.w	ip, r3, lr
 23f5c04:	bf28      	it	cs
 23f5c06:	f04c 0c02 	orrcs.w	ip, ip, #2
 23f5c0a:	fa43 f305 	asr.w	r3, r3, r5
 23f5c0e:	18c0      	adds	r0, r0, r3
 23f5c10:	eb51 71e3 	adcs.w	r1, r1, r3, asr #31
 23f5c14:	f001 4500 	and.w	r5, r1, #2147483648	; 0x80000000
 23f5c18:	d507      	bpl.n	23f5c2a <__adddf3+0xe6>
 23f5c1a:	f04f 0e00 	mov.w	lr, #0
 23f5c1e:	f1dc 0c00 	rsbs	ip, ip, #0
 23f5c22:	eb7e 0000 	sbcs.w	r0, lr, r0
 23f5c26:	eb6e 0101 	sbc.w	r1, lr, r1
 23f5c2a:	f5b1 1f80 	cmp.w	r1, #1048576	; 0x100000
 23f5c2e:	d31b      	bcc.n	23f5c68 <__adddf3+0x124>
 23f5c30:	f5b1 1f00 	cmp.w	r1, #2097152	; 0x200000
 23f5c34:	d30c      	bcc.n	23f5c50 <__adddf3+0x10c>
 23f5c36:	0849      	lsrs	r1, r1, #1
 23f5c38:	ea5f 0030 	movs.w	r0, r0, rrx
 23f5c3c:	ea4f 0c3c 	mov.w	ip, ip, rrx
 23f5c40:	f104 0401 	add.w	r4, r4, #1
 23f5c44:	ea4f 5244 	mov.w	r2, r4, lsl #21
 23f5c48:	f512 0f80 	cmn.w	r2, #4194304	; 0x400000
 23f5c4c:	f080 809a 	bcs.w	23f5d84 <__adddf3+0x240>
 23f5c50:	f1bc 4f00 	cmp.w	ip, #2147483648	; 0x80000000
 23f5c54:	bf08      	it	eq
 23f5c56:	ea5f 0c50 	movseq.w	ip, r0, lsr #1
 23f5c5a:	f150 0000 	adcs.w	r0, r0, #0
 23f5c5e:	eb41 5104 	adc.w	r1, r1, r4, lsl #20
 23f5c62:	ea41 0105 	orr.w	r1, r1, r5
 23f5c66:	bd30      	pop	{r4, r5, pc}
 23f5c68:	ea5f 0c4c 	movs.w	ip, ip, lsl #1
 23f5c6c:	4140      	adcs	r0, r0
 23f5c6e:	eb41 0101 	adc.w	r1, r1, r1
 23f5c72:	3c01      	subs	r4, #1
 23f5c74:	bf28      	it	cs
 23f5c76:	f5b1 1f80 	cmpcs.w	r1, #1048576	; 0x100000
 23f5c7a:	d2e9      	bcs.n	23f5c50 <__adddf3+0x10c>
 23f5c7c:	f091 0f00 	teq	r1, #0
 23f5c80:	bf04      	itt	eq
 23f5c82:	4601      	moveq	r1, r0
 23f5c84:	2000      	moveq	r0, #0
 23f5c86:	fab1 f381 	clz	r3, r1
 23f5c8a:	bf08      	it	eq
 23f5c8c:	3320      	addeq	r3, #32
 23f5c8e:	f1a3 030b 	sub.w	r3, r3, #11
 23f5c92:	f1b3 0220 	subs.w	r2, r3, #32
 23f5c96:	da0c      	bge.n	23f5cb2 <__adddf3+0x16e>
 23f5c98:	320c      	adds	r2, #12
 23f5c9a:	dd08      	ble.n	23f5cae <__adddf3+0x16a>
 23f5c9c:	f102 0c14 	add.w	ip, r2, #20
 23f5ca0:	f1c2 020c 	rsb	r2, r2, #12
 23f5ca4:	fa01 f00c 	lsl.w	r0, r1, ip
 23f5ca8:	fa21 f102 	lsr.w	r1, r1, r2
 23f5cac:	e00c      	b.n	23f5cc8 <__adddf3+0x184>
 23f5cae:	f102 0214 	add.w	r2, r2, #20
 23f5cb2:	bfd8      	it	le
 23f5cb4:	f1c2 0c20 	rsble	ip, r2, #32
 23f5cb8:	fa01 f102 	lsl.w	r1, r1, r2
 23f5cbc:	fa20 fc0c 	lsr.w	ip, r0, ip
 23f5cc0:	bfdc      	itt	le
 23f5cc2:	ea41 010c 	orrle.w	r1, r1, ip
 23f5cc6:	4090      	lslle	r0, r2
 23f5cc8:	1ae4      	subs	r4, r4, r3
 23f5cca:	bfa2      	ittt	ge
 23f5ccc:	eb01 5104 	addge.w	r1, r1, r4, lsl #20
 23f5cd0:	4329      	orrge	r1, r5
 23f5cd2:	bd30      	popge	{r4, r5, pc}
 23f5cd4:	ea6f 0404 	mvn.w	r4, r4
 23f5cd8:	3c1f      	subs	r4, #31
 23f5cda:	da1c      	bge.n	23f5d16 <__adddf3+0x1d2>
 23f5cdc:	340c      	adds	r4, #12
 23f5cde:	dc0e      	bgt.n	23f5cfe <__adddf3+0x1ba>
 23f5ce0:	f104 0414 	add.w	r4, r4, #20
 23f5ce4:	f1c4 0220 	rsb	r2, r4, #32
 23f5ce8:	fa20 f004 	lsr.w	r0, r0, r4
 23f5cec:	fa01 f302 	lsl.w	r3, r1, r2
 23f5cf0:	ea40 0003 	orr.w	r0, r0, r3
 23f5cf4:	fa21 f304 	lsr.w	r3, r1, r4
 23f5cf8:	ea45 0103 	orr.w	r1, r5, r3
 23f5cfc:	bd30      	pop	{r4, r5, pc}
 23f5cfe:	f1c4 040c 	rsb	r4, r4, #12
 23f5d02:	f1c4 0220 	rsb	r2, r4, #32
 23f5d06:	fa20 f002 	lsr.w	r0, r0, r2
 23f5d0a:	fa01 f304 	lsl.w	r3, r1, r4
 23f5d0e:	ea40 0003 	orr.w	r0, r0, r3
 23f5d12:	4629      	mov	r1, r5
 23f5d14:	bd30      	pop	{r4, r5, pc}
 23f5d16:	fa21 f004 	lsr.w	r0, r1, r4
 23f5d1a:	4629      	mov	r1, r5
 23f5d1c:	bd30      	pop	{r4, r5, pc}
 23f5d1e:	f094 0f00 	teq	r4, #0
 23f5d22:	f483 1380 	eor.w	r3, r3, #1048576	; 0x100000
 23f5d26:	bf06      	itte	eq
 23f5d28:	f481 1180 	eoreq.w	r1, r1, #1048576	; 0x100000
 23f5d2c:	3401      	addeq	r4, #1
 23f5d2e:	3d01      	subne	r5, #1
 23f5d30:	e74e      	b.n	23f5bd0 <__adddf3+0x8c>
 23f5d32:	ea7f 5c64 	mvns.w	ip, r4, asr #21
 23f5d36:	bf18      	it	ne
 23f5d38:	ea7f 5c65 	mvnsne.w	ip, r5, asr #21
 23f5d3c:	d029      	beq.n	23f5d92 <__adddf3+0x24e>
 23f5d3e:	ea94 0f05 	teq	r4, r5
 23f5d42:	bf08      	it	eq
 23f5d44:	ea90 0f02 	teqeq	r0, r2
 23f5d48:	d005      	beq.n	23f5d56 <__adddf3+0x212>
 23f5d4a:	ea54 0c00 	orrs.w	ip, r4, r0
 23f5d4e:	bf04      	itt	eq
 23f5d50:	4619      	moveq	r1, r3
 23f5d52:	4610      	moveq	r0, r2
 23f5d54:	bd30      	pop	{r4, r5, pc}
 23f5d56:	ea91 0f03 	teq	r1, r3
 23f5d5a:	bf1e      	ittt	ne
 23f5d5c:	2100      	movne	r1, #0
 23f5d5e:	2000      	movne	r0, #0
 23f5d60:	bd30      	popne	{r4, r5, pc}
 23f5d62:	ea5f 5c54 	movs.w	ip, r4, lsr #21
 23f5d66:	d105      	bne.n	23f5d74 <__adddf3+0x230>
 23f5d68:	0040      	lsls	r0, r0, #1
 23f5d6a:	4149      	adcs	r1, r1
 23f5d6c:	bf28      	it	cs
 23f5d6e:	f041 4100 	orrcs.w	r1, r1, #2147483648	; 0x80000000
 23f5d72:	bd30      	pop	{r4, r5, pc}
 23f5d74:	f514 0480 	adds.w	r4, r4, #4194304	; 0x400000
 23f5d78:	bf3c      	itt	cc
 23f5d7a:	f501 1180 	addcc.w	r1, r1, #1048576	; 0x100000
 23f5d7e:	bd30      	popcc	{r4, r5, pc}
 23f5d80:	f001 4500 	and.w	r5, r1, #2147483648	; 0x80000000
 23f5d84:	f045 41fe 	orr.w	r1, r5, #2130706432	; 0x7f000000
 23f5d88:	f441 0170 	orr.w	r1, r1, #15728640	; 0xf00000
 23f5d8c:	f04f 0000 	mov.w	r0, #0
 23f5d90:	bd30      	pop	{r4, r5, pc}
 23f5d92:	ea7f 5c64 	mvns.w	ip, r4, asr #21
 23f5d96:	bf1a      	itte	ne
 23f5d98:	4619      	movne	r1, r3
 23f5d9a:	4610      	movne	r0, r2
 23f5d9c:	ea7f 5c65 	mvnseq.w	ip, r5, asr #21
 23f5da0:	bf1c      	itt	ne
 23f5da2:	460b      	movne	r3, r1
 23f5da4:	4602      	movne	r2, r0
 23f5da6:	ea50 3401 	orrs.w	r4, r0, r1, lsl #12
 23f5daa:	bf06      	itte	eq
 23f5dac:	ea52 3503 	orrseq.w	r5, r2, r3, lsl #12
 23f5db0:	ea91 0f03 	teqeq	r1, r3
 23f5db4:	f441 2100 	orrne.w	r1, r1, #524288	; 0x80000
 23f5db8:	bd30      	pop	{r4, r5, pc}
 23f5dba:	bf00      	nop

023f5dbc <__aeabi_ui2d>:
 23f5dbc:	f090 0f00 	teq	r0, #0
 23f5dc0:	bf04      	itt	eq
 23f5dc2:	2100      	moveq	r1, #0
 23f5dc4:	4770      	bxeq	lr
 23f5dc6:	b530      	push	{r4, r5, lr}
 23f5dc8:	f44f 6480 	mov.w	r4, #1024	; 0x400
 23f5dcc:	f104 0432 	add.w	r4, r4, #50	; 0x32
 23f5dd0:	f04f 0500 	mov.w	r5, #0
 23f5dd4:	f04f 0100 	mov.w	r1, #0
 23f5dd8:	e750      	b.n	23f5c7c <__adddf3+0x138>
 23f5dda:	bf00      	nop

023f5ddc <__aeabi_i2d>:
 23f5ddc:	f090 0f00 	teq	r0, #0
 23f5de0:	bf04      	itt	eq
 23f5de2:	2100      	moveq	r1, #0
 23f5de4:	4770      	bxeq	lr
 23f5de6:	b530      	push	{r4, r5, lr}
 23f5de8:	f44f 6480 	mov.w	r4, #1024	; 0x400
 23f5dec:	f104 0432 	add.w	r4, r4, #50	; 0x32
 23f5df0:	f010 4500 	ands.w	r5, r0, #2147483648	; 0x80000000
 23f5df4:	bf48      	it	mi
 23f5df6:	4240      	negmi	r0, r0
 23f5df8:	f04f 0100 	mov.w	r1, #0
 23f5dfc:	e73e      	b.n	23f5c7c <__adddf3+0x138>
 23f5dfe:	bf00      	nop

023f5e00 <__aeabi_f2d>:
 23f5e00:	0042      	lsls	r2, r0, #1
 23f5e02:	ea4f 01e2 	mov.w	r1, r2, asr #3
 23f5e06:	ea4f 0131 	mov.w	r1, r1, rrx
 23f5e0a:	ea4f 7002 	mov.w	r0, r2, lsl #28
 23f5e0e:	bf1f      	itttt	ne
 23f5e10:	f012 437f 	andsne.w	r3, r2, #4278190080	; 0xff000000
 23f5e14:	f093 4f7f 	teqne	r3, #4278190080	; 0xff000000
 23f5e18:	f081 5160 	eorne.w	r1, r1, #939524096	; 0x38000000
 23f5e1c:	4770      	bxne	lr
 23f5e1e:	f032 427f 	bics.w	r2, r2, #4278190080	; 0xff000000
 23f5e22:	bf08      	it	eq
 23f5e24:	4770      	bxeq	lr
 23f5e26:	f093 4f7f 	teq	r3, #4278190080	; 0xff000000
 23f5e2a:	bf04      	itt	eq
 23f5e2c:	f441 2100 	orreq.w	r1, r1, #524288	; 0x80000
 23f5e30:	4770      	bxeq	lr
 23f5e32:	b530      	push	{r4, r5, lr}
 23f5e34:	f44f 7460 	mov.w	r4, #896	; 0x380
 23f5e38:	f001 4500 	and.w	r5, r1, #2147483648	; 0x80000000
 23f5e3c:	f021 4100 	bic.w	r1, r1, #2147483648	; 0x80000000
 23f5e40:	e71c      	b.n	23f5c7c <__adddf3+0x138>
 23f5e42:	bf00      	nop

023f5e44 <__aeabi_ul2d>:
 23f5e44:	ea50 0201 	orrs.w	r2, r0, r1
 23f5e48:	bf08      	it	eq
 23f5e4a:	4770      	bxeq	lr
 23f5e4c:	b530      	push	{r4, r5, lr}
 23f5e4e:	f04f 0500 	mov.w	r5, #0
 23f5e52:	e00a      	b.n	23f5e6a <__aeabi_l2d+0x16>

023f5e54 <__aeabi_l2d>:
 23f5e54:	ea50 0201 	orrs.w	r2, r0, r1
 23f5e58:	bf08      	it	eq
 23f5e5a:	4770      	bxeq	lr
 23f5e5c:	b530      	push	{r4, r5, lr}
 23f5e5e:	f011 4500 	ands.w	r5, r1, #2147483648	; 0x80000000
 23f5e62:	d502      	bpl.n	23f5e6a <__aeabi_l2d+0x16>
 23f5e64:	4240      	negs	r0, r0
 23f5e66:	eb61 0141 	sbc.w	r1, r1, r1, lsl #1
 23f5e6a:	f44f 6480 	mov.w	r4, #1024	; 0x400
 23f5e6e:	f104 0432 	add.w	r4, r4, #50	; 0x32
 23f5e72:	ea5f 5c91 	movs.w	ip, r1, lsr #22
 23f5e76:	f43f aed8 	beq.w	23f5c2a <__adddf3+0xe6>
 23f5e7a:	f04f 0203 	mov.w	r2, #3
 23f5e7e:	ea5f 0cdc 	movs.w	ip, ip, lsr #3
 23f5e82:	bf18      	it	ne
 23f5e84:	3203      	addne	r2, #3
 23f5e86:	ea5f 0cdc 	movs.w	ip, ip, lsr #3
 23f5e8a:	bf18      	it	ne
 23f5e8c:	3203      	addne	r2, #3
 23f5e8e:	eb02 02dc 	add.w	r2, r2, ip, lsr #3
 23f5e92:	f1c2 0320 	rsb	r3, r2, #32
 23f5e96:	fa00 fc03 	lsl.w	ip, r0, r3
 23f5e9a:	fa20 f002 	lsr.w	r0, r0, r2
 23f5e9e:	fa01 fe03 	lsl.w	lr, r1, r3
 23f5ea2:	ea40 000e 	orr.w	r0, r0, lr
 23f5ea6:	fa21 f102 	lsr.w	r1, r1, r2
 23f5eaa:	4414      	add	r4, r2
 23f5eac:	e6bd      	b.n	23f5c2a <__adddf3+0xe6>
 23f5eae:	bf00      	nop

023f5eb0 <__aeabi_dmul>:
 23f5eb0:	b570      	push	{r4, r5, r6, lr}
 23f5eb2:	f04f 0cff 	mov.w	ip, #255	; 0xff
 23f5eb6:	f44c 6ce0 	orr.w	ip, ip, #1792	; 0x700
 23f5eba:	ea1c 5411 	ands.w	r4, ip, r1, lsr #20
 23f5ebe:	bf1d      	ittte	ne
 23f5ec0:	ea1c 5513 	andsne.w	r5, ip, r3, lsr #20
 23f5ec4:	ea94 0f0c 	teqne	r4, ip
 23f5ec8:	ea95 0f0c 	teqne	r5, ip
 23f5ecc:	f000 f8de 	bleq	23f608c <__aeabi_dmul+0x1dc>
 23f5ed0:	442c      	add	r4, r5
 23f5ed2:	ea81 0603 	eor.w	r6, r1, r3
 23f5ed6:	ea21 514c 	bic.w	r1, r1, ip, lsl #21
 23f5eda:	ea23 534c 	bic.w	r3, r3, ip, lsl #21
 23f5ede:	ea50 3501 	orrs.w	r5, r0, r1, lsl #12
 23f5ee2:	bf18      	it	ne
 23f5ee4:	ea52 3503 	orrsne.w	r5, r2, r3, lsl #12
 23f5ee8:	f441 1180 	orr.w	r1, r1, #1048576	; 0x100000
 23f5eec:	f443 1380 	orr.w	r3, r3, #1048576	; 0x100000
 23f5ef0:	d038      	beq.n	23f5f64 <__aeabi_dmul+0xb4>
 23f5ef2:	fba0 ce02 	umull	ip, lr, r0, r2
 23f5ef6:	f04f 0500 	mov.w	r5, #0
 23f5efa:	fbe1 e502 	umlal	lr, r5, r1, r2
 23f5efe:	f006 4200 	and.w	r2, r6, #2147483648	; 0x80000000
 23f5f02:	fbe0 e503 	umlal	lr, r5, r0, r3
 23f5f06:	f04f 0600 	mov.w	r6, #0
 23f5f0a:	fbe1 5603 	umlal	r5, r6, r1, r3
 23f5f0e:	f09c 0f00 	teq	ip, #0
 23f5f12:	bf18      	it	ne
 23f5f14:	f04e 0e01 	orrne.w	lr, lr, #1
 23f5f18:	f1a4 04ff 	sub.w	r4, r4, #255	; 0xff
 23f5f1c:	f5b6 7f00 	cmp.w	r6, #512	; 0x200
 23f5f20:	f564 7440 	sbc.w	r4, r4, #768	; 0x300
 23f5f24:	d204      	bcs.n	23f5f30 <__aeabi_dmul+0x80>
 23f5f26:	ea5f 0e4e 	movs.w	lr, lr, lsl #1
 23f5f2a:	416d      	adcs	r5, r5
 23f5f2c:	eb46 0606 	adc.w	r6, r6, r6
 23f5f30:	ea42 21c6 	orr.w	r1, r2, r6, lsl #11
 23f5f34:	ea41 5155 	orr.w	r1, r1, r5, lsr #21
 23f5f38:	ea4f 20c5 	mov.w	r0, r5, lsl #11
 23f5f3c:	ea40 505e 	orr.w	r0, r0, lr, lsr #21
 23f5f40:	ea4f 2ece 	mov.w	lr, lr, lsl #11
 23f5f44:	f1b4 0cfd 	subs.w	ip, r4, #253	; 0xfd
 23f5f48:	bf88      	it	hi
 23f5f4a:	f5bc 6fe0 	cmphi.w	ip, #1792	; 0x700
 23f5f4e:	d81e      	bhi.n	23f5f8e <__aeabi_dmul+0xde>
 23f5f50:	f1be 4f00 	cmp.w	lr, #2147483648	; 0x80000000
 23f5f54:	bf08      	it	eq
 23f5f56:	ea5f 0e50 	movseq.w	lr, r0, lsr #1
 23f5f5a:	f150 0000 	adcs.w	r0, r0, #0
 23f5f5e:	eb41 5104 	adc.w	r1, r1, r4, lsl #20
 23f5f62:	bd70      	pop	{r4, r5, r6, pc}
 23f5f64:	f006 4600 	and.w	r6, r6, #2147483648	; 0x80000000
 23f5f68:	ea46 0101 	orr.w	r1, r6, r1
 23f5f6c:	ea40 0002 	orr.w	r0, r0, r2
 23f5f70:	ea81 0103 	eor.w	r1, r1, r3
 23f5f74:	ebb4 045c 	subs.w	r4, r4, ip, lsr #1
 23f5f78:	bfc2      	ittt	gt
 23f5f7a:	ebd4 050c 	rsbsgt	r5, r4, ip
 23f5f7e:	ea41 5104 	orrgt.w	r1, r1, r4, lsl #20
 23f5f82:	bd70      	popgt	{r4, r5, r6, pc}
 23f5f84:	f441 1180 	orr.w	r1, r1, #1048576	; 0x100000
 23f5f88:	f04f 0e00 	mov.w	lr, #0
 23f5f8c:	3c01      	subs	r4, #1
 23f5f8e:	f300 80ab 	bgt.w	23f60e8 <__aeabi_dmul+0x238>
 23f5f92:	f114 0f36 	cmn.w	r4, #54	; 0x36
 23f5f96:	bfde      	ittt	le
 23f5f98:	2000      	movle	r0, #0
 23f5f9a:	f001 4100 	andle.w	r1, r1, #2147483648	; 0x80000000
 23f5f9e:	bd70      	pople	{r4, r5, r6, pc}
 23f5fa0:	f1c4 0400 	rsb	r4, r4, #0
 23f5fa4:	3c20      	subs	r4, #32
 23f5fa6:	da35      	bge.n	23f6014 <__aeabi_dmul+0x164>
 23f5fa8:	340c      	adds	r4, #12
 23f5faa:	dc1b      	bgt.n	23f5fe4 <__aeabi_dmul+0x134>
 23f5fac:	f104 0414 	add.w	r4, r4, #20
 23f5fb0:	f1c4 0520 	rsb	r5, r4, #32
 23f5fb4:	fa00 f305 	lsl.w	r3, r0, r5
 23f5fb8:	fa20 f004 	lsr.w	r0, r0, r4
 23f5fbc:	fa01 f205 	lsl.w	r2, r1, r5
 23f5fc0:	ea40 0002 	orr.w	r0, r0, r2
 23f5fc4:	f001 4200 	and.w	r2, r1, #2147483648	; 0x80000000
 23f5fc8:	f021 4100 	bic.w	r1, r1, #2147483648	; 0x80000000
 23f5fcc:	eb10 70d3 	adds.w	r0, r0, r3, lsr #31
 23f5fd0:	fa21 f604 	lsr.w	r6, r1, r4
 23f5fd4:	eb42 0106 	adc.w	r1, r2, r6
 23f5fd8:	ea5e 0e43 	orrs.w	lr, lr, r3, lsl #1
 23f5fdc:	bf08      	it	eq
 23f5fde:	ea20 70d3 	biceq.w	r0, r0, r3, lsr #31
 23f5fe2:	bd70      	pop	{r4, r5, r6, pc}
 23f5fe4:	f1c4 040c 	rsb	r4, r4, #12
 23f5fe8:	f1c4 0520 	rsb	r5, r4, #32
 23f5fec:	fa00 f304 	lsl.w	r3, r0, r4
 23f5ff0:	fa20 f005 	lsr.w	r0, r0, r5
 23f5ff4:	fa01 f204 	lsl.w	r2, r1, r4
 23f5ff8:	ea40 0002 	orr.w	r0, r0, r2
 23f5ffc:	f001 4100 	and.w	r1, r1, #2147483648	; 0x80000000
 23f6000:	eb10 70d3 	adds.w	r0, r0, r3, lsr #31
 23f6004:	f141 0100 	adc.w	r1, r1, #0
 23f6008:	ea5e 0e43 	orrs.w	lr, lr, r3, lsl #1
 23f600c:	bf08      	it	eq
 23f600e:	ea20 70d3 	biceq.w	r0, r0, r3, lsr #31
 23f6012:	bd70      	pop	{r4, r5, r6, pc}
 23f6014:	f1c4 0520 	rsb	r5, r4, #32
 23f6018:	fa00 f205 	lsl.w	r2, r0, r5
 23f601c:	ea4e 0e02 	orr.w	lr, lr, r2
 23f6020:	fa20 f304 	lsr.w	r3, r0, r4
 23f6024:	fa01 f205 	lsl.w	r2, r1, r5
 23f6028:	ea43 0302 	orr.w	r3, r3, r2
 23f602c:	fa21 f004 	lsr.w	r0, r1, r4
 23f6030:	f001 4100 	and.w	r1, r1, #2147483648	; 0x80000000
 23f6034:	fa21 f204 	lsr.w	r2, r1, r4
 23f6038:	ea20 0002 	bic.w	r0, r0, r2
 23f603c:	eb00 70d3 	add.w	r0, r0, r3, lsr #31
 23f6040:	ea5e 0e43 	orrs.w	lr, lr, r3, lsl #1
 23f6044:	bf08      	it	eq
 23f6046:	ea20 70d3 	biceq.w	r0, r0, r3, lsr #31
 23f604a:	bd70      	pop	{r4, r5, r6, pc}
 23f604c:	f094 0f00 	teq	r4, #0
 23f6050:	d10f      	bne.n	23f6072 <__aeabi_dmul+0x1c2>
 23f6052:	f001 4600 	and.w	r6, r1, #2147483648	; 0x80000000
 23f6056:	0040      	lsls	r0, r0, #1
 23f6058:	eb41 0101 	adc.w	r1, r1, r1
 23f605c:	f411 1f80 	tst.w	r1, #1048576	; 0x100000
 23f6060:	bf08      	it	eq
 23f6062:	3c01      	subeq	r4, #1
 23f6064:	d0f7      	beq.n	23f6056 <__aeabi_dmul+0x1a6>
 23f6066:	ea41 0106 	orr.w	r1, r1, r6
 23f606a:	f095 0f00 	teq	r5, #0
 23f606e:	bf18      	it	ne
 23f6070:	4770      	bxne	lr
 23f6072:	f003 4600 	and.w	r6, r3, #2147483648	; 0x80000000
 23f6076:	0052      	lsls	r2, r2, #1
 23f6078:	eb43 0303 	adc.w	r3, r3, r3
 23f607c:	f413 1f80 	tst.w	r3, #1048576	; 0x100000
 23f6080:	bf08      	it	eq
 23f6082:	3d01      	subeq	r5, #1
 23f6084:	d0f7      	beq.n	23f6076 <__aeabi_dmul+0x1c6>
 23f6086:	ea43 0306 	orr.w	r3, r3, r6
 23f608a:	4770      	bx	lr
 23f608c:	ea94 0f0c 	teq	r4, ip
 23f6090:	ea0c 5513 	and.w	r5, ip, r3, lsr #20
 23f6094:	bf18      	it	ne
 23f6096:	ea95 0f0c 	teqne	r5, ip
 23f609a:	d00c      	beq.n	23f60b6 <__aeabi_dmul+0x206>
 23f609c:	ea50 0641 	orrs.w	r6, r0, r1, lsl #1
 23f60a0:	bf18      	it	ne
 23f60a2:	ea52 0643 	orrsne.w	r6, r2, r3, lsl #1
 23f60a6:	d1d1      	bne.n	23f604c <__aeabi_dmul+0x19c>
 23f60a8:	ea81 0103 	eor.w	r1, r1, r3
 23f60ac:	f001 4100 	and.w	r1, r1, #2147483648	; 0x80000000
 23f60b0:	f04f 0000 	mov.w	r0, #0
 23f60b4:	bd70      	pop	{r4, r5, r6, pc}
 23f60b6:	ea50 0641 	orrs.w	r6, r0, r1, lsl #1
 23f60ba:	bf06      	itte	eq
 23f60bc:	4610      	moveq	r0, r2
 23f60be:	4619      	moveq	r1, r3
 23f60c0:	ea52 0643 	orrsne.w	r6, r2, r3, lsl #1
 23f60c4:	d019      	beq.n	23f60fa <__aeabi_dmul+0x24a>
 23f60c6:	ea94 0f0c 	teq	r4, ip
 23f60ca:	d102      	bne.n	23f60d2 <__aeabi_dmul+0x222>
 23f60cc:	ea50 3601 	orrs.w	r6, r0, r1, lsl #12
 23f60d0:	d113      	bne.n	23f60fa <__aeabi_dmul+0x24a>
 23f60d2:	ea95 0f0c 	teq	r5, ip
 23f60d6:	d105      	bne.n	23f60e4 <__aeabi_dmul+0x234>
 23f60d8:	ea52 3603 	orrs.w	r6, r2, r3, lsl #12
 23f60dc:	bf1c      	itt	ne
 23f60de:	4610      	movne	r0, r2
 23f60e0:	4619      	movne	r1, r3
 23f60e2:	d10a      	bne.n	23f60fa <__aeabi_dmul+0x24a>
 23f60e4:	ea81 0103 	eor.w	r1, r1, r3
 23f60e8:	f001 4100 	and.w	r1, r1, #2147483648	; 0x80000000
 23f60ec:	f041 41fe 	orr.w	r1, r1, #2130706432	; 0x7f000000
 23f60f0:	f441 0170 	orr.w	r1, r1, #15728640	; 0xf00000
 23f60f4:	f04f 0000 	mov.w	r0, #0
 23f60f8:	bd70      	pop	{r4, r5, r6, pc}
 23f60fa:	f041 41fe 	orr.w	r1, r1, #2130706432	; 0x7f000000
 23f60fe:	f441 0178 	orr.w	r1, r1, #16252928	; 0xf80000
 23f6102:	bd70      	pop	{r4, r5, r6, pc}

023f6104 <__aeabi_ddiv>:
 23f6104:	b570      	push	{r4, r5, r6, lr}
 23f6106:	f04f 0cff 	mov.w	ip, #255	; 0xff
 23f610a:	f44c 6ce0 	orr.w	ip, ip, #1792	; 0x700
 23f610e:	ea1c 5411 	ands.w	r4, ip, r1, lsr #20
 23f6112:	bf1d      	ittte	ne
 23f6114:	ea1c 5513 	andsne.w	r5, ip, r3, lsr #20
 23f6118:	ea94 0f0c 	teqne	r4, ip
 23f611c:	ea95 0f0c 	teqne	r5, ip
 23f6120:	f000 f8a7 	bleq	23f6272 <__aeabi_ddiv+0x16e>
 23f6124:	eba4 0405 	sub.w	r4, r4, r5
 23f6128:	ea81 0e03 	eor.w	lr, r1, r3
 23f612c:	ea52 3503 	orrs.w	r5, r2, r3, lsl #12
 23f6130:	ea4f 3101 	mov.w	r1, r1, lsl #12
 23f6134:	f000 8088 	beq.w	23f6248 <__aeabi_ddiv+0x144>
 23f6138:	ea4f 3303 	mov.w	r3, r3, lsl #12
 23f613c:	f04f 5580 	mov.w	r5, #268435456	; 0x10000000
 23f6140:	ea45 1313 	orr.w	r3, r5, r3, lsr #4
 23f6144:	ea43 6312 	orr.w	r3, r3, r2, lsr #24
 23f6148:	ea4f 2202 	mov.w	r2, r2, lsl #8
 23f614c:	ea45 1511 	orr.w	r5, r5, r1, lsr #4
 23f6150:	ea45 6510 	orr.w	r5, r5, r0, lsr #24
 23f6154:	ea4f 2600 	mov.w	r6, r0, lsl #8
 23f6158:	f00e 4100 	and.w	r1, lr, #2147483648	; 0x80000000
 23f615c:	429d      	cmp	r5, r3
 23f615e:	bf08      	it	eq
 23f6160:	4296      	cmpeq	r6, r2
 23f6162:	f144 04fd 	adc.w	r4, r4, #253	; 0xfd
 23f6166:	f504 7440 	add.w	r4, r4, #768	; 0x300
 23f616a:	d202      	bcs.n	23f6172 <__aeabi_ddiv+0x6e>
 23f616c:	085b      	lsrs	r3, r3, #1
 23f616e:	ea4f 0232 	mov.w	r2, r2, rrx
 23f6172:	1ab6      	subs	r6, r6, r2
 23f6174:	eb65 0503 	sbc.w	r5, r5, r3
 23f6178:	085b      	lsrs	r3, r3, #1
 23f617a:	ea4f 0232 	mov.w	r2, r2, rrx
 23f617e:	f44f 1080 	mov.w	r0, #1048576	; 0x100000
 23f6182:	f44f 2c00 	mov.w	ip, #524288	; 0x80000
 23f6186:	ebb6 0e02 	subs.w	lr, r6, r2
 23f618a:	eb75 0e03 	sbcs.w	lr, r5, r3
 23f618e:	bf22      	ittt	cs
 23f6190:	1ab6      	subcs	r6, r6, r2
 23f6192:	4675      	movcs	r5, lr
 23f6194:	ea40 000c 	orrcs.w	r0, r0, ip
 23f6198:	085b      	lsrs	r3, r3, #1
 23f619a:	ea4f 0232 	mov.w	r2, r2, rrx
 23f619e:	ebb6 0e02 	subs.w	lr, r6, r2
 23f61a2:	eb75 0e03 	sbcs.w	lr, r5, r3
 23f61a6:	bf22      	ittt	cs
 23f61a8:	1ab6      	subcs	r6, r6, r2
 23f61aa:	4675      	movcs	r5, lr
 23f61ac:	ea40 005c 	orrcs.w	r0, r0, ip, lsr #1
 23f61b0:	085b      	lsrs	r3, r3, #1
 23f61b2:	ea4f 0232 	mov.w	r2, r2, rrx
 23f61b6:	ebb6 0e02 	subs.w	lr, r6, r2
 23f61ba:	eb75 0e03 	sbcs.w	lr, r5, r3
 23f61be:	bf22      	ittt	cs
 23f61c0:	1ab6      	subcs	r6, r6, r2
 23f61c2:	4675      	movcs	r5, lr
 23f61c4:	ea40 009c 	orrcs.w	r0, r0, ip, lsr #2
 23f61c8:	085b      	lsrs	r3, r3, #1
 23f61ca:	ea4f 0232 	mov.w	r2, r2, rrx
 23f61ce:	ebb6 0e02 	subs.w	lr, r6, r2
 23f61d2:	eb75 0e03 	sbcs.w	lr, r5, r3
 23f61d6:	bf22      	ittt	cs
 23f61d8:	1ab6      	subcs	r6, r6, r2
 23f61da:	4675      	movcs	r5, lr
 23f61dc:	ea40 00dc 	orrcs.w	r0, r0, ip, lsr #3
 23f61e0:	ea55 0e06 	orrs.w	lr, r5, r6
 23f61e4:	d018      	beq.n	23f6218 <__aeabi_ddiv+0x114>
 23f61e6:	ea4f 1505 	mov.w	r5, r5, lsl #4
 23f61ea:	ea45 7516 	orr.w	r5, r5, r6, lsr #28
 23f61ee:	ea4f 1606 	mov.w	r6, r6, lsl #4
 23f61f2:	ea4f 03c3 	mov.w	r3, r3, lsl #3
 23f61f6:	ea43 7352 	orr.w	r3, r3, r2, lsr #29
 23f61fa:	ea4f 02c2 	mov.w	r2, r2, lsl #3
 23f61fe:	ea5f 1c1c 	movs.w	ip, ip, lsr #4
 23f6202:	d1c0      	bne.n	23f6186 <__aeabi_ddiv+0x82>
 23f6204:	f411 1f80 	tst.w	r1, #1048576	; 0x100000
 23f6208:	d10b      	bne.n	23f6222 <__aeabi_ddiv+0x11e>
 23f620a:	ea41 0100 	orr.w	r1, r1, r0
 23f620e:	f04f 0000 	mov.w	r0, #0
 23f6212:	f04f 4c00 	mov.w	ip, #2147483648	; 0x80000000
 23f6216:	e7b6      	b.n	23f6186 <__aeabi_ddiv+0x82>
 23f6218:	f411 1f80 	tst.w	r1, #1048576	; 0x100000
 23f621c:	bf04      	itt	eq
 23f621e:	4301      	orreq	r1, r0
 23f6220:	2000      	moveq	r0, #0
 23f6222:	f1b4 0cfd 	subs.w	ip, r4, #253	; 0xfd
 23f6226:	bf88      	it	hi
 23f6228:	f5bc 6fe0 	cmphi.w	ip, #1792	; 0x700
 23f622c:	f63f aeaf 	bhi.w	23f5f8e <__aeabi_dmul+0xde>
 23f6230:	ebb5 0c03 	subs.w	ip, r5, r3
 23f6234:	bf04      	itt	eq
 23f6236:	ebb6 0c02 	subseq.w	ip, r6, r2
 23f623a:	ea5f 0c50 	movseq.w	ip, r0, lsr #1
 23f623e:	f150 0000 	adcs.w	r0, r0, #0
 23f6242:	eb41 5104 	adc.w	r1, r1, r4, lsl #20
 23f6246:	bd70      	pop	{r4, r5, r6, pc}
 23f6248:	f00e 4e00 	and.w	lr, lr, #2147483648	; 0x80000000
 23f624c:	ea4e 3111 	orr.w	r1, lr, r1, lsr #12
 23f6250:	eb14 045c 	adds.w	r4, r4, ip, lsr #1
 23f6254:	bfc2      	ittt	gt
 23f6256:	ebd4 050c 	rsbsgt	r5, r4, ip
 23f625a:	ea41 5104 	orrgt.w	r1, r1, r4, lsl #20
 23f625e:	bd70      	popgt	{r4, r5, r6, pc}
 23f6260:	f441 1180 	orr.w	r1, r1, #1048576	; 0x100000
 23f6264:	f04f 0e00 	mov.w	lr, #0
 23f6268:	3c01      	subs	r4, #1
 23f626a:	e690      	b.n	23f5f8e <__aeabi_dmul+0xde>
 23f626c:	ea45 0e06 	orr.w	lr, r5, r6
 23f6270:	e68d      	b.n	23f5f8e <__aeabi_dmul+0xde>
 23f6272:	ea0c 5513 	and.w	r5, ip, r3, lsr #20
 23f6276:	ea94 0f0c 	teq	r4, ip
 23f627a:	bf08      	it	eq
 23f627c:	ea95 0f0c 	teqeq	r5, ip
 23f6280:	f43f af3b 	beq.w	23f60fa <__aeabi_dmul+0x24a>
 23f6284:	ea94 0f0c 	teq	r4, ip
 23f6288:	d10a      	bne.n	23f62a0 <__aeabi_ddiv+0x19c>
 23f628a:	ea50 3401 	orrs.w	r4, r0, r1, lsl #12
 23f628e:	f47f af34 	bne.w	23f60fa <__aeabi_dmul+0x24a>
 23f6292:	ea95 0f0c 	teq	r5, ip
 23f6296:	f47f af25 	bne.w	23f60e4 <__aeabi_dmul+0x234>
 23f629a:	4610      	mov	r0, r2
 23f629c:	4619      	mov	r1, r3
 23f629e:	e72c      	b.n	23f60fa <__aeabi_dmul+0x24a>
 23f62a0:	ea95 0f0c 	teq	r5, ip
 23f62a4:	d106      	bne.n	23f62b4 <__aeabi_ddiv+0x1b0>
 23f62a6:	ea52 3503 	orrs.w	r5, r2, r3, lsl #12
 23f62aa:	f43f aefd 	beq.w	23f60a8 <__aeabi_dmul+0x1f8>
 23f62ae:	4610      	mov	r0, r2
 23f62b0:	4619      	mov	r1, r3
 23f62b2:	e722      	b.n	23f60fa <__aeabi_dmul+0x24a>
 23f62b4:	ea50 0641 	orrs.w	r6, r0, r1, lsl #1
 23f62b8:	bf18      	it	ne
 23f62ba:	ea52 0643 	orrsne.w	r6, r2, r3, lsl #1
 23f62be:	f47f aec5 	bne.w	23f604c <__aeabi_dmul+0x19c>
 23f62c2:	ea50 0441 	orrs.w	r4, r0, r1, lsl #1
 23f62c6:	f47f af0d 	bne.w	23f60e4 <__aeabi_dmul+0x234>
 23f62ca:	ea52 0543 	orrs.w	r5, r2, r3, lsl #1
 23f62ce:	f47f aeeb 	bne.w	23f60a8 <__aeabi_dmul+0x1f8>
 23f62d2:	e712      	b.n	23f60fa <__aeabi_dmul+0x24a>

023f62d4 <__gedf2>:
 23f62d4:	f04f 3cff 	mov.w	ip, #4294967295
 23f62d8:	e006      	b.n	23f62e8 <__cmpdf2+0x4>
 23f62da:	bf00      	nop

023f62dc <__ledf2>:
 23f62dc:	f04f 0c01 	mov.w	ip, #1
 23f62e0:	e002      	b.n	23f62e8 <__cmpdf2+0x4>
 23f62e2:	bf00      	nop

023f62e4 <__cmpdf2>:
 23f62e4:	f04f 0c01 	mov.w	ip, #1
 23f62e8:	f84d cd04 	str.w	ip, [sp, #-4]!
 23f62ec:	ea4f 0c41 	mov.w	ip, r1, lsl #1
 23f62f0:	ea7f 5c6c 	mvns.w	ip, ip, asr #21
 23f62f4:	ea4f 0c43 	mov.w	ip, r3, lsl #1
 23f62f8:	bf18      	it	ne
 23f62fa:	ea7f 5c6c 	mvnsne.w	ip, ip, asr #21
 23f62fe:	d01b      	beq.n	23f6338 <__cmpdf2+0x54>
 23f6300:	b001      	add	sp, #4
 23f6302:	ea50 0c41 	orrs.w	ip, r0, r1, lsl #1
 23f6306:	bf0c      	ite	eq
 23f6308:	ea52 0c43 	orrseq.w	ip, r2, r3, lsl #1
 23f630c:	ea91 0f03 	teqne	r1, r3
 23f6310:	bf02      	ittt	eq
 23f6312:	ea90 0f02 	teqeq	r0, r2
 23f6316:	2000      	moveq	r0, #0
 23f6318:	4770      	bxeq	lr
 23f631a:	f110 0f00 	cmn.w	r0, #0
 23f631e:	ea91 0f03 	teq	r1, r3
 23f6322:	bf58      	it	pl
 23f6324:	4299      	cmppl	r1, r3
 23f6326:	bf08      	it	eq
 23f6328:	4290      	cmpeq	r0, r2
 23f632a:	bf2c      	ite	cs
 23f632c:	17d8      	asrcs	r0, r3, #31
 23f632e:	ea6f 70e3 	mvncc.w	r0, r3, asr #31
 23f6332:	f040 0001 	orr.w	r0, r0, #1
 23f6336:	4770      	bx	lr
 23f6338:	ea4f 0c41 	mov.w	ip, r1, lsl #1
 23f633c:	ea7f 5c6c 	mvns.w	ip, ip, asr #21
 23f6340:	d102      	bne.n	23f6348 <__cmpdf2+0x64>
 23f6342:	ea50 3c01 	orrs.w	ip, r0, r1, lsl #12
 23f6346:	d107      	bne.n	23f6358 <__cmpdf2+0x74>
 23f6348:	ea4f 0c43 	mov.w	ip, r3, lsl #1
 23f634c:	ea7f 5c6c 	mvns.w	ip, ip, asr #21
 23f6350:	d1d6      	bne.n	23f6300 <__cmpdf2+0x1c>
 23f6352:	ea52 3c03 	orrs.w	ip, r2, r3, lsl #12
 23f6356:	d0d3      	beq.n	23f6300 <__cmpdf2+0x1c>
 23f6358:	f85d 0b04 	ldr.w	r0, [sp], #4
 23f635c:	4770      	bx	lr
 23f635e:	bf00      	nop

023f6360 <__aeabi_cdrcmple>:
 23f6360:	4684      	mov	ip, r0
 23f6362:	4610      	mov	r0, r2
 23f6364:	4662      	mov	r2, ip
 23f6366:	468c      	mov	ip, r1
 23f6368:	4619      	mov	r1, r3
 23f636a:	4663      	mov	r3, ip
 23f636c:	e000      	b.n	23f6370 <__aeabi_cdcmpeq>
 23f636e:	bf00      	nop

023f6370 <__aeabi_cdcmpeq>:
 23f6370:	b501      	push	{r0, lr}
 23f6372:	f7ff ffb7 	bl	23f62e4 <__cmpdf2>
 23f6376:	2800      	cmp	r0, #0
 23f6378:	bf48      	it	mi
 23f637a:	f110 0f00 	cmnmi.w	r0, #0
 23f637e:	bd01      	pop	{r0, pc}

023f6380 <__aeabi_dcmpeq>:
 23f6380:	f84d ed08 	str.w	lr, [sp, #-8]!
 23f6384:	f7ff fff4 	bl	23f6370 <__aeabi_cdcmpeq>
 23f6388:	bf0c      	ite	eq
 23f638a:	2001      	moveq	r0, #1
 23f638c:	2000      	movne	r0, #0
 23f638e:	f85d fb08 	ldr.w	pc, [sp], #8
 23f6392:	bf00      	nop

023f6394 <__aeabi_dcmplt>:
 23f6394:	f84d ed08 	str.w	lr, [sp, #-8]!
 23f6398:	f7ff ffea 	bl	23f6370 <__aeabi_cdcmpeq>
 23f639c:	bf34      	ite	cc
 23f639e:	2001      	movcc	r0, #1
 23f63a0:	2000      	movcs	r0, #0
 23f63a2:	f85d fb08 	ldr.w	pc, [sp], #8
 23f63a6:	bf00      	nop

023f63a8 <__aeabi_dcmple>:
 23f63a8:	f84d ed08 	str.w	lr, [sp, #-8]!
 23f63ac:	f7ff ffe0 	bl	23f6370 <__aeabi_cdcmpeq>
 23f63b0:	bf94      	ite	ls
 23f63b2:	2001      	movls	r0, #1
 23f63b4:	2000      	movhi	r0, #0
 23f63b6:	f85d fb08 	ldr.w	pc, [sp], #8
 23f63ba:	bf00      	nop

023f63bc <__aeabi_dcmpge>:
 23f63bc:	f84d ed08 	str.w	lr, [sp, #-8]!
 23f63c0:	f7ff ffce 	bl	23f6360 <__aeabi_cdrcmple>
 23f63c4:	bf94      	ite	ls
 23f63c6:	2001      	movls	r0, #1
 23f63c8:	2000      	movhi	r0, #0
 23f63ca:	f85d fb08 	ldr.w	pc, [sp], #8
 23f63ce:	bf00      	nop

023f63d0 <__aeabi_dcmpgt>:
 23f63d0:	f84d ed08 	str.w	lr, [sp, #-8]!
 23f63d4:	f7ff ffc4 	bl	23f6360 <__aeabi_cdrcmple>
 23f63d8:	bf34      	ite	cc
 23f63da:	2001      	movcc	r0, #1
 23f63dc:	2000      	movcs	r0, #0
 23f63de:	f85d fb08 	ldr.w	pc, [sp], #8
 23f63e2:	bf00      	nop

023f63e4 <__aeabi_d2f>:
 23f63e4:	ea4f 0241 	mov.w	r2, r1, lsl #1
 23f63e8:	f1b2 43e0 	subs.w	r3, r2, #1879048192	; 0x70000000
 23f63ec:	bf24      	itt	cs
 23f63ee:	f5b3 1c00 	subscs.w	ip, r3, #2097152	; 0x200000
 23f63f2:	f1dc 5cfe 	rsbscs	ip, ip, #532676608	; 0x1fc00000
 23f63f6:	d90d      	bls.n	23f6414 <__aeabi_d2f+0x30>
 23f63f8:	f001 4c00 	and.w	ip, r1, #2147483648	; 0x80000000
 23f63fc:	ea4f 02c0 	mov.w	r2, r0, lsl #3
 23f6400:	ea4c 7050 	orr.w	r0, ip, r0, lsr #29
 23f6404:	f1b2 4f00 	cmp.w	r2, #2147483648	; 0x80000000
 23f6408:	eb40 0083 	adc.w	r0, r0, r3, lsl #2
 23f640c:	bf08      	it	eq
 23f640e:	f020 0001 	biceq.w	r0, r0, #1
 23f6412:	4770      	bx	lr
 23f6414:	f011 4f80 	tst.w	r1, #1073741824	; 0x40000000
 23f6418:	d121      	bne.n	23f645e <__aeabi_d2f+0x7a>
 23f641a:	f113 7238 	adds.w	r2, r3, #48234496	; 0x2e00000
 23f641e:	bfbc      	itt	lt
 23f6420:	f001 4000 	andlt.w	r0, r1, #2147483648	; 0x80000000
 23f6424:	4770      	bxlt	lr
 23f6426:	f441 1180 	orr.w	r1, r1, #1048576	; 0x100000
 23f642a:	ea4f 5252 	mov.w	r2, r2, lsr #21
 23f642e:	f1c2 0218 	rsb	r2, r2, #24
 23f6432:	f1c2 0c20 	rsb	ip, r2, #32
 23f6436:	fa10 f30c 	lsls.w	r3, r0, ip
 23f643a:	fa20 f002 	lsr.w	r0, r0, r2
 23f643e:	bf18      	it	ne
 23f6440:	f040 0001 	orrne.w	r0, r0, #1
 23f6444:	ea4f 23c1 	mov.w	r3, r1, lsl #11
 23f6448:	ea4f 23d3 	mov.w	r3, r3, lsr #11
 23f644c:	fa03 fc0c 	lsl.w	ip, r3, ip
 23f6450:	ea40 000c 	orr.w	r0, r0, ip
 23f6454:	fa23 f302 	lsr.w	r3, r3, r2
 23f6458:	ea4f 0343 	mov.w	r3, r3, lsl #1
 23f645c:	e7cc      	b.n	23f63f8 <__aeabi_d2f+0x14>
 23f645e:	ea7f 5362 	mvns.w	r3, r2, asr #21
 23f6462:	d107      	bne.n	23f6474 <__aeabi_d2f+0x90>
 23f6464:	ea50 3301 	orrs.w	r3, r0, r1, lsl #12
 23f6468:	bf1e      	ittt	ne
 23f646a:	f04f 40fe 	movne.w	r0, #2130706432	; 0x7f000000
 23f646e:	f440 0040 	orrne.w	r0, r0, #12582912	; 0xc00000
 23f6472:	4770      	bxne	lr
 23f6474:	f001 4000 	and.w	r0, r1, #2147483648	; 0x80000000
 23f6478:	f040 40fe 	orr.w	r0, r0, #2130706432	; 0x7f000000
 23f647c:	f440 0000 	orr.w	r0, r0, #8388608	; 0x800000
 23f6480:	4770      	bx	lr
 23f6482:	bf00      	nop

023f6484 <__aeabi_uldivmod>:
 23f6484:	b953      	cbnz	r3, 23f649c <__aeabi_uldivmod+0x18>
 23f6486:	b94a      	cbnz	r2, 23f649c <__aeabi_uldivmod+0x18>
 23f6488:	2900      	cmp	r1, #0
 23f648a:	bf08      	it	eq
 23f648c:	2800      	cmpeq	r0, #0
 23f648e:	bf1c      	itt	ne
 23f6490:	f04f 31ff 	movne.w	r1, #4294967295
 23f6494:	f04f 30ff 	movne.w	r0, #4294967295
 23f6498:	f000 b9d4 	b.w	23f6844 <__aeabi_idiv0>
 23f649c:	f1ad 0c08 	sub.w	ip, sp, #8
 23f64a0:	e96d ce04 	strd	ip, lr, [sp, #-16]!
 23f64a4:	f000 f858 	bl	23f6558 <__udivmoddi4>
 23f64a8:	f8dd e004 	ldr.w	lr, [sp, #4]
 23f64ac:	e9dd 2302 	ldrd	r2, r3, [sp, #8]
 23f64b0:	b004      	add	sp, #16
 23f64b2:	4770      	bx	lr

023f64b4 <__aeabi_f2lz>:
 23f64b4:	ee07 0a90 	vmov	s15, r0
 23f64b8:	eef5 7ac0 	vcmpe.f32	s15, #0.0
 23f64bc:	eef1 fa10 	vmrs	APSR_nzcv, fpscr
 23f64c0:	d401      	bmi.n	23f64c6 <__aeabi_f2lz+0x12>
 23f64c2:	f000 b80b 	b.w	23f64dc <__aeabi_f2ulz>
 23f64c6:	eef1 7a67 	vneg.f32	s15, s15
 23f64ca:	b508      	push	{r3, lr}
 23f64cc:	ee17 0a90 	vmov	r0, s15
 23f64d0:	f000 f804 	bl	23f64dc <__aeabi_f2ulz>
 23f64d4:	4240      	negs	r0, r0
 23f64d6:	eb61 0141 	sbc.w	r1, r1, r1, lsl #1
 23f64da:	bd08      	pop	{r3, pc}

023f64dc <__aeabi_f2ulz>:
 23f64dc:	b5d0      	push	{r4, r6, r7, lr}
 23f64de:	f7ff fc8f 	bl	23f5e00 <__aeabi_f2d>
 23f64e2:	2200      	movs	r2, #0
 23f64e4:	4b0b      	ldr	r3, [pc, #44]	; (23f6514 <__aeabi_f2ulz+0x38>)
 23f64e6:	4606      	mov	r6, r0
 23f64e8:	460f      	mov	r7, r1
 23f64ea:	f7ff fce1 	bl	23f5eb0 <__aeabi_dmul>
 23f64ee:	f000 f9ab 	bl	23f6848 <__aeabi_d2uiz>
 23f64f2:	4604      	mov	r4, r0
 23f64f4:	f7ff fc62 	bl	23f5dbc <__aeabi_ui2d>
 23f64f8:	2200      	movs	r2, #0
 23f64fa:	4b07      	ldr	r3, [pc, #28]	; (23f6518 <__aeabi_f2ulz+0x3c>)
 23f64fc:	f7ff fcd8 	bl	23f5eb0 <__aeabi_dmul>
 23f6500:	4602      	mov	r2, r0
 23f6502:	460b      	mov	r3, r1
 23f6504:	4630      	mov	r0, r6
 23f6506:	4639      	mov	r1, r7
 23f6508:	f7ff fb1a 	bl	23f5b40 <__aeabi_dsub>
 23f650c:	f000 f99c 	bl	23f6848 <__aeabi_d2uiz>
 23f6510:	4621      	mov	r1, r4
 23f6512:	bdd0      	pop	{r4, r6, r7, pc}
 23f6514:	3df00000 	.word	0x3df00000
 23f6518:	41f00000 	.word	0x41f00000

023f651c <__aeabi_d2ulz>:
 23f651c:	b5d0      	push	{r4, r6, r7, lr}
 23f651e:	2200      	movs	r2, #0
 23f6520:	4b0b      	ldr	r3, [pc, #44]	; (23f6550 <__aeabi_d2ulz+0x34>)
 23f6522:	4606      	mov	r6, r0
 23f6524:	460f      	mov	r7, r1
 23f6526:	f7ff fcc3 	bl	23f5eb0 <__aeabi_dmul>
 23f652a:	f000 f98d 	bl	23f6848 <__aeabi_d2uiz>
 23f652e:	4604      	mov	r4, r0
 23f6530:	f7ff fc44 	bl	23f5dbc <__aeabi_ui2d>
 23f6534:	2200      	movs	r2, #0
 23f6536:	4b07      	ldr	r3, [pc, #28]	; (23f6554 <__aeabi_d2ulz+0x38>)
 23f6538:	f7ff fcba 	bl	23f5eb0 <__aeabi_dmul>
 23f653c:	4602      	mov	r2, r0
 23f653e:	460b      	mov	r3, r1
 23f6540:	4630      	mov	r0, r6
 23f6542:	4639      	mov	r1, r7
 23f6544:	f7ff fafc 	bl	23f5b40 <__aeabi_dsub>
 23f6548:	f000 f97e 	bl	23f6848 <__aeabi_d2uiz>
 23f654c:	4621      	mov	r1, r4
 23f654e:	bdd0      	pop	{r4, r6, r7, pc}
 23f6550:	3df00000 	.word	0x3df00000
 23f6554:	41f00000 	.word	0x41f00000

023f6558 <__udivmoddi4>:
 23f6558:	e92d 4ff0 	stmdb	sp!, {r4, r5, r6, r7, r8, r9, sl, fp, lr}
 23f655c:	9d09      	ldr	r5, [sp, #36]	; 0x24
 23f655e:	4604      	mov	r4, r0
 23f6560:	460f      	mov	r7, r1
 23f6562:	2b00      	cmp	r3, #0
 23f6564:	d148      	bne.n	23f65f8 <__udivmoddi4+0xa0>
 23f6566:	428a      	cmp	r2, r1
 23f6568:	4694      	mov	ip, r2
 23f656a:	d961      	bls.n	23f6630 <__udivmoddi4+0xd8>
 23f656c:	fab2 f382 	clz	r3, r2
 23f6570:	b143      	cbz	r3, 23f6584 <__udivmoddi4+0x2c>
 23f6572:	f1c3 0120 	rsb	r1, r3, #32
 23f6576:	409f      	lsls	r7, r3
 23f6578:	fa02 fc03 	lsl.w	ip, r2, r3
 23f657c:	409c      	lsls	r4, r3
 23f657e:	fa20 f101 	lsr.w	r1, r0, r1
 23f6582:	430f      	orrs	r7, r1
 23f6584:	ea4f 411c 	mov.w	r1, ip, lsr #16
 23f6588:	fa1f fe8c 	uxth.w	lr, ip
 23f658c:	0c22      	lsrs	r2, r4, #16
 23f658e:	fbb7 f6f1 	udiv	r6, r7, r1
 23f6592:	fb01 7716 	mls	r7, r1, r6, r7
 23f6596:	fb06 f00e 	mul.w	r0, r6, lr
 23f659a:	ea42 4207 	orr.w	r2, r2, r7, lsl #16
 23f659e:	4290      	cmp	r0, r2
 23f65a0:	d908      	bls.n	23f65b4 <__udivmoddi4+0x5c>
 23f65a2:	eb1c 0202 	adds.w	r2, ip, r2
 23f65a6:	f106 37ff 	add.w	r7, r6, #4294967295
 23f65aa:	d202      	bcs.n	23f65b2 <__udivmoddi4+0x5a>
 23f65ac:	4290      	cmp	r0, r2
 23f65ae:	f200 8137 	bhi.w	23f6820 <__udivmoddi4+0x2c8>
 23f65b2:	463e      	mov	r6, r7
 23f65b4:	1a12      	subs	r2, r2, r0
 23f65b6:	b2a4      	uxth	r4, r4
 23f65b8:	fbb2 f0f1 	udiv	r0, r2, r1
 23f65bc:	fb01 2210 	mls	r2, r1, r0, r2
 23f65c0:	fb00 fe0e 	mul.w	lr, r0, lr
 23f65c4:	ea44 4402 	orr.w	r4, r4, r2, lsl #16
 23f65c8:	45a6      	cmp	lr, r4
 23f65ca:	d908      	bls.n	23f65de <__udivmoddi4+0x86>
 23f65cc:	eb1c 0404 	adds.w	r4, ip, r4
 23f65d0:	f100 32ff 	add.w	r2, r0, #4294967295
 23f65d4:	d202      	bcs.n	23f65dc <__udivmoddi4+0x84>
 23f65d6:	45a6      	cmp	lr, r4
 23f65d8:	f200 811c 	bhi.w	23f6814 <__udivmoddi4+0x2bc>
 23f65dc:	4610      	mov	r0, r2
 23f65de:	ea40 4006 	orr.w	r0, r0, r6, lsl #16
 23f65e2:	eba4 040e 	sub.w	r4, r4, lr
 23f65e6:	2600      	movs	r6, #0
 23f65e8:	b11d      	cbz	r5, 23f65f2 <__udivmoddi4+0x9a>
 23f65ea:	40dc      	lsrs	r4, r3
 23f65ec:	2300      	movs	r3, #0
 23f65ee:	e9c5 4300 	strd	r4, r3, [r5]
 23f65f2:	4631      	mov	r1, r6
 23f65f4:	e8bd 8ff0 	ldmia.w	sp!, {r4, r5, r6, r7, r8, r9, sl, fp, pc}
 23f65f8:	428b      	cmp	r3, r1
 23f65fa:	d909      	bls.n	23f6610 <__udivmoddi4+0xb8>
 23f65fc:	2d00      	cmp	r5, #0
 23f65fe:	f000 80fd 	beq.w	23f67fc <__udivmoddi4+0x2a4>
 23f6602:	2600      	movs	r6, #0
 23f6604:	e9c5 0100 	strd	r0, r1, [r5]
 23f6608:	4630      	mov	r0, r6
 23f660a:	4631      	mov	r1, r6
 23f660c:	e8bd 8ff0 	ldmia.w	sp!, {r4, r5, r6, r7, r8, r9, sl, fp, pc}
 23f6610:	fab3 f683 	clz	r6, r3
 23f6614:	2e00      	cmp	r6, #0
 23f6616:	d14b      	bne.n	23f66b0 <__udivmoddi4+0x158>
 23f6618:	428b      	cmp	r3, r1
 23f661a:	f0c0 80f2 	bcc.w	23f6802 <__udivmoddi4+0x2aa>
 23f661e:	4282      	cmp	r2, r0
 23f6620:	f240 80ef 	bls.w	23f6802 <__udivmoddi4+0x2aa>
 23f6624:	4630      	mov	r0, r6
 23f6626:	2d00      	cmp	r5, #0
 23f6628:	d0e3      	beq.n	23f65f2 <__udivmoddi4+0x9a>
 23f662a:	e9c5 4700 	strd	r4, r7, [r5]
 23f662e:	e7e0      	b.n	23f65f2 <__udivmoddi4+0x9a>
 23f6630:	b902      	cbnz	r2, 23f6634 <__udivmoddi4+0xdc>
 23f6632:	deff      	udf	#255	; 0xff
 23f6634:	fab2 f382 	clz	r3, r2
 23f6638:	2b00      	cmp	r3, #0
 23f663a:	f040 809d 	bne.w	23f6778 <__udivmoddi4+0x220>
 23f663e:	1a89      	subs	r1, r1, r2
 23f6640:	ea4f 4e12 	mov.w	lr, r2, lsr #16
 23f6644:	b297      	uxth	r7, r2
 23f6646:	2601      	movs	r6, #1
 23f6648:	0c20      	lsrs	r0, r4, #16
 23f664a:	fbb1 f2fe 	udiv	r2, r1, lr
 23f664e:	fb0e 1112 	mls	r1, lr, r2, r1
 23f6652:	ea40 4101 	orr.w	r1, r0, r1, lsl #16
 23f6656:	fb07 f002 	mul.w	r0, r7, r2
 23f665a:	4288      	cmp	r0, r1
 23f665c:	d90f      	bls.n	23f667e <__udivmoddi4+0x126>
 23f665e:	eb1c 0101 	adds.w	r1, ip, r1
 23f6662:	f102 38ff 	add.w	r8, r2, #4294967295
 23f6666:	bf2c      	ite	cs
 23f6668:	f04f 0901 	movcs.w	r9, #1
 23f666c:	f04f 0900 	movcc.w	r9, #0
 23f6670:	4288      	cmp	r0, r1
 23f6672:	d903      	bls.n	23f667c <__udivmoddi4+0x124>
 23f6674:	f1b9 0f00 	cmp.w	r9, #0
 23f6678:	f000 80cf 	beq.w	23f681a <__udivmoddi4+0x2c2>
 23f667c:	4642      	mov	r2, r8
 23f667e:	1a09      	subs	r1, r1, r0
 23f6680:	b2a4      	uxth	r4, r4
 23f6682:	fbb1 f0fe 	udiv	r0, r1, lr
 23f6686:	fb0e 1110 	mls	r1, lr, r0, r1
 23f668a:	fb00 f707 	mul.w	r7, r0, r7
 23f668e:	ea44 4401 	orr.w	r4, r4, r1, lsl #16
 23f6692:	42a7      	cmp	r7, r4
 23f6694:	d908      	bls.n	23f66a8 <__udivmoddi4+0x150>
 23f6696:	eb1c 0404 	adds.w	r4, ip, r4
 23f669a:	f100 31ff 	add.w	r1, r0, #4294967295
 23f669e:	d202      	bcs.n	23f66a6 <__udivmoddi4+0x14e>
 23f66a0:	42a7      	cmp	r7, r4
 23f66a2:	f200 80b4 	bhi.w	23f680e <__udivmoddi4+0x2b6>
 23f66a6:	4608      	mov	r0, r1
 23f66a8:	1be4      	subs	r4, r4, r7
 23f66aa:	ea40 4002 	orr.w	r0, r0, r2, lsl #16
 23f66ae:	e79b      	b.n	23f65e8 <__udivmoddi4+0x90>
 23f66b0:	f1c6 0720 	rsb	r7, r6, #32
 23f66b4:	40b3      	lsls	r3, r6
 23f66b6:	fa01 f406 	lsl.w	r4, r1, r6
 23f66ba:	fa22 fc07 	lsr.w	ip, r2, r7
 23f66be:	40f9      	lsrs	r1, r7
 23f66c0:	40b2      	lsls	r2, r6
 23f66c2:	ea4c 0c03 	orr.w	ip, ip, r3
 23f66c6:	fa20 f307 	lsr.w	r3, r0, r7
 23f66ca:	ea4f 491c 	mov.w	r9, ip, lsr #16
 23f66ce:	431c      	orrs	r4, r3
 23f66d0:	fa1f fe8c 	uxth.w	lr, ip
 23f66d4:	fa00 f306 	lsl.w	r3, r0, r6
 23f66d8:	0c20      	lsrs	r0, r4, #16
 23f66da:	fbb1 f8f9 	udiv	r8, r1, r9
 23f66de:	fb09 1118 	mls	r1, r9, r8, r1
 23f66e2:	ea40 4101 	orr.w	r1, r0, r1, lsl #16
 23f66e6:	fb08 f00e 	mul.w	r0, r8, lr
 23f66ea:	4288      	cmp	r0, r1
 23f66ec:	d90f      	bls.n	23f670e <__udivmoddi4+0x1b6>
 23f66ee:	eb1c 0101 	adds.w	r1, ip, r1
 23f66f2:	f108 3aff 	add.w	sl, r8, #4294967295
 23f66f6:	bf2c      	ite	cs
 23f66f8:	f04f 0b01 	movcs.w	fp, #1
 23f66fc:	f04f 0b00 	movcc.w	fp, #0
 23f6700:	4288      	cmp	r0, r1
 23f6702:	d903      	bls.n	23f670c <__udivmoddi4+0x1b4>
 23f6704:	f1bb 0f00 	cmp.w	fp, #0
 23f6708:	f000 808d 	beq.w	23f6826 <__udivmoddi4+0x2ce>
 23f670c:	46d0      	mov	r8, sl
 23f670e:	1a09      	subs	r1, r1, r0
 23f6710:	b2a4      	uxth	r4, r4
 23f6712:	fbb1 f0f9 	udiv	r0, r1, r9
 23f6716:	fb09 1110 	mls	r1, r9, r0, r1
 23f671a:	fb00 fe0e 	mul.w	lr, r0, lr
 23f671e:	ea44 4101 	orr.w	r1, r4, r1, lsl #16
 23f6722:	458e      	cmp	lr, r1
 23f6724:	d907      	bls.n	23f6736 <__udivmoddi4+0x1de>
 23f6726:	eb1c 0101 	adds.w	r1, ip, r1
 23f672a:	f100 34ff 	add.w	r4, r0, #4294967295
 23f672e:	d201      	bcs.n	23f6734 <__udivmoddi4+0x1dc>
 23f6730:	458e      	cmp	lr, r1
 23f6732:	d87f      	bhi.n	23f6834 <__udivmoddi4+0x2dc>
 23f6734:	4620      	mov	r0, r4
 23f6736:	ea40 4008 	orr.w	r0, r0, r8, lsl #16
 23f673a:	eba1 010e 	sub.w	r1, r1, lr
 23f673e:	fba0 9802 	umull	r9, r8, r0, r2
 23f6742:	4541      	cmp	r1, r8
 23f6744:	464c      	mov	r4, r9
 23f6746:	46c6      	mov	lr, r8
 23f6748:	d302      	bcc.n	23f6750 <__udivmoddi4+0x1f8>
 23f674a:	d106      	bne.n	23f675a <__udivmoddi4+0x202>
 23f674c:	454b      	cmp	r3, r9
 23f674e:	d204      	bcs.n	23f675a <__udivmoddi4+0x202>
 23f6750:	3801      	subs	r0, #1
 23f6752:	ebb9 0402 	subs.w	r4, r9, r2
 23f6756:	eb68 0e0c 	sbc.w	lr, r8, ip
 23f675a:	2d00      	cmp	r5, #0
 23f675c:	d070      	beq.n	23f6840 <__udivmoddi4+0x2e8>
 23f675e:	1b1a      	subs	r2, r3, r4
 23f6760:	eb61 010e 	sbc.w	r1, r1, lr
 23f6764:	fa22 f306 	lsr.w	r3, r2, r6
 23f6768:	fa01 f707 	lsl.w	r7, r1, r7
 23f676c:	40f1      	lsrs	r1, r6
 23f676e:	2600      	movs	r6, #0
 23f6770:	431f      	orrs	r7, r3
 23f6772:	e9c5 7100 	strd	r7, r1, [r5]
 23f6776:	e73c      	b.n	23f65f2 <__udivmoddi4+0x9a>
 23f6778:	fa02 fc03 	lsl.w	ip, r2, r3
 23f677c:	f1c3 0020 	rsb	r0, r3, #32
 23f6780:	fa01 f203 	lsl.w	r2, r1, r3
 23f6784:	fa21 f600 	lsr.w	r6, r1, r0
 23f6788:	ea4f 4e1c 	mov.w	lr, ip, lsr #16
 23f678c:	fa24 f100 	lsr.w	r1, r4, r0
 23f6790:	fa1f f78c 	uxth.w	r7, ip
 23f6794:	409c      	lsls	r4, r3
 23f6796:	4311      	orrs	r1, r2
 23f6798:	fbb6 f0fe 	udiv	r0, r6, lr
 23f679c:	0c0a      	lsrs	r2, r1, #16
 23f679e:	fb0e 6610 	mls	r6, lr, r0, r6
 23f67a2:	ea42 4206 	orr.w	r2, r2, r6, lsl #16
 23f67a6:	fb00 f607 	mul.w	r6, r0, r7
 23f67aa:	4296      	cmp	r6, r2
 23f67ac:	d90e      	bls.n	23f67cc <__udivmoddi4+0x274>
 23f67ae:	eb1c 0202 	adds.w	r2, ip, r2
 23f67b2:	f100 38ff 	add.w	r8, r0, #4294967295
 23f67b6:	bf2c      	ite	cs
 23f67b8:	f04f 0901 	movcs.w	r9, #1
 23f67bc:	f04f 0900 	movcc.w	r9, #0
 23f67c0:	4296      	cmp	r6, r2
 23f67c2:	d902      	bls.n	23f67ca <__udivmoddi4+0x272>
 23f67c4:	f1b9 0f00 	cmp.w	r9, #0
 23f67c8:	d031      	beq.n	23f682e <__udivmoddi4+0x2d6>
 23f67ca:	4640      	mov	r0, r8
 23f67cc:	1b92      	subs	r2, r2, r6
 23f67ce:	b289      	uxth	r1, r1
 23f67d0:	fbb2 f6fe 	udiv	r6, r2, lr
 23f67d4:	fb0e 2216 	mls	r2, lr, r6, r2
 23f67d8:	ea41 4102 	orr.w	r1, r1, r2, lsl #16
 23f67dc:	fb06 f207 	mul.w	r2, r6, r7
 23f67e0:	428a      	cmp	r2, r1
 23f67e2:	d907      	bls.n	23f67f4 <__udivmoddi4+0x29c>
 23f67e4:	eb1c 0101 	adds.w	r1, ip, r1
 23f67e8:	f106 38ff 	add.w	r8, r6, #4294967295
 23f67ec:	d201      	bcs.n	23f67f2 <__udivmoddi4+0x29a>
 23f67ee:	428a      	cmp	r2, r1
 23f67f0:	d823      	bhi.n	23f683a <__udivmoddi4+0x2e2>
 23f67f2:	4646      	mov	r6, r8
 23f67f4:	1a89      	subs	r1, r1, r2
 23f67f6:	ea46 4600 	orr.w	r6, r6, r0, lsl #16
 23f67fa:	e725      	b.n	23f6648 <__udivmoddi4+0xf0>
 23f67fc:	462e      	mov	r6, r5
 23f67fe:	4628      	mov	r0, r5
 23f6800:	e6f7      	b.n	23f65f2 <__udivmoddi4+0x9a>
 23f6802:	1a84      	subs	r4, r0, r2
 23f6804:	eb61 0303 	sbc.w	r3, r1, r3
 23f6808:	2001      	movs	r0, #1
 23f680a:	461f      	mov	r7, r3
 23f680c:	e70b      	b.n	23f6626 <__udivmoddi4+0xce>
 23f680e:	4464      	add	r4, ip
 23f6810:	3802      	subs	r0, #2
 23f6812:	e749      	b.n	23f66a8 <__udivmoddi4+0x150>
 23f6814:	4464      	add	r4, ip
 23f6816:	3802      	subs	r0, #2
 23f6818:	e6e1      	b.n	23f65de <__udivmoddi4+0x86>
 23f681a:	3a02      	subs	r2, #2
 23f681c:	4461      	add	r1, ip
 23f681e:	e72e      	b.n	23f667e <__udivmoddi4+0x126>
 23f6820:	3e02      	subs	r6, #2
 23f6822:	4462      	add	r2, ip
 23f6824:	e6c6      	b.n	23f65b4 <__udivmoddi4+0x5c>
 23f6826:	f1a8 0802 	sub.w	r8, r8, #2
 23f682a:	4461      	add	r1, ip
 23f682c:	e76f      	b.n	23f670e <__udivmoddi4+0x1b6>
 23f682e:	3802      	subs	r0, #2
 23f6830:	4462      	add	r2, ip
 23f6832:	e7cb      	b.n	23f67cc <__udivmoddi4+0x274>
 23f6834:	3802      	subs	r0, #2
 23f6836:	4461      	add	r1, ip
 23f6838:	e77d      	b.n	23f6736 <__udivmoddi4+0x1de>
 23f683a:	3e02      	subs	r6, #2
 23f683c:	4461      	add	r1, ip
 23f683e:	e7d9      	b.n	23f67f4 <__udivmoddi4+0x29c>
 23f6840:	462e      	mov	r6, r5
 23f6842:	e6d6      	b.n	23f65f2 <__udivmoddi4+0x9a>

023f6844 <__aeabi_idiv0>:
 23f6844:	4770      	bx	lr
 23f6846:	bf00      	nop

023f6848 <__aeabi_d2uiz>:
 23f6848:	004a      	lsls	r2, r1, #1
 23f684a:	d211      	bcs.n	23f6870 <__aeabi_d2uiz+0x28>
 23f684c:	f512 1200 	adds.w	r2, r2, #2097152	; 0x200000
 23f6850:	d211      	bcs.n	23f6876 <__aeabi_d2uiz+0x2e>
 23f6852:	d50d      	bpl.n	23f6870 <__aeabi_d2uiz+0x28>
 23f6854:	f46f 7378 	mvn.w	r3, #992	; 0x3e0
 23f6858:	ebb3 5262 	subs.w	r2, r3, r2, asr #21
 23f685c:	d40e      	bmi.n	23f687c <__aeabi_d2uiz+0x34>
 23f685e:	ea4f 23c1 	mov.w	r3, r1, lsl #11
 23f6862:	f043 4300 	orr.w	r3, r3, #2147483648	; 0x80000000
 23f6866:	ea43 5350 	orr.w	r3, r3, r0, lsr #21
 23f686a:	fa23 f002 	lsr.w	r0, r3, r2
 23f686e:	4770      	bx	lr
 23f6870:	f04f 0000 	mov.w	r0, #0
 23f6874:	4770      	bx	lr
 23f6876:	ea50 3001 	orrs.w	r0, r0, r1, lsl #12
 23f687a:	d102      	bne.n	23f6882 <__aeabi_d2uiz+0x3a>
 23f687c:	f04f 30ff 	mov.w	r0, #4294967295
 23f6880:	4770      	bx	lr
 23f6882:	f04f 0000 	mov.w	r0, #0
 23f6886:	4770      	bx	lr

023f6888 <strcmp>:
 23f6888:	f810 2b01 	ldrb.w	r2, [r0], #1
 23f688c:	f811 3b01 	ldrb.w	r3, [r1], #1
 23f6890:	2a01      	cmp	r2, #1
 23f6892:	bf28      	it	cs
 23f6894:	429a      	cmpcs	r2, r3
 23f6896:	d0f7      	beq.n	23f6888 <strcmp>
 23f6898:	1ad0      	subs	r0, r2, r3
 23f689a:	4770      	bx	lr

023f689c <strlen>:
 23f689c:	4603      	mov	r3, r0
 23f689e:	f813 2b01 	ldrb.w	r2, [r3], #1
 23f68a2:	2a00      	cmp	r2, #0
 23f68a4:	d1fb      	bne.n	23f689e <strlen+0x2>
 23f68a6:	1a18      	subs	r0, r3, r0
 23f68a8:	3801      	subs	r0, #1
 23f68aa:	4770      	bx	lr

023f68ac <__aeabi_d2lz>:
 23f68ac:	b538      	push	{r3, r4, r5, lr}
 23f68ae:	2200      	movs	r2, #0
 23f68b0:	2300      	movs	r3, #0
 23f68b2:	4604      	mov	r4, r0
 23f68b4:	460d      	mov	r5, r1
 23f68b6:	f7ff fd6d 	bl	23f6394 <__aeabi_dcmplt>
 23f68ba:	b928      	cbnz	r0, 23f68c8 <__aeabi_d2lz+0x1c>
 23f68bc:	4620      	mov	r0, r4
 23f68be:	4629      	mov	r1, r5
 23f68c0:	e8bd 4038 	ldmia.w	sp!, {r3, r4, r5, lr}
 23f68c4:	f7ff be2a 	b.w	23f651c <__aeabi_d2ulz>
 23f68c8:	4620      	mov	r0, r4
 23f68ca:	f105 4100 	add.w	r1, r5, #2147483648	; 0x80000000
 23f68ce:	f7ff fe25 	bl	23f651c <__aeabi_d2ulz>
 23f68d2:	4240      	negs	r0, r0
 23f68d4:	eb61 0141 	sbc.w	r1, r1, r1, lsl #1
 23f68d8:	bd38      	pop	{r3, r4, r5, pc}
 23f68da:	bf00      	nop

023f68dc <module_user_pre_startup>:

void module_user_pre_startup() {
    PRE_STARTUP();
 23f68dc:	f005 b842 	b.w	23fb964 <PRE_STARTUP>

023f68e0 <module_user_init>:
extern constructor_ptr_t link_constructors_location[];
extern constructor_ptr_t link_constructors_end;
#define link_constructors_size   ((unsigned long)&link_constructors_end  -  (unsigned long)&link_constructors_location )

void module_user_init()
{
 23f68e0:	b570      	push	{r4, r5, r6, lr}
    module_user_init_hook();
 23f68e2:	f005 f8b1 	bl	23fba48 <module_user_init_hook>

    // invoke constructors
    unsigned ctor_num;
    for (ctor_num=0; ctor_num < link_constructors_size/sizeof(constructor_ptr_t); ctor_num++ )
 23f68e6:	2500      	movs	r5, #0
 23f68e8:	4e05      	ldr	r6, [pc, #20]	; (23f6900 <module_user_init+0x20>)
 23f68ea:	4c06      	ldr	r4, [pc, #24]	; (23f6904 <module_user_init+0x24>)
 23f68ec:	1ba4      	subs	r4, r4, r6
 23f68ee:	08a4      	lsrs	r4, r4, #2
 23f68f0:	42ac      	cmp	r4, r5
 23f68f2:	d100      	bne.n	23f68f6 <module_user_init+0x16>
    {
        link_constructors_location[ctor_num]();
    }
}
 23f68f4:	bd70      	pop	{r4, r5, r6, pc}
        link_constructors_location[ctor_num]();
 23f68f6:	f856 3b04 	ldr.w	r3, [r6], #4
 23f68fa:	4798      	blx	r3
    for (ctor_num=0; ctor_num < link_constructors_size/sizeof(constructor_ptr_t); ctor_num++ )
 23f68fc:	3501      	adds	r5, #1
 23f68fe:	e7f7      	b.n	23f68f0 <module_user_init+0x10>
 23f6900:	023fffcc 	.word	0x023fffcc
 23f6904:	023ffff4 	.word	0x023ffff4

023f6908 <module_user_setup>:

/**
 * Export these functions with a fuller name so they don't clash with the setup/loop wrappers in the system module.
 */
void module_user_setup() {
    setup();
 23f6908:	f001 bbe4 	b.w	23f80d4 <setup>

023f690c <module_user_loop>:
}

void module_user_loop() {
 23f690c:	b508      	push	{r3, lr}
    loop();
 23f690e:	f002 f8b1 	bl	23f8a74 <loop>
    _post_loop();
}
 23f6912:	e8bd 4008 	ldmia.w	sp!, {r3, lr}
    _post_loop();
 23f6916:	f005 b84f 	b.w	23fb9b8 <_post_loop>

023f691a <_Znwj>:
 * Implement C++ new/delete operators using the heap
 */

void *operator new(size_t size)
{
	return malloc(size);
 23f691a:	f003 bbeb 	b.w	23fa0f4 <malloc>

023f691e <_Znaj>:
 23f691e:	f003 bbe9 	b.w	23fa0f4 <malloc>

023f6922 <_ZdlPvj>:
	free(p);
}

void operator delete(void *p, size_t size)
{
	free(p);
 23f6922:	f003 bbf5 	b.w	23fa110 <free>
	...

023f6928 <__cxa_pure_virtual>:
    return -1;
}

/* Default implementation for call made to pure virtual function. */
void __cxa_pure_virtual() {
  PANIC(PureVirtualCall,"Call on pure virtual");
 23f6928:	4674      	mov	r4, lr
void __cxa_pure_virtual() {
 23f692a:	b500      	push	{lr}
 23f692c:	b08d      	sub	sp, #52	; 0x34
  PANIC(PureVirtualCall,"Call on pure virtual");
 23f692e:	222c      	movs	r2, #44	; 0x2c
 23f6930:	2100      	movs	r1, #0
 23f6932:	a801      	add	r0, sp, #4
 23f6934:	f006 fb4d 	bl	23fcfd2 <memset>
 23f6938:	4b05      	ldr	r3, [pc, #20]	; (23f6950 <__cxa_pure_virtual+0x28>)
 23f693a:	9404      	str	r4, [sp, #16]
 23f693c:	9301      	str	r3, [sp, #4]
 23f693e:	4b05      	ldr	r3, [pc, #20]	; (23f6954 <__cxa_pure_virtual+0x2c>)
 23f6940:	9302      	str	r3, [sp, #8]
}

__attribute__((always_inline)) static inline uint32_t __get_PC(void) { 
    uint32_t result; 

    asm volatile ("mov %0, pc\n" : "=r" (result) ); 
 23f6942:	467b      	mov	r3, pc
 23f6944:	2100      	movs	r1, #0
 23f6946:	a801      	add	r0, sp, #4
 23f6948:	9303      	str	r3, [sp, #12]
 23f694a:	f003 f9cd 	bl	23f9ce8 <panic_ext>
  while (1);
 23f694e:	e7fe      	b.n	23f694e <__cxa_pure_virtual+0x26>
 23f6950:	000c002c 	.word	0x000c002c
 23f6954:	023ff090 	.word	0x023ff090

023f6958 <__register_exitproc>:
int __cxa_atexit(void (*f)(void *), void *p, void *d) {
    return 0;
}

void __register_exitproc(int type, void (*fn)(void), void* arg, void* d) {
}
 23f6958:	4770      	bx	lr

023f695a <_ZN5spark10LogHandler5writeEPKcj>:
    }
}

inline void spark::LogHandler::write(const char *data, size_t size) {
    // Default implementation does nothing
}
 23f695a:	4770      	bx	lr

023f695c <_Z14shutoffTimerCbv>:
  leakingEventCount = shutoffEventCount = overflowEventCount = 0;   // Clear the per-cycle event counters.
}

// =============================================================== Shutoff valve
// Timer callback: when the 10 s valve-power window ends, ask the main loop to reset.
void shutoffTimerCb() { resetShutoff = true; triggerPublish = true; }   // Set flags for loop() to act on.
 23f695c:	2301      	movs	r3, #1
 23f695e:	4a02      	ldr	r2, [pc, #8]	; (23f6968 <_Z14shutoffTimerCbv+0xc>)
 23f6960:	7013      	strb	r3, [r2, #0]
 23f6962:	4a02      	ldr	r2, [pc, #8]	; (23f696c <_Z14shutoffTimerCbv+0x10>)
 23f6964:	7013      	strb	r3, [r2, #0]
 23f6966:	4770      	bx	lr
 23f6968:	10079198 	.word	0x10079198
 23f696c:	100791c0 	.word	0x100791c0

023f6970 <_Z10getFlowCal6String>:
  flowCalScale = v; saveFlowCal(); syncBackupRam(); triggerPublish = true;   // Accept it, save it, flush RAM, publish.
  Log.info("FLOW_CAL set %.4f", flowCalScale);    // Log the new value.
  return 1;                                        // Success.
}
// Cloud function: report the current flow calibration as an integer (scale * 1000).
int getFlowCal(String cmd) { (void)cmd; return (int)(flowCalScale * 1000.0f + 0.5f); }   // (void)cmd = "argument unused".
 23f6970:	4b06      	ldr	r3, [pc, #24]	; (23f698c <_Z10getFlowCal6String+0x1c>)
 23f6972:	ed9f 7a07 	vldr	s14, [pc, #28]	; 23f6990 <_Z10getFlowCal6String+0x20>
 23f6976:	edd3 6a00 	vldr	s13, [r3]
 23f697a:	eef6 7a00 	vmov.f32	s15, #96	; 0x3f000000  0.5
 23f697e:	eee6 7a87 	vfma.f32	s15, s13, s14
 23f6982:	eefd 7ae7 	vcvt.s32.f32	s15, s15
 23f6986:	ee17 0a90 	vmov	r0, s15
 23f698a:	4770      	bx	lr
 23f698c:	1007b400 	.word	0x1007b400
 23f6990:	447a0000 	.word	0x447a0000

023f6994 <_Z9getConfig6String>:
  Log.info("CFG set leak=%.2f vol=%.1f auto=%d alert=%d", leak, vol, aut, alt);   // Log the new config.
  return 1;                                        // Success.
}

// Cloud function: just trigger a publish of the current config (no input used).
int getConfig(String cmd) { (void)cmd; triggerPublish = true; return 1; }
 23f6994:	2001      	movs	r0, #1
 23f6996:	4b01      	ldr	r3, [pc, #4]	; (23f699c <_Z9getConfig6String+0x8>)
 23f6998:	7018      	strb	r0, [r3, #0]
 23f699a:	4770      	bx	lr
 23f699c:	100791c0 	.word	0x100791c0

023f69a0 <_ZN16JsonWriterStaticILj512EED1Ev>:
 * variable.
 *
 * @param BUFFER_SIZE The size of the buffer to reserve.
 */
template <size_t BUFFER_SIZE>
class JsonWriterStatic : public JsonWriter {
 23f69a0:	b510      	push	{r4, lr}
 23f69a2:	4604      	mov	r4, r0
 23f69a4:	4b02      	ldr	r3, [pc, #8]	; (23f69b0 <_ZN16JsonWriterStaticILj512EED1Ev+0x10>)
 23f69a6:	6003      	str	r3, [r0, #0]
 23f69a8:	f002 fc60 	bl	23f926c <_ZN10JsonWriterD1Ev>
 23f69ac:	4620      	mov	r0, r4
 23f69ae:	bd10      	pop	{r4, pc}
 23f69b0:	023ff870 	.word	0x023ff870

023f69b4 <_ZN16JsonWriterStaticILj512EED0Ev>:
 23f69b4:	b510      	push	{r4, lr}
 23f69b6:	4604      	mov	r4, r0
 23f69b8:	f7ff fff2 	bl	23f69a0 <_ZN16JsonWriterStaticILj512EED1Ev>
 23f69bc:	4620      	mov	r0, r4
 23f69be:	f44f 710c 	mov.w	r1, #560	; 0x230
 23f69c2:	f7ff ffae 	bl	23f6922 <_ZdlPvj>
 23f69c6:	4620      	mov	r0, r4
 23f69c8:	bd10      	pop	{r4, pc}

023f69ca <_ZN5Timer7timeoutEv>:
     * Subclasses can either provide a callback function, or override
     * this timeout method.
     */
    virtual void timeout()
    {
        if (callback) {
 23f69ca:	6943      	ldr	r3, [r0, #20]
 23f69cc:	b113      	cbz	r3, 23f69d4 <_ZN5Timer7timeoutEv+0xa>
    function<_Res(_ArgTypes...)>::
    operator()(_ArgTypes... __args) const
    {
      if (_M_empty())
	__throw_bad_function_call();
      return _M_invoker(_M_functor, std::forward<_ArgTypes>(__args)...);
 23f69ce:	6983      	ldr	r3, [r0, #24]
 23f69d0:	300c      	adds	r0, #12
 23f69d2:	4718      	bx	r3
            callback();
        }
    }
 23f69d4:	4770      	bx	lr

023f69d6 <_ZN5Timer12invoke_timerEPv>:
private:
	volatile bool running;
    os_timer_t handle;
    timer_callback_fn callback;

    static void invoke_timer(os_timer_t timer)
 23f69d6:	b513      	push	{r0, r1, r4, lr}
typedef std::function<os_thread_return_t(void)> wiring_thread_fn_t;

class SingleThreadedSection {
public:
    SingleThreadedSection() {
        os_thread_scheduling(false, NULL);
 23f69d8:	2100      	movs	r1, #0
 23f69da:	4604      	mov	r4, r0
 23f69dc:	4608      	mov	r0, r1
 23f69de:	f002 ff0d 	bl	23f97fc <os_thread_scheduling>
    {
        Timer* t = nullptr;
        SINGLE_THREADED_BLOCK() {
            void* id = nullptr;
 23f69e2:	2300      	movs	r3, #0
            os_timer_get_id(timer, &id);
 23f69e4:	4620      	mov	r0, r4
 23f69e6:	a901      	add	r1, sp, #4
            void* id = nullptr;
 23f69e8:	9301      	str	r3, [sp, #4]
            os_timer_get_id(timer, &id);
 23f69ea:	f002 ff31 	bl	23f9850 <os_timer_get_id>
            t = static_cast<Timer*>(id);
 23f69ee:	9c01      	ldr	r4, [sp, #4]
            if (t) {
 23f69f0:	b10c      	cbz	r4, 23f69f6 <_ZN5Timer12invoke_timerEPv+0x20>
                t->running = true;
 23f69f2:	2301      	movs	r3, #1
 23f69f4:	7123      	strb	r3, [r4, #4]
    }

    ~SingleThreadedSection() {
        os_thread_scheduling(true, NULL);
 23f69f6:	2100      	movs	r1, #0
 23f69f8:	2001      	movs	r0, #1
 23f69fa:	f002 feff 	bl	23f97fc <os_thread_scheduling>
            }
        }
        if (t) {
 23f69fe:	b12c      	cbz	r4, 23f6a0c <_ZN5Timer12invoke_timerEPv+0x36>
            t->timeout();
 23f6a00:	6823      	ldr	r3, [r4, #0]
 23f6a02:	4620      	mov	r0, r4
 23f6a04:	689b      	ldr	r3, [r3, #8]
 23f6a06:	4798      	blx	r3
            t->running = false;
 23f6a08:	2300      	movs	r3, #0
 23f6a0a:	7123      	strb	r3, [r4, #4]
        }
    }
 23f6a0c:	b002      	add	sp, #8
 23f6a0e:	bd10      	pop	{r4, pc}

023f6a10 <_ZL14updateBaselineif>:
  if (s < 0 || s >= SlotModel::SLOTS_PER_WEEK) return;   // Safety: ignore an out-of-range slot index.
 23f6a10:	f5b0 6ffc 	cmp.w	r0, #2016	; 0x7e0
static inline void updateBaseline(int s, float x) {
 23f6a14:	b510      	push	{r4, lr}
  if (s < 0 || s >= SlotModel::SLOTS_PER_WEEK) return;   // Safety: ignore an out-of-range slot index.
 23f6a16:	d211      	bcs.n	23f6a3c <_ZL14updateBaselineif+0x2c>
  if (!model.init[s]) {                           // If this slot has never been learned before...
 23f6a18:	4b1a      	ldr	r3, [pc, #104]	; (23f6a84 <_ZL14updateBaselineif+0x74>)
 23f6a1a:	0082      	lsls	r2, r0, #2
 23f6a1c:	1819      	adds	r1, r3, r0
 23f6a1e:	f501 517c 	add.w	r1, r1, #16128	; 0x3f00
 23f6a22:	780c      	ldrb	r4, [r1, #0]
 23f6a24:	f500 60fc 	add.w	r0, r0, #2016	; 0x7e0
    model.mu[s] = x; model.var[s] = 0.05f * 0.05f; model.init[s] = 1; return;   // ...seed it with x and a small variance.
 23f6a28:	441a      	add	r2, r3
  if (!model.init[s]) {                           // If this slot has never been learned before...
 23f6a2a:	b944      	cbnz	r4, 23f6a3e <_ZL14updateBaselineif+0x2e>
    model.mu[s] = x; model.var[s] = 0.05f * 0.05f; model.init[s] = 1; return;   // ...seed it with x and a small variance.
 23f6a2c:	ed82 0a00 	vstr	s0, [r2]
 23f6a30:	4a15      	ldr	r2, [pc, #84]	; (23f6a88 <_ZL14updateBaselineif+0x78>)
 23f6a32:	eb03 0380 	add.w	r3, r3, r0, lsl #2
 23f6a36:	601a      	str	r2, [r3, #0]
 23f6a38:	2301      	movs	r3, #1
 23f6a3a:	700b      	strb	r3, [r1, #0]
}
 23f6a3c:	bd10      	pop	{r4, pc}
  float mu = model.mu[s];                         // Current learned average for this slot.
 23f6a3e:	ed92 7a00 	vldr	s14, [r2]
  mu += ALPHA * err;                              // Nudge the average toward the new value (EWMA update).
 23f6a42:	eddf 7a12 	vldr	s15, [pc, #72]	; 23f6a8c <_ZL14updateBaselineif+0x7c>
  float err = x - mu;                             // How far the new value is from that average.
 23f6a46:	ee30 0a47 	vsub.f32	s0, s0, s14
  mu += ALPHA * err;                              // Nudge the average toward the new value (EWMA update).
 23f6a4a:	eea0 7a27 	vfma.f32	s14, s0, s15
  float var = (1.0f - BETA) * model.var[s] + BETA * (err * err);   // Update the variance the same smoothed way.
 23f6a4e:	ee20 0a00 	vmul.f32	s0, s0, s0
 23f6a52:	eb03 0380 	add.w	r3, r3, r0, lsl #2
 23f6a56:	ed93 6a00 	vldr	s12, [r3]
 23f6a5a:	eddf 6a0d 	vldr	s13, [pc, #52]	; 23f6a90 <_ZL14updateBaselineif+0x80>
 23f6a5e:	ee60 7a27 	vmul.f32	s15, s0, s15
 23f6a62:	eee6 7a26 	vfma.f32	s15, s12, s13
  if (var < minVar) var = minVar;                 // Apply that floor.
 23f6a66:	eddf 6a0b 	vldr	s13, [pc, #44]	; 23f6a94 <_ZL14updateBaselineif+0x84>
 23f6a6a:	eef4 7a66 	vcmp.f32	s15, s13
 23f6a6e:	eef1 fa10 	vmrs	APSR_nzcv, fpscr
 23f6a72:	bf48      	it	mi
 23f6a74:	eef0 7a66 	vmovmi.f32	s15, s13
  model.mu[s] = mu; model.var[s] = var;           // Store the updated average and variance back.
 23f6a78:	ed82 7a00 	vstr	s14, [r2]
 23f6a7c:	edc3 7a00 	vstr	s15, [r3]
 23f6a80:	e7dc      	b.n	23f6a3c <_ZL14updateBaselineif+0x2c>
 23f6a82:	bf00      	nop
 23f6a84:	10072f28 	.word	0x10072f28
 23f6a88:	3b23d70b 	.word	0x3b23d70b
 23f6a8c:	3ca3d70a 	.word	0x3ca3d70a
 23f6a90:	3f7ae148 	.word	0x3f7ae148
 23f6a94:	39d1b717 	.word	0x39d1b717

023f6a98 <_ZNSt17_Function_handlerIFvvEPS0_E10_M_managerERSt9_Any_dataRKS3_St18_Manager_operation>:
	switch (__op)
 23f6a98:	2a01      	cmp	r2, #1
 23f6a9a:	d102      	bne.n	23f6aa2 <_ZNSt17_Function_handlerIFvvEPS0_E10_M_managerERSt9_Any_dataRKS3_St18_Manager_operation+0xa>
	    __dest._M_access<_Functor*>() = _Base::_M_get_pointer(__source);
 23f6a9c:	6001      	str	r1, [r0, #0]
      }
 23f6a9e:	2000      	movs	r0, #0
 23f6aa0:	4770      	bx	lr
	  switch (__op)
 23f6aa2:	2a02      	cmp	r2, #2
	  ::new (__dest._M_access()) _Functor(__source._M_access<_Functor>());
 23f6aa4:	bf04      	itt	eq
 23f6aa6:	680b      	ldreq	r3, [r1, #0]
 23f6aa8:	6003      	streq	r3, [r0, #0]
	      break;
 23f6aaa:	e7f8      	b.n	23f6a9e <_ZNSt17_Function_handlerIFvvEPS0_E10_M_managerERSt9_Any_dataRKS3_St18_Manager_operation+0x6>

023f6aac <_ZNSt17_Function_handlerIFvvEPS0_E9_M_invokeERKSt9_Any_data>:
    { return static_cast<_Up&&>(__t); }

  template<typename _Res, typename _Fn, typename... _Args>
    constexpr _Res
    __invoke_impl(__invoke_other, _Fn&& __f, _Args&&... __args)
    { return std::forward<_Fn>(__f)(std::forward<_Args>(__args)...); }
 23f6aac:	6803      	ldr	r3, [r0, #0]
 23f6aae:	4718      	bx	r3

023f6ab0 <_ZN5Timer4stopEj.isra.0>:
    bool stop(unsigned block=default_wait) { return _stop(block, false); }
 23f6ab0:	b507      	push	{r0, r1, r2, lr}
        return handle ? !os_timer_change(handle, OS_TIMER_CHANGE_STOP, fromISR, 0, block, nullptr) : false;
 23f6ab2:	6880      	ldr	r0, [r0, #8]
 23f6ab4:	b130      	cbz	r0, 23f6ac4 <_ZN5Timer4stopEj.isra.0+0x14>
 23f6ab6:	2300      	movs	r3, #0
 23f6ab8:	e9cd 1300 	strd	r1, r3, [sp]
 23f6abc:	461a      	mov	r2, r3
 23f6abe:	2102      	movs	r1, #2
 23f6ac0:	f002 fed4 	bl	23f986c <os_timer_change>
    bool stop(unsigned block=default_wait) { return _stop(block, false); }
 23f6ac4:	b003      	add	sp, #12
 23f6ac6:	f85d fb04 	ldr.w	pc, [sp], #4

023f6aca <_ZN5Timer5startEj.isra.0>:
    bool start(unsigned block=default_wait) { return _start(block, false); }
 23f6aca:	b537      	push	{r0, r1, r2, r4, r5, lr}
 23f6acc:	4605      	mov	r5, r0
 23f6ace:	460c      	mov	r4, r1
        stop(fromISR);
 23f6ad0:	2100      	movs	r1, #0
 23f6ad2:	f7ff ffed 	bl	23f6ab0 <_ZN5Timer4stopEj.isra.0>
        return handle ? !os_timer_change(handle, OS_TIMER_CHANGE_START, fromISR, 0, block, nullptr) : false;
 23f6ad6:	68a8      	ldr	r0, [r5, #8]
 23f6ad8:	b130      	cbz	r0, 23f6ae8 <_ZN5Timer5startEj.isra.0+0x1e>
 23f6ada:	2300      	movs	r3, #0
 23f6adc:	461a      	mov	r2, r3
 23f6ade:	4619      	mov	r1, r3
 23f6ae0:	e9cd 4300 	strd	r4, r3, [sp]
 23f6ae4:	f002 fec2 	bl	23f986c <os_timer_change>
    bool start(unsigned block=default_wait) { return _start(block, false); }
 23f6ae8:	b003      	add	sp, #12
 23f6aea:	bd30      	pop	{r4, r5, pc}

023f6aec <_ZN10CloudClass7publishEPKcS1_.isra.0>:

inline particle::Future<bool> CloudClass::publish(const char* name) {
    return publish(name, PUBLIC);
}

inline particle::Future<bool> CloudClass::publish(const char* name, const char* data) {
 23f6aec:	b570      	push	{r4, r5, r6, lr}
 23f6aee:	4b0d      	ldr	r3, [pc, #52]	; (23f6b24 <_ZN10CloudClass7publishEPKcS1_.isra.0+0x38>)
 23f6af0:	4605      	mov	r5, r0
        return publish_event(eventName, eventData, eventData ? std::strlen(eventData) : 0, static_cast<int>(particle::ContentType::TEXT), ttl, flags1 | flags2);
 23f6af2:	4614      	mov	r4, r2
 23f6af4:	781e      	ldrb	r6, [r3, #0]
inline particle::Future<bool> CloudClass::publish(const char* name, const char* data) {
 23f6af6:	b086      	sub	sp, #24
        return publish_event(eventName, eventData, eventData ? std::strlen(eventData) : 0, static_cast<int>(particle::ContentType::TEXT), ttl, flags1 | flags2);
 23f6af8:	b192      	cbz	r2, 23f6b20 <_ZN10CloudClass7publishEPKcS1_.isra.0+0x34>
 23f6afa:	4610      	mov	r0, r2
 23f6afc:	9105      	str	r1, [sp, #20]
 23f6afe:	f7ff fecd 	bl	23f689c <strlen>
 23f6b02:	9905      	ldr	r1, [sp, #20]
 23f6b04:	2300      	movs	r3, #0
 23f6b06:	223c      	movs	r2, #60	; 0x3c
 23f6b08:	f88d 6008 	strb.w	r6, [sp, #8]
 23f6b0c:	e9cd 3200 	strd	r3, r2, [sp]
 23f6b10:	4603      	mov	r3, r0
 23f6b12:	4622      	mov	r2, r4
 23f6b14:	4628      	mov	r0, r5
 23f6b16:	f005 f95d 	bl	23fbdd4 <_ZN10CloudClass13publish_eventEPKcS1_jiiN8particle5FlagsI15PublishFlagTypehEE>
    return publish(name, data, PUBLIC);
}
 23f6b1a:	4628      	mov	r0, r5
 23f6b1c:	b006      	add	sp, #24
 23f6b1e:	bd70      	pop	{r4, r5, r6, pc}
        return publish_event(eventName, eventData, eventData ? std::strlen(eventData) : 0, static_cast<int>(particle::ContentType::TEXT), ttl, flags1 | flags2);
 23f6b20:	4610      	mov	r0, r2
 23f6b22:	e7ef      	b.n	23f6b04 <_ZN10CloudClass7publishEPKcS1_.isra.0+0x18>
 23f6b24:	10077608 	.word	0x10077608

023f6b28 <_ZN10CloudClass9_functionEPKcPFi6StringE.isra.0>:
    static bool _function(const char *funcKey, user_function_int_str_t* func)
 23f6b28:	4602      	mov	r2, r0
        return register_function(call_raw_user_function, (void*)func, funcKey);
 23f6b2a:	4801      	ldr	r0, [pc, #4]	; (23f6b30 <_ZN10CloudClass9_functionEPKcPFi6StringE.isra.0+0x8>)
 23f6b2c:	f005 b82c 	b.w	23fbb88 <_ZN10CloudClass17register_functionEPFiPvPKcS0_ES0_S2_>
 23f6b30:	023fbb5d 	.word	0x023fbb5d

023f6b34 <_ZN5spark16SerialLogHandlerD1Ev>:
            StreamLogHandler(Serial, level, filters) {
        Serial.begin(baud);
        LogManager::instance()->addHandler(this);
    }

    virtual ~SerialLogHandler() {
 23f6b34:	b510      	push	{r4, lr}
 23f6b36:	4604      	mov	r4, r0
 23f6b38:	4b09      	ldr	r3, [pc, #36]	; (23f6b60 <_ZN5spark16SerialLogHandlerD1Ev+0x2c>)
 23f6b3a:	6003      	str	r3, [r0, #0]
        LogManager::instance()->removeHandler(this);
 23f6b3c:	f004 f82a 	bl	23fab94 <_ZN5spark10LogManager8instanceEv>
 23f6b40:	4621      	mov	r1, r4
 23f6b42:	f004 fa73 	bl	23fb02c <_ZN5spark10LogManager13removeHandlerEPNS_10LogHandlerE>
        Serial.end();
 23f6b46:	f005 fb6f 	bl	23fc228 <_Z16_fetch_usbserialv>
 23f6b4a:	f005 fb5f 	bl	23fc20c <_ZN9USBSerial3endEv>
    virtual ~LogHandler() = default;
 23f6b4e:	4620      	mov	r0, r4
 23f6b50:	4b04      	ldr	r3, [pc, #16]	; (23f6b64 <_ZN5spark16SerialLogHandlerD1Ev+0x30>)
 23f6b52:	f840 3b04 	str.w	r3, [r0], #4
 23f6b56:	f004 f8f3 	bl	23fad40 <_ZN5spark6detail9LogFilterD1Ev>
    }
 23f6b5a:	4620      	mov	r0, r4
 23f6b5c:	bd10      	pop	{r4, pc}
 23f6b5e:	bf00      	nop
 23f6b60:	023ff858 	.word	0x023ff858
 23f6b64:	023ff840 	.word	0x023ff840

023f6b68 <_ZN5spark16SerialLogHandlerD0Ev>:
    virtual ~SerialLogHandler() {
 23f6b68:	b510      	push	{r4, lr}
 23f6b6a:	4604      	mov	r4, r0
    }
 23f6b6c:	f7ff ffe2 	bl	23f6b34 <_ZN5spark16SerialLogHandlerD1Ev>
 23f6b70:	4620      	mov	r0, r4
 23f6b72:	2124      	movs	r1, #36	; 0x24
 23f6b74:	f7ff fed5 	bl	23f6922 <_ZdlPvj>
 23f6b78:	4620      	mov	r0, r4
 23f6b7a:	bd10      	pop	{r4, pc}

023f6b7c <_ZNSt14_Function_baseD1Ev>:
    ~_Function_base()
 23f6b7c:	b510      	push	{r4, lr}
      if (_M_manager)
 23f6b7e:	6883      	ldr	r3, [r0, #8]
    ~_Function_base()
 23f6b80:	4604      	mov	r4, r0
      if (_M_manager)
 23f6b82:	b113      	cbz	r3, 23f6b8a <_ZNSt14_Function_baseD1Ev+0xe>
	_M_manager(_M_functor, _M_functor, __destroy_functor);
 23f6b84:	2203      	movs	r2, #3
 23f6b86:	4601      	mov	r1, r0
 23f6b88:	4798      	blx	r3
    }
 23f6b8a:	4620      	mov	r0, r4
 23f6b8c:	bd10      	pop	{r4, pc}
	...

023f6b90 <_ZN5TimerD1Ev>:
    virtual ~Timer() {
 23f6b90:	b538      	push	{r3, r4, r5, lr}
 23f6b92:	4b0f      	ldr	r3, [pc, #60]	; (23f6bd0 <_ZN5TimerD1Ev+0x40>)
 23f6b94:	4604      	mov	r4, r0
 23f6b96:	6003      	str	r3, [r0, #0]
        if (handle) {
 23f6b98:	6883      	ldr	r3, [r0, #8]
 23f6b9a:	b19b      	cbz	r3, 23f6bc4 <_ZN5TimerD1Ev+0x34>
            stop();
 23f6b9c:	f06f 4100 	mvn.w	r1, #2147483648	; 0x80000000
 23f6ba0:	f7ff ff86 	bl	23f6ab0 <_ZN5Timer4stopEj.isra.0>
            os_timer_set_id(handle, nullptr);
 23f6ba4:	2100      	movs	r1, #0
 23f6ba6:	68a0      	ldr	r0, [r4, #8]
 23f6ba8:	f002 fea6 	bl	23f98f8 <os_timer_set_id>
            while (running) {
 23f6bac:	7923      	ldrb	r3, [r4, #4]
 23f6bae:	f003 05ff 	and.w	r5, r3, #255	; 0xff
 23f6bb2:	b113      	cbz	r3, 23f6bba <_ZN5TimerD1Ev+0x2a>
                os_thread_yield();
 23f6bb4:	f002 fe14 	bl	23f97e0 <os_thread_yield>
            while (running) {
 23f6bb8:	e7f8      	b.n	23f6bac <_ZN5TimerD1Ev+0x1c>
            os_timer_destroy(handle, nullptr);
 23f6bba:	4629      	mov	r1, r5
 23f6bbc:	68a0      	ldr	r0, [r4, #8]
 23f6bbe:	f002 fe39 	bl	23f9834 <os_timer_destroy>
            handle = nullptr;
 23f6bc2:	60a5      	str	r5, [r4, #8]
    class function<_Res(_ArgTypes...)>
 23f6bc4:	f104 000c 	add.w	r0, r4, #12
 23f6bc8:	f7ff ffd8 	bl	23f6b7c <_ZNSt14_Function_baseD1Ev>
    }
 23f6bcc:	4620      	mov	r0, r4
 23f6bce:	bd38      	pop	{r3, r4, r5, pc}
 23f6bd0:	023ff82c 	.word	0x023ff82c

023f6bd4 <_ZN5TimerD0Ev>:
    virtual ~Timer() {
 23f6bd4:	b510      	push	{r4, lr}
 23f6bd6:	4604      	mov	r4, r0
    }
 23f6bd8:	f7ff ffda 	bl	23f6b90 <_ZN5TimerD1Ev>
 23f6bdc:	4620      	mov	r0, r4
 23f6bde:	211c      	movs	r1, #28
 23f6be0:	f7ff fe9f 	bl	23f6922 <_ZdlPvj>
 23f6be4:	4620      	mov	r0, r4
 23f6be6:	bd10      	pop	{r4, pc}

023f6be8 <_ZN5spark9WiFiClass2onEv>:
    WiFiClass() :
            NetworkClass(NETWORK_INTERFACE_WIFI_STA) {
    }

    void on(void) {
        network_on(*this, 0, 0, NULL);
 23f6be8:	2300      	movs	r3, #0
 23f6bea:	6840      	ldr	r0, [r0, #4]
 23f6bec:	461a      	mov	r2, r3
 23f6bee:	4619      	mov	r1, r3
 23f6bf0:	f003 b968 	b.w	23f9ec4 <network_on>

023f6bf4 <_ZN5spark9WiFiClass7connectEj>:
    }

    WiFiSignal RSSI();

    void connect(unsigned flags=0) {
        network_connect(*this, flags, 0, NULL);
 23f6bf4:	2300      	movs	r3, #0
 23f6bf6:	6840      	ldr	r0, [r0, #4]
 23f6bf8:	461a      	mov	r2, r3
 23f6bfa:	f003 b92b 	b.w	23f9e54 <network_connect>

023f6bfe <_ZN5spark9WiFiClass5readyEv>:
    bool connecting(void) {
        return network_connecting(*this, 0, NULL);
    }

    bool ready(void) {
        return network_ready(*this, 0, NULL);
 23f6bfe:	2200      	movs	r2, #0
 23f6c00:	6840      	ldr	r0, [r0, #4]
 23f6c02:	4611      	mov	r1, r2
 23f6c04:	f003 b950 	b.w	23f9ea8 <network_ready>

023f6c08 <_ZN8particle24SystemSleepConfiguration4gpioEt13InterruptModeNS_7PinTypeE>:
            config_.flags |= f.value();
        }
        return *this;
    }

    SystemSleepConfiguration& gpio(hal_pin_t pin, InterruptMode mode, PinType type = PinType::UNKNOWN) {
 23f6c08:	e92d 41f0 	stmdb	sp!, {r4, r5, r6, r7, r8, lr}
 23f6c0c:	461e      	mov	r6, r3
        if (valid_) {
 23f6c0e:	7d03      	ldrb	r3, [r0, #20]
    SystemSleepConfiguration& gpio(hal_pin_t pin, InterruptMode mode, PinType type = PinType::UNKNOWN) {
 23f6c10:	4605      	mov	r5, r0
 23f6c12:	4688      	mov	r8, r1
 23f6c14:	4617      	mov	r7, r2
        if (valid_) {
 23f6c16:	b1a3      	cbz	r3, 23f6c42 <_ZN8particle24SystemSleepConfiguration4gpioEt13InterruptModeNS_7PinTypeE+0x3a>
        return wakeupSourceFeatured(type, config_->wakeup_sources);
 23f6c18:	6803      	ldr	r3, [r0, #0]
 23f6c1a:	68dc      	ldr	r4, [r3, #12]
        if (!start) {
 23f6c1c:	b1a4      	cbz	r4, 23f6c48 <_ZN8particle24SystemSleepConfiguration4gpioEt13InterruptModeNS_7PinTypeE+0x40>
            if (start->type == type) {
 23f6c1e:	88a3      	ldrh	r3, [r4, #4]
 23f6c20:	2b01      	cmp	r3, #1
 23f6c22:	d006      	beq.n	23f6c32 <_ZN8particle24SystemSleepConfiguration4gpioEt13InterruptModeNS_7PinTypeE+0x2a>
            start = start->next;
 23f6c24:	68a4      	ldr	r4, [r4, #8]
        while (start) {
 23f6c26:	e7f9      	b.n	23f6c1c <_ZN8particle24SystemSleepConfiguration4gpioEt13InterruptModeNS_7PinTypeE+0x14>
                auto gpioWakeup = reinterpret_cast<hal_wakeup_source_gpio_t*>(wakeup);
                if (gpioWakeup->pin == pin && gpioWakeup->type == static_cast<hal_pin_type_t>(type)) {
                    gpioWakeup->mode = mode;
                    return *this;
                }
                wakeup = wakeupSourceFeatured(HAL_WAKEUP_SOURCE_TYPE_GPIO, wakeup->next);
 23f6c28:	68a4      	ldr	r4, [r4, #8]
        if (!start) {
 23f6c2a:	b16c      	cbz	r4, 23f6c48 <_ZN8particle24SystemSleepConfiguration4gpioEt13InterruptModeNS_7PinTypeE+0x40>
            if (start->type == type) {
 23f6c2c:	88a3      	ldrh	r3, [r4, #4]
 23f6c2e:	2b01      	cmp	r3, #1
 23f6c30:	d1fa      	bne.n	23f6c28 <_ZN8particle24SystemSleepConfiguration4gpioEt13InterruptModeNS_7PinTypeE+0x20>
            while (wakeup) {
 23f6c32:	b14c      	cbz	r4, 23f6c48 <_ZN8particle24SystemSleepConfiguration4gpioEt13InterruptModeNS_7PinTypeE+0x40>
                if (gpioWakeup->pin == pin && gpioWakeup->type == static_cast<hal_pin_type_t>(type)) {
 23f6c34:	89a3      	ldrh	r3, [r4, #12]
 23f6c36:	4543      	cmp	r3, r8
 23f6c38:	d1f6      	bne.n	23f6c28 <_ZN8particle24SystemSleepConfiguration4gpioEt13InterruptModeNS_7PinTypeE+0x20>
 23f6c3a:	7be3      	ldrb	r3, [r4, #15]
 23f6c3c:	42b3      	cmp	r3, r6
 23f6c3e:	d1f3      	bne.n	23f6c28 <_ZN8particle24SystemSleepConfiguration4gpioEt13InterruptModeNS_7PinTypeE+0x20>
                    gpioWakeup->mode = mode;
 23f6c40:	73a7      	strb	r7, [r4, #14]
            wakeupSource->mode = mode;
            wakeupSource->type = static_cast<hal_pin_type_t>(type);
            config_.wakeup_sources = reinterpret_cast<hal_wakeup_source_base_t*>(wakeupSource);
        }
        return *this;
    }
 23f6c42:	4628      	mov	r0, r5
 23f6c44:	e8bd 81f0 	ldmia.w	sp!, {r4, r5, r6, r7, r8, pc}
            auto wakeupSource = (hal_wakeup_source_gpio_t*)system_pool_alloc(sizeof(hal_wakeup_source_gpio_t), nullptr);
 23f6c48:	2100      	movs	r1, #0
 23f6c4a:	2010      	movs	r0, #16
 23f6c4c:	f003 f8d8 	bl	23f9e00 <system_pool_alloc>
            if (!wakeupSource) {
 23f6c50:	b908      	cbnz	r0, 23f6c56 <_ZN8particle24SystemSleepConfiguration4gpioEt13InterruptModeNS_7PinTypeE+0x4e>
                valid_ = false;
 23f6c52:	7528      	strb	r0, [r5, #20]
                return *this;
 23f6c54:	e7f5      	b.n	23f6c42 <_ZN8particle24SystemSleepConfiguration4gpioEt13InterruptModeNS_7PinTypeE+0x3a>
            wakeupSource->base.size = sizeof(hal_wakeup_source_gpio_t);
 23f6c56:	4b06      	ldr	r3, [pc, #24]	; (23f6c70 <_ZN8particle24SystemSleepConfiguration4gpioEt13InterruptModeNS_7PinTypeE+0x68>)
 23f6c58:	6003      	str	r3, [r0, #0]
            wakeupSource->base.type = HAL_WAKEUP_SOURCE_TYPE_GPIO;
 23f6c5a:	2301      	movs	r3, #1
 23f6c5c:	8083      	strh	r3, [r0, #4]
            wakeupSource->base.next = config_.wakeup_sources;
 23f6c5e:	692b      	ldr	r3, [r5, #16]
            wakeupSource->pin = pin;
 23f6c60:	f8a0 800c 	strh.w	r8, [r0, #12]
            wakeupSource->base.next = config_.wakeup_sources;
 23f6c64:	6083      	str	r3, [r0, #8]
            wakeupSource->mode = mode;
 23f6c66:	7387      	strb	r7, [r0, #14]
            wakeupSource->type = static_cast<hal_pin_type_t>(type);
 23f6c68:	73c6      	strb	r6, [r0, #15]
            config_.wakeup_sources = reinterpret_cast<hal_wakeup_source_base_t*>(wakeupSource);
 23f6c6a:	6128      	str	r0, [r5, #16]
 23f6c6c:	e7e9      	b.n	23f6c42 <_ZN8particle24SystemSleepConfiguration4gpioEt13InterruptModeNS_7PinTypeE+0x3a>
 23f6c6e:	bf00      	nop
 23f6c70:	00030010 	.word	0x00030010

023f6c74 <_ZNK5spark6Logger3logE8LogLevelPKcSt9__va_list>:
    va_start(args, fmt);
    log(level, fmt, args);
    va_end(args);
}

inline void spark::Logger::log(LogLevel level, const char *fmt, va_list args) const {
 23f6c74:	b510      	push	{r4, lr}
    LogAttributes attr;
    attr.size = sizeof(LogAttributes);
    attr.flags = 0;
 23f6c76:	f04f 0c20 	mov.w	ip, #32
inline void spark::Logger::log(LogLevel level, const char *fmt, va_list args) const {
 23f6c7a:	4604      	mov	r4, r0
 23f6c7c:	4608      	mov	r0, r1
    attr.flags = 0;
 23f6c7e:	2100      	movs	r1, #0
inline void spark::Logger::log(LogLevel level, const char *fmt, va_list args) const {
 23f6c80:	b08a      	sub	sp, #40	; 0x28
    log_message_v(level, name_, &attr, nullptr, fmt, args);
 23f6c82:	e9cd 2300 	strd	r2, r3, [sp]
    attr.flags = 0;
 23f6c86:	e9cd c102 	strd	ip, r1, [sp, #8]
    log_message_v(level, name_, &attr, nullptr, fmt, args);
 23f6c8a:	460b      	mov	r3, r1
 23f6c8c:	aa02      	add	r2, sp, #8
 23f6c8e:	6821      	ldr	r1, [r4, #0]
 23f6c90:	f003 f800 	bl	23f9c94 <log_message_v>
}
 23f6c94:	b00a      	add	sp, #40	; 0x28
 23f6c96:	bd10      	pop	{r4, pc}

023f6c98 <_ZNK5spark6Logger4infoEPKcz>:
inline void spark::Logger::info(const char *fmt, ...) const {
 23f6c98:	b40e      	push	{r1, r2, r3}
 23f6c9a:	b503      	push	{r0, r1, lr}
 23f6c9c:	ab03      	add	r3, sp, #12
 23f6c9e:	f853 2b04 	ldr.w	r2, [r3], #4
    log(LOG_LEVEL_INFO, fmt, args);
 23f6ca2:	211e      	movs	r1, #30
    va_start(args, fmt);
 23f6ca4:	9301      	str	r3, [sp, #4]
    log(LOG_LEVEL_INFO, fmt, args);
 23f6ca6:	f7ff ffe5 	bl	23f6c74 <_ZNK5spark6Logger3logE8LogLevelPKcSt9__va_list>
}
 23f6caa:	b002      	add	sp, #8
 23f6cac:	f85d eb04 	ldr.w	lr, [sp], #4
 23f6cb0:	b003      	add	sp, #12
 23f6cb2:	4770      	bx	lr

023f6cb4 <_ZNK5spark6Logger4warnEPKcz>:
inline void spark::Logger::warn(const char *fmt, ...) const {
 23f6cb4:	b40e      	push	{r1, r2, r3}
 23f6cb6:	b503      	push	{r0, r1, lr}
 23f6cb8:	ab03      	add	r3, sp, #12
 23f6cba:	f853 2b04 	ldr.w	r2, [r3], #4
    log(LOG_LEVEL_WARN, fmt, args);
 23f6cbe:	2128      	movs	r1, #40	; 0x28
    va_start(args, fmt);
 23f6cc0:	9301      	str	r3, [sp, #4]
    log(LOG_LEVEL_WARN, fmt, args);
 23f6cc2:	f7ff ffd7 	bl	23f6c74 <_ZNK5spark6Logger3logE8LogLevelPKcSt9__va_list>
}
 23f6cc6:	b002      	add	sp, #8
 23f6cc8:	f85d eb04 	ldr.w	lr, [sp], #4
 23f6ccc:	b003      	add	sp, #12
 23f6cce:	4770      	bx	lr

023f6cd0 <_ZNK5spark6Logger5errorEPKcz>:
inline void spark::Logger::error(const char *fmt, ...) const {
 23f6cd0:	b40e      	push	{r1, r2, r3}
 23f6cd2:	b503      	push	{r0, r1, lr}
 23f6cd4:	ab03      	add	r3, sp, #12
 23f6cd6:	f853 2b04 	ldr.w	r2, [r3], #4
    log(LOG_LEVEL_ERROR, fmt, args);
 23f6cda:	2132      	movs	r1, #50	; 0x32
    va_start(args, fmt);
 23f6cdc:	9301      	str	r3, [sp, #4]
    log(LOG_LEVEL_ERROR, fmt, args);
 23f6cde:	f7ff ffc9 	bl	23f6c74 <_ZNK5spark6Logger3logE8LogLevelPKcSt9__va_list>
}
 23f6ce2:	b002      	add	sp, #8
 23f6ce4:	f85d eb04 	ldr.w	lr, [sp], #4
 23f6ce8:	b003      	add	sp, #12
 23f6cea:	4770      	bx	lr

023f6cec <_Z13syncBackupRamv>:
    }


    int backupRamSync() {
#if HAL_PLATFORM_BACKUP_RAM_NEED_SYNC
        return hal_backup_ram_sync(nullptr);
 23f6cec:	2000      	movs	r0, #0
 23f6cee:	f002 bd69 	b.w	23f97c4 <hal_backup_ram_sync>

023f6cf2 <_Z8saveBlobPKcPKvj>:
bool saveBlob(const char *path, const void *data, size_t len) {
 23f6cf2:	b570      	push	{r4, r5, r6, lr}
 23f6cf4:	460e      	mov	r6, r1
 23f6cf6:	4614      	mov	r4, r2
  int fd = open(path, O_WRONLY | O_CREAT | O_TRUNC, 0666);   // Open for writing; create if missing; empty it first.
 23f6cf8:	f240 6101 	movw	r1, #1537	; 0x601
 23f6cfc:	f44f 72db 	mov.w	r2, #438	; 0x1b6
 23f6d00:	f007 f8c4 	bl	23fde8c <open>
  if (fd < 0) return false;                      // A negative file descriptor means the open failed.
 23f6d04:	1e05      	subs	r5, r0, #0
 23f6d06:	db0b      	blt.n	23f6d20 <_Z8saveBlobPKcPKvj+0x2e>
  int w = write(fd, data, len);                  // Write the bytes; 'w' = how many were actually written.
 23f6d08:	4631      	mov	r1, r6
 23f6d0a:	4622      	mov	r2, r4
 23f6d0c:	f007 f8dc 	bl	23fdec8 <write>
 23f6d10:	4606      	mov	r6, r0
  close(fd);                                     // Always close the file when done.
 23f6d12:	4628      	mov	r0, r5
 23f6d14:	f007 f8b2 	bl	23fde7c <close>
  return (w == (int)len);                        // Success only if we wrote exactly the requested number of bytes.
 23f6d18:	1ba3      	subs	r3, r4, r6
 23f6d1a:	4258      	negs	r0, r3
 23f6d1c:	4158      	adcs	r0, r3
}
 23f6d1e:	bd70      	pop	{r4, r5, r6, pc}
  if (fd < 0) return false;                      // A negative file descriptor means the open failed.
 23f6d20:	2000      	movs	r0, #0
 23f6d22:	e7fc      	b.n	23f6d1e <_Z8saveBlobPKcPKvj+0x2c>

023f6d24 <_Z8loadBlobPKcPvj>:
bool loadBlob(const char *path, void *data, size_t len) {
 23f6d24:	b570      	push	{r4, r5, r6, lr}
 23f6d26:	460e      	mov	r6, r1
  int fd = open(path, O_RDONLY);                 // Open the file for reading only.
 23f6d28:	2100      	movs	r1, #0
bool loadBlob(const char *path, void *data, size_t len) {
 23f6d2a:	4614      	mov	r4, r2
  int fd = open(path, O_RDONLY);                 // Open the file for reading only.
 23f6d2c:	f007 f8ae 	bl	23fde8c <open>
  if (fd < 0) return false;                      // Open failed (e.g. file does not exist).
 23f6d30:	1e05      	subs	r5, r0, #0
 23f6d32:	db0b      	blt.n	23f6d4c <_Z8loadBlobPKcPvj+0x28>
  int r = read(fd, data, len);                   // Read up to 'len' bytes; 'r' = how many were read.
 23f6d34:	4631      	mov	r1, r6
 23f6d36:	4622      	mov	r2, r4
 23f6d38:	f007 f8bc 	bl	23fdeb4 <read>
 23f6d3c:	4606      	mov	r6, r0
  close(fd);                                     // Close the file.
 23f6d3e:	4628      	mov	r0, r5
 23f6d40:	f007 f89c 	bl	23fde7c <close>
  return (r == (int)len);                        // Success only if we read exactly 'len' bytes.
 23f6d44:	1ba3      	subs	r3, r4, r6
 23f6d46:	4258      	negs	r0, r3
 23f6d48:	4158      	adcs	r0, r3
}
 23f6d4a:	bd70      	pop	{r4, r5, r6, pc}
  if (fd < 0) return false;                      // Open failed (e.g. file does not exist).
 23f6d4c:	2000      	movs	r0, #0
 23f6d4e:	e7fc      	b.n	23f6d4a <_Z8loadBlobPKcPvj+0x26>

023f6d50 <_Z10persistAllv>:
void persistAll() {
 23f6d50:	b510      	push	{r4, lr}
  saveBlob(GMETER_PATH, &gMeter, sizeof(gMeter));   // Write the whole gMeter struct to its file.
 23f6d52:	f640 3248 	movw	r2, #2888	; 0xb48
 23f6d56:	4911      	ldr	r1, [pc, #68]	; (23f6d9c <_Z10persistAllv+0x4c>)
 23f6d58:	4811      	ldr	r0, [pc, #68]	; (23f6da0 <_Z10persistAllv+0x50>)
 23f6d5a:	f7ff ffca 	bl	23f6cf2 <_Z8saveBlobPKcPKvj>
  int fd = open(MODEL_PATH, O_WRONLY | O_CREAT | O_TRUNC, 0666);   // Open/create/empty the model file.
 23f6d5e:	f44f 72db 	mov.w	r2, #438	; 0x1b6
 23f6d62:	f240 6101 	movw	r1, #1537	; 0x601
 23f6d66:	480f      	ldr	r0, [pc, #60]	; (23f6da4 <_Z10persistAllv+0x54>)
 23f6d68:	f007 f890 	bl	23fde8c <open>
  if (fd >= 0) {                                  // If it opened successfully...
 23f6d6c:	1e04      	subs	r4, r0, #0
 23f6d6e:	db0c      	blt.n	23f6d8a <_Z10persistAllv+0x3a>
    write(fd, &MODEL_FILE_MAGIC, sizeof(MODEL_FILE_MAGIC));   // First write the 4-byte "this is a valid model" tag.
 23f6d70:	2204      	movs	r2, #4
 23f6d72:	490d      	ldr	r1, [pc, #52]	; (23f6da8 <_Z10persistAllv+0x58>)
 23f6d74:	f007 f8a8 	bl	23fdec8 <write>
    write(fd, &model, sizeof(model));             // Then write the whole model struct.
 23f6d78:	f244 62e0 	movw	r2, #18144	; 0x46e0
 23f6d7c:	4620      	mov	r0, r4
 23f6d7e:	490b      	ldr	r1, [pc, #44]	; (23f6dac <_Z10persistAllv+0x5c>)
 23f6d80:	f007 f8a2 	bl	23fdec8 <write>
    close(fd);                                    // Close the file.
 23f6d84:	4620      	mov	r0, r4
 23f6d86:	f007 f879 	bl	23fde7c <close>
  syncBackupRam();                                // Also flush retained RAM to flash (P2).
 23f6d8a:	f7ff ffaf 	bl	23f6cec <_Z13syncBackupRamv>
  Log.info("PERSIST: gMeter(%u) + model saved", (unsigned)gMeter.count);   // Log how many samples were saved.
 23f6d8e:	4b03      	ldr	r3, [pc, #12]	; (23f6d9c <_Z10persistAllv+0x4c>)
 23f6d90:	4907      	ldr	r1, [pc, #28]	; (23f6db0 <_Z10persistAllv+0x60>)
 23f6d92:	88da      	ldrh	r2, [r3, #6]
 23f6d94:	4807      	ldr	r0, [pc, #28]	; (23f6db4 <_Z10persistAllv+0x64>)
 23f6d96:	f7ff ff7f 	bl	23f6c98 <_ZNK5spark6Logger4infoEPKcz>
}
 23f6d9a:	bd10      	pop	{r4, pc}
 23f6d9c:	10077609 	.word	0x10077609
 23f6da0:	023ff0a5 	.word	0x023ff0a5
 23f6da4:	023ff0b5 	.word	0x023ff0b5
 23f6da8:	023ff878 	.word	0x023ff878
 23f6dac:	10072f28 	.word	0x10072f28
 23f6db0:	023ff0c8 	.word	0x023ff0c8
 23f6db4:	1007aeb4 	.word	0x1007aeb4

023f6db8 <_Z16restorePersistedv>:
void restorePersisted() {
 23f6db8:	b537      	push	{r0, r1, r2, r4, r5, lr}
  uint32_t now = Time.now();                      // Current UTC time in seconds.
 23f6dba:	f004 fda7 	bl	23fb90c <_Z19__fetch_global_Timev>
 23f6dbe:	f004 fd8b 	bl	23fb8d8 <_ZN9TimeClass3nowEv>
  bool gOk = loadBlob(GMETER_PATH, &gMeter, sizeof(gMeter)) &&   // Try to load gMeter, AND check it looks valid:
 23f6dc2:	4c2a      	ldr	r4, [pc, #168]	; (23f6e6c <_Z16restorePersistedv+0xb4>)
  uint32_t now = Time.now();                      // Current UTC time in seconds.
 23f6dc4:	4605      	mov	r5, r0
  bool gOk = loadBlob(GMETER_PATH, &gMeter, sizeof(gMeter)) &&   // Try to load gMeter, AND check it looks valid:
 23f6dc6:	f640 3248 	movw	r2, #2888	; 0xb48
 23f6dca:	4621      	mov	r1, r4
 23f6dcc:	4828      	ldr	r0, [pc, #160]	; (23f6e70 <_Z16restorePersistedv+0xb8>)
 23f6dce:	f7ff ffa9 	bl	23f6d24 <_Z8loadBlobPKcPvj>
             gMeter.day0_utc_midnight != 0 &&                     //   the start-of-day must be set,
 23f6dd2:	b1e8      	cbz	r0, 23f6e10 <_Z16restorePersistedv+0x58>
             gMeter.count <= MAX_SAMPLES &&                       //   count must be within range,
 23f6dd4:	88e2      	ldrh	r2, [r4, #6]
  bool gOk = loadBlob(GMETER_PATH, &gMeter, sizeof(gMeter)) &&   // Try to load gMeter, AND check it looks valid:
 23f6dd6:	f5b2 6fb4 	cmp.w	r2, #1440	; 0x5a0
 23f6dda:	d819      	bhi.n	23f6e10 <_Z16restorePersistedv+0x58>
             gMeter.day0_utc_midnight != 0 &&                     //   the start-of-day must be set,
 23f6ddc:	6823      	ldr	r3, [r4, #0]
             gMeter.count <= MAX_SAMPLES &&                       //   count must be within range,
 23f6dde:	b1bb      	cbz	r3, 23f6e10 <_Z16restorePersistedv+0x58>
             gMeter.day0_utc_midnight != 0 &&                     //   the start-of-day must be set,
 23f6de0:	42ab      	cmp	r3, r5
 23f6de2:	d815      	bhi.n	23f6e10 <_Z16restorePersistedv+0x58>
    Log.info("PERSIST: gMeter restored (%u samples)", (unsigned)gMeter.count);   // Note how many we recovered.
 23f6de4:	4923      	ldr	r1, [pc, #140]	; (23f6e74 <_Z16restorePersistedv+0xbc>)
 23f6de6:	4824      	ldr	r0, [pc, #144]	; (23f6e78 <_Z16restorePersistedv+0xc0>)
 23f6de8:	f7ff ff56 	bl	23f6c98 <_ZNK5spark6Logger4infoEPKcz>
  int fd = open(MODEL_PATH, O_RDONLY);            // Open the leak-model file for reading.
 23f6dec:	2100      	movs	r1, #0
 23f6dee:	4823      	ldr	r0, [pc, #140]	; (23f6e7c <_Z16restorePersistedv+0xc4>)
 23f6df0:	f007 f84c 	bl	23fde8c <open>
  if (fd >= 0) {                                  // If the file opened...
 23f6df4:	1e05      	subs	r5, r0, #0
 23f6df6:	da1a      	bge.n	23f6e2e <_Z16restorePersistedv+0x76>
    memset(&model, 0, sizeof(model));             // ...zero out the whole model (learning restarts from scratch).
 23f6df8:	2100      	movs	r1, #0
 23f6dfa:	f244 62e0 	movw	r2, #18144	; 0x46e0
 23f6dfe:	4820      	ldr	r0, [pc, #128]	; (23f6e80 <_Z16restorePersistedv+0xc8>)
 23f6e00:	f006 f8e7 	bl	23fcfd2 <memset>
    Log.info("PERSIST: leak model fresh (1-week learning restarts)");   // Note the fresh start.
 23f6e04:	491f      	ldr	r1, [pc, #124]	; (23f6e84 <_Z16restorePersistedv+0xcc>)
    Log.info("PERSIST: leak model restored");     // Note that we recovered the learned model.
 23f6e06:	481c      	ldr	r0, [pc, #112]	; (23f6e78 <_Z16restorePersistedv+0xc0>)
 23f6e08:	f7ff ff46 	bl	23f6c98 <_ZNK5spark6Logger4infoEPKcz>
}
 23f6e0c:	b003      	add	sp, #12
 23f6e0e:	bd30      	pop	{r4, r5, pc}
    gMeter.day0_utc_midnight = (now / 86400UL) * 86400UL;   // ...start a fresh day at today's UTC midnight.
 23f6e10:	481d      	ldr	r0, [pc, #116]	; (23f6e88 <_Z16restorePersistedv+0xd0>)
    gMeter.start_slot = 0;                        // Reset the start slot.
 23f6e12:	2300      	movs	r3, #0
    gMeter.day0_utc_midnight = (now / 86400UL) * 86400UL;   // ...start a fresh day at today's UTC midnight.
 23f6e14:	fbb5 f5f0 	udiv	r5, r5, r0
 23f6e18:	4345      	muls	r5, r0
    Log.info("PERSIST: gMeter fresh");            // Note that we started a fresh logger.
 23f6e1a:	491c      	ldr	r1, [pc, #112]	; (23f6e8c <_Z16restorePersistedv+0xd4>)
 23f6e1c:	4816      	ldr	r0, [pc, #88]	; (23f6e78 <_Z16restorePersistedv+0xc0>)
    gMeter.day0_utc_midnight = (now / 86400UL) * 86400UL;   // ...start a fresh day at today's UTC midnight.
 23f6e1e:	6025      	str	r5, [r4, #0]
    gMeter.start_slot = 0;                        // Reset the start slot.
 23f6e20:	7123      	strb	r3, [r4, #4]
 23f6e22:	7163      	strb	r3, [r4, #5]
    gMeter.count = 0;                             // Reset the sample count to empty.
 23f6e24:	71a3      	strb	r3, [r4, #6]
 23f6e26:	71e3      	strb	r3, [r4, #7]
    Log.info("PERSIST: gMeter fresh");            // Note that we started a fresh logger.
 23f6e28:	f7ff ff36 	bl	23f6c98 <_ZNK5spark6Logger4infoEPKcz>
 23f6e2c:	e7de      	b.n	23f6dec <_Z16restorePersistedv+0x34>
    if (read(fd, &magic, sizeof(magic)) == (int)sizeof(magic) &&   // Read the tag, and if it came through fully,
 23f6e2e:	2204      	movs	r2, #4
    uint32_t magic = 0;                           // Place to read the leading magic tag.
 23f6e30:	2400      	movs	r4, #0
    if (read(fd, &magic, sizeof(magic)) == (int)sizeof(magic) &&   // Read the tag, and if it came through fully,
 23f6e32:	eb0d 0102 	add.w	r1, sp, r2
    uint32_t magic = 0;                           // Place to read the leading magic tag.
 23f6e36:	9401      	str	r4, [sp, #4]
    if (read(fd, &magic, sizeof(magic)) == (int)sizeof(magic) &&   // Read the tag, and if it came through fully,
 23f6e38:	f007 f83c 	bl	23fdeb4 <read>
        magic == MODEL_FILE_MAGIC &&                                // it matches OUR tag,
 23f6e3c:	2804      	cmp	r0, #4
 23f6e3e:	d10e      	bne.n	23f6e5e <_Z16restorePersistedv+0xa6>
    if (read(fd, &magic, sizeof(magic)) == (int)sizeof(magic) &&   // Read the tag, and if it came through fully,
 23f6e40:	4b13      	ldr	r3, [pc, #76]	; (23f6e90 <_Z16restorePersistedv+0xd8>)
 23f6e42:	9a01      	ldr	r2, [sp, #4]
 23f6e44:	429a      	cmp	r2, r3
 23f6e46:	d10a      	bne.n	23f6e5e <_Z16restorePersistedv+0xa6>
        read(fd, &model, sizeof(model)) == (int)sizeof(model)) {    // and the full model loaded too...
 23f6e48:	f244 62e0 	movw	r2, #18144	; 0x46e0
 23f6e4c:	4628      	mov	r0, r5
 23f6e4e:	490c      	ldr	r1, [pc, #48]	; (23f6e80 <_Z16restorePersistedv+0xc8>)
 23f6e50:	f007 f830 	bl	23fdeb4 <read>
        magic == MODEL_FILE_MAGIC &&                                // it matches OUR tag,
 23f6e54:	f244 64e0 	movw	r4, #18144	; 0x46e0
 23f6e58:	1b03      	subs	r3, r0, r4
 23f6e5a:	425c      	negs	r4, r3
 23f6e5c:	415c      	adcs	r4, r3
    close(fd);                                    // Close the file either way.
 23f6e5e:	4628      	mov	r0, r5
 23f6e60:	f007 f80c 	bl	23fde7c <close>
  if (!mOk) {                                     // If the model was missing or invalid...
 23f6e64:	2c00      	cmp	r4, #0
 23f6e66:	d0c7      	beq.n	23f6df8 <_Z16restorePersistedv+0x40>
    Log.info("PERSIST: leak model restored");     // Note that we recovered the learned model.
 23f6e68:	490a      	ldr	r1, [pc, #40]	; (23f6e94 <_Z16restorePersistedv+0xdc>)
 23f6e6a:	e7cc      	b.n	23f6e06 <_Z16restorePersistedv+0x4e>
 23f6e6c:	10077609 	.word	0x10077609
 23f6e70:	023ff0a5 	.word	0x023ff0a5
 23f6e74:	023ff0ea 	.word	0x023ff0ea
 23f6e78:	1007aeb4 	.word	0x1007aeb4
 23f6e7c:	023ff0b5 	.word	0x023ff0b5
 23f6e80:	10072f28 	.word	0x10072f28
 23f6e84:	023ff126 	.word	0x023ff126
 23f6e88:	00015180 	.word	0x00015180
 23f6e8c:	023ff110 	.word	0x023ff110
 23f6e90:	4c4d444c 	.word	0x4c4d444c
 23f6e94:	023ff15b 	.word	0x023ff15b

023f6e98 <_Z11saveFlowCalv>:
void saveFlowCal() {
 23f6e98:	b507      	push	{r0, r1, r2, lr}
  FlowCalStore s = {FLOW_CAL_MAGIC, flowCalScale};   // Bundle the tag + current scale.
 23f6e9a:	4b07      	ldr	r3, [pc, #28]	; (23f6eb8 <_Z11saveFlowCalv+0x20>)
 23f6e9c:	9300      	str	r3, [sp, #0]
 23f6e9e:	4b07      	ldr	r3, [pc, #28]	; (23f6ebc <_Z11saveFlowCalv+0x24>)
 23f6ea0:	681b      	ldr	r3, [r3, #0]
 23f6ea2:	9301      	str	r3, [sp, #4]
  EEPROM.put(FLOW_CAL_EEPROM_ADDR, s);               // Write the bundle to EEPROM.
 23f6ea4:	f005 ffc2 	bl	23fce2c <_Z21__fetch_global_EEPROMv>
    }

    template <typename T> const T &put( int idx, const T &t )
    {
        static_assert(!std::is_base_of_v<String, T>, "String class cannot be used with EEPROM, use char[] array");
        HAL_EEPROM_Put(idx, &t, sizeof(T));
 23f6ea8:	2208      	movs	r2, #8
 23f6eaa:	4669      	mov	r1, sp
 23f6eac:	2000      	movs	r0, #0
 23f6eae:	f002 fbfd 	bl	23f96ac <HAL_EEPROM_Put>
}
 23f6eb2:	b003      	add	sp, #12
 23f6eb4:	f85d fb04 	ldr.w	pc, [sp], #4
 23f6eb8:	4643414c 	.word	0x4643414c
 23f6ebc:	1007b400 	.word	0x1007b400

023f6ec0 <_Z11loadFlowCalv>:
void loadFlowCal() {
 23f6ec0:	b513      	push	{r0, r1, r4, lr}
  FlowCalStore s = {0, 0};                        // Start with an empty store (magic 0, scale 0).
 23f6ec2:	2300      	movs	r3, #0
 23f6ec4:	2400      	movs	r4, #0
 23f6ec6:	9301      	str	r3, [sp, #4]
 23f6ec8:	9400      	str	r4, [sp, #0]
  EEPROM.get(FLOW_CAL_EEPROM_ADDR, s);            // Read whatever is stored at the flow-cal address into 's'.
 23f6eca:	f005 ffaf 	bl	23fce2c <_Z21__fetch_global_EEPROMv>
        HAL_EEPROM_Get(idx, &t, sizeof(T));
 23f6ece:	2208      	movs	r2, #8
 23f6ed0:	4620      	mov	r0, r4
 23f6ed2:	4669      	mov	r1, sp
 23f6ed4:	f002 fbdc 	bl	23f9690 <HAL_EEPROM_Get>
  if (s.magic == FLOW_CAL_MAGIC && s.scale == s.scale &&   // Valid only if the tag matches AND scale is not NaN
 23f6ed8:	4b15      	ldr	r3, [pc, #84]	; (23f6f30 <_Z11loadFlowCalv+0x70>)
 23f6eda:	9a00      	ldr	r2, [sp, #0]
 23f6edc:	4c15      	ldr	r4, [pc, #84]	; (23f6f34 <_Z11loadFlowCalv+0x74>)
 23f6ede:	429a      	cmp	r2, r3
 23f6ee0:	d121      	bne.n	23f6f26 <_Z11loadFlowCalv+0x66>
 23f6ee2:	eddd 7a01 	vldr	s15, [sp, #4]
 23f6ee6:	eef4 7a67 	vcmp.f32	s15, s15
 23f6eea:	eef1 fa10 	vmrs	APSR_nzcv, fpscr
 23f6eee:	d11a      	bne.n	23f6f26 <_Z11loadFlowCalv+0x66>
 23f6ef0:	eeb6 7a00 	vmov.f32	s14, #96	; 0x3f000000  0.5
 23f6ef4:	eef4 7ac7 	vcmpe.f32	s15, s14
 23f6ef8:	eef1 fa10 	vmrs	APSR_nzcv, fpscr
 23f6efc:	db13      	blt.n	23f6f26 <_Z11loadFlowCalv+0x66>
      s.scale >= FLOW_CAL_MIN && s.scale <= FLOW_CAL_MAX) { // (s.scale==s.scale is false for NaN) AND in range.
 23f6efe:	eeb0 7a00 	vmov.f32	s14, #0	; 0x40000000  2.0
 23f6f02:	eef4 7ac7 	vcmpe.f32	s15, s14
 23f6f06:	eef1 fa10 	vmrs	APSR_nzcv, fpscr
 23f6f0a:	d80c      	bhi.n	23f6f26 <_Z11loadFlowCalv+0x66>
    flowCalScale = s.scale;                       // Use the stored calibration value.
 23f6f0c:	edc4 7a00 	vstr	s15, [r4]
  Log.info("FLOW_CAL: %.4f", flowCalScale);       // Log the calibration in use.
 23f6f10:	6820      	ldr	r0, [r4, #0]
 23f6f12:	f7fe ff75 	bl	23f5e00 <__aeabi_f2d>
 23f6f16:	4602      	mov	r2, r0
 23f6f18:	460b      	mov	r3, r1
 23f6f1a:	4807      	ldr	r0, [pc, #28]	; (23f6f38 <_Z11loadFlowCalv+0x78>)
 23f6f1c:	4907      	ldr	r1, [pc, #28]	; (23f6f3c <_Z11loadFlowCalv+0x7c>)
 23f6f1e:	f7ff febb 	bl	23f6c98 <_ZNK5spark6Logger4infoEPKcz>
}
 23f6f22:	b002      	add	sp, #8
 23f6f24:	bd10      	pop	{r4, pc}
    flowCalScale = FLOW_CAL_DFLT;                 // Otherwise fall back to the default.
 23f6f26:	4b06      	ldr	r3, [pc, #24]	; (23f6f40 <_Z11loadFlowCalv+0x80>)
 23f6f28:	6023      	str	r3, [r4, #0]
    saveFlowCal();                                // And write that default back so it's there next time.
 23f6f2a:	f7ff ffb5 	bl	23f6e98 <_Z11saveFlowCalv>
 23f6f2e:	e7ef      	b.n	23f6f10 <_Z11loadFlowCalv+0x50>
 23f6f30:	4643414c 	.word	0x4643414c
 23f6f34:	1007b400 	.word	0x1007b400
 23f6f38:	1007aeb4 	.word	0x1007aeb4
 23f6f3c:	023ff178 	.word	0x023ff178
 23f6f40:	3fa0a3d7 	.word	0x3fa0a3d7

023f6f44 <_Z10saveConfigv>:
void saveConfig() {
 23f6f44:	b51f      	push	{r0, r1, r2, r3, r4, lr}
  CfgStore s = {CFG_MAGIC, appConfig};            // Bundle the tag + current config.
 23f6f46:	4b09      	ldr	r3, [pc, #36]	; (23f6f6c <_Z10saveConfigv+0x28>)
 23f6f48:	9300      	str	r3, [sp, #0]
 23f6f4a:	4b09      	ldr	r3, [pc, #36]	; (23f6f70 <_Z10saveConfigv+0x2c>)
 23f6f4c:	e893 0007 	ldmia.w	r3, {r0, r1, r2}
 23f6f50:	ab04      	add	r3, sp, #16
 23f6f52:	e903 0007 	stmdb	r3, {r0, r1, r2}
  EEPROM.put(CFG_EEPROM_ADDR, s);                 // Write it to EEPROM.
 23f6f56:	f005 ff69 	bl	23fce2c <_Z21__fetch_global_EEPROMv>
        HAL_EEPROM_Put(idx, &t, sizeof(T));
 23f6f5a:	2210      	movs	r2, #16
 23f6f5c:	4669      	mov	r1, sp
 23f6f5e:	2020      	movs	r0, #32
 23f6f60:	f002 fba4 	bl	23f96ac <HAL_EEPROM_Put>
}
 23f6f64:	b005      	add	sp, #20
 23f6f66:	f85d fb04 	ldr.w	pc, [sp], #4
 23f6f6a:	bf00      	nop
 23f6f6c:	4c434647 	.word	0x4c434647
 23f6f70:	1007b404 	.word	0x1007b404

023f6f74 <_Z10loadConfigv>:
void loadConfig() {
 23f6f74:	b510      	push	{r4, lr}
 23f6f76:	b08a      	sub	sp, #40	; 0x28
  EEPROM.get(CFG_EEPROM_ADDR, s);                 // Read whatever is at the config address.
 23f6f78:	f005 ff58 	bl	23fce2c <_Z21__fetch_global_EEPROMv>
        HAL_EEPROM_Get(idx, &t, sizeof(T));
 23f6f7c:	2210      	movs	r2, #16
 23f6f7e:	2020      	movs	r0, #32
 23f6f80:	a906      	add	r1, sp, #24
 23f6f82:	f002 fb85 	bl	23f9690 <HAL_EEPROM_Get>
  if (s.magic == CFG_MAGIC) {                     // If the tag matches, the data is ours/valid...
 23f6f86:	4b15      	ldr	r3, [pc, #84]	; (23f6fdc <_Z10loadConfigv+0x68>)
 23f6f88:	9a06      	ldr	r2, [sp, #24]
 23f6f8a:	429a      	cmp	r2, r3
 23f6f8c:	4b14      	ldr	r3, [pc, #80]	; (23f6fe0 <_Z10loadConfigv+0x6c>)
 23f6f8e:	d11d      	bne.n	23f6fcc <_Z10loadConfigv+0x58>
    appConfig = s.cfg;                            // ...so use it.
 23f6f90:	aa0a      	add	r2, sp, #40	; 0x28
 23f6f92:	e912 0007 	ldmdb	r2, {r0, r1, r2}
 23f6f96:	e883 0007 	stmia.w	r3, {r0, r1, r2}
           appConfig.leakThreshGpm, appConfig.shutoffVolGal,
 23f6f9a:	4c12      	ldr	r4, [pc, #72]	; (23f6fe4 <_Z10loadConfigv+0x70>)
  Log.info("CFG: leak=%.2f shutoffVol=%.1f auto=%u alert=%u",   // Log the active config values.
 23f6f9c:	6860      	ldr	r0, [r4, #4]
 23f6f9e:	f7fe ff2f 	bl	23f5e00 <__aeabi_f2d>
 23f6fa2:	4602      	mov	r2, r0
 23f6fa4:	460b      	mov	r3, r1
 23f6fa6:	7b61      	ldrb	r1, [r4, #13]
 23f6fa8:	68a0      	ldr	r0, [r4, #8]
 23f6faa:	9103      	str	r1, [sp, #12]
 23f6fac:	7b21      	ldrb	r1, [r4, #12]
 23f6fae:	e9cd 2304 	strd	r2, r3, [sp, #16]
 23f6fb2:	9102      	str	r1, [sp, #8]
 23f6fb4:	f7fe ff24 	bl	23f5e00 <__aeabi_f2d>
 23f6fb8:	e9dd 2304 	ldrd	r2, r3, [sp, #16]
 23f6fbc:	e9cd 0100 	strd	r0, r1, [sp]
 23f6fc0:	4909      	ldr	r1, [pc, #36]	; (23f6fe8 <_Z10loadConfigv+0x74>)
 23f6fc2:	480a      	ldr	r0, [pc, #40]	; (23f6fec <_Z10loadConfigv+0x78>)
 23f6fc4:	f7ff fe68 	bl	23f6c98 <_ZNK5spark6Logger4infoEPKcz>
}
 23f6fc8:	b00a      	add	sp, #40	; 0x28
 23f6fca:	bd10      	pop	{r4, pc}
    appConfig = {CFG_LEAK_GPM_DFLT, CFG_SHUTOFF_DFLT,    // Otherwise initialize the config from defaults...
 23f6fcc:	4a08      	ldr	r2, [pc, #32]	; (23f6ff0 <_Z10loadConfigv+0x7c>)
 23f6fce:	ca07      	ldmia	r2, {r0, r1, r2}
 23f6fd0:	e883 0007 	stmia.w	r3, {r0, r1, r2}
    saveConfig();                                 // ...and save those defaults for next boot.
 23f6fd4:	f7ff ffb6 	bl	23f6f44 <_Z10saveConfigv>
 23f6fd8:	e7df      	b.n	23f6f9a <_Z10loadConfigv+0x26>
 23f6fda:	bf00      	nop
 23f6fdc:	4c434647 	.word	0x4c434647
 23f6fe0:	1007b404 	.word	0x1007b404
 23f6fe4:	1007b400 	.word	0x1007b400
 23f6fe8:	023ff187 	.word	0x023ff187
 23f6fec:	1007aeb4 	.word	0x1007aeb4
 23f6ff0:	023ff054 	.word	0x023ff054

023f6ff4 <_Z13savePicParamsv>:
void savePicParams() {
 23f6ff4:	b51f      	push	{r0, r1, r2, r3, r4, lr}
  PicpStore s = {PICP_MAGIC, picParams};          // Bundle tag + current params.
 23f6ff6:	4a08      	ldr	r2, [pc, #32]	; (23f7018 <_Z13savePicParamsv+0x24>)
 23f6ff8:	4b08      	ldr	r3, [pc, #32]	; (23f701c <_Z13savePicParamsv+0x28>)
 23f6ffa:	6951      	ldr	r1, [r2, #20]
 23f6ffc:	6910      	ldr	r0, [r2, #16]
 23f6ffe:	9301      	str	r3, [sp, #4]
 23f7000:	ab02      	add	r3, sp, #8
 23f7002:	c303      	stmia	r3!, {r0, r1}
  EEPROM.put(PICP_EEPROM_ADDR, s);                // Write to EEPROM.
 23f7004:	f005 ff12 	bl	23fce2c <_Z21__fetch_global_EEPROMv>
        HAL_EEPROM_Put(idx, &t, sizeof(T));
 23f7008:	220c      	movs	r2, #12
 23f700a:	2040      	movs	r0, #64	; 0x40
 23f700c:	a901      	add	r1, sp, #4
 23f700e:	f002 fb4d 	bl	23f96ac <HAL_EEPROM_Put>
}
 23f7012:	b005      	add	sp, #20
 23f7014:	f85d fb04 	ldr.w	pc, [sp], #4
 23f7018:	1007b400 	.word	0x1007b400
 23f701c:	50494350 	.word	0x50494350

023f7020 <_Z13loadPicParamsv>:
void loadPicParams() {
 23f7020:	b510      	push	{r4, lr}
 23f7022:	b086      	sub	sp, #24
  EEPROM.get(PICP_EEPROM_ADDR, s);                // Read whatever is at the PIC-params address.
 23f7024:	f005 ff02 	bl	23fce2c <_Z21__fetch_global_EEPROMv>
        HAL_EEPROM_Get(idx, &t, sizeof(T));
 23f7028:	220c      	movs	r2, #12
 23f702a:	2040      	movs	r0, #64	; 0x40
 23f702c:	eb0d 0102 	add.w	r1, sp, r2
 23f7030:	f002 fb2e 	bl	23f9690 <HAL_EEPROM_Get>
  if (s.magic == PICP_MAGIC) {                    // If the tag matches...
 23f7034:	9a03      	ldr	r2, [sp, #12]
 23f7036:	4b0f      	ldr	r3, [pc, #60]	; (23f7074 <_Z13loadPicParamsv+0x54>)
 23f7038:	4c0f      	ldr	r4, [pc, #60]	; (23f7078 <_Z13loadPicParamsv+0x58>)
 23f703a:	429a      	cmp	r2, r3
 23f703c:	f104 0210 	add.w	r2, r4, #16
 23f7040:	d10f      	bne.n	23f7062 <_Z13loadPicParamsv+0x42>
    picParams = s.p;                              // ...use the stored params.
 23f7042:	ab04      	add	r3, sp, #16
 23f7044:	cb03      	ldmia	r3!, {r0, r1}
 23f7046:	6120      	str	r0, [r4, #16]
 23f7048:	6051      	str	r1, [r2, #4]
  Log.info("PICP: l1=%u/%us l2=%u/%us",           // Log the active PIC params.
 23f704a:	8ae3      	ldrh	r3, [r4, #22]
 23f704c:	8a22      	ldrh	r2, [r4, #16]
 23f704e:	9301      	str	r3, [sp, #4]
 23f7050:	8aa3      	ldrh	r3, [r4, #20]
 23f7052:	490a      	ldr	r1, [pc, #40]	; (23f707c <_Z13loadPicParamsv+0x5c>)
 23f7054:	9300      	str	r3, [sp, #0]
 23f7056:	480a      	ldr	r0, [pc, #40]	; (23f7080 <_Z13loadPicParamsv+0x60>)
 23f7058:	8a63      	ldrh	r3, [r4, #18]
 23f705a:	f7ff fe1d 	bl	23f6c98 <_ZNK5spark6Logger4infoEPKcz>
}
 23f705e:	b006      	add	sp, #24
 23f7060:	bd10      	pop	{r4, pc}
    picParams = {PIC_LEAK1_COUNTS_DFLT, PIC_LEAK1_WINDOW_DFLT,   // Otherwise initialize from defaults...
 23f7062:	4908      	ldr	r1, [pc, #32]	; (23f7084 <_Z13loadPicParamsv+0x64>)
 23f7064:	68cb      	ldr	r3, [r1, #12]
 23f7066:	6123      	str	r3, [r4, #16]
 23f7068:	690b      	ldr	r3, [r1, #16]
 23f706a:	6053      	str	r3, [r2, #4]
    savePicParams();                              // ...and save them.
 23f706c:	f7ff ffc2 	bl	23f6ff4 <_Z13savePicParamsv>
 23f7070:	e7eb      	b.n	23f704a <_Z13loadPicParamsv+0x2a>
 23f7072:	bf00      	nop
 23f7074:	50494350 	.word	0x50494350
 23f7078:	1007b400 	.word	0x1007b400
 23f707c:	023ff1b7 	.word	0x023ff1b7
 23f7080:	1007aeb4 	.word	0x1007aeb4
 23f7084:	023ff054 	.word	0x023ff054

023f7088 <_Z9senseLeakmf>:
  uint32_t days = tsUtc / 86400UL;                // How many whole days since the Unix epoch.
 23f7088:	4948      	ldr	r1, [pc, #288]	; (23f71ac <_Z9senseLeakmf+0x124>)
bool senseLeak(uint32_t tsUtc, float gpm) {
 23f708a:	b538      	push	{r3, r4, r5, lr}
  uint32_t days = tsUtc / 86400UL;                // How many whole days since the Unix epoch.
 23f708c:	fbb0 f2f1 	udiv	r2, r0, r1
  int dow = (int)((days + 4UL) % 7UL);            // Sun=0
 23f7090:	2307      	movs	r3, #7
 23f7092:	1d14      	adds	r4, r2, #4
 23f7094:	fbb4 f3f3 	udiv	r3, r4, r3
 23f7098:	ebc3 03c3 	rsb	r3, r3, r3, lsl #3
 23f709c:	1ae3      	subs	r3, r4, r3
  int slotInDay = (int)((tsUtc % 86400UL) / LEAK_MODEL_INTERVAL_SEC);   // 0..287
 23f709e:	f44f 7496 	mov.w	r4, #300	; 0x12c
 23f70a2:	fb01 0012 	mls	r0, r1, r2, r0
 23f70a6:	fbb0 f0f4 	udiv	r0, r0, r4
  return dow * SlotModel::SLOTS_PER_DAY + slotInDay;   // 0..2015
 23f70aa:	f44f 7490 	mov.w	r4, #288	; 0x120
bool senseLeak(uint32_t tsUtc, float gpm) {
 23f70ae:	ed2d 8b02 	vpush	{d8}
  return dow * SlotModel::SLOTS_PER_DAY + slotInDay;   // 0..2015
 23f70b2:	fb04 0403 	mla	r4, r4, r3, r0
  if (!model.init[s]) { updateBaseline(s, gpm); return false; }   // Slot not learned yet: just learn, not a leak.
 23f70b6:	4b3e      	ldr	r3, [pc, #248]	; (23f71b0 <_Z9senseLeakmf+0x128>)
bool senseLeak(uint32_t tsUtc, float gpm) {
 23f70b8:	eeb0 8a40 	vmov.f32	s16, s0
  if (!model.init[s]) { updateBaseline(s, gpm); return false; }   // Slot not learned yet: just learn, not a leak.
 23f70bc:	191a      	adds	r2, r3, r4
 23f70be:	f502 527c 	add.w	r2, r2, #16128	; 0x3f00
 23f70c2:	7815      	ldrb	r5, [r2, #0]
 23f70c4:	b935      	cbnz	r5, 23f70d4 <_Z9senseLeakmf+0x4c>
  if (!leakNow) updateBaseline(s, gpm);           // only learn when not leaking
 23f70c6:	4620      	mov	r0, r4
 23f70c8:	f7ff fca2 	bl	23f6a10 <_ZL14updateBaselineif>
  bool leakNow = (leakRunLen >= N_CONSEC) || volTrip;   // It's a leak if enough consecutive highs OR the volume tripped.
 23f70cc:	2000      	movs	r0, #0
}
 23f70ce:	ecbd 8b02 	vpop	{d8}
 23f70d2:	bd38      	pop	{r3, r4, r5, pc}
  float mu = model.mu[s];                         // Learned average flow for this slot.
 23f70d4:	eb03 0284 	add.w	r2, r3, r4, lsl #2
 23f70d8:	edd2 8a00 	vldr	s17, [r2]
  float v = model.var[s];                         // The slot's variance.
 23f70dc:	f504 62fc 	add.w	r2, r4, #2016	; 0x7e0
 23f70e0:	eb03 0382 	add.w	r3, r3, r2, lsl #2
 23f70e4:	ed93 0a00 	vldr	s0, [r3]
  if (v < EPS * EPS) v = EPS * EPS;               // Keep it at least the tiny floor.
 23f70e8:	eddf 7a32 	vldr	s15, [pc, #200]	; 23f71b4 <_Z9senseLeakmf+0x12c>
 23f70ec:	eeb4 0a67 	vcmp.f32	s0, s15
 23f70f0:	eef1 fa10 	vmrs	APSR_nzcv, fpscr
  return sqrtf(v);                                // sigma = sqrt(variance).
 23f70f4:	bf48      	it	mi
 23f70f6:	eeb0 0a67 	vmovmi.f32	s0, s15
 23f70fa:	f005 fef5 	bl	23fcee8 <sqrtf>
  float thresh = mu + SIGMA_MULT * sig;           // Statistical alarm level = average + 4*sigma.
 23f70fe:	eeb1 7a00 	vmov.f32	s14, #16	; 0x40800000  4.0
 23f7102:	eef0 7a68 	vmov.f32	s15, s17
 23f7106:	eee0 7a07 	vfma.f32	s15, s0, s14
  if (thresh < ABS_GPM_MIN) thresh = ABS_GPM_MIN; // Never let the threshold fall below the absolute floor.
 23f710a:	eeb6 7a00 	vmov.f32	s14, #96	; 0x3f000000  0.5
 23f710e:	eef4 7a47 	vcmp.f32	s15, s14
 23f7112:	eef1 fa10 	vmrs	APSR_nzcv, fpscr
 23f7116:	bf48      	it	mi
 23f7118:	eef0 7a47 	vmovmi.f32	s15, s14
  bool highNow = (gpm > thresh) || (gpm > appConfig.leakThreshGpm); // cloud var (1)
 23f711c:	eef4 7ac8 	vcmpe.f32	s15, s16
 23f7120:	eef1 fa10 	vmrs	APSR_nzcv, fpscr
 23f7124:	4b24      	ldr	r3, [pc, #144]	; (23f71b8 <_Z9senseLeakmf+0x130>)
 23f7126:	d407      	bmi.n	23f7138 <_Z9senseLeakmf+0xb0>
 23f7128:	4a24      	ldr	r2, [pc, #144]	; (23f71bc <_Z9senseLeakmf+0x134>)
 23f712a:	edd2 7a01 	vldr	s15, [r2, #4]
 23f712e:	eef4 7ac8 	vcmpe.f32	s15, s16
 23f7132:	eef1 fa10 	vmrs	APSR_nzcv, fpscr
 23f7136:	d525      	bpl.n	23f7184 <_Z9senseLeakmf+0xfc>
  leakRunLen = highNow ? (leakRunLen + 1) : 0;    // Count consecutive highs; reset to 0 the moment it drops.
 23f7138:	681a      	ldr	r2, [r3, #0]
 23f713a:	3201      	adds	r2, #1
  volWin[volIdx] = gpm;                           // Store this reading in the sliding volume window.
 23f713c:	4820      	ldr	r0, [pc, #128]	; (23f71c0 <_Z9senseLeakmf+0x138>)
 23f713e:	4921      	ldr	r1, [pc, #132]	; (23f71c4 <_Z9senseLeakmf+0x13c>)
  leakRunLen = highNow ? (leakRunLen + 1) : 0;    // Count consecutive highs; reset to 0 the moment it drops.
 23f7140:	601a      	str	r2, [r3, #0]
  volWin[volIdx] = gpm;                           // Store this reading in the sliding volume window.
 23f7142:	6803      	ldr	r3, [r0, #0]
  for (int i = 0; i < volCount; i++) gal30 += gallonsIn5min(volWin[i]);   // Sum gallons across all filled slots.
 23f7144:	eddf 7a20 	vldr	s15, [pc, #128]	; 23f71c8 <_Z9senseLeakmf+0x140>
  volWin[volIdx] = gpm;                           // Store this reading in the sliding volume window.
 23f7148:	eb01 0183 	add.w	r1, r1, r3, lsl #2
 23f714c:	ed81 8a00 	vstr	s16, [r1]
  volIdx = (volIdx + 1) % VOL_WIN;                // Advance the write position, wrapping around the window.
 23f7150:	2106      	movs	r1, #6
 23f7152:	3301      	adds	r3, #1
 23f7154:	fb93 f5f1 	sdiv	r5, r3, r1
 23f7158:	fb01 3315 	mls	r3, r1, r5, r3
  if (volCount < VOL_WIN) volCount++;             // Track how many slots of the window are filled (up to VOL_WIN).
 23f715c:	491b      	ldr	r1, [pc, #108]	; (23f71cc <_Z9senseLeakmf+0x144>)
  volIdx = (volIdx + 1) % VOL_WIN;                // Advance the write position, wrapping around the window.
 23f715e:	6003      	str	r3, [r0, #0]
  if (volCount < VOL_WIN) volCount++;             // Track how many slots of the window are filled (up to VOL_WIN).
 23f7160:	680b      	ldr	r3, [r1, #0]
  for (int i = 0; i < volCount; i++) gal30 += gallonsIn5min(volWin[i]);   // Sum gallons across all filled slots.
 23f7162:	eeb1 7a04 	vmov.f32	s14, #20	; 0x40a00000  5.0
  if (volCount < VOL_WIN) volCount++;             // Track how many slots of the window are filled (up to VOL_WIN).
 23f7166:	2b05      	cmp	r3, #5
 23f7168:	bfdc      	itt	le
 23f716a:	3301      	addle	r3, #1
 23f716c:	600b      	strle	r3, [r1, #0]
  for (int i = 0; i < volCount; i++) gal30 += gallonsIn5min(volWin[i]);   // Sum gallons across all filled slots.
 23f716e:	2300      	movs	r3, #0
 23f7170:	6809      	ldr	r1, [r1, #0]
 23f7172:	4814      	ldr	r0, [pc, #80]	; (23f71c4 <_Z9senseLeakmf+0x13c>)
 23f7174:	4299      	cmp	r1, r3
 23f7176:	dd07      	ble.n	23f7188 <_Z9senseLeakmf+0x100>
 23f7178:	ecf0 6a01 	vldmia	r0!, {s13}
 23f717c:	3301      	adds	r3, #1
 23f717e:	eee6 7a87 	vfma.f32	s15, s13, s14
 23f7182:	e7f7      	b.n	23f7174 <_Z9senseLeakmf+0xec>
  leakRunLen = highNow ? (leakRunLen + 1) : 0;    // Count consecutive highs; reset to 0 the moment it drops.
 23f7184:	2200      	movs	r2, #0
 23f7186:	e7d9      	b.n	23f713c <_Z9senseLeakmf+0xb4>
  bool volTrip = (volCount == VOL_WIN) && (gal30 > appConfig.shutoffVolGal);   // Trip only when full AND over the limit.
 23f7188:	2906      	cmp	r1, #6
 23f718a:	d107      	bne.n	23f719c <_Z9senseLeakmf+0x114>
 23f718c:	4b0b      	ldr	r3, [pc, #44]	; (23f71bc <_Z9senseLeakmf+0x134>)
 23f718e:	ed93 7a02 	vldr	s14, [r3, #8]
 23f7192:	eeb4 7ae7 	vcmpe.f32	s14, s15
 23f7196:	eef1 fa10 	vmrs	APSR_nzcv, fpscr
 23f719a:	d404      	bmi.n	23f71a6 <_Z9senseLeakmf+0x11e>
  bool leakNow = (leakRunLen >= N_CONSEC) || volTrip;   // It's a leak if enough consecutive highs OR the volume tripped.
 23f719c:	2a02      	cmp	r2, #2
 23f719e:	dc02      	bgt.n	23f71a6 <_Z9senseLeakmf+0x11e>
  if (!leakNow) updateBaseline(s, gpm);           // only learn when not leaking
 23f71a0:	eeb0 0a48 	vmov.f32	s0, s16
 23f71a4:	e78f      	b.n	23f70c6 <_Z9senseLeakmf+0x3e>
  bool leakNow = (leakRunLen >= N_CONSEC) || volTrip;   // It's a leak if enough consecutive highs OR the volume tripped.
 23f71a6:	2001      	movs	r0, #1
 23f71a8:	e791      	b.n	23f70ce <_Z9senseLeakmf+0x46>
 23f71aa:	bf00      	nop
 23f71ac:	00015180 	.word	0x00015180
 23f71b0:	10072f28 	.word	0x10072f28
 23f71b4:	39d1b717 	.word	0x39d1b717
 23f71b8:	10072f1c 	.word	0x10072f1c
 23f71bc:	1007b400 	.word	0x1007b400
 23f71c0:	100790f4 	.word	0x100790f4
 23f71c4:	100790f8 	.word	0x100790f8
 23f71c8:	00000000 	.word	0x00000000
 23f71cc:	10079110 	.word	0x10079110

023f71d0 <_Z16accumulateHourlyiif>:
void accumulateHourly(int hr, int day, float gallons) {
 23f71d0:	b5f0      	push	{r4, r5, r6, r7, lr}
 23f71d2:	ed2d 8b02 	vpush	{d8}
  if (lastHourIngested == -1) {                   // first ever sample
 23f71d6:	4c1f      	ldr	r4, [pc, #124]	; (23f7254 <_Z16accumulateHourlyiif+0x84>)
void accumulateHourly(int hr, int day, float gallons) {
 23f71d8:	4605      	mov	r5, r0
  if (lastHourIngested == -1) {                   // first ever sample
 23f71da:	69a7      	ldr	r7, [r4, #24]
void accumulateHourly(int hr, int day, float gallons) {
 23f71dc:	460e      	mov	r6, r1
  if (lastHourIngested == -1) {                   // first ever sample
 23f71de:	1c7b      	adds	r3, r7, #1
void accumulateHourly(int hr, int day, float gallons) {
 23f71e0:	eeb0 8a40 	vmov.f32	s16, s0
 23f71e4:	b085      	sub	sp, #20
  if (lastHourIngested == -1) {                   // first ever sample
 23f71e6:	d10d      	bne.n	23f7204 <_Z16accumulateHourlyiif+0x34>
    lastDayIngested  = day;                       //   ...and this day.
 23f71e8:	e9c4 5606 	strd	r5, r6, [r4, #24]
  hourlyData[hr] += gallons;                      // Finally, add the gallons into this hour's bucket.
 23f71ec:	eb04 0085 	add.w	r0, r4, r5, lsl #2
 23f71f0:	edd0 7a08 	vldr	s15, [r0, #32]
 23f71f4:	ee37 0a88 	vadd.f32	s0, s15, s16
 23f71f8:	ed80 0a08 	vstr	s0, [r0, #32]
}
 23f71fc:	b005      	add	sp, #20
 23f71fe:	ecbd 8b02 	vpop	{d8}
 23f7202:	bdf0      	pop	{r4, r5, r6, r7, pc}
  } else if (hr != lastHourIngested) {            // If we've moved into a new hour...
 23f7204:	4287      	cmp	r7, r0
 23f7206:	d0f1      	beq.n	23f71ec <_Z16accumulateHourlyiif+0x1c>
    Log.info("Hour %d done: %.2f gal -> hour %d",  //   ...log how much the finished hour used.
 23f7208:	9002      	str	r0, [sp, #8]
             lastHourIngested, hourlyData[lastHourIngested], hr);
 23f720a:	eb04 0387 	add.w	r3, r4, r7, lsl #2
    Log.info("Hour %d done: %.2f gal -> hour %d",  //   ...log how much the finished hour used.
 23f720e:	6a18      	ldr	r0, [r3, #32]
 23f7210:	f7fe fdf6 	bl	23f5e00 <__aeabi_f2d>
 23f7214:	463a      	mov	r2, r7
 23f7216:	e9cd 0100 	strd	r0, r1, [sp]
 23f721a:	490f      	ldr	r1, [pc, #60]	; (23f7258 <_Z16accumulateHourlyiif+0x88>)
 23f721c:	480f      	ldr	r0, [pc, #60]	; (23f725c <_Z16accumulateHourlyiif+0x8c>)
 23f721e:	f7ff fd3b 	bl	23f6c98 <_ZNK5spark6Logger4infoEPKcz>
    if (hr == 0 && day != lastDayIngested) {      // midnight rollover
 23f7222:	2d00      	cmp	r5, #0
 23f7224:	d1e0      	bne.n	23f71e8 <_Z16accumulateHourlyiif+0x18>
 23f7226:	69e3      	ldr	r3, [r4, #28]
 23f7228:	42b3      	cmp	r3, r6
 23f722a:	d0dd      	beq.n	23f71e8 <_Z16accumulateHourlyiif+0x18>
      Log.info("Midnight: daily=%.2f gal reset", dailyGallons);   // Log the day's final total before clearing.
 23f722c:	f8d4 0080 	ldr.w	r0, [r4, #128]	; 0x80
 23f7230:	f7fe fde6 	bl	23f5e00 <__aeabi_f2d>
 23f7234:	460b      	mov	r3, r1
 23f7236:	4602      	mov	r2, r0
 23f7238:	4909      	ldr	r1, [pc, #36]	; (23f7260 <_Z16accumulateHourlyiif+0x90>)
 23f723a:	4808      	ldr	r0, [pc, #32]	; (23f725c <_Z16accumulateHourlyiif+0x8c>)
 23f723c:	f7ff fd2c 	bl	23f6c98 <_ZNK5spark6Logger4infoEPKcz>
      for (int i = 0; i < 24; i++) hourlyData[i] = 0.0f;   // Clear all 24 hourly buckets for the new day.
 23f7240:	2260      	movs	r2, #96	; 0x60
 23f7242:	4629      	mov	r1, r5
 23f7244:	f104 0020 	add.w	r0, r4, #32
 23f7248:	f005 fec3 	bl	23fcfd2 <memset>
      dailyGallons = 0.0f;                         // ONLY reset here (doc 1 bug fixed)
 23f724c:	2300      	movs	r3, #0
 23f724e:	f8c4 3080 	str.w	r3, [r4, #128]	; 0x80
 23f7252:	e7c9      	b.n	23f71e8 <_Z16accumulateHourlyiif+0x18>
 23f7254:	1007b400 	.word	0x1007b400
 23f7258:	023ff1d1 	.word	0x023ff1d1
 23f725c:	1007aeb4 	.word	0x1007aeb4
 23f7260:	023ff1f3 	.word	0x023ff1f3

023f7264 <_Z20appendIntervalSamplef>:
  if (gMeter.count >= MAX_SAMPLES) return;        // hold until daily publish/roll
 23f7264:	490d      	ldr	r1, [pc, #52]	; (23f729c <_Z20appendIntervalSamplef+0x38>)
 23f7266:	88ca      	ldrh	r2, [r1, #6]
 23f7268:	f5b2 6fb4 	cmp.w	r2, #1440	; 0x5a0
 23f726c:	d214      	bcs.n	23f7298 <_Z20appendIntervalSamplef+0x34>
  uint16_t val = (uint16_t)(gpm * 100.0f + 0.5f); // 0.01 GPM units
 23f726e:	ed9f 7a0c 	vldr	s14, [pc, #48]	; 23f72a0 <_Z20appendIntervalSamplef+0x3c>
 23f7272:	eef6 7a00 	vmov.f32	s15, #96	; 0x3f000000  0.5
 23f7276:	eee0 7a07 	vfma.f32	s15, s0, s14
 23f727a:	eefc 7ae7 	vcvt.u32.f32	s15, s15
  gMeter.raw[gMeter.count++] = val;               // Store the value and advance the count by one.
 23f727e:	1c50      	adds	r0, r2, #1
  uint16_t val = (uint16_t)(gpm * 100.0f + 0.5f); // 0.01 GPM units
 23f7280:	ee17 3a90 	vmov	r3, s15
  gMeter.raw[gMeter.count++] = val;               // Store the value and advance the count by one.
 23f7284:	80c8      	strh	r0, [r1, #6]
 23f7286:	f240 30e7 	movw	r0, #999	; 0x3e7
  uint16_t val = (uint16_t)(gpm * 100.0f + 0.5f); // 0.01 GPM units
 23f728a:	b29b      	uxth	r3, r3
  gMeter.raw[gMeter.count++] = val;               // Store the value and advance the count by one.
 23f728c:	4283      	cmp	r3, r0
 23f728e:	bf28      	it	cs
 23f7290:	4603      	movcs	r3, r0
 23f7292:	3204      	adds	r2, #4
 23f7294:	f821 3012 	strh.w	r3, [r1, r2, lsl #1]
}
 23f7298:	4770      	bx	lr
 23f729a:	bf00      	nop
 23f729c:	10077609 	.word	0x10077609
 23f72a0:	42c80000 	.word	0x42c80000

023f72a4 <_Z8imuPrintv>:
void imuPrint() {
 23f72a4:	b508      	push	{r3, lr}
  if (imuGet() != 0) { Log.info("IMU not available"); return; }   // If reading failed, say so and stop.
 23f72a6:	4902      	ldr	r1, [pc, #8]	; (23f72b0 <_Z8imuPrintv+0xc>)
 23f72a8:	4802      	ldr	r0, [pc, #8]	; (23f72b4 <_Z8imuPrintv+0x10>)
 23f72aa:	f7ff fcf5 	bl	23f6c98 <_ZNK5spark6Logger4infoEPKcz>
}
 23f72ae:	bd08      	pop	{r3, pc}
 23f72b0:	023ff212 	.word	0x023ff212
 23f72b4:	1007aeb4 	.word	0x1007aeb4

023f72b8 <_Z13pushPicParamsv>:

// ---- PIC leak parameters (REQ_GET/SET_PARAM) -------------------------------
// Push the cached picParams to the PIC. Returns true on ACK (spec 5.4).
bool pushPicParams() {
 23f72b8:	b570      	push	{r4, r5, r6, lr}
  if (picLink.setParams(picParams)) {             // Try to write the cached params to the PIC.
 23f72ba:	4e0c      	ldr	r6, [pc, #48]	; (23f72ec <_Z13pushPicParamsv+0x34>)
 23f72bc:	4d0c      	ldr	r5, [pc, #48]	; (23f72f0 <_Z13pushPicParamsv+0x38>)
 23f72be:	f106 0110 	add.w	r1, r6, #16
 23f72c2:	4628      	mov	r0, r5
 23f72c4:	f001 ff31 	bl	23f912a <_ZN7PicLink9setParamsERK9PicParams>
 23f72c8:	4604      	mov	r4, r0
 23f72ca:	b140      	cbz	r0, 23f72de <_Z13pushPicParamsv+0x26>
    picParamsDirty = false;                        // On ACK, clear the "still owe a write" flag.
 23f72cc:	2300      	movs	r3, #0
    Log.info("PIC: params delivered (ACK)");       // Log success.
 23f72ce:	4909      	ldr	r1, [pc, #36]	; (23f72f4 <_Z13pushPicParamsv+0x3c>)
 23f72d0:	4809      	ldr	r0, [pc, #36]	; (23f72f8 <_Z13pushPicParamsv+0x40>)
    picParamsDirty = false;                        // On ACK, clear the "still owe a write" flag.
 23f72d2:	f886 3084 	strb.w	r3, [r6, #132]	; 0x84
    Log.info("PIC: params delivered (ACK)");       // Log success.
 23f72d6:	f7ff fcdf 	bl	23f6c98 <_ZNK5spark6Logger4infoEPKcz>
    return true;                                   // Report success.
  }
  Log.warn("PIC: SET_PARAM failed (nak=0x%02X)", picLink.lastNak());   // Log the failure + NAK reason.
  return false;                                    // Report failure (stays dirty for a later retry).
}
 23f72da:	4620      	mov	r0, r4
 23f72dc:	bd70      	pop	{r4, r5, r6, pc}
  Log.warn("PIC: SET_PARAM failed (nak=0x%02X)", picLink.lastNak());   // Log the failure + NAK reason.
 23f72de:	782a      	ldrb	r2, [r5, #0]
 23f72e0:	4906      	ldr	r1, [pc, #24]	; (23f72fc <_Z13pushPicParamsv+0x44>)
 23f72e2:	4805      	ldr	r0, [pc, #20]	; (23f72f8 <_Z13pushPicParamsv+0x40>)
 23f72e4:	f7ff fce6 	bl	23f6cb4 <_ZNK5spark6Logger4warnEPKcz>
  return false;                                    // Report failure (stays dirty for a later retry).
 23f72e8:	e7f7      	b.n	23f72da <_Z13pushPicParamsv+0x22>
 23f72ea:	bf00      	nop
 23f72ec:	1007b400 	.word	0x1007b400
 23f72f0:	10079180 	.word	0x10079180
 23f72f4:	023ff224 	.word	0x023ff224
 23f72f8:	1007aeb4 	.word	0x1007aeb4
 23f72fc:	023ff240 	.word	0x023ff240

023f7300 <_Z15readValveStatusv>:
  return -1;                                       // Report that the live read failed.
}

// ---- Valve (REQ_GET_VALVE / REQ_VALVE_UNLOCK) ------------------------------
// Read the PIC valve status and remember it for later publishing/logging.
void readValveStatus() {
 23f7300:	b510      	push	{r4, lr}
 23f7302:	b086      	sub	sp, #24
  PicValve v;                                     // Holder for the valve status.
  if (picLink.getValve(v)) {                      // If the PIC returns valve status...
 23f7304:	ac04      	add	r4, sp, #16
 23f7306:	4621      	mov	r1, r4
 23f7308:	480e      	ldr	r0, [pc, #56]	; (23f7344 <_Z15readValveStatusv+0x44>)
 23f730a:	f001 ff42 	bl	23f9192 <_ZN7PicLink8getValveER8PicValve>
 23f730e:	b1b0      	cbz	r0, 23f733e <_Z15readValveStatusv+0x3e>
    lastValve = v; haveValve = true;              // ...store it and note that we now have valid valve data.
 23f7310:	e894 0003 	ldmia.w	r4, {r0, r1}
 23f7314:	2201      	movs	r2, #1
 23f7316:	4b0c      	ldr	r3, [pc, #48]	; (23f7348 <_Z15readValveStatusv+0x48>)
 23f7318:	e883 0003 	stmia.w	r3, {r0, r1}
 23f731c:	4b0b      	ldr	r3, [pc, #44]	; (23f734c <_Z15readValveStatusv+0x4c>)
    Log.info("VALVE pwr=%u ctrl=%u motion=%u lock=0x%02X tempLocks=%lu",   // Log the valve state.
 23f731e:	480c      	ldr	r0, [pc, #48]	; (23f7350 <_Z15readValveStatusv+0x50>)
    lastValve = v; haveValve = true;              // ...store it and note that we now have valid valve data.
 23f7320:	701a      	strb	r2, [r3, #0]
    Log.info("VALVE pwr=%u ctrl=%u motion=%u lock=0x%02X tempLocks=%lu",   // Log the valve state.
 23f7322:	f89d 3013 	ldrb.w	r3, [sp, #19]
 23f7326:	9102      	str	r1, [sp, #8]
 23f7328:	9301      	str	r3, [sp, #4]
 23f732a:	f89d 3012 	ldrb.w	r3, [sp, #18]
 23f732e:	f89d 2010 	ldrb.w	r2, [sp, #16]
 23f7332:	9300      	str	r3, [sp, #0]
 23f7334:	4907      	ldr	r1, [pc, #28]	; (23f7354 <_Z15readValveStatusv+0x54>)
 23f7336:	f89d 3011 	ldrb.w	r3, [sp, #17]
 23f733a:	f7ff fcad 	bl	23f6c98 <_ZNK5spark6Logger4infoEPKcz>
             v.pwr_pin, v.ctrl_pin, v.motion, v.lock_flags,
             (unsigned long)v.temp_lock_count);
  }
}
 23f733e:	b006      	add	sp, #24
 23f7340:	bd10      	pop	{r4, pc}
 23f7342:	bf00      	nop
 23f7344:	10079180 	.word	0x10079180
 23f7348:	10079118 	.word	0x10079118
 23f734c:	10079114 	.word	0x10079114
 23f7350:	1007aeb4 	.word	0x1007aeb4
 23f7354:	023ff263 	.word	0x023ff263

023f7358 <_Z17restartSleepTimerPKc>:
  // and right after a setParams()/unlockValve(), not on every data request.
}

// =============================================================== Sleep mgmt
// Reset the awake window so the device stays up a bit longer (called on any activity).
void restartSleepTimer(const char *reason) {
 23f7358:	b507      	push	{r0, r1, r2, lr}
  sleepCycleCount = 0; lastWakeTime = millis(); sleepStart = millis();   // Restart the timers from "now".
 23f735a:	2100      	movs	r1, #0
 23f735c:	4b09      	ldr	r3, [pc, #36]	; (23f7384 <_Z17restartSleepTimerPKc+0x2c>)
void restartSleepTimer(const char *reason) {
 23f735e:	9001      	str	r0, [sp, #4]
  sleepCycleCount = 0; lastWakeTime = millis(); sleepStart = millis();   // Restart the timers from "now".
 23f7360:	6019      	str	r1, [r3, #0]

#ifdef __cplusplus
extern "C" {
#endif

inline system_tick_t millis(void) { return HAL_Timer_Get_Milli_Seconds(); }
 23f7362:	f002 f979 	bl	23f9658 <HAL_Timer_Get_Milli_Seconds>
 23f7366:	4b08      	ldr	r3, [pc, #32]	; (23f7388 <_Z17restartSleepTimerPKc+0x30>)
 23f7368:	6018      	str	r0, [r3, #0]
 23f736a:	f002 f975 	bl	23f9658 <HAL_Timer_Get_Milli_Seconds>
 23f736e:	4b07      	ldr	r3, [pc, #28]	; (23f738c <_Z17restartSleepTimerPKc+0x34>)
  Log.info("SLEEP: timer restarted (%s)", reason);   // Log why the timer was restarted.
 23f7370:	9a01      	ldr	r2, [sp, #4]
  sleepCycleCount = 0; lastWakeTime = millis(); sleepStart = millis();   // Restart the timers from "now".
 23f7372:	6018      	str	r0, [r3, #0]
  Log.info("SLEEP: timer restarted (%s)", reason);   // Log why the timer was restarted.
 23f7374:	4906      	ldr	r1, [pc, #24]	; (23f7390 <_Z17restartSleepTimerPKc+0x38>)
 23f7376:	4807      	ldr	r0, [pc, #28]	; (23f7394 <_Z17restartSleepTimerPKc+0x3c>)
 23f7378:	f7ff fc8e 	bl	23f6c98 <_ZNK5spark6Logger4infoEPKcz>
}
 23f737c:	b003      	add	sp, #12
 23f737e:	f85d fb04 	ldr.w	pc, [sp], #4
 23f7382:	bf00      	nop
 23f7384:	100791b8 	.word	0x100791b8
 23f7388:	10079158 	.word	0x10079158
 23f738c:	100791bc 	.word	0x100791bc
 23f7390:	023ff29c 	.word	0x023ff29c
 23f7394:	1007aeb4 	.word	0x1007aeb4

023f7398 <_Z13shutoffSwitch6String>:
int shutoffSwitch(String cmd) {
 23f7398:	b570      	push	{r4, r5, r6, lr}
 23f739a:	4605      	mov	r5, r0
  restartSleepTimer("shutoffSwitch");             // Any cloud action resets the awake window so we don't sleep mid-task.
 23f739c:	4833      	ldr	r0, [pc, #204]	; (23f746c <_Z13shutoffSwitch6String+0xd4>)
 23f739e:	f7ff ffdb 	bl	23f7358 <_Z17restartSleepTimerPKc>
  cmd.trim(); cmd.toLowerCase();                  // Clean up the command: remove spaces, make lowercase.
 23f73a2:	4628      	mov	r0, r5
 23f73a4:	f003 f9bb 	bl	23fa71e <_ZN6String4trimEv>
 23f73a8:	4628      	mov	r0, r5
 23f73aa:	f003 f9aa 	bl	23fa702 <_ZN6String11toLowerCaseEv>
    int compareTo(const String &s) const { return compareTo(s.buffer); }
    int compareTo(const char* cstr) const;
    unsigned char equals(const String &s) const;
    unsigned char equals(const char *cstr) const;
    unsigned char operator == (const String &rhs) const {return equals(rhs);}
    unsigned char operator == (const char *cstr) const {return equals(cstr);}
 23f73ae:	4628      	mov	r0, r5
 23f73b0:	492f      	ldr	r1, [pc, #188]	; (23f7470 <_Z13shutoffSwitch6String+0xd8>)
 23f73b2:	f003 f959 	bl	23fa668 <_ZNK6String6equalsEPKc>
  if (cmd == "close") {                           // "close" = drive the valve shut.
 23f73b6:	4606      	mov	r6, r0
 23f73b8:	b1f8      	cbz	r0, 23f73fa <_Z13shutoffSwitch6String+0x62>
    digitalWrite(LED1_PIN, HIGH); digitalWrite(SHUTOFF_SWITCH_PIN, HIGH); digitalWrite(SHUTOFF_SSR_PIN, HIGH);   // LED on, direction=close, power on.
 23f73ba:	2101      	movs	r1, #1
 23f73bc:	2007      	movs	r0, #7
 23f73be:	f005 fc3e 	bl	23fcc3e <digitalWrite>
 23f73c2:	2101      	movs	r1, #1
 23f73c4:	2004      	movs	r0, #4
 23f73c6:	f005 fc3a 	bl	23fcc3e <digitalWrite>
 23f73ca:	2101      	movs	r1, #1
 23f73cc:	2003      	movs	r0, #3
 23f73ce:	f005 fc36 	bl	23fcc3e <digitalWrite>
    if (!imu_data.shutoff) shutoffEventCount++;   // Count a new shutoff event (only on the transition).
 23f73d2:	4a28      	ldr	r2, [pc, #160]	; (23f7474 <_Z13shutoffSwitch6String+0xdc>)
 23f73d4:	7953      	ldrb	r3, [r2, #5]
 23f73d6:	b92b      	cbnz	r3, 23f73e4 <_Z13shutoffSwitch6String+0x4c>
 23f73d8:	4927      	ldr	r1, [pc, #156]	; (23f7478 <_Z13shutoffSwitch6String+0xe0>)
 23f73da:	f8d1 3088 	ldr.w	r3, [r1, #136]	; 0x88
 23f73de:	3301      	adds	r3, #1
 23f73e0:	f8c1 3088 	str.w	r3, [r1, #136]	; 0x88
    imu_data.shutoff = true; triggerPublish = true; shutoffTimer.start(); return 2;   // Mark shut, publish, start 10 s timer, return 2.
 23f73e4:	2301      	movs	r3, #1
 23f73e6:	7153      	strb	r3, [r2, #5]
 23f73e8:	4a24      	ldr	r2, [pc, #144]	; (23f747c <_Z13shutoffSwitch6String+0xe4>)
 23f73ea:	4825      	ldr	r0, [pc, #148]	; (23f7480 <_Z13shutoffSwitch6String+0xe8>)
 23f73ec:	f06f 4100 	mvn.w	r1, #2147483648	; 0x80000000
 23f73f0:	7013      	strb	r3, [r2, #0]
 23f73f2:	f7ff fb6a 	bl	23f6aca <_ZN5Timer5startEj.isra.0>
 23f73f6:	2002      	movs	r0, #2
}
 23f73f8:	bd70      	pop	{r4, r5, r6, pc}
 23f73fa:	4628      	mov	r0, r5
 23f73fc:	4921      	ldr	r1, [pc, #132]	; (23f7484 <_Z13shutoffSwitch6String+0xec>)
 23f73fe:	f003 f933 	bl	23fa668 <_ZNK6String6equalsEPKc>
  } else if (cmd == "open") {                     // "open" = drive the valve open.
 23f7402:	4604      	mov	r4, r0
 23f7404:	b1b8      	cbz	r0, 23f7436 <_Z13shutoffSwitch6String+0x9e>
    imu_data.shutoff = false; triggerPublish = true; shutoffTimer.start(); return 1;   // Mark open, publish, start timer, return 1.
 23f7406:	2401      	movs	r4, #1
    digitalWrite(LED1_PIN, HIGH); digitalWrite(SHUTOFF_SWITCH_PIN, LOW); digitalWrite(SHUTOFF_SSR_PIN, HIGH);    // LED on, direction=open, power on.
 23f7408:	2101      	movs	r1, #1
 23f740a:	2007      	movs	r0, #7
 23f740c:	f005 fc17 	bl	23fcc3e <digitalWrite>
 23f7410:	4631      	mov	r1, r6
 23f7412:	2004      	movs	r0, #4
 23f7414:	f005 fc13 	bl	23fcc3e <digitalWrite>
 23f7418:	2101      	movs	r1, #1
 23f741a:	2003      	movs	r0, #3
 23f741c:	f005 fc0f 	bl	23fcc3e <digitalWrite>
    imu_data.shutoff = false; triggerPublish = true; shutoffTimer.start(); return 1;   // Mark open, publish, start timer, return 1.
 23f7420:	4b14      	ldr	r3, [pc, #80]	; (23f7474 <_Z13shutoffSwitch6String+0xdc>)
 23f7422:	f06f 4100 	mvn.w	r1, #2147483648	; 0x80000000
 23f7426:	715e      	strb	r6, [r3, #5]
 23f7428:	4b14      	ldr	r3, [pc, #80]	; (23f747c <_Z13shutoffSwitch6String+0xe4>)
 23f742a:	4815      	ldr	r0, [pc, #84]	; (23f7480 <_Z13shutoffSwitch6String+0xe8>)
 23f742c:	701c      	strb	r4, [r3, #0]
 23f742e:	f7ff fb4c 	bl	23f6aca <_ZN5Timer5startEj.isra.0>
    shutoffTimer.stop(); return 0;                // Stop the timer, return 0.
 23f7432:	4620      	mov	r0, r4
 23f7434:	e7e0      	b.n	23f73f8 <_Z13shutoffSwitch6String+0x60>
 23f7436:	4628      	mov	r0, r5
 23f7438:	4913      	ldr	r1, [pc, #76]	; (23f7488 <_Z13shutoffSwitch6String+0xf0>)
 23f743a:	f003 f915 	bl	23fa668 <_ZNK6String6equalsEPKc>
  } else if (cmd == "off") {                      // "off" = remove power from the valve (idle/safe).
 23f743e:	b188      	cbz	r0, 23f7464 <_Z13shutoffSwitch6String+0xcc>
    digitalWrite(LED1_PIN, LOW); digitalWrite(SHUTOFF_SWITCH_PIN, LOW); digitalWrite(SHUTOFF_SSR_PIN, LOW);      // LED off, direction low, power off.
 23f7440:	4621      	mov	r1, r4
 23f7442:	2007      	movs	r0, #7
 23f7444:	f005 fbfb 	bl	23fcc3e <digitalWrite>
 23f7448:	4621      	mov	r1, r4
 23f744a:	2004      	movs	r0, #4
 23f744c:	f005 fbf7 	bl	23fcc3e <digitalWrite>
 23f7450:	4621      	mov	r1, r4
 23f7452:	2003      	movs	r0, #3
 23f7454:	f005 fbf3 	bl	23fcc3e <digitalWrite>
    shutoffTimer.stop(); return 0;                // Stop the timer, return 0.
 23f7458:	f06f 4100 	mvn.w	r1, #2147483648	; 0x80000000
 23f745c:	4808      	ldr	r0, [pc, #32]	; (23f7480 <_Z13shutoffSwitch6String+0xe8>)
 23f745e:	f7ff fb27 	bl	23f6ab0 <_ZN5Timer4stopEj.isra.0>
 23f7462:	e7e6      	b.n	23f7432 <_Z13shutoffSwitch6String+0x9a>
  return -1;                                       // Unknown command -> error.
 23f7464:	f04f 30ff 	mov.w	r0, #4294967295
 23f7468:	e7c6      	b.n	23f73f8 <_Z13shutoffSwitch6String+0x60>
 23f746a:	bf00      	nop
 23f746c:	023ff2b8 	.word	0x023ff2b8
 23f7470:	023ff2c6 	.word	0x023ff2c6
 23f7474:	10079124 	.word	0x10079124
 23f7478:	1007b400 	.word	0x1007b400
 23f747c:	100791c0 	.word	0x100791c0
 23f7480:	1007919c 	.word	0x1007919c
 23f7484:	023ff2cc 	.word	0x023ff2cc
 23f7488:	023ff735 	.word	0x023ff735

023f748c <_Z14onLeakDetectedv>:
void onLeakDetected() {
 23f748c:	b51f      	push	{r0, r1, r2, r3, r4, lr}
  if (!imu_data.overflow) overflowEventCount++;   // First time seeing overflow this cycle -> count it.
 23f748e:	4b13      	ldr	r3, [pc, #76]	; (23f74dc <_Z14onLeakDetectedv+0x50>)
 23f7490:	4c13      	ldr	r4, [pc, #76]	; (23f74e0 <_Z14onLeakDetectedv+0x54>)
 23f7492:	799a      	ldrb	r2, [r3, #6]
 23f7494:	b922      	cbnz	r2, 23f74a0 <_Z14onLeakDetectedv+0x14>
 23f7496:	f8d4 208c 	ldr.w	r2, [r4, #140]	; 0x8c
 23f749a:	3201      	adds	r2, #1
 23f749c:	f8c4 208c 	str.w	r2, [r4, #140]	; 0x8c
  imu_data.overflow = true;                       // Mark overflow active.
 23f74a0:	2201      	movs	r2, #1
 23f74a2:	719a      	strb	r2, [r3, #6]
  if (!imu_data.leaking) leakingEventCount++;     // First time seeing a leak this cycle -> count it.
 23f74a4:	791a      	ldrb	r2, [r3, #4]
 23f74a6:	b922      	cbnz	r2, 23f74b2 <_Z14onLeakDetectedv+0x26>
 23f74a8:	f8d4 2090 	ldr.w	r2, [r4, #144]	; 0x90
 23f74ac:	3201      	adds	r2, #1
 23f74ae:	f8c4 2090 	str.w	r2, [r4, #144]	; 0x90
  imu_data.leaking = true;                        // Mark leaking active.
 23f74b2:	2201      	movs	r2, #1
 23f74b4:	711a      	strb	r2, [r3, #4]
  if (appConfig.autoShutoff) {                    // cloud var (3)
 23f74b6:	7b23      	ldrb	r3, [r4, #12]
 23f74b8:	b14b      	cbz	r3, 23f74ce <_Z14onLeakDetectedv+0x42>
    shutoffSwitch("close");                       //   If auto-shutoff is enabled, close the local valve.
 23f74ba:	490a      	ldr	r1, [pc, #40]	; (23f74e4 <_Z14onLeakDetectedv+0x58>)
 23f74bc:	4668      	mov	r0, sp
 23f74be:	f003 f87c 	bl	23fa5ba <_ZN6StringC1EPK19__FlashStringHelper>
 23f74c2:	4668      	mov	r0, sp
 23f74c4:	f7ff ff68 	bl	23f7398 <_Z13shutoffSwitch6String>
 23f74c8:	4668      	mov	r0, sp
 23f74ca:	f003 f82b 	bl	23fa524 <_ZN6StringD1Ev>
  if (appConfig.alertMode >= 1) {                 // cloud var (4)
 23f74ce:	7b63      	ldrb	r3, [r4, #13]
 23f74d0:	b113      	cbz	r3, 23f74d8 <_Z14onLeakDetectedv+0x4c>
    triggerPublish = true;                        //   If alerts are enabled, request a cloud publish.
 23f74d2:	2201      	movs	r2, #1
 23f74d4:	4b04      	ldr	r3, [pc, #16]	; (23f74e8 <_Z14onLeakDetectedv+0x5c>)
 23f74d6:	701a      	strb	r2, [r3, #0]
}
 23f74d8:	b004      	add	sp, #16
 23f74da:	bd10      	pop	{r4, pc}
 23f74dc:	10079124 	.word	0x10079124
 23f74e0:	1007b400 	.word	0x1007b400
 23f74e4:	023ff2c6 	.word	0x023ff2c6
 23f74e8:	100791c0 	.word	0x100791c0

023f74ec <_Z14ingestPicBatchPK9PicSamplei>:
void ingestPicBatch(const PicSample *s, int n) {
 23f74ec:	e92d 4ff0 	stmdb	sp!, {r4, r5, r6, r7, r8, r9, sl, fp, lr}
 23f74f0:	ed2d 8b04 	vpush	{d8-d9}
  if (n <= 0) return;                             // Nothing to do if the batch is empty.
 23f74f4:	1e0d      	subs	r5, r1, #0
void ingestPicBatch(const PicSample *s, int n) {
 23f74f6:	4604      	mov	r4, r0
 23f74f8:	b089      	sub	sp, #36	; 0x24
  if (n <= 0) return;                             // Nothing to do if the batch is empty.
 23f74fa:	dd09      	ble.n	23f7510 <_Z14ingestPicBatchPK9PicSamplei+0x24>
  if (!Time.isValid()) { Log.warn("PIC: time invalid, dropping batch"); return; }   // Need a valid clock to place samples.
 23f74fc:	f004 fa06 	bl	23fb90c <_Z19__fetch_global_Timev>
 23f7500:	f004 f9c4 	bl	23fb88c <_ZNK9TimeClass7isValidEv>
 23f7504:	9006      	str	r0, [sp, #24]
 23f7506:	b940      	cbnz	r0, 23f751a <_Z14ingestPicBatchPK9PicSamplei+0x2e>
 23f7508:	4966      	ldr	r1, [pc, #408]	; (23f76a4 <_Z14ingestPicBatchPK9PicSamplei+0x1b8>)
 23f750a:	4867      	ldr	r0, [pc, #412]	; (23f76a8 <_Z14ingestPicBatchPK9PicSamplei+0x1bc>)
 23f750c:	f7ff fbd2 	bl	23f6cb4 <_ZNK5spark6Logger4warnEPKcz>
}
 23f7510:	b009      	add	sp, #36	; 0x24
 23f7512:	ecbd 8b04 	vpop	{d8-d9}
 23f7516:	e8bd 8ff0 	ldmia.w	sp!, {r4, r5, r6, r7, r8, r9, sl, fp, pc}
  uint32_t now = Time.now();                      // Current UTC time in seconds.
 23f751a:	f004 f9f7 	bl	23fb90c <_Z19__fetch_global_Timev>
 23f751e:	f004 f9db 	bl	23fb8d8 <_ZN9TimeClass3nowEv>
  uint32_t endBoundary = (now / PIC_SAMPLE_INTERVAL_SEC) * PIC_SAMPLE_INTERVAL_SEC;   // Most recent 60-s boundary <= now.
 23f7522:	233c      	movs	r3, #60	; 0x3c
  uint32_t lastFlowTs = 0;                        // epoch of the most recent flowing sample
 23f7524:	f04f 0a00 	mov.w	sl, #0
  uint32_t endBoundary = (now / PIC_SAMPLE_INTERVAL_SEC) * PIC_SAMPLE_INTERVAL_SEC;   // Most recent 60-s boundary <= now.
 23f7528:	fbb0 f0f3 	udiv	r0, r0, r3
 23f752c:	f04f 0801 	mov.w	r8, #1
  bool     flowSeen   = false;                    // any sample in this batch shows water moving
 23f7530:	46d1      	mov	r9, sl
    float freq    = (float)s[k].pulses / (float)PIC_SAMPLE_INTERVAL_SEC; // Hz
 23f7532:	eddf 9a5e 	vldr	s19, [pc, #376]	; 23f76ac <_Z14ingestPicBatchPK9PicSamplei+0x1c0>
  if (freq <= 0.0f) return 0.0f;                 // No frequency means no flow -> 0 GPM.
 23f7536:	ed9f 9a5e 	vldr	s18, [pc, #376]	; 23f76b0 <_Z14ingestPicBatchPK9PicSamplei+0x1c4>
 23f753a:	1b43      	subs	r3, r0, r5
 23f753c:	4e5d      	ldr	r6, [pc, #372]	; (23f76b4 <_Z14ingestPicBatchPK9PicSamplei+0x1c8>)
 23f753e:	9307      	str	r3, [sp, #28]
    float freq    = (float)s[k].pulses / (float)PIC_SAMPLE_INTERVAL_SEC; // Hz
 23f7540:	f8b4 b002 	ldrh.w	fp, [r4, #2]
    uint32_t tsEnd = endBoundary - (uint32_t)(n - 1 - k) * PIC_SAMPLE_INTERVAL_SEC;
 23f7544:	9b07      	ldr	r3, [sp, #28]
    float freq    = (float)s[k].pulses / (float)PIC_SAMPLE_INTERVAL_SEC; // Hz
 23f7546:	ee07 ba90 	vmov	s15, fp
 23f754a:	eef8 7a67 	vcvt.f32.u32	s15, s15
 23f754e:	eec7 6aa9 	vdiv.f32	s13, s15, s19
  if (freq <= 0.0f) return 0.0f;                 // No frequency means no flow -> 0 GPM.
 23f7552:	eef5 6ac0 	vcmpe.f32	s13, #0.0
    uint32_t tsEnd = endBoundary - (uint32_t)(n - 1 - k) * PIC_SAMPLE_INTERVAL_SEC;
 23f7556:	eb03 0708 	add.w	r7, r3, r8
  if (freq <= 0.0f) return 0.0f;                 // No frequency means no flow -> 0 GPM.
 23f755a:	eef1 fa10 	vmrs	APSR_nzcv, fpscr
    uint32_t tsEnd = endBoundary - (uint32_t)(n - 1 - k) * PIC_SAMPLE_INTERVAL_SEC;
 23f755e:	f04f 033c 	mov.w	r3, #60	; 0x3c
 23f7562:	fb03 f707 	mul.w	r7, r3, r7
  if (freq <= 0.0f) return 0.0f;                 // No frequency means no flow -> 0 GPM.
 23f7566:	f240 8099 	bls.w	23f769c <_Z14ingestPicBatchPK9PicSamplei+0x1b0>
  float f  = freq / (1.0f + (FLOW_C5 * freq + FLOW_C6));   // freq correction
 23f756a:	eddf 7a53 	vldr	s15, [pc, #332]	; 23f76b8 <_Z14ingestPicBatchPK9PicSamplei+0x1cc>
 23f756e:	ed9f 7a53 	vldr	s14, [pc, #332]	; 23f76bc <_Z14ingestPicBatchPK9PicSamplei+0x1d0>
 23f7572:	eea6 7aa7 	vfma.f32	s14, s13, s15
 23f7576:	eef7 7a00 	vmov.f32	s15, #112	; 0x3f800000  1.0
 23f757a:	ee37 7a27 	vadd.f32	s14, s14, s15
  float g0 = FLOW_C0 * f;                                  // raw GPM
 23f757e:	ed9f 8a50 	vldr	s16, [pc, #320]	; 23f76c0 <_Z14ingestPicBatchPK9PicSamplei+0x1d4>
  float f  = freq / (1.0f + (FLOW_C5 * freq + FLOW_C6));   // freq correction
 23f7582:	eec6 7a87 	vdiv.f32	s15, s13, s14
  float g  = g0 - (FLOW_C1 * g0 * g0 + FLOW_C2 * g0 + FLOW_C3);   // Apply the calibration polynomial to refine it.
 23f7586:	ed9f 7a4f 	vldr	s14, [pc, #316]	; 23f76c4 <_Z14ingestPicBatchPK9PicSamplei+0x1d8>
  float g0 = FLOW_C0 * f;                                  // raw GPM
 23f758a:	ee67 7a88 	vmul.f32	s15, s15, s16
  float g  = g0 - (FLOW_C1 * g0 * g0 + FLOW_C2 * g0 + FLOW_C3);   // Apply the calibration polynomial to refine it.
 23f758e:	ed9f 8a4e 	vldr	s16, [pc, #312]	; 23f76c8 <_Z14ingestPicBatchPK9PicSamplei+0x1dc>
 23f7592:	ee27 7a87 	vmul.f32	s14, s15, s14
 23f7596:	ee27 8a88 	vmul.f32	s16, s15, s16
 23f759a:	eea7 8a87 	vfma.f32	s16, s15, s14
 23f759e:	ed9f 7a4b 	vldr	s14, [pc, #300]	; 23f76cc <_Z14ingestPicBatchPK9PicSamplei+0x1e0>
 23f75a2:	ee38 8a47 	vsub.f32	s16, s16, s14
 23f75a6:	ee77 7ac8 	vsub.f32	s15, s15, s16
  g *= flowCalScale;                             // Multiply by the user's calibration scale.
 23f75aa:	ed96 8a00 	vldr	s16, [r6]
 23f75ae:	ee27 8a88 	vmul.f32	s16, s15, s16
  if (freq <= 0.0f) return 0.0f;                 // No frequency means no flow -> 0 GPM.
 23f75b2:	eeb5 8a40 	vcmp.f32	s16, #0.0
 23f75b6:	eef1 fa10 	vmrs	APSR_nzcv, fpscr
 23f75ba:	bf48      	it	mi
 23f75bc:	eeb0 8a49 	vmovmi.f32	s16, s18
    float gallons = gpm * (PIC_SAMPLE_INTERVAL_SEC / 60.0f) / FLOW_C4;   // Gallons used in this interval (with trickle fix).
 23f75c0:	eddf 7a43 	vldr	s15, [pc, #268]	; 23f76d0 <_Z14ingestPicBatchPK9PicSamplei+0x1e4>
 23f75c4:	eec8 8a27 	vdiv.f32	s17, s16, s15
    Log.info("PIC sample[%d/%d]: idx=%u pulses=%u -> %.3f GPM, %.4f gal",   // Print this sample's details to the log.
 23f75c8:	ee18 0a90 	vmov	r0, s17
 23f75cc:	f7fe fc18 	bl	23f5e00 <__aeabi_f2d>
 23f75d0:	e9cd 0104 	strd	r0, r1, [sp, #16]
 23f75d4:	ee18 0a10 	vmov	r0, s16
 23f75d8:	f7fe fc12 	bl	23f5e00 <__aeabi_f2d>
 23f75dc:	8823      	ldrh	r3, [r4, #0]
 23f75de:	4642      	mov	r2, r8
 23f75e0:	e9cd 0102 	strd	r0, r1, [sp, #8]
 23f75e4:	f8cd b004 	str.w	fp, [sp, #4]
 23f75e8:	493a      	ldr	r1, [pc, #232]	; (23f76d4 <_Z14ingestPicBatchPK9PicSamplei+0x1e8>)
 23f75ea:	482f      	ldr	r0, [pc, #188]	; (23f76a8 <_Z14ingestPicBatchPK9PicSamplei+0x1bc>)
 23f75ec:	9300      	str	r3, [sp, #0]
 23f75ee:	462b      	mov	r3, r5
 23f75f0:	f7ff fb52 	bl	23f6c98 <_ZNK5spark6Logger4infoEPKcz>
    if (gpm >= FLOW_ACTIVE_GPM) { flowSeen = true; lastFlowTs = tsEnd; }   // If flowing, remember it and the time.
 23f75f4:	eddf 7a38 	vldr	s15, [pc, #224]	; 23f76d8 <_Z14ingestPicBatchPK9PicSamplei+0x1ec>
 23f75f8:	eeb4 8a67 	vcmp.f32	s16, s15
 23f75fc:	eef1 fa10 	vmrs	APSR_nzcv, fpscr
 23f7600:	9b06      	ldr	r3, [sp, #24]
 23f7602:	bfa4      	itt	ge
 23f7604:	46ba      	movge	sl, r7
 23f7606:	4699      	movge	r9, r3
    int hr  = Time.hour(tsEnd);                   // Which hour-of-day this sample ends in.
 23f7608:	f004 f980 	bl	23fb90c <_Z19__fetch_global_Timev>
 23f760c:	463a      	mov	r2, r7
 23f760e:	2300      	movs	r3, #0
 23f7610:	f004 f908 	bl	23fb824 <_ZN9TimeClass4hourEx>
 23f7614:	4683      	mov	fp, r0
    int day = Time.day(tsEnd);                    // Which day-of-month this sample ends in.
 23f7616:	f004 f979 	bl	23fb90c <_Z19__fetch_global_Timev>
 23f761a:	463a      	mov	r2, r7
 23f761c:	2300      	movs	r3, #0
 23f761e:	f004 f90b 	bl	23fb838 <_ZN9TimeClass3dayEx>
    accumulateHourly(hr, day, gallons);           // Add the gallons into the correct hourly bucket.
 23f7622:	eeb0 0a68 	vmov.f32	s0, s17
    int day = Time.day(tsEnd);                    // Which day-of-month this sample ends in.
 23f7626:	4601      	mov	r1, r0
    accumulateHourly(hr, day, gallons);           // Add the gallons into the correct hourly bucket.
 23f7628:	4658      	mov	r0, fp
 23f762a:	f7ff fdd1 	bl	23f71d0 <_Z16accumulateHourlyiif>
    dailyGallons += gallons;                      // Add to the running daily total.
 23f762e:	edd6 7a20 	vldr	s15, [r6, #128]	; 0x80
 23f7632:	ee77 7aa8 	vadd.f32	s15, s15, s17
    if (senseLeak(tsEnd, gpm)) onLeakDetected();  // Run the leak detector; react if it says "leak".
 23f7636:	eeb0 0a48 	vmov.f32	s0, s16
 23f763a:	4638      	mov	r0, r7
    dailyGallons += gallons;                      // Add to the running daily total.
 23f763c:	edc6 7a20 	vstr	s15, [r6, #128]	; 0x80
    if (senseLeak(tsEnd, gpm)) onLeakDetected();  // Run the leak detector; react if it says "leak".
 23f7640:	f7ff fd22 	bl	23f7088 <_Z9senseLeakmf>
 23f7644:	b108      	cbz	r0, 23f764a <_Z14ingestPicBatchPK9PicSamplei+0x15e>
 23f7646:	f7ff ff21 	bl	23f748c <_Z14onLeakDetectedv>
    appendIntervalSample(gpm);                    // Store this reading in the interval logger.
 23f764a:	eeb0 0a48 	vmov.f32	s0, s16
 23f764e:	f7ff fe09 	bl	23f7264 <_Z20appendIntervalSamplef>
  for (int k = 0; k < n; k++) {                   // Loop over every sample in the batch.
 23f7652:	4545      	cmp	r5, r8
 23f7654:	f108 0301 	add.w	r3, r8, #1
 23f7658:	f104 0404 	add.w	r4, r4, #4
 23f765c:	d11c      	bne.n	23f7698 <_Z14ingestPicBatchPK9PicSamplei+0x1ac>
  if (flowSeen) {                                 // If any sample in the batch showed flow...
 23f765e:	f1b9 0f00 	cmp.w	r9, #0
 23f7662:	d004      	beq.n	23f766e <_Z14ingestPicBatchPK9PicSamplei+0x182>
    triggerState    = true;                       // ...mark "flow in progress" (keeps the device awake).
 23f7664:	2301      	movs	r3, #1
    lastTriggerTime = lastFlowTs;                 // Remember when that flow last happened.
 23f7666:	f8c6 a098 	str.w	sl, [r6, #152]	; 0x98
    triggerState    = true;                       // ...mark "flow in progress" (keeps the device awake).
 23f766a:	f886 3094 	strb.w	r3, [r6, #148]	; 0x94
  imu_data.dailyGallons = dailyGallons;           // Mirror the daily total into the status struct (for publishing).
 23f766e:	f8d6 0080 	ldr.w	r0, [r6, #128]	; 0x80
 23f7672:	4b1a      	ldr	r3, [pc, #104]	; (23f76dc <_Z14ingestPicBatchPK9PicSamplei+0x1f0>)
 23f7674:	6298      	str	r0, [r3, #40]	; 0x28
  Log.info("PIC: ingested %d samples, daily=%.2f gal%s",   // Summarize the batch in the log.
 23f7676:	f7fe fbc3 	bl	23f5e00 <__aeabi_f2d>
 23f767a:	4a19      	ldr	r2, [pc, #100]	; (23f76e0 <_Z14ingestPicBatchPK9PicSamplei+0x1f4>)
 23f767c:	4b19      	ldr	r3, [pc, #100]	; (23f76e4 <_Z14ingestPicBatchPK9PicSamplei+0x1f8>)
 23f767e:	e9cd 0100 	strd	r0, r1, [sp]
 23f7682:	f1b9 0f00 	cmp.w	r9, #0
 23f7686:	bf08      	it	eq
 23f7688:	4613      	moveq	r3, r2
 23f768a:	4917      	ldr	r1, [pc, #92]	; (23f76e8 <_Z14ingestPicBatchPK9PicSamplei+0x1fc>)
 23f768c:	462a      	mov	r2, r5
 23f768e:	4806      	ldr	r0, [pc, #24]	; (23f76a8 <_Z14ingestPicBatchPK9PicSamplei+0x1bc>)
 23f7690:	9302      	str	r3, [sp, #8]
 23f7692:	f7ff fb01 	bl	23f6c98 <_ZNK5spark6Logger4infoEPKcz>
 23f7696:	e73b      	b.n	23f7510 <_Z14ingestPicBatchPK9PicSamplei+0x24>
 23f7698:	4698      	mov	r8, r3
 23f769a:	e751      	b.n	23f7540 <_Z14ingestPicBatchPK9PicSamplei+0x54>
  if (freq <= 0.0f) return 0.0f;                 // No frequency means no flow -> 0 GPM.
 23f769c:	eeb0 8a49 	vmov.f32	s16, s18
 23f76a0:	e78e      	b.n	23f75c0 <_Z14ingestPicBatchPK9PicSamplei+0xd4>
 23f76a2:	bf00      	nop
 23f76a4:	023ff2e0 	.word	0x023ff2e0
 23f76a8:	1007aeb4 	.word	0x1007aeb4
 23f76ac:	42700000 	.word	0x42700000
 23f76b0:	00000000 	.word	0x00000000
 23f76b4:	1007b400 	.word	0x1007b400
 23f76b8:	bb8ce704 	.word	0xbb8ce704
 23f76bc:	3d851eb8 	.word	0x3d851eb8
 23f76c0:	3cbc6a7f 	.word	0x3cbc6a7f
 23f76c4:	3eb33333 	.word	0x3eb33333
 23f76c8:	beeb851f 	.word	0xbeeb851f
 23f76cc:	3d0b4396 	.word	0x3d0b4396
 23f76d0:	3fb02de0 	.word	0x3fb02de0
 23f76d4:	023ff302 	.word	0x023ff302
 23f76d8:	3dcccccd 	.word	0x3dcccccd
 23f76dc:	10079124 	.word	0x10079124
 23f76e0:	023ff992 	.word	0x023ff992
 23f76e4:	023ff2d1 	.word	0x023ff2d1
 23f76e8:	023ff33c 	.word	0x023ff33c

023f76ec <_Z19serviceMeterFromPicb>:
void serviceMeterFromPic(bool picInitiated) {
 23f76ec:	b508      	push	{r3, lr}
  if (picInitiated && !picLink.wakeIsHigh()) return;   // nothing to do
 23f76ee:	b9a8      	cbnz	r0, 23f771c <_Z19serviceMeterFromPicb+0x30>
  int n = picLink.requestData(picBuf, PIC_MAX_SAMPLES);   // Ask the PIC for data; n = sample count or an error.
 23f76f0:	f44f 727a 	mov.w	r2, #1000	; 0x3e8
 23f76f4:	4911      	ldr	r1, [pc, #68]	; (23f773c <_Z19serviceMeterFromPicb+0x50>)
 23f76f6:	4812      	ldr	r0, [pc, #72]	; (23f7740 <_Z19serviceMeterFromPicb+0x54>)
 23f76f8:	f001 fc9e 	bl	23f9038 <_ZN7PicLink11requestDataEP9PicSamplet>
  if (n > 0) {                                    // Got real samples...
 23f76fc:	1e02      	subs	r2, r0, #0
 23f76fe:	dd13      	ble.n	23f7728 <_Z19serviceMeterFromPicb+0x3c>
    ingestPicBatch(picBuf, n);                    // ...process them...
 23f7700:	4611      	mov	r1, r2
 23f7702:	480e      	ldr	r0, [pc, #56]	; (23f773c <_Z19serviceMeterFromPicb+0x50>)
 23f7704:	f7ff fef2 	bl	23f74ec <_Z14ingestPicBatchPK9PicSamplei>
    persistAll();                                 // ...and save to flash.
 23f7708:	f7ff fb22 	bl	23f6d50 <_Z10persistAllv>
  if (picParamsDirty) pushPicParams();            // If we owe the PIC a params write, try it while connected.
 23f770c:	4b0d      	ldr	r3, [pc, #52]	; (23f7744 <_Z19serviceMeterFromPicb+0x58>)
 23f770e:	f893 3084 	ldrb.w	r3, [r3, #132]	; 0x84
 23f7712:	b143      	cbz	r3, 23f7726 <_Z19serviceMeterFromPicb+0x3a>
}
 23f7714:	e8bd 4008 	ldmia.w	sp!, {r3, lr}
  if (picParamsDirty) pushPicParams();            // If we owe the PIC a params write, try it while connected.
 23f7718:	f7ff bdce 	b.w	23f72b8 <_Z13pushPicParamsv>
  if (picInitiated && !picLink.wakeIsHigh()) return;   // nothing to do
 23f771c:	4808      	ldr	r0, [pc, #32]	; (23f7740 <_Z19serviceMeterFromPicb+0x54>)
 23f771e:	f001 fae1 	bl	23f8ce4 <_ZN7PicLink10wakeIsHighEv>
 23f7722:	2800      	cmp	r0, #0
 23f7724:	d1e4      	bne.n	23f76f0 <_Z19serviceMeterFromPicb+0x4>
}
 23f7726:	bd08      	pop	{r3, pc}
  } else if (n == 0) {                            // PIC has nothing new...
 23f7728:	d103      	bne.n	23f7732 <_Z19serviceMeterFromPicb+0x46>
    wakeSessionDrained = true;          // PIC has nothing new -> stop this session
 23f772a:	2201      	movs	r2, #1
 23f772c:	4b06      	ldr	r3, [pc, #24]	; (23f7748 <_Z19serviceMeterFromPicb+0x5c>)
 23f772e:	701a      	strb	r2, [r3, #0]
 23f7730:	e7ec      	b.n	23f770c <_Z19serviceMeterFromPicb+0x20>
    Log.warn("PIC REQ_DATA err %d", n);           // Log the error code.
 23f7732:	4906      	ldr	r1, [pc, #24]	; (23f774c <_Z19serviceMeterFromPicb+0x60>)
 23f7734:	4806      	ldr	r0, [pc, #24]	; (23f7750 <_Z19serviceMeterFromPicb+0x64>)
 23f7736:	f7ff fabd 	bl	23f6cb4 <_ZNK5spark6Logger4warnEPKcz>
 23f773a:	e7e7      	b.n	23f770c <_Z19serviceMeterFromPicb+0x20>
 23f773c:	10078152 	.word	0x10078152
 23f7740:	10079180 	.word	0x10079180
 23f7744:	1007b400 	.word	0x1007b400
 23f7748:	10072f24 	.word	0x10072f24
 23f774c:	023ff367 	.word	0x023ff367
 23f7750:	1007aeb4 	.word	0x1007aeb4

023f7754 <_Z13leakingSwitch6String>:
int leakingSwitch(String cmd) {
 23f7754:	b510      	push	{r4, lr}
 23f7756:	4604      	mov	r4, r0
  restartSleepTimer("leakingSwitch");             // Reset the awake window.
 23f7758:	4819      	ldr	r0, [pc, #100]	; (23f77c0 <_Z13leakingSwitch6String+0x6c>)
 23f775a:	f7ff fdfd 	bl	23f7358 <_Z17restartSleepTimerPKc>
  cmd.trim(); cmd.toLowerCase();                  // Normalize the command text.
 23f775e:	4620      	mov	r0, r4
 23f7760:	f002 ffdd 	bl	23fa71e <_ZN6String4trimEv>
 23f7764:	4620      	mov	r0, r4
 23f7766:	f002 ffcc 	bl	23fa702 <_ZN6String11toLowerCaseEv>
 23f776a:	4620      	mov	r0, r4
 23f776c:	4915      	ldr	r1, [pc, #84]	; (23f77c4 <_Z13leakingSwitch6String+0x70>)
 23f776e:	f002 ff7b 	bl	23fa668 <_ZNK6String6equalsEPKc>
  if (cmd == "on")  { if (!imu_data.leaking) leakingEventCount++; imu_data.leaking = true;  triggerPublish = true; return 1; }   // Force "leaking" on.
 23f7772:	b168      	cbz	r0, 23f7790 <_Z13leakingSwitch6String+0x3c>
 23f7774:	4a14      	ldr	r2, [pc, #80]	; (23f77c8 <_Z13leakingSwitch6String+0x74>)
 23f7776:	7913      	ldrb	r3, [r2, #4]
 23f7778:	b92b      	cbnz	r3, 23f7786 <_Z13leakingSwitch6String+0x32>
 23f777a:	4914      	ldr	r1, [pc, #80]	; (23f77cc <_Z13leakingSwitch6String+0x78>)
 23f777c:	f8d1 3090 	ldr.w	r3, [r1, #144]	; 0x90
 23f7780:	3301      	adds	r3, #1
 23f7782:	f8c1 3090 	str.w	r3, [r1, #144]	; 0x90
 23f7786:	2001      	movs	r0, #1
 23f7788:	4b11      	ldr	r3, [pc, #68]	; (23f77d0 <_Z13leakingSwitch6String+0x7c>)
 23f778a:	7110      	strb	r0, [r2, #4]
 23f778c:	7018      	strb	r0, [r3, #0]
}
 23f778e:	bd10      	pop	{r4, pc}
 23f7790:	4620      	mov	r0, r4
 23f7792:	4910      	ldr	r1, [pc, #64]	; (23f77d4 <_Z13leakingSwitch6String+0x80>)
 23f7794:	f002 ff68 	bl	23fa668 <_ZNK6String6equalsEPKc>
  if (cmd == "off" || cmd == "reset") { imu_data.leaking = false; leakRunLen = 0; triggerPublish = true; return 0; }            // Clear "leaking" and the run counter.
 23f7798:	b140      	cbz	r0, 23f77ac <_Z13leakingSwitch6String+0x58>
 23f779a:	2000      	movs	r0, #0
 23f779c:	2201      	movs	r2, #1
 23f779e:	4b0a      	ldr	r3, [pc, #40]	; (23f77c8 <_Z13leakingSwitch6String+0x74>)
 23f77a0:	7118      	strb	r0, [r3, #4]
 23f77a2:	4b0d      	ldr	r3, [pc, #52]	; (23f77d8 <_Z13leakingSwitch6String+0x84>)
 23f77a4:	6018      	str	r0, [r3, #0]
 23f77a6:	4b0a      	ldr	r3, [pc, #40]	; (23f77d0 <_Z13leakingSwitch6String+0x7c>)
 23f77a8:	701a      	strb	r2, [r3, #0]
 23f77aa:	e7f0      	b.n	23f778e <_Z13leakingSwitch6String+0x3a>
 23f77ac:	4620      	mov	r0, r4
 23f77ae:	490b      	ldr	r1, [pc, #44]	; (23f77dc <_Z13leakingSwitch6String+0x88>)
 23f77b0:	f002 ff5a 	bl	23fa668 <_ZNK6String6equalsEPKc>
 23f77b4:	2800      	cmp	r0, #0
 23f77b6:	d1f0      	bne.n	23f779a <_Z13leakingSwitch6String+0x46>
  return -1;                                       // Unknown command -> error.
 23f77b8:	f04f 30ff 	mov.w	r0, #4294967295
 23f77bc:	e7e7      	b.n	23f778e <_Z13leakingSwitch6String+0x3a>
 23f77be:	bf00      	nop
 23f77c0:	023ff37b 	.word	0x023ff37b
 23f77c4:	023ff796 	.word	0x023ff796
 23f77c8:	10079124 	.word	0x10079124
 23f77cc:	1007b400 	.word	0x1007b400
 23f77d0:	100791c0 	.word	0x100791c0
 23f77d4:	023ff735 	.word	0x023ff735
 23f77d8:	10072f1c 	.word	0x10072f1c
 23f77dc:	023ff20c 	.word	0x023ff20c

023f77e0 <_Z8getValve6String>:
  restartSleepTimer("getValve");                  // Reset the awake window.
 23f77e0:	4808      	ldr	r0, [pc, #32]	; (23f7804 <_Z8getValve6String+0x24>)
int getValve(String cmd) {
 23f77e2:	b508      	push	{r3, lr}
  restartSleepTimer("getValve");                  // Reset the awake window.
 23f77e4:	f7ff fdb8 	bl	23f7358 <_Z17restartSleepTimerPKc>
  readValveStatus();                              // Read the valve status from the PIC.
 23f77e8:	f7ff fd8a 	bl	23f7300 <_Z15readValveStatusv>
  triggerPublish = true;                          // Request a publish.
 23f77ec:	2201      	movs	r2, #1
 23f77ee:	4b06      	ldr	r3, [pc, #24]	; (23f7808 <_Z8getValve6String+0x28>)
 23f77f0:	701a      	strb	r2, [r3, #0]
  return haveValve ? 1 : -1;                      // 1 if we have valve data, else -1.
 23f77f2:	4b06      	ldr	r3, [pc, #24]	; (23f780c <_Z8getValve6String+0x2c>)
 23f77f4:	781b      	ldrb	r3, [r3, #0]
 23f77f6:	2b00      	cmp	r3, #0
}
 23f77f8:	bf14      	ite	ne
 23f77fa:	4610      	movne	r0, r2
 23f77fc:	f04f 30ff 	moveq.w	r0, #4294967295
 23f7800:	bd08      	pop	{r3, pc}
 23f7802:	bf00      	nop
 23f7804:	023ff389 	.word	0x023ff389
 23f7808:	100791c0 	.word	0x100791c0
 23f780c:	10079114 	.word	0x10079114

023f7810 <_Z11unlockValve6String>:
int unlockValve(String cmd) {
 23f7810:	b573      	push	{r0, r1, r4, r5, r6, lr}
 23f7812:	4604      	mov	r4, r0
  restartSleepTimer("unlockValve");               // Reset the awake window.
 23f7814:	4826      	ldr	r0, [pc, #152]	; (23f78b0 <_Z11unlockValve6String+0xa0>)
 23f7816:	f7ff fd9f 	bl	23f7358 <_Z17restartSleepTimerPKc>
  cmd.trim(); cmd.toLowerCase();                  // Normalize the command text.
 23f781a:	4620      	mov	r0, r4
 23f781c:	f002 ff7f 	bl	23fa71e <_ZN6String4trimEv>
 23f7820:	4620      	mov	r0, r4
 23f7822:	f002 ff6e 	bl	23fa702 <_ZN6String11toLowerCaseEv>
 23f7826:	4620      	mov	r0, r4
 23f7828:	4922      	ldr	r1, [pc, #136]	; (23f78b4 <_Z11unlockValve6String+0xa4>)
 23f782a:	f002 ff1d 	bl	23fa668 <_ZNK6String6equalsEPKc>
  if (cmd == "temp" || cmd == "1")      flags = VALVE_LOCK_TEMP;   // Clear the temporary lock.
 23f782e:	b1d8      	cbz	r0, 23f7868 <_Z11unlockValve6String+0x58>
 23f7830:	2601      	movs	r6, #1
  bool ok = picLink.unlockValve(flags);           // Ask the PIC to clear the chosen lock(s).
 23f7832:	4631      	mov	r1, r6
 23f7834:	4820      	ldr	r0, [pc, #128]	; (23f78b8 <_Z11unlockValve6String+0xa8>)
 23f7836:	f001 fcdc 	bl	23f91f2 <_ZN7PicLink11unlockValveEh>
  if (ok) readValveStatus();                      // On success, re-read the valve to confirm.
 23f783a:	4605      	mov	r5, r0
 23f783c:	b108      	cbz	r0, 23f7842 <_Z11unlockValve6String+0x32>
 23f783e:	f7ff fd5f 	bl	23f7300 <_Z15readValveStatusv>
  triggerPublish = true;                          // Request a publish.
 23f7842:	2401      	movs	r4, #1
 23f7844:	4b1d      	ldr	r3, [pc, #116]	; (23f78bc <_Z11unlockValve6String+0xac>)
  Log.info("VALVE unlock 0x%02X -> %s (nak=0x%02X)",   // Log the outcome.
 23f7846:	4a1e      	ldr	r2, [pc, #120]	; (23f78c0 <_Z11unlockValve6String+0xb0>)
  triggerPublish = true;                          // Request a publish.
 23f7848:	701c      	strb	r4, [r3, #0]

  // PKT_SYS_RESET. No reply expected (the PIC resets and clears the perm lock).
  void sysReset();                                   // Tell the PIC to reboot.

  // Reason byte from the most recent RSP_NAK (0 if none).
  uint8_t lastNak() const { return _lastNak; }       // Tiny helper: report why the last request was rejected.
 23f784a:	4b1b      	ldr	r3, [pc, #108]	; (23f78b8 <_Z11unlockValve6String+0xa8>)
  Log.info("VALVE unlock 0x%02X -> %s (nak=0x%02X)",   // Log the outcome.
 23f784c:	491d      	ldr	r1, [pc, #116]	; (23f78c4 <_Z11unlockValve6String+0xb4>)
 23f784e:	781b      	ldrb	r3, [r3, #0]
 23f7850:	481d      	ldr	r0, [pc, #116]	; (23f78c8 <_Z11unlockValve6String+0xb8>)
 23f7852:	9300      	str	r3, [sp, #0]
 23f7854:	4b1d      	ldr	r3, [pc, #116]	; (23f78cc <_Z11unlockValve6String+0xbc>)
 23f7856:	2d00      	cmp	r5, #0
 23f7858:	bf18      	it	ne
 23f785a:	4613      	movne	r3, r2
 23f785c:	4632      	mov	r2, r6
 23f785e:	f7ff fa1b 	bl	23f6c98 <_ZNK5spark6Logger4infoEPKcz>
  return ok ? 1 : -1;                             // 1 on success, -1 on failure.
 23f7862:	b30d      	cbz	r5, 23f78a8 <_Z11unlockValve6String+0x98>
 23f7864:	4620      	mov	r0, r4
 23f7866:	e021      	b.n	23f78ac <_Z11unlockValve6String+0x9c>
 23f7868:	4620      	mov	r0, r4
 23f786a:	4919      	ldr	r1, [pc, #100]	; (23f78d0 <_Z11unlockValve6String+0xc0>)
 23f786c:	f002 fefc 	bl	23fa668 <_ZNK6String6equalsEPKc>
  if (cmd == "temp" || cmd == "1")      flags = VALVE_LOCK_TEMP;   // Clear the temporary lock.
 23f7870:	2800      	cmp	r0, #0
 23f7872:	d1dd      	bne.n	23f7830 <_Z11unlockValve6String+0x20>
 23f7874:	4620      	mov	r0, r4
 23f7876:	4917      	ldr	r1, [pc, #92]	; (23f78d4 <_Z11unlockValve6String+0xc4>)
 23f7878:	f002 fef6 	bl	23fa668 <_ZNK6String6equalsEPKc>
  else if (cmd == "perm" || cmd == "2") flags = VALVE_LOCK_PERM;   // Clear the permanent lock.
 23f787c:	b108      	cbz	r0, 23f7882 <_Z11unlockValve6String+0x72>
 23f787e:	2602      	movs	r6, #2
 23f7880:	e7d7      	b.n	23f7832 <_Z11unlockValve6String+0x22>
 23f7882:	4620      	mov	r0, r4
 23f7884:	4914      	ldr	r1, [pc, #80]	; (23f78d8 <_Z11unlockValve6String+0xc8>)
 23f7886:	f002 feef 	bl	23fa668 <_ZNK6String6equalsEPKc>
 23f788a:	2800      	cmp	r0, #0
 23f788c:	d1f7      	bne.n	23f787e <_Z11unlockValve6String+0x6e>
 23f788e:	4620      	mov	r0, r4
 23f7890:	4912      	ldr	r1, [pc, #72]	; (23f78dc <_Z11unlockValve6String+0xcc>)
 23f7892:	f002 fee9 	bl	23fa668 <_ZNK6String6equalsEPKc>
  else if (cmd == "both" || cmd == "3") flags = VALVE_LOCK_BOTH;   // Clear both locks.
 23f7896:	b108      	cbz	r0, 23f789c <_Z11unlockValve6String+0x8c>
 23f7898:	2603      	movs	r6, #3
 23f789a:	e7ca      	b.n	23f7832 <_Z11unlockValve6String+0x22>
 23f789c:	4620      	mov	r0, r4
 23f789e:	4910      	ldr	r1, [pc, #64]	; (23f78e0 <_Z11unlockValve6String+0xd0>)
 23f78a0:	f002 fee2 	bl	23fa668 <_ZNK6String6equalsEPKc>
 23f78a4:	2800      	cmp	r0, #0
 23f78a6:	d1f7      	bne.n	23f7898 <_Z11unlockValve6String+0x88>
  return ok ? 1 : -1;                             // 1 on success, -1 on failure.
 23f78a8:	f04f 30ff 	mov.w	r0, #4294967295
}
 23f78ac:	b002      	add	sp, #8
 23f78ae:	bd70      	pop	{r4, r5, r6, pc}
 23f78b0:	023ff396 	.word	0x023ff396
 23f78b4:	023ff3a2 	.word	0x023ff3a2
 23f78b8:	10079180 	.word	0x10079180
 23f78bc:	100791c0 	.word	0x100791c0
 23f78c0:	023ff392 	.word	0x023ff392
 23f78c4:	023ff3b3 	.word	0x023ff3b3
 23f78c8:	1007aeb4 	.word	0x1007aeb4
 23f78cc:	023ff6e4 	.word	0x023ff6e4
 23f78d0:	023ff94a 	.word	0x023ff94a
 23f78d4:	023ff3a7 	.word	0x023ff3a7
 23f78d8:	023ff641 	.word	0x023ff641
 23f78dc:	023ff3ac 	.word	0x023ff3ac
 23f78e0:	023ff3b1 	.word	0x023ff3b1

023f78e4 <_Z8picReset6String>:
int picReset(String cmd) {
 23f78e4:	b508      	push	{r3, lr}
  restartSleepTimer("picReset");                  // Reset the awake window.
 23f78e6:	4806      	ldr	r0, [pc, #24]	; (23f7900 <_Z8picReset6String+0x1c>)
 23f78e8:	f7ff fd36 	bl	23f7358 <_Z17restartSleepTimerPKc>
  picLink.sysReset();                             // Send the reset command to the PIC.
 23f78ec:	4805      	ldr	r0, [pc, #20]	; (23f7904 <_Z8picReset6String+0x20>)
 23f78ee:	f001 fca0 	bl	23f9232 <_ZN7PicLink8sysResetEv>
  Log.info("PIC: SYS_RESET sent");                // Log that we sent it.
 23f78f2:	4905      	ldr	r1, [pc, #20]	; (23f7908 <_Z8picReset6String+0x24>)
 23f78f4:	4805      	ldr	r0, [pc, #20]	; (23f790c <_Z8picReset6String+0x28>)
 23f78f6:	f7ff f9cf 	bl	23f6c98 <_ZNK5spark6Logger4infoEPKcz>
}
 23f78fa:	2001      	movs	r0, #1
 23f78fc:	bd08      	pop	{r3, pc}
 23f78fe:	bf00      	nop
 23f7900:	023ff3da 	.word	0x023ff3da
 23f7904:	10079180 	.word	0x10079180
 23f7908:	023ff3e3 	.word	0x023ff3e3
 23f790c:	1007aeb4 	.word	0x1007aeb4

023f7910 <_Z7syncPic6String>:
int syncPic(String cmd) {
 23f7910:	b508      	push	{r3, lr}
  restartSleepTimer("syncPic");                   // Reset the awake window.
 23f7912:	4805      	ldr	r0, [pc, #20]	; (23f7928 <_Z7syncPic6String+0x18>)
 23f7914:	f7ff fd20 	bl	23f7358 <_Z17restartSleepTimerPKc>
  return pushPicParams() ? 1 : -1;                // Try to deliver the cached params; 1 if ACKed, else -1.
 23f7918:	f7ff fcce 	bl	23f72b8 <_Z13pushPicParamsv>
 23f791c:	2800      	cmp	r0, #0
}
 23f791e:	bf14      	ite	ne
 23f7920:	2001      	movne	r0, #1
 23f7922:	f04f 30ff 	moveq.w	r0, #4294967295
 23f7926:	bd08      	pop	{r3, pc}
 23f7928:	023ff3f7 	.word	0x023ff3f7

023f792c <_Z7setWiFi6String>:
int setWiFi(String cmd) {
 23f792c:	b5f0      	push	{r4, r5, r6, r7, lr}
 23f792e:	4604      	mov	r4, r0
 23f7930:	b09d      	sub	sp, #116	; 0x74
  restartSleepTimer("setWiFi");                   // Reset the awake window.
 23f7932:	482d      	ldr	r0, [pc, #180]	; (23f79e8 <_Z7setWiFi6String+0xbc>)
 23f7934:	f7ff fd10 	bl	23f7358 <_Z17restartSleepTimerPKc>
  cmd.trim(); int comma = cmd.indexOf(',');       // Trim and find the comma separating ssid/password.
 23f7938:	4620      	mov	r0, r4
 23f793a:	f002 fef0 	bl	23fa71e <_ZN6String4trimEv>
 23f793e:	212c      	movs	r1, #44	; 0x2c
 23f7940:	4620      	mov	r0, r4
 23f7942:	f002 feb1 	bl	23fa6a8 <_ZNK6String7indexOfEc>
  if (comma <= 0) return -1;                      // Must have a comma with text before it.
 23f7946:	1e05      	subs	r5, r0, #0
 23f7948:	dd4b      	ble.n	23f79e2 <_Z7setWiFi6String+0xb6>
  String ssid = cmd.substring(0, comma); String pass = cmd.substring(comma + 1);   // Split into ssid and password.
 23f794a:	462b      	mov	r3, r5
 23f794c:	2200      	movs	r2, #0
 23f794e:	4621      	mov	r1, r4
 23f7950:	a801      	add	r0, sp, #4
 23f7952:	f002 fead 	bl	23fa6b0 <_ZNK6String9substringEjj>
 23f7956:	4621      	mov	r1, r4
 23f7958:	1c6a      	adds	r2, r5, #1
 23f795a:	a805      	add	r0, sp, #20
 23f795c:	f002 feca 	bl	23fa6f4 <_ZNK6String9substringEj>
  ssid.trim(); pass.trim();                       // Trim each part.
 23f7960:	a801      	add	r0, sp, #4
 23f7962:	f002 fedc 	bl	23fa71e <_ZN6String4trimEv>
 23f7966:	a805      	add	r0, sp, #20
 23f7968:	f002 fed9 	bl	23fa71e <_ZN6String4trimEv>
  if (ssid.length() == 0 || !WiFi.setCredentials(ssid, pass)) return -1;   // Reject empty ssid or a failed save.
 23f796c:	9b03      	ldr	r3, [sp, #12]
 23f796e:	b953      	cbnz	r3, 23f7986 <_Z7setWiFi6String+0x5a>
 23f7970:	f04f 34ff 	mov.w	r4, #4294967295
  String ssid = cmd.substring(0, comma); String pass = cmd.substring(comma + 1);   // Split into ssid and password.
 23f7974:	a805      	add	r0, sp, #20
 23f7976:	f002 fdd5 	bl	23fa524 <_ZN6StringD1Ev>
 23f797a:	a801      	add	r0, sp, #4
 23f797c:	f002 fdd2 	bl	23fa524 <_ZN6StringD1Ev>
}
 23f7980:	4620      	mov	r0, r4
 23f7982:	b01d      	add	sp, #116	; 0x74
 23f7984:	bdf0      	pop	{r4, r5, r6, r7, pc}
    char operator [] (unsigned int index) const;
    char& operator [] (unsigned int index);
    void getBytes(unsigned char *buf, unsigned int bufsize, unsigned int index=0) const;
    void toCharArray(char *buf, unsigned int bufsize, unsigned int index=0) const
        {getBytes((unsigned char *)buf, bufsize, index);}
    const char * c_str() const { return buffer; }
 23f7986:	9f01      	ldr	r7, [sp, #4]
 23f7988:	9d05      	ldr	r5, [sp, #20]
    bool setCredentials(const char *ssid, const char *password) {
        return setCredentials(ssid, password, WPA2);
    }

    bool setCredentials(const char *ssid, const char *password, unsigned long security, unsigned long cipher=WLAN_CIPHER_NOT_SET) {
        return setCredentials(ssid, ssid ? strlen(ssid) : 0, password, password ? strlen(password) : 0, security, cipher);
 23f798a:	b337      	cbz	r7, 23f79da <_Z7setWiFi6String+0xae>
 23f798c:	4638      	mov	r0, r7
 23f798e:	f7fe ff85 	bl	23f689c <strlen>
 23f7992:	4606      	mov	r6, r0
 23f7994:	b31d      	cbz	r5, 23f79de <_Z7setWiFi6String+0xb2>
 23f7996:	4628      	mov	r0, r5
 23f7998:	f7fe ff80 	bl	23f689c <strlen>
 23f799c:	4604      	mov	r4, r0

    bool setCredentials(const char *ssid, unsigned int ssidLen, const char *password,
            unsigned int passwordLen, unsigned long security=WLAN_SEC_UNSEC, unsigned long cipher=WLAN_CIPHER_NOT_SET) {

        WLanCredentials creds;
        memset(&creds, 0, sizeof(creds));
 23f799e:	2238      	movs	r2, #56	; 0x38
 23f79a0:	2100      	movs	r1, #0
 23f79a2:	eb0d 0002 	add.w	r0, sp, r2
 23f79a6:	f005 fb14 	bl	23fcfd2 <memset>
        creds.size = sizeof(creds);
 23f79aa:	234c      	movs	r3, #76	; 0x4c
        creds.ssid = ssid;
 23f79ac:	e9cd 3709 	strd	r3, r7, [sp, #36]	; 0x24
        creds.ssid_len = ssidLen;
        creds.password = password;
        creds.password_len = passwordLen;
        creds.security = WLanSecurityType(security);
 23f79b0:	2303      	movs	r3, #3
 23f79b2:	f88d 3038 	strb.w	r3, [sp, #56]	; 0x38
        creds.cipher = WLanSecurityCipher(cipher);
        return (network_set_credentials(*this, 0, &creds, NULL) == 0);
 23f79b6:	2300      	movs	r3, #0
        creds.password_len = passwordLen;
 23f79b8:	940d      	str	r4, [sp, #52]	; 0x34
    virtual bool listening();
    virtual NetworkClass& prefer(bool prefer = true);
    virtual bool isPreferred();

    operator network_interface_t() const {
        return iface_;
 23f79ba:	4c0c      	ldr	r4, [pc, #48]	; (23f79ec <_Z7setWiFi6String+0xc0>)
        return (network_set_credentials(*this, 0, &creds, NULL) == 0);
 23f79bc:	4619      	mov	r1, r3
 23f79be:	6860      	ldr	r0, [r4, #4]
 23f79c0:	aa09      	add	r2, sp, #36	; 0x24
        creds.password = password;
 23f79c2:	e9cd 650b 	strd	r6, r5, [sp, #44]	; 0x2c
        return (network_set_credentials(*this, 0, &creds, NULL) == 0);
 23f79c6:	f002 fab5 	bl	23f9f34 <network_set_credentials>
  if (ssid.length() == 0 || !WiFi.setCredentials(ssid, pass)) return -1;   // Reject empty ssid or a failed save.
 23f79ca:	4601      	mov	r1, r0
 23f79cc:	2800      	cmp	r0, #0
 23f79ce:	d1cf      	bne.n	23f7970 <_Z7setWiFi6String+0x44>
  WiFi.connect(); return 1;                       // Connect with the new credentials; success.
 23f79d0:	4620      	mov	r0, r4
 23f79d2:	f7ff f90f 	bl	23f6bf4 <_ZN5spark9WiFiClass7connectEj>
 23f79d6:	2401      	movs	r4, #1
 23f79d8:	e7cc      	b.n	23f7974 <_Z7setWiFi6String+0x48>
        return setCredentials(ssid, ssid ? strlen(ssid) : 0, password, password ? strlen(password) : 0, security, cipher);
 23f79da:	463e      	mov	r6, r7
 23f79dc:	e7da      	b.n	23f7994 <_Z7setWiFi6String+0x68>
 23f79de:	462c      	mov	r4, r5
 23f79e0:	e7dd      	b.n	23f799e <_Z7setWiFi6String+0x72>
  if (comma <= 0) return -1;                      // Must have a comma with text before it.
 23f79e2:	f04f 34ff 	mov.w	r4, #4294967295
 23f79e6:	e7cb      	b.n	23f7980 <_Z7setWiFi6String+0x54>
 23f79e8:	023ff3ff 	.word	0x023ff3ff
 23f79ec:	1007af6c 	.word	0x1007af6c

023f79f0 <_Z9clearWiFi6String>:
int clearWiFi(String cmd) { restartSleepTimer("clearWiFi"); (void)cmd; WiFi.clearCredentials(); WiFi.disconnect(); return 1; }
 23f79f0:	b510      	push	{r4, lr}
 23f79f2:	4808      	ldr	r0, [pc, #32]	; (23f7a14 <_Z9clearWiFi6String+0x24>)
 23f79f4:	f7ff fcb0 	bl	23f7358 <_Z17restartSleepTimerPKc>
    bool hasCredentials(void) {
        return network_has_credentials(*this, 0, NULL);
    }

    bool clearCredentials(void) {
        return network_clear_credentials(*this, 0, NULL, NULL);
 23f79f8:	2300      	movs	r3, #0
 23f79fa:	4c07      	ldr	r4, [pc, #28]	; (23f7a18 <_Z9clearWiFi6String+0x28>)
 23f79fc:	461a      	mov	r2, r3
 23f79fe:	4619      	mov	r1, r3
 23f7a00:	6860      	ldr	r0, [r4, #4]
 23f7a02:	f002 faa5 	bl	23f9f50 <network_clear_credentials>
        network_disconnect(*this, NETWORK_DISCONNECT_REASON_USER, NULL);
 23f7a06:	6860      	ldr	r0, [r4, #4]
 23f7a08:	2200      	movs	r2, #0
 23f7a0a:	2102      	movs	r1, #2
 23f7a0c:	f002 fa3e 	bl	23f9e8c <network_disconnect>
 23f7a10:	2001      	movs	r0, #1
 23f7a12:	bd10      	pop	{r4, pc}
 23f7a14:	023ff407 	.word	0x023ff407
 23f7a18:	1007af6c 	.word	0x1007af6c

023f7a1c <_Z10setFlowCal6String>:
int setFlowCal(String cmd) {
 23f7a1c:	b538      	push	{r3, r4, r5, lr}
 23f7a1e:	4604      	mov	r4, r0
  restartSleepTimer("setFlowCal");                // Reset the awake window.
 23f7a20:	481c      	ldr	r0, [pc, #112]	; (23f7a94 <_Z10setFlowCal6String+0x78>)
 23f7a22:	f7ff fc99 	bl	23f7358 <_Z17restartSleepTimerPKc>
  cmd.trim();                                     // Trim surrounding spaces.
 23f7a26:	4620      	mov	r0, r4
 23f7a28:	f002 fe79 	bl	23fa71e <_ZN6String4trimEv>
  float v = atof(cmd.c_str());                    // Convert the text to a floating-point number.
 23f7a2c:	6820      	ldr	r0, [r4, #0]
 23f7a2e:	f005 fa8d 	bl	23fcf4c <atof>
 23f7a32:	ec51 0b10 	vmov	r0, r1, d0
 23f7a36:	f7fe fcd5 	bl	23f63e4 <__aeabi_d2f>
 23f7a3a:	ee07 0a90 	vmov	s15, r0
  if (v != v || v < FLOW_CAL_MIN || v > FLOW_CAL_MAX) return -1;   // Reject NaN (v!=v) or out-of-range values.
 23f7a3e:	eef4 7a67 	vcmp.f32	s15, s15
 23f7a42:	eef1 fa10 	vmrs	APSR_nzcv, fpscr
 23f7a46:	d121      	bne.n	23f7a8c <_Z10setFlowCal6String+0x70>
 23f7a48:	eeb6 7a00 	vmov.f32	s14, #96	; 0x3f000000  0.5
 23f7a4c:	eef4 7ac7 	vcmpe.f32	s15, s14
 23f7a50:	eef1 fa10 	vmrs	APSR_nzcv, fpscr
 23f7a54:	d41a      	bmi.n	23f7a8c <_Z10setFlowCal6String+0x70>
 23f7a56:	eeb0 7a00 	vmov.f32	s14, #0	; 0x40000000  2.0
 23f7a5a:	eef4 7ac7 	vcmpe.f32	s15, s14
 23f7a5e:	eef1 fa10 	vmrs	APSR_nzcv, fpscr
 23f7a62:	dc13      	bgt.n	23f7a8c <_Z10setFlowCal6String+0x70>
  flowCalScale = v; saveFlowCal(); syncBackupRam(); triggerPublish = true;   // Accept it, save it, flush RAM, publish.
 23f7a64:	2401      	movs	r4, #1
 23f7a66:	4d0c      	ldr	r5, [pc, #48]	; (23f7a98 <_Z10setFlowCal6String+0x7c>)
 23f7a68:	6028      	str	r0, [r5, #0]
 23f7a6a:	f7ff fa15 	bl	23f6e98 <_Z11saveFlowCalv>
 23f7a6e:	f7ff f93d 	bl	23f6cec <_Z13syncBackupRamv>
 23f7a72:	4b0a      	ldr	r3, [pc, #40]	; (23f7a9c <_Z10setFlowCal6String+0x80>)
  Log.info("FLOW_CAL set %.4f", flowCalScale);    // Log the new value.
 23f7a74:	6828      	ldr	r0, [r5, #0]
  flowCalScale = v; saveFlowCal(); syncBackupRam(); triggerPublish = true;   // Accept it, save it, flush RAM, publish.
 23f7a76:	701c      	strb	r4, [r3, #0]
  Log.info("FLOW_CAL set %.4f", flowCalScale);    // Log the new value.
 23f7a78:	f7fe f9c2 	bl	23f5e00 <__aeabi_f2d>
 23f7a7c:	4602      	mov	r2, r0
 23f7a7e:	460b      	mov	r3, r1
 23f7a80:	4807      	ldr	r0, [pc, #28]	; (23f7aa0 <_Z10setFlowCal6String+0x84>)
 23f7a82:	4908      	ldr	r1, [pc, #32]	; (23f7aa4 <_Z10setFlowCal6String+0x88>)
 23f7a84:	f7ff f908 	bl	23f6c98 <_ZNK5spark6Logger4infoEPKcz>
  return 1;                                        // Success.
 23f7a88:	4620      	mov	r0, r4
}
 23f7a8a:	bd38      	pop	{r3, r4, r5, pc}
  if (v != v || v < FLOW_CAL_MIN || v > FLOW_CAL_MAX) return -1;   // Reject NaN (v!=v) or out-of-range values.
 23f7a8c:	f04f 30ff 	mov.w	r0, #4294967295
 23f7a90:	e7fb      	b.n	23f7a8a <_Z10setFlowCal6String+0x6e>
 23f7a92:	bf00      	nop
 23f7a94:	023ff411 	.word	0x023ff411
 23f7a98:	1007b400 	.word	0x1007b400
 23f7a9c:	100791c0 	.word	0x100791c0
 23f7aa0:	1007aeb4 	.word	0x1007aeb4
 23f7aa4:	023ff41c 	.word	0x023ff41c

023f7aa8 <_Z9setConfig6String>:
int setConfig(String cmd) {
 23f7aa8:	e92d 43f0 	stmdb	sp!, {r4, r5, r6, r7, r8, r9, lr}
 23f7aac:	ed2d 8b02 	vpush	{d8}
 23f7ab0:	4604      	mov	r4, r0
 23f7ab2:	b08b      	sub	sp, #44	; 0x2c
  restartSleepTimer("setConfig");                 // Reset the awake window.
 23f7ab4:	485d      	ldr	r0, [pc, #372]	; (23f7c2c <_Z9setConfig6String+0x184>)
 23f7ab6:	f7ff fc4f 	bl	23f7358 <_Z17restartSleepTimerPKc>
  cmd.trim();                                     // Trim spaces.
 23f7aba:	4620      	mov	r0, r4
 23f7abc:	f002 fe2f 	bl	23fa71e <_ZN6String4trimEv>
  int c1 = cmd.indexOf(','), c2 = cmd.indexOf(',', c1 + 1), c3 = cmd.indexOf(',', c2 + 1);   // Find the 3 commas.
 23f7ac0:	212c      	movs	r1, #44	; 0x2c
 23f7ac2:	4620      	mov	r0, r4
 23f7ac4:	f002 fdf0 	bl	23fa6a8 <_ZNK6String7indexOfEc>
 23f7ac8:	f100 0901 	add.w	r9, r0, #1
 23f7acc:	4607      	mov	r7, r0
 23f7ace:	464a      	mov	r2, r9
 23f7ad0:	212c      	movs	r1, #44	; 0x2c
 23f7ad2:	4620      	mov	r0, r4
 23f7ad4:	f002 fdda 	bl	23fa68c <_ZNK6String7indexOfEcj>
 23f7ad8:	f100 0801 	add.w	r8, r0, #1
 23f7adc:	4605      	mov	r5, r0
 23f7ade:	4642      	mov	r2, r8
 23f7ae0:	212c      	movs	r1, #44	; 0x2c
 23f7ae2:	4620      	mov	r0, r4
 23f7ae4:	f002 fdd2 	bl	23fa68c <_ZNK6String7indexOfEcj>
  if (c1 < 0 || c2 < 0 || c3 < 0) { Log.warn("setConfig: need 4 CSV values"); return -1; }   // Need exactly 4 values.
 23f7ae8:	2f00      	cmp	r7, #0
  int c1 = cmd.indexOf(','), c2 = cmd.indexOf(',', c1 + 1), c3 = cmd.indexOf(',', c2 + 1);   // Find the 3 commas.
 23f7aea:	4606      	mov	r6, r0
  if (c1 < 0 || c2 < 0 || c3 < 0) { Log.warn("setConfig: need 4 CSV values"); return -1; }   // Need exactly 4 values.
 23f7aec:	db03      	blt.n	23f7af6 <_Z9setConfig6String+0x4e>
 23f7aee:	2d00      	cmp	r5, #0
 23f7af0:	db01      	blt.n	23f7af6 <_Z9setConfig6String+0x4e>
 23f7af2:	2800      	cmp	r0, #0
 23f7af4:	da0a      	bge.n	23f7b0c <_Z9setConfig6String+0x64>
 23f7af6:	484e      	ldr	r0, [pc, #312]	; (23f7c30 <_Z9setConfig6String+0x188>)
 23f7af8:	494e      	ldr	r1, [pc, #312]	; (23f7c34 <_Z9setConfig6String+0x18c>)
 23f7afa:	f7ff f8db 	bl	23f6cb4 <_ZNK5spark6Logger4warnEPKcz>
 23f7afe:	f04f 30ff 	mov.w	r0, #4294967295
}
 23f7b02:	b00b      	add	sp, #44	; 0x2c
 23f7b04:	ecbd 8b02 	vpop	{d8}
 23f7b08:	e8bd 83f0 	ldmia.w	sp!, {r4, r5, r6, r7, r8, r9, pc}
  float   leak = atof(cmd.substring(0, c1).c_str());        // Value 1: leak threshold (text before comma 1) -> float.
 23f7b0c:	463b      	mov	r3, r7
 23f7b0e:	2200      	movs	r2, #0
 23f7b10:	4621      	mov	r1, r4
 23f7b12:	a806      	add	r0, sp, #24
 23f7b14:	f002 fdcc 	bl	23fa6b0 <_ZNK6String9substringEjj>
 23f7b18:	9806      	ldr	r0, [sp, #24]
 23f7b1a:	f005 fa17 	bl	23fcf4c <atof>
 23f7b1e:	ec51 0b10 	vmov	r0, r1, d0
 23f7b22:	f7fe fc5f 	bl	23f63e4 <__aeabi_d2f>
 23f7b26:	ee08 0a90 	vmov	s17, r0
 23f7b2a:	a806      	add	r0, sp, #24
 23f7b2c:	f002 fcfa 	bl	23fa524 <_ZN6StringD1Ev>
  float   vol  = atof(cmd.substring(c1 + 1, c2).c_str());   // Value 2: shutoff volume.
 23f7b30:	462b      	mov	r3, r5
 23f7b32:	464a      	mov	r2, r9
 23f7b34:	4621      	mov	r1, r4
 23f7b36:	a806      	add	r0, sp, #24
 23f7b38:	f002 fdba 	bl	23fa6b0 <_ZNK6String9substringEjj>
 23f7b3c:	9806      	ldr	r0, [sp, #24]
 23f7b3e:	f005 fa05 	bl	23fcf4c <atof>
 23f7b42:	ec51 0b10 	vmov	r0, r1, d0
 23f7b46:	f7fe fc4d 	bl	23f63e4 <__aeabi_d2f>
 23f7b4a:	ee08 0a10 	vmov	s16, r0
 23f7b4e:	a806      	add	r0, sp, #24
 23f7b50:	f002 fce8 	bl	23fa524 <_ZN6StringD1Ev>
  int     aut  = atoi(cmd.substring(c2 + 1, c3).c_str());   // Value 3: auto-shutoff (0/1) -> integer.
 23f7b54:	4633      	mov	r3, r6
 23f7b56:	4642      	mov	r2, r8
 23f7b58:	4621      	mov	r1, r4
 23f7b5a:	a806      	add	r0, sp, #24
 23f7b5c:	f002 fda8 	bl	23fa6b0 <_ZNK6String9substringEjj>
 23f7b60:	9806      	ldr	r0, [sp, #24]
 23f7b62:	f005 f9f6 	bl	23fcf52 <atoi>
 23f7b66:	4605      	mov	r5, r0
 23f7b68:	a806      	add	r0, sp, #24
 23f7b6a:	f002 fcdb 	bl	23fa524 <_ZN6StringD1Ev>
  int     alt  = atoi(cmd.substring(c3 + 1).c_str());       // Value 4: alert mode (0/1/2).
 23f7b6e:	1c72      	adds	r2, r6, #1
 23f7b70:	4621      	mov	r1, r4
 23f7b72:	a806      	add	r0, sp, #24
 23f7b74:	f002 fdbe 	bl	23fa6f4 <_ZNK6String9substringEj>
 23f7b78:	9806      	ldr	r0, [sp, #24]
 23f7b7a:	f005 f9ea 	bl	23fcf52 <atoi>
 23f7b7e:	4606      	mov	r6, r0
 23f7b80:	a806      	add	r0, sp, #24
 23f7b82:	f002 fccf 	bl	23fa524 <_ZN6StringD1Ev>
  if (leak < CFG_LEAK_GPM_MIN || leak > CFG_LEAK_GPM_MAX) return -2;   // Range-check the leak threshold.
 23f7b86:	eddf 7a2c 	vldr	s15, [pc, #176]	; 23f7c38 <_Z9setConfig6String+0x190>
 23f7b8a:	eef4 8ae7 	vcmpe.f32	s17, s15
 23f7b8e:	eef1 fa10 	vmrs	APSR_nzcv, fpscr
 23f7b92:	d43e      	bmi.n	23f7c12 <_Z9setConfig6String+0x16a>
 23f7b94:	eddf 7a29 	vldr	s15, [pc, #164]	; 23f7c3c <_Z9setConfig6String+0x194>
 23f7b98:	eef4 8ae7 	vcmpe.f32	s17, s15
 23f7b9c:	eef1 fa10 	vmrs	APSR_nzcv, fpscr
 23f7ba0:	dc37      	bgt.n	23f7c12 <_Z9setConfig6String+0x16a>
  if (vol  < CFG_SHUTOFF_MIN  || vol  > CFG_SHUTOFF_MAX)  return -3;   // Range-check the volume.
 23f7ba2:	eef7 7a00 	vmov.f32	s15, #112	; 0x3f800000  1.0
 23f7ba6:	eeb4 8ae7 	vcmpe.f32	s16, s15
 23f7baa:	eef1 fa10 	vmrs	APSR_nzcv, fpscr
 23f7bae:	d433      	bmi.n	23f7c18 <_Z9setConfig6String+0x170>
 23f7bb0:	eddf 7a23 	vldr	s15, [pc, #140]	; 23f7c40 <_Z9setConfig6String+0x198>
 23f7bb4:	eeb4 8ae7 	vcmpe.f32	s16, s15
 23f7bb8:	eef1 fa10 	vmrs	APSR_nzcv, fpscr
 23f7bbc:	dc2c      	bgt.n	23f7c18 <_Z9setConfig6String+0x170>
  if (aut < 0 || aut > 1)  return -4;             // auto-shutoff must be 0 or 1.
 23f7bbe:	2d01      	cmp	r5, #1
 23f7bc0:	d82d      	bhi.n	23f7c1e <_Z9setConfig6String+0x176>
  if (alt < 0 || alt > 2)  return -5;             // alert mode must be 0, 1, or 2.
 23f7bc2:	2e02      	cmp	r6, #2
 23f7bc4:	d82e      	bhi.n	23f7c24 <_Z9setConfig6String+0x17c>
  triggerPublish = true;                          // Publish the updated config.
 23f7bc6:	2401      	movs	r4, #1
  appConfig.leakThreshGpm = leak;                 // Store the accepted leak threshold.
 23f7bc8:	4b1e      	ldr	r3, [pc, #120]	; (23f7c44 <_Z9setConfig6String+0x19c>)
 23f7bca:	edc3 8a01 	vstr	s17, [r3, #4]
  appConfig.shutoffVolGal = vol;                  // Store the volume threshold.
 23f7bce:	ed83 8a02 	vstr	s16, [r3, #8]
  appConfig.autoShutoff   = (uint8_t)aut;         // Store auto-shutoff.
 23f7bd2:	731d      	strb	r5, [r3, #12]
  appConfig.alertMode     = (uint8_t)alt;         // Store alert mode.
 23f7bd4:	735e      	strb	r6, [r3, #13]
  saveConfig(); syncBackupRam();                  // Save to EEPROM and flush retained RAM.
 23f7bd6:	f7ff f9b5 	bl	23f6f44 <_Z10saveConfigv>
 23f7bda:	f7ff f887 	bl	23f6cec <_Z13syncBackupRamv>
  triggerPublish = true;                          // Publish the updated config.
 23f7bde:	4b1a      	ldr	r3, [pc, #104]	; (23f7c48 <_Z9setConfig6String+0x1a0>)
  Log.info("CFG set leak=%.2f vol=%.1f auto=%d alert=%d", leak, vol, aut, alt);   // Log the new config.
 23f7be0:	ee18 0a90 	vmov	r0, s17
  triggerPublish = true;                          // Publish the updated config.
 23f7be4:	701c      	strb	r4, [r3, #0]
  Log.info("CFG set leak=%.2f vol=%.1f auto=%d alert=%d", leak, vol, aut, alt);   // Log the new config.
 23f7be6:	f7fe f90b 	bl	23f5e00 <__aeabi_f2d>
 23f7bea:	4602      	mov	r2, r0
 23f7bec:	460b      	mov	r3, r1
 23f7bee:	ee18 0a10 	vmov	r0, s16
 23f7bf2:	e9cd 2304 	strd	r2, r3, [sp, #16]
 23f7bf6:	e9cd 5602 	strd	r5, r6, [sp, #8]
 23f7bfa:	f7fe f901 	bl	23f5e00 <__aeabi_f2d>
 23f7bfe:	e9dd 2304 	ldrd	r2, r3, [sp, #16]
 23f7c02:	e9cd 0100 	strd	r0, r1, [sp]
 23f7c06:	480a      	ldr	r0, [pc, #40]	; (23f7c30 <_Z9setConfig6String+0x188>)
 23f7c08:	4910      	ldr	r1, [pc, #64]	; (23f7c4c <_Z9setConfig6String+0x1a4>)
 23f7c0a:	f7ff f845 	bl	23f6c98 <_ZNK5spark6Logger4infoEPKcz>
  return 1;                                        // Success.
 23f7c0e:	4620      	mov	r0, r4
 23f7c10:	e777      	b.n	23f7b02 <_Z9setConfig6String+0x5a>
  if (leak < CFG_LEAK_GPM_MIN || leak > CFG_LEAK_GPM_MAX) return -2;   // Range-check the leak threshold.
 23f7c12:	f06f 0001 	mvn.w	r0, #1
 23f7c16:	e774      	b.n	23f7b02 <_Z9setConfig6String+0x5a>
  if (vol  < CFG_SHUTOFF_MIN  || vol  > CFG_SHUTOFF_MAX)  return -3;   // Range-check the volume.
 23f7c18:	f06f 0002 	mvn.w	r0, #2
 23f7c1c:	e771      	b.n	23f7b02 <_Z9setConfig6String+0x5a>
  if (aut < 0 || aut > 1)  return -4;             // auto-shutoff must be 0 or 1.
 23f7c1e:	f06f 0003 	mvn.w	r0, #3
 23f7c22:	e76e      	b.n	23f7b02 <_Z9setConfig6String+0x5a>
  if (alt < 0 || alt > 2)  return -5;             // alert mode must be 0, 1, or 2.
 23f7c24:	f06f 0004 	mvn.w	r0, #4
 23f7c28:	e76b      	b.n	23f7b02 <_Z9setConfig6String+0x5a>
 23f7c2a:	bf00      	nop
 23f7c2c:	023ff42e 	.word	0x023ff42e
 23f7c30:	1007aeb4 	.word	0x1007aeb4
 23f7c34:	023ff438 	.word	0x023ff438
 23f7c38:	3dcccccd 	.word	0x3dcccccd
 23f7c3c:	43480000 	.word	0x43480000
 23f7c40:	447a0000 	.word	0x447a0000
 23f7c44:	1007b400 	.word	0x1007b400
 23f7c48:	100791c0 	.word	0x100791c0
 23f7c4c:	023ff455 	.word	0x023ff455

023f7c50 <_Z13setLeakParams6String>:
int setLeakParams(String cmd) {
 23f7c50:	e92d 43f0 	stmdb	sp!, {r4, r5, r6, r7, r8, r9, lr}
 23f7c54:	4604      	mov	r4, r0
 23f7c56:	b087      	sub	sp, #28
  restartSleepTimer("setLeakParams");             // Reset the awake window.
 23f7c58:	484d      	ldr	r0, [pc, #308]	; (23f7d90 <_Z13setLeakParams6String+0x140>)
 23f7c5a:	f7ff fb7d 	bl	23f7358 <_Z17restartSleepTimerPKc>
  cmd.trim();                                     // Trim spaces.
 23f7c5e:	4620      	mov	r0, r4
 23f7c60:	f002 fd5d 	bl	23fa71e <_ZN6String4trimEv>
  int c1 = cmd.indexOf(','), c2 = cmd.indexOf(',', c1 + 1), c3 = cmd.indexOf(',', c2 + 1);   // Find the 3 commas.
 23f7c64:	212c      	movs	r1, #44	; 0x2c
 23f7c66:	4620      	mov	r0, r4
 23f7c68:	f002 fd1e 	bl	23fa6a8 <_ZNK6String7indexOfEc>
 23f7c6c:	f100 0901 	add.w	r9, r0, #1
 23f7c70:	4605      	mov	r5, r0
 23f7c72:	464a      	mov	r2, r9
 23f7c74:	212c      	movs	r1, #44	; 0x2c
 23f7c76:	4620      	mov	r0, r4
 23f7c78:	f002 fd08 	bl	23fa68c <_ZNK6String7indexOfEcj>
 23f7c7c:	1c47      	adds	r7, r0, #1
 23f7c7e:	4606      	mov	r6, r0
 23f7c80:	463a      	mov	r2, r7
 23f7c82:	212c      	movs	r1, #44	; 0x2c
 23f7c84:	4620      	mov	r0, r4
 23f7c86:	f002 fd01 	bl	23fa68c <_ZNK6String7indexOfEcj>
  if (c1 < 0 || c2 < 0 || c3 < 0) { Log.warn("setLeakParams: need 4 CSV values"); return -1; }   // Need 4 values.
 23f7c8a:	2d00      	cmp	r5, #0
  int c1 = cmd.indexOf(','), c2 = cmd.indexOf(',', c1 + 1), c3 = cmd.indexOf(',', c2 + 1);   // Find the 3 commas.
 23f7c8c:	4680      	mov	r8, r0
  if (c1 < 0 || c2 < 0 || c3 < 0) { Log.warn("setLeakParams: need 4 CSV values"); return -1; }   // Need 4 values.
 23f7c8e:	db03      	blt.n	23f7c98 <_Z13setLeakParams6String+0x48>
 23f7c90:	2e00      	cmp	r6, #0
 23f7c92:	db01      	blt.n	23f7c98 <_Z13setLeakParams6String+0x48>
 23f7c94:	2800      	cmp	r0, #0
 23f7c96:	da08      	bge.n	23f7caa <_Z13setLeakParams6String+0x5a>
 23f7c98:	483e      	ldr	r0, [pc, #248]	; (23f7d94 <_Z13setLeakParams6String+0x144>)
 23f7c9a:	493f      	ldr	r1, [pc, #252]	; (23f7d98 <_Z13setLeakParams6String+0x148>)
 23f7c9c:	f7ff f80a 	bl	23f6cb4 <_ZNK5spark6Logger4warnEPKcz>
 23f7ca0:	f04f 30ff 	mov.w	r0, #4294967295
}
 23f7ca4:	b007      	add	sp, #28
 23f7ca6:	e8bd 83f0 	ldmia.w	sp!, {r4, r5, r6, r7, r8, r9, pc}
  long l1c = atol(cmd.substring(0, c1).c_str());        // Value 1: leak1 counts (text -> long integer).
 23f7caa:	462b      	mov	r3, r5
 23f7cac:	2200      	movs	r2, #0
 23f7cae:	4621      	mov	r1, r4
 23f7cb0:	a802      	add	r0, sp, #8
 23f7cb2:	f002 fcfd 	bl	23fa6b0 <_ZNK6String9substringEjj>
 23f7cb6:	9802      	ldr	r0, [sp, #8]
 23f7cb8:	f005 f94f 	bl	23fcf5a <atol>
 23f7cbc:	4605      	mov	r5, r0
 23f7cbe:	a802      	add	r0, sp, #8
 23f7cc0:	f002 fc30 	bl	23fa524 <_ZN6StringD1Ev>
  long l1w = atol(cmd.substring(c1 + 1, c2).c_str());   // Value 2: leak1 window seconds.
 23f7cc4:	4633      	mov	r3, r6
 23f7cc6:	464a      	mov	r2, r9
 23f7cc8:	4621      	mov	r1, r4
 23f7cca:	a802      	add	r0, sp, #8
 23f7ccc:	f002 fcf0 	bl	23fa6b0 <_ZNK6String9substringEjj>
 23f7cd0:	9802      	ldr	r0, [sp, #8]
 23f7cd2:	f005 f942 	bl	23fcf5a <atol>
 23f7cd6:	4606      	mov	r6, r0
 23f7cd8:	a802      	add	r0, sp, #8
 23f7cda:	f002 fc23 	bl	23fa524 <_ZN6StringD1Ev>
  long l2c = atol(cmd.substring(c2 + 1, c3).c_str());   // Value 3: leak2 counts.
 23f7cde:	4643      	mov	r3, r8
 23f7ce0:	463a      	mov	r2, r7
 23f7ce2:	4621      	mov	r1, r4
 23f7ce4:	a802      	add	r0, sp, #8
 23f7ce6:	f002 fce3 	bl	23fa6b0 <_ZNK6String9substringEjj>
 23f7cea:	9802      	ldr	r0, [sp, #8]
 23f7cec:	f005 f935 	bl	23fcf5a <atol>
 23f7cf0:	4607      	mov	r7, r0
 23f7cf2:	a802      	add	r0, sp, #8
 23f7cf4:	f002 fc16 	bl	23fa524 <_ZN6StringD1Ev>
  long l2w = atol(cmd.substring(c3 + 1).c_str());       // Value 4: leak2 window seconds.
 23f7cf8:	f108 0201 	add.w	r2, r8, #1
 23f7cfc:	4621      	mov	r1, r4
 23f7cfe:	a802      	add	r0, sp, #8
 23f7d00:	f002 fcf8 	bl	23fa6f4 <_ZNK6String9substringEj>
 23f7d04:	9802      	ldr	r0, [sp, #8]
 23f7d06:	f005 f928 	bl	23fcf5a <atol>
 23f7d0a:	4680      	mov	r8, r0
 23f7d0c:	a802      	add	r0, sp, #8
 23f7d0e:	f002 fc09 	bl	23fa524 <_ZN6StringD1Ev>
  if (l1c < PIC_COUNTS_MIN || l1c > PIC_COUNTS_MAX) return -2;   // Range-check leak1 counts.
 23f7d12:	f64f 53e7 	movw	r3, #64999	; 0xfde7
 23f7d16:	1e6a      	subs	r2, r5, #1
 23f7d18:	429a      	cmp	r2, r3
 23f7d1a:	d82d      	bhi.n	23f7d78 <_Z13setLeakParams6String+0x128>
  if (l1w < PIC_WINDOW_MIN || l1w > PIC_WINDOW_MAX) return -3;   // Range-check leak1 window.
 23f7d1c:	1e72      	subs	r2, r6, #1
 23f7d1e:	429a      	cmp	r2, r3
 23f7d20:	d82d      	bhi.n	23f7d7e <_Z13setLeakParams6String+0x12e>
  if (l2c < PIC_COUNTS_MIN || l2c > PIC_COUNTS_MAX) return -4;   // Range-check leak2 counts.
 23f7d22:	1e7a      	subs	r2, r7, #1
 23f7d24:	429a      	cmp	r2, r3
 23f7d26:	d82d      	bhi.n	23f7d84 <_Z13setLeakParams6String+0x134>
  if (l2w < PIC_WINDOW_MIN || l2w > PIC_WINDOW_MAX) return -5;   // Range-check leak2 window.
 23f7d28:	f108 32ff 	add.w	r2, r8, #4294967295
 23f7d2c:	429a      	cmp	r2, r3
 23f7d2e:	d82c      	bhi.n	23f7d8a <_Z13setLeakParams6String+0x13a>
  picParams.leak1_counts   = (uint16_t)l1c;       // Apply the new leak1 counts.
 23f7d30:	4c1a      	ldr	r4, [pc, #104]	; (23f7d9c <_Z13setLeakParams6String+0x14c>)
  if (picLink.getParams(live)) picParams = live;  // If the PIC responds, start from its live values.
 23f7d32:	a902      	add	r1, sp, #8
 23f7d34:	481a      	ldr	r0, [pc, #104]	; (23f7da0 <_Z13setLeakParams6String+0x150>)
 23f7d36:	f001 f9c7 	bl	23f90c8 <_ZN7PicLink9getParamsER9PicParams>
  picParams.leak1_counts   = (uint16_t)l1c;       // Apply the new leak1 counts.
 23f7d3a:	8225      	strh	r5, [r4, #16]
  picParams.leak1_window_s = (uint16_t)l1w;       // Apply the new leak1 window.
 23f7d3c:	8266      	strh	r6, [r4, #18]
  picParams.leak2_counts   = (uint16_t)l2c;       // Apply the new leak2 counts.
 23f7d3e:	82a7      	strh	r7, [r4, #20]
  picParams.leak2_window_s = (uint16_t)l2w;       // Apply the new leak2 window.
 23f7d40:	f8a4 8016 	strh.w	r8, [r4, #22]
  savePicParams(); syncBackupRam();               // Save the updated params to EEPROM and flush RAM.
 23f7d44:	f7ff f956 	bl	23f6ff4 <_Z13savePicParamsv>
 23f7d48:	f7fe ffd0 	bl	23f6cec <_Z13syncBackupRamv>
  picParamsDirty = true;                          // Mark that the PIC needs this new write.
 23f7d4c:	2301      	movs	r3, #1
  triggerPublish = true;                          // Request a publish so the dashboard sees the change.
 23f7d4e:	4a15      	ldr	r2, [pc, #84]	; (23f7da4 <_Z13setLeakParams6String+0x154>)
  Log.info("PICP set l1=%ld/%lds l2=%ld/%lds", l1c, l1w, l2c, l2w);   // Log the new params.
 23f7d50:	4915      	ldr	r1, [pc, #84]	; (23f7da8 <_Z13setLeakParams6String+0x158>)
  triggerPublish = true;                          // Request a publish so the dashboard sees the change.
 23f7d52:	7013      	strb	r3, [r2, #0]
  picParamsDirty = true;                          // Mark that the PIC needs this new write.
 23f7d54:	f884 3084 	strb.w	r3, [r4, #132]	; 0x84
  Log.info("PICP set l1=%ld/%lds l2=%ld/%lds", l1c, l1w, l2c, l2w);   // Log the new params.
 23f7d58:	462a      	mov	r2, r5
 23f7d5a:	4633      	mov	r3, r6
 23f7d5c:	480d      	ldr	r0, [pc, #52]	; (23f7d94 <_Z13setLeakParams6String+0x144>)
 23f7d5e:	e9cd 7800 	strd	r7, r8, [sp]
 23f7d62:	f7fe ff99 	bl	23f6c98 <_ZNK5spark6Logger4infoEPKcz>
  pushPicParams();   // try now; if it fails it stays dirty for next contact
 23f7d66:	f7ff faa7 	bl	23f72b8 <_Z13pushPicParamsv>
  readValveStatus(); // confirm any lock the new threshold may have tripped
 23f7d6a:	f7ff fac9 	bl	23f7300 <_Z15readValveStatusv>
  return picParamsDirty ? 0 : 1;   // 1 = delivered, 0 = queued
 23f7d6e:	f894 0084 	ldrb.w	r0, [r4, #132]	; 0x84
  if (c1 < 0 || c2 < 0 || c3 < 0) { Log.warn("setLeakParams: need 4 CSV values"); return -1; }   // Need 4 values.
 23f7d72:	f080 0001 	eor.w	r0, r0, #1
 23f7d76:	e795      	b.n	23f7ca4 <_Z13setLeakParams6String+0x54>
  if (l1c < PIC_COUNTS_MIN || l1c > PIC_COUNTS_MAX) return -2;   // Range-check leak1 counts.
 23f7d78:	f06f 0001 	mvn.w	r0, #1
 23f7d7c:	e792      	b.n	23f7ca4 <_Z13setLeakParams6String+0x54>
  if (l1w < PIC_WINDOW_MIN || l1w > PIC_WINDOW_MAX) return -3;   // Range-check leak1 window.
 23f7d7e:	f06f 0002 	mvn.w	r0, #2
 23f7d82:	e78f      	b.n	23f7ca4 <_Z13setLeakParams6String+0x54>
  if (l2c < PIC_COUNTS_MIN || l2c > PIC_COUNTS_MAX) return -4;   // Range-check leak2 counts.
 23f7d84:	f06f 0003 	mvn.w	r0, #3
 23f7d88:	e78c      	b.n	23f7ca4 <_Z13setLeakParams6String+0x54>
  if (l2w < PIC_WINDOW_MIN || l2w > PIC_WINDOW_MAX) return -5;   // Range-check leak2 window.
 23f7d8a:	f06f 0004 	mvn.w	r0, #4
 23f7d8e:	e789      	b.n	23f7ca4 <_Z13setLeakParams6String+0x54>
 23f7d90:	023ff481 	.word	0x023ff481
 23f7d94:	1007aeb4 	.word	0x1007aeb4
 23f7d98:	023ff48f 	.word	0x023ff48f
 23f7d9c:	1007b400 	.word	0x1007b400
 23f7da0:	10079180 	.word	0x10079180
 23f7da4:	100791c0 	.word	0x100791c0
 23f7da8:	023ff4b0 	.word	0x023ff4b0

023f7dac <_Z13getLeakParams6String>:
int getLeakParams(String cmd) {
 23f7dac:	b513      	push	{r0, r1, r4, lr}
  restartSleepTimer("getLeakParams");             // Reset the awake window.
 23f7dae:	480d      	ldr	r0, [pc, #52]	; (23f7de4 <_Z13getLeakParams6String+0x38>)
 23f7db0:	f7ff fad2 	bl	23f7358 <_Z17restartSleepTimerPKc>
  if (picLink.getParams(live)) {                  // If the PIC responds...
 23f7db4:	4669      	mov	r1, sp
 23f7db6:	480c      	ldr	r0, [pc, #48]	; (23f7de8 <_Z13getLeakParams6String+0x3c>)
 23f7db8:	f001 f986 	bl	23f90c8 <_ZN7PicLink9getParamsER9PicParams>
 23f7dbc:	4c0b      	ldr	r4, [pc, #44]	; (23f7dec <_Z13getLeakParams6String+0x40>)
 23f7dbe:	b160      	cbz	r0, 23f7dda <_Z13getLeakParams6String+0x2e>
    picParams = live; savePicParams(); syncBackupRam();   // ...update + save the cache, flush RAM.
 23f7dc0:	466b      	mov	r3, sp
 23f7dc2:	4a0b      	ldr	r2, [pc, #44]	; (23f7df0 <_Z13getLeakParams6String+0x44>)
 23f7dc4:	cb03      	ldmia	r3!, {r0, r1}
 23f7dc6:	6110      	str	r0, [r2, #16]
 23f7dc8:	6151      	str	r1, [r2, #20]
 23f7dca:	f7ff f913 	bl	23f6ff4 <_Z13savePicParamsv>
 23f7dce:	f7fe ff8d 	bl	23f6cec <_Z13syncBackupRamv>
    triggerPublish = true;                        // Publish the refreshed values.
 23f7dd2:	2001      	movs	r0, #1
 23f7dd4:	7020      	strb	r0, [r4, #0]
}
 23f7dd6:	b002      	add	sp, #8
 23f7dd8:	bd10      	pop	{r4, pc}
  triggerPublish = true;   // publish the cached copy at least
 23f7dda:	2301      	movs	r3, #1
  return -1;                                       // Report that the live read failed.
 23f7ddc:	f04f 30ff 	mov.w	r0, #4294967295
  triggerPublish = true;   // publish the cached copy at least
 23f7de0:	7023      	strb	r3, [r4, #0]
  return -1;                                       // Report that the live read failed.
 23f7de2:	e7f8      	b.n	23f7dd6 <_Z13getLeakParams6String+0x2a>
 23f7de4:	023ff4d1 	.word	0x023ff4d1
 23f7de8:	10079180 	.word	0x10079180
 23f7dec:	100791c0 	.word	0x100791c0
 23f7df0:	1007b400 	.word	0x1007b400

023f7df4 <_Z8runSleepv>:

// The heart of requirement #4: decide whether to sleep, and if so, sleep in chunks.
void runSleep() {
 23f7df4:	e92d 41f0 	stmdb	sp!, {r4, r5, r6, r7, r8, lr}

  if (imu_data.leaking || imu_data.shutoff) {     // If a leak alarm or shutoff is active...
 23f7df8:	4b99      	ldr	r3, [pc, #612]	; (23f8060 <_Z8runSleepv+0x26c>)
void runSleep() {
 23f7dfa:	b08c      	sub	sp, #48	; 0x30
  if (imu_data.leaking || imu_data.shutoff) {     // If a leak alarm or shutoff is active...
 23f7dfc:	791a      	ldrb	r2, [r3, #4]
 23f7dfe:	795b      	ldrb	r3, [r3, #5]
 23f7e00:	b902      	cbnz	r2, 23f7e04 <_Z8runSleepv+0x10>
 23f7e02:	b133      	cbz	r3, 23f7e12 <_Z8runSleepv+0x1e>
    Log.info("NO SLEEP: alarm active (leaking=%d, shutoff=%d)",   // ...log it...
 23f7e04:	4997      	ldr	r1, [pc, #604]	; (23f8064 <_Z8runSleepv+0x270>)
 23f7e06:	4898      	ldr	r0, [pc, #608]	; (23f8068 <_Z8runSleepv+0x274>)
 23f7e08:	f7fe ff46 	bl	23f6c98 <_ZNK5spark6Logger4infoEPKcz>
    sleepCycleCount = 0;                      // re-arm a fresh sleep attempt
                                              //   Reset so the next loop tries sleeping again.
    sleepStart = millis() - WAKE_WINDOW_MS;   // bypass the first-wake window
                                              //   Pretend the awake window already elapsed so we can re-sleep immediately.
  }
}
 23f7e0c:	b00c      	add	sp, #48	; 0x30
 23f7e0e:	e8bd 81f0 	ldmia.w	sp!, {r4, r5, r6, r7, r8, pc}
  if (triggerState) {                             // If "flow in progress" is currently set...
 23f7e12:	4d96      	ldr	r5, [pc, #600]	; (23f806c <_Z8runSleepv+0x278>)
 23f7e14:	f895 3094 	ldrb.w	r3, [r5, #148]	; 0x94
 23f7e18:	b333      	cbz	r3, 23f7e68 <_Z8runSleepv+0x74>
    uint32_t nowEpoch = Time.isValid() ? (uint32_t)Time.now() : 0;   // Current UTC time, or 0 if the clock is invalid.
 23f7e1a:	f003 fd77 	bl	23fb90c <_Z19__fetch_global_Timev>
 23f7e1e:	f003 fd35 	bl	23fb88c <_ZNK9TimeClass7isValidEv>
 23f7e22:	b980      	cbnz	r0, 23f7e46 <_Z8runSleepv+0x52>
      triggerState = false;                       // ...drop the flow latch.
 23f7e24:	2300      	movs	r3, #0
 23f7e26:	f885 3094 	strb.w	r3, [r5, #148]	; 0x94
      syncBackupRam();                            // Persist that change.
 23f7e2a:	f7fe ff5f 	bl	23f6cec <_Z13syncBackupRamv>
      Log.info("FLOW latch cleared (idle/stale) -> sleep allowed");   // Log that sleeping is now allowed.
 23f7e2e:	4990      	ldr	r1, [pc, #576]	; (23f8070 <_Z8runSleepv+0x27c>)
 23f7e30:	488d      	ldr	r0, [pc, #564]	; (23f8068 <_Z8runSleepv+0x274>)
 23f7e32:	f7fe ff31 	bl	23f6c98 <_ZNK5spark6Logger4infoEPKcz>
  if (triggerState) {                             // If the latch is STILL set (flow is genuinely active)...
 23f7e36:	f895 3094 	ldrb.w	r3, [r5, #148]	; 0x94
 23f7e3a:	b1ab      	cbz	r3, 23f7e68 <_Z8runSleepv+0x74>
    Log.info("NO SLEEP: flow in progress (triggerState=1)");   // ...log it...
 23f7e3c:	498d      	ldr	r1, [pc, #564]	; (23f8074 <_Z8runSleepv+0x280>)
 23f7e3e:	488a      	ldr	r0, [pc, #552]	; (23f8068 <_Z8runSleepv+0x274>)
 23f7e40:	f7fe ff2a 	bl	23f6c98 <_ZNK5spark6Logger4infoEPKcz>
    return;   // stay awake while flowing
 23f7e44:	e7e2      	b.n	23f7e0c <_Z8runSleepv+0x18>
    uint32_t nowEpoch = Time.isValid() ? (uint32_t)Time.now() : 0;   // Current UTC time, or 0 if the clock is invalid.
 23f7e46:	f003 fd61 	bl	23fb90c <_Z19__fetch_global_Timev>
 23f7e4a:	f003 fd45 	bl	23fb8d8 <_ZN9TimeClass3nowEv>
              || (nowEpoch - lastTriggerTime >= FLOW_IDLE_TIMEOUT_S);   // idle long enough : 5 min with no flow.
 23f7e4e:	2800      	cmp	r0, #0
 23f7e50:	d0e8      	beq.n	23f7e24 <_Z8runSleepv+0x30>
              || (lastTriggerTime == 0)                            // never set    : latch has no real timestamp.
 23f7e52:	f8d5 3098 	ldr.w	r3, [r5, #152]	; 0x98
 23f7e56:	2b00      	cmp	r3, #0
 23f7e58:	d0e4      	beq.n	23f7e24 <_Z8runSleepv+0x30>
              || (nowEpoch < lastTriggerTime)                      // clock skew   : time went backwards.
 23f7e5a:	4283      	cmp	r3, r0
 23f7e5c:	d8e2      	bhi.n	23f7e24 <_Z8runSleepv+0x30>
              || (nowEpoch - lastTriggerTime >= FLOW_IDLE_TIMEOUT_S);   // idle long enough : 5 min with no flow.
 23f7e5e:	1ac0      	subs	r0, r0, r3
 23f7e60:	f5b0 7f96 	cmp.w	r0, #300	; 0x12c
 23f7e64:	d2de      	bcs.n	23f7e24 <_Z8runSleepv+0x30>
 23f7e66:	e7e6      	b.n	23f7e36 <_Z8runSleepv+0x42>
  if (sleepCycleCount == 0 && (now - sleepStart) < WAKE_WINDOW_MS) {   // First wake window not yet elapsed...
 23f7e68:	4e83      	ldr	r6, [pc, #524]	; (23f8078 <_Z8runSleepv+0x284>)
 23f7e6a:	f001 fbf5 	bl	23f9658 <HAL_Timer_Get_Milli_Seconds>
 23f7e6e:	6833      	ldr	r3, [r6, #0]
 23f7e70:	2b00      	cmp	r3, #0
 23f7e72:	d124      	bne.n	23f7ebe <_Z8runSleepv+0xca>
 23f7e74:	4a81      	ldr	r2, [pc, #516]	; (23f807c <_Z8runSleepv+0x288>)
  unsigned long awake = now - lastWakeTime;       // How long we've been awake since the last wake.
 23f7e76:	6812      	ldr	r2, [r2, #0]
 23f7e78:	1a80      	subs	r0, r0, r2
  if (sleepCycleCount > 0 && awake < WAKE_WINDOW_MS) {   // On later cycles, also honor the awake window...
 23f7e7a:	f64e 225f 	movw	r2, #59999	; 0xea5f
 23f7e7e:	4290      	cmp	r0, r2
 23f7e80:	d9c4      	bls.n	23f7e0c <_Z8runSleepv+0x18>
  sleepCycleCount++;                              // Count this sleep attempt.
 23f7e82:	3301      	adds	r3, #1
 23f7e84:	6033      	str	r3, [r6, #0]
  persistAll();   // flush RAM buffers before we risk a reset on wake
 23f7e86:	f7fe ff63 	bl	23f6d50 <_Z10persistAllv>
        reconnect_(reconnect) {
 23f7e8a:	2300      	movs	r3, #0
  Particle.disconnect();                          // Cleanly disconnect from the Particle cloud.
 23f7e8c:	a806      	add	r0, sp, #24
 23f7e8e:	e9cd 3306 	strd	r3, r3, [sp, #24]
        bool clearSession, bool reconnect) :
 23f7e92:	f8ad 3020 	strh.w	r3, [sp, #32]
        reconnect_(reconnect) {
 23f7e96:	f88d 3022 	strb.w	r3, [sp, #34]	; 0x22
 23f7e9a:	f003 fe86 	bl	23fbbaa <_ZN10CloudClass10disconnectERK22CloudDisconnectOptions>
 23f7e9e:	f001 fbdb 	bl	23f9658 <HAL_Timer_Get_Milli_Seconds>
        while (_while() && !_condition()) {
 23f7ea2:	f241 3787 	movw	r7, #4999	; 0x1387
 23f7ea6:	4604      	mov	r4, r0
 23f7ea8:	f001 fbd6 	bl	23f9658 <HAL_Timer_Get_Milli_Seconds>
        return waitConditionWhile(_condition, [=]{ return (::millis()-start)<timeout; });
 23f7eac:	1b00      	subs	r0, r0, r4
        while (_while() && !_condition()) {
 23f7eae:	42b8      	cmp	r0, r7
 23f7eb0:	d808      	bhi.n	23f7ec4 <_Z8runSleepv+0xd0>
    static bool connected(void) { return spark_cloud_flag_connected(); }
 23f7eb2:	f002 f8d9 	bl	23fa068 <spark_cloud_flag_connected>
 23f7eb6:	b128      	cbz	r0, 23f7ec4 <_Z8runSleepv+0xd0>
            spark_process();
 23f7eb8:	f002 f8ba 	bl	23fa030 <spark_process>
        while (_while() && !_condition()) {
 23f7ebc:	e7f4      	b.n	23f7ea8 <_Z8runSleepv+0xb4>
  if (sleepCycleCount > 0 && awake < WAKE_WINDOW_MS) {   // On later cycles, also honor the awake window...
 23f7ebe:	dde0      	ble.n	23f7e82 <_Z8runSleepv+0x8e>
  unsigned long awake = now - lastWakeTime;       // How long we've been awake since the last wake.
 23f7ec0:	4a6f      	ldr	r2, [pc, #444]	; (23f8080 <_Z8runSleepv+0x28c>)
 23f7ec2:	e7d8      	b.n	23f7e76 <_Z8runSleepv+0x82>
 23f7ec4:	f002 f8d0 	bl	23fa068 <spark_cloud_flag_connected>
        network_off(*this, 0, 0, NULL);
 23f7ec8:	2300      	movs	r3, #0
 23f7eca:	4f6e      	ldr	r7, [pc, #440]	; (23f8084 <_Z8runSleepv+0x290>)
 23f7ecc:	461a      	mov	r2, r3
 23f7ece:	4619      	mov	r1, r3
 23f7ed0:	6878      	ldr	r0, [r7, #4]
 23f7ed2:	f002 f805 	bl	23f9ee0 <network_off>
 23f7ed6:	f001 fbbf 	bl	23f9658 <HAL_Timer_Get_Milli_Seconds>
 23f7eda:	f644 681f 	movw	r8, #19999	; 0x4e1f
 23f7ede:	4604      	mov	r4, r0
 23f7ee0:	f001 fbba 	bl	23f9658 <HAL_Timer_Get_Milli_Seconds>
        return waitConditionWhile(_condition, [=]{ return (::millis()-start)<timeout; });
 23f7ee4:	1b00      	subs	r0, r0, r4
        while (_while() && !_condition()) {
 23f7ee6:	4540      	cmp	r0, r8
 23f7ee8:	d806      	bhi.n	23f7ef8 <_Z8runSleepv+0x104>
  waitForNot(WiFi.ready, WIFI_CONNECT_TIMEOUT_MS);   // Wait until Wi-Fi is actually NOT ready (fully down).
 23f7eea:	4638      	mov	r0, r7
 23f7eec:	f7fe fe87 	bl	23f6bfe <_ZN5spark9WiFiClass5readyEv>
 23f7ef0:	b110      	cbz	r0, 23f7ef8 <_Z8runSleepv+0x104>
            spark_process();
 23f7ef2:	f002 f89d 	bl	23fa030 <spark_process>
        while (_while() && !_condition()) {
 23f7ef6:	e7f3      	b.n	23f7ee0 <_Z8runSleepv+0xec>
 23f7ef8:	4862      	ldr	r0, [pc, #392]	; (23f8084 <_Z8runSleepv+0x290>)
 23f7efa:	f7fe fe80 	bl	23f6bfe <_ZN5spark9WiFiClass5readyEv>
  delay(250);                                     // A short pause to ensure the radio is truly off.
 23f7efe:	20fa      	movs	r0, #250	; 0xfa
 23f7f00:	f003 fd20 	bl	23fb944 <delay>
  uint32_t nowEpoch  = Time.isValid() ? (uint32_t)Time.now() : 0;   // Current UTC time, or 0 if invalid.
 23f7f04:	f003 fd02 	bl	23fb90c <_Z19__fetch_global_Timev>
 23f7f08:	f003 fcc0 	bl	23fb88c <_ZNK9TimeClass7isValidEv>
 23f7f0c:	bb58      	cbnz	r0, 23f7f66 <_Z8runSleepv+0x172>
void runSleep() {
 23f7f0e:	f44f 44e1 	mov.w	r4, #28800	; 0x7080
        : config_(config) {
 23f7f12:	ab07      	add	r3, sp, #28
 23f7f14:	9306      	str	r3, [sp, #24]
        config_.size = sizeof(hal_sleep_config_t);
 23f7f16:	2310      	movs	r3, #16
              valid_(true) {
 23f7f18:	2500      	movs	r5, #0
        config_.size = sizeof(hal_sleep_config_t);
 23f7f1a:	f8ad 301c 	strh.w	r3, [sp, #28]
        config_.version = HAL_SLEEP_VERSION;
 23f7f1e:	2303      	movs	r3, #3
            config_.mode = static_cast<hal_sleep_mode_t>(mode);
 23f7f20:	2202      	movs	r2, #2
              valid_(true) {
 23f7f22:	2701      	movs	r7, #1
     .gpio(MODE_PIN, FALLING)        // button
 23f7f24:	210c      	movs	r1, #12
        config_.version = HAL_SLEEP_VERSION;
 23f7f26:	f8ad 301e 	strh.w	r3, [sp, #30]
 23f7f2a:	a806      	add	r0, sp, #24
 23f7f2c:	462b      	mov	r3, r5
              valid_(true) {
 23f7f2e:	e9cd 5508 	strd	r5, r5, [sp, #32]
 23f7f32:	950a      	str	r5, [sp, #40]	; 0x28
            config_.mode = static_cast<hal_sleep_mode_t>(mode);
 23f7f34:	f88d 2020 	strb.w	r2, [sp, #32]
              valid_(true) {
 23f7f38:	f88d 702c 	strb.w	r7, [sp, #44]	; 0x2c
 23f7f3c:	f7fe fe64 	bl	23f6c08 <_ZN8particle24SystemSleepConfiguration4gpioEt13InterruptModeNS_7PinTypeE>
     .gpio(PIC_WAKE_PIN, RISING)     // PIC says "I have data"
 23f7f40:	462b      	mov	r3, r5
 23f7f42:	463a      	mov	r2, r7
 23f7f44:	210a      	movs	r1, #10
 23f7f46:	f7fe fe5f 	bl	23f6c08 <_ZN8particle24SystemSleepConfiguration4gpioEt13InterruptModeNS_7PinTypeE>
        }
        return *this;
    }

    SystemSleepConfiguration& duration(system_tick_t ms) {
        if (valid_) {
 23f7f4a:	7d03      	ldrb	r3, [r0, #20]
 23f7f4c:	4605      	mov	r5, r0
 23f7f4e:	b323      	cbz	r3, 23f7f9a <_Z8runSleepv+0x1a6>
     .duration(sleepSecs * 1000UL);  // capped to the P2 max
 23f7f50:	f44f 777a 	mov.w	r7, #1000	; 0x3e8
        return wakeupSourceFeatured(type, config_->wakeup_sources);
 23f7f54:	6803      	ldr	r3, [r0, #0]
 23f7f56:	4367      	muls	r7, r4
 23f7f58:	68db      	ldr	r3, [r3, #12]
        if (!start) {
 23f7f5a:	b1c3      	cbz	r3, 23f7f8e <_Z8runSleepv+0x19a>
            if (start->type == type) {
 23f7f5c:	889a      	ldrh	r2, [r3, #4]
 23f7f5e:	2a04      	cmp	r2, #4
 23f7f60:	d07b      	beq.n	23f805a <_Z8runSleepv+0x266>
            start = start->next;
 23f7f62:	689b      	ldr	r3, [r3, #8]
        while (start) {
 23f7f64:	e7f9      	b.n	23f7f5a <_Z8runSleepv+0x166>
  uint32_t nowEpoch  = Time.isValid() ? (uint32_t)Time.now() : 0;   // Current UTC time, or 0 if invalid.
 23f7f66:	f003 fcd1 	bl	23fb90c <_Z19__fetch_global_Timev>
 23f7f6a:	f003 fcb5 	bl	23fb8d8 <_ZN9TimeClass3nowEv>
  if (nowEpoch != 0 && nextPublishEpoch > nowEpoch) {   // If we know the time and the next publish is in the future...
 23f7f6e:	2800      	cmp	r0, #0
 23f7f70:	d0cd      	beq.n	23f7f0e <_Z8runSleepv+0x11a>
 23f7f72:	f8d5 409c 	ldr.w	r4, [r5, #156]	; 0x9c
 23f7f76:	4284      	cmp	r4, r0
 23f7f78:	d9c9      	bls.n	23f7f0e <_Z8runSleepv+0x11a>
    uint32_t rem = nextPublishEpoch - nowEpoch;   // ...compute how long until the next publish.
 23f7f7a:	1a24      	subs	r4, r4, r0
 23f7f7c:	2c01      	cmp	r4, #1
 23f7f7e:	bf38      	it	cc
 23f7f80:	2401      	movcc	r4, #1
 23f7f82:	f5b4 4fe1 	cmp.w	r4, #28800	; 0x7080
 23f7f86:	bf28      	it	cs
 23f7f88:	f44f 44e1 	movcs.w	r4, #28800	; 0x7080
 23f7f8c:	e7c1      	b.n	23f7f12 <_Z8runSleepv+0x11e>
                reinterpret_cast<hal_wakeup_source_rtc_t*>(wakeup)->ms = ms;
                return *this;
            }
            // Otherwise, configure RTC as wakeup source.
#if HAL_PLATFORM_RTL872X
            auto wakeupSource = (hal_wakeup_source_rtc_t*)system_pool_alloc(sizeof(hal_wakeup_source_rtc_t), nullptr);
 23f7f8e:	2100      	movs	r1, #0
 23f7f90:	2010      	movs	r0, #16
 23f7f92:	f001 ff35 	bl	23f9e00 <system_pool_alloc>
#else
            auto wakeupSource = new(std::nothrow) hal_wakeup_source_rtc_t();
#endif
            if (!wakeupSource) {
 23f7f96:	bb38      	cbnz	r0, 23f7fe8 <_Z8runSleepv+0x1f4>
                valid_ = false;
 23f7f98:	7528      	strb	r0, [r5, #20]
  Log.info("SLEEP: #%d for up to %lu s (chunk cap %lu s)", sleepCycleCount,   // Log the planned sleep.
 23f7f9a:	f44f 43e1 	mov.w	r3, #28800	; 0x7080
 23f7f9e:	6832      	ldr	r2, [r6, #0]
 23f7fa0:	4939      	ldr	r1, [pc, #228]	; (23f8088 <_Z8runSleepv+0x294>)
 23f7fa2:	4831      	ldr	r0, [pc, #196]	; (23f8068 <_Z8runSleepv+0x274>)
 23f7fa4:	9300      	str	r3, [sp, #0]
 23f7fa6:	4623      	mov	r3, r4
 23f7fa8:	f7fe fe76 	bl	23f6c98 <_ZNK5spark6Logger4infoEPKcz>
  SystemSleepResult r = System.sleep(cfg);        // ACTUALLY SLEEP HERE. Execution pauses until a wake source fires.
 23f7fac:	a906      	add	r1, sp, #24
 23f7fae:	a803      	add	r0, sp, #12
 23f7fb0:	f002 f9e0 	bl	23fa374 <_ZN11SystemClass5sleepERKN8particle24SystemSleepConfigurationE>
 23f7fb4:	f001 fb50 	bl	23f9658 <HAL_Timer_Get_Milli_Seconds>
void changeState(SystemState s) { currentState = s; }   // Just store the new state.
 23f7fb8:	2202      	movs	r2, #2
  lastWakeTime = millis();                        // Record when we woke.
 23f7fba:	4b31      	ldr	r3, [pc, #196]	; (23f8080 <_Z8runSleepv+0x28c>)
 23f7fbc:	4d33      	ldr	r5, [pc, #204]	; (23f808c <_Z8runSleepv+0x298>)
 23f7fbe:	6018      	str	r0, [r3, #0]
void changeState(SystemState s) { currentState = s; }   // Just store the new state.
 23f7fc0:	4b33      	ldr	r3, [pc, #204]	; (23f8090 <_Z8runSleepv+0x29c>)
 23f7fc2:	701a      	strb	r2, [r3, #0]
  SystemSleepWakeupReason reason = r.wakeupReason();   // Find out WHY we woke (button, PIC, timer, etc.).
 23f7fc4:	9b03      	ldr	r3, [sp, #12]
        if (wakeupSource_) {
 23f7fc6:	b1c3      	cbz	r3, 23f7ffa <_Z8runSleepv+0x206>
            return static_cast<SystemSleepWakeupReason>(wakeupSource_->type);
 23f7fc8:	889c      	ldrh	r4, [r3, #4]
  if (reason == SystemSleepWakeupReason::BY_GPIO && r.wakeupPin() == PIC_WAKE_PIN) {   // Woke because the PIC has data...
 23f7fca:	2c01      	cmp	r4, #1
 23f7fcc:	d13d      	bne.n	23f804a <_Z8runSleepv+0x256>
            return reinterpret_cast<hal_wakeup_source_gpio_t*>(wakeupSource_)->pin;
 23f7fce:	899b      	ldrh	r3, [r3, #12]
 23f7fd0:	2b0a      	cmp	r3, #10
 23f7fd2:	d125      	bne.n	23f8020 <_Z8runSleepv+0x22c>
    Log.info("WAKE: PIC -> offload only");        // Log the reason.
 23f7fd4:	4824      	ldr	r0, [pc, #144]	; (23f8068 <_Z8runSleepv+0x274>)
 23f7fd6:	492f      	ldr	r1, [pc, #188]	; (23f8094 <_Z8runSleepv+0x2a0>)
 23f7fd8:	f7fe fe5e 	bl	23f6c98 <_ZNK5spark6Logger4infoEPKcz>
    serviceMeterFromPic(true);                    // Pull the PIC's data (no cloud connection).
 23f7fdc:	4620      	mov	r0, r4
    serviceMeterFromPic(false);     // grab anything the PIC still holds
 23f7fde:	f7ff fb85 	bl	23f76ec <_Z19serviceMeterFromPicb>
    triggerPublish = false;                       // Let the 24 h gate decide about publishing later.
 23f7fe2:	2300      	movs	r3, #0
 23f7fe4:	702b      	strb	r3, [r5, #0]
 23f7fe6:	e022      	b.n	23f802e <_Z8runSleepv+0x23a>
                return *this;
            }
            wakeupSource->base.size = sizeof(hal_wakeup_source_rtc_t);
 23f7fe8:	4b2b      	ldr	r3, [pc, #172]	; (23f8098 <_Z8runSleepv+0x2a4>)
 23f7fea:	6003      	str	r3, [r0, #0]
            wakeupSource->base.version = HAL_SLEEP_VERSION;
            wakeupSource->base.type = HAL_WAKEUP_SOURCE_TYPE_RTC;
 23f7fec:	2304      	movs	r3, #4
 23f7fee:	8083      	strh	r3, [r0, #4]
            wakeupSource->base.next = config_.wakeup_sources;
 23f7ff0:	692b      	ldr	r3, [r5, #16]
            wakeupSource->ms = ms;
 23f7ff2:	e9c0 3702 	strd	r3, r7, [r0, #8]
            config_.wakeup_sources = reinterpret_cast<hal_wakeup_source_base_t*>(wakeupSource);
 23f7ff6:	6128      	str	r0, [r5, #16]
 23f7ff8:	e7cf      	b.n	23f7f9a <_Z8runSleepv+0x1a6>
            return SystemSleepWakeupReason::UNKNOWN;
 23f7ffa:	461c      	mov	r4, r3
    Log.warn("WAKE: spurious/aborted (reason=%d err=%d) -> re-sleep",   // Log the odd wake.
 23f7ffc:	4622      	mov	r2, r4
 23f7ffe:	f9bd 3010 	ldrsh.w	r3, [sp, #16]
 23f8002:	4926      	ldr	r1, [pc, #152]	; (23f809c <_Z8runSleepv+0x2a8>)
 23f8004:	4818      	ldr	r0, [pc, #96]	; (23f8068 <_Z8runSleepv+0x274>)
 23f8006:	f7fe fe55 	bl	23f6cb4 <_ZNK5spark6Logger4warnEPKcz>
    triggerPublish = false;                       // Do not publish.
 23f800a:	2300      	movs	r3, #0
 23f800c:	702b      	strb	r3, [r5, #0]
    sleepCycleCount = 0;                      // re-arm a fresh sleep attempt
 23f800e:	6033      	str	r3, [r6, #0]
 23f8010:	f001 fb22 	bl	23f9658 <HAL_Timer_Get_Milli_Seconds>
    sleepStart = millis() - WAKE_WINDOW_MS;   // bypass the first-wake window
 23f8014:	4b19      	ldr	r3, [pc, #100]	; (23f807c <_Z8runSleepv+0x288>)
 23f8016:	f5a0 406a 	sub.w	r0, r0, #59904	; 0xea00
 23f801a:	3860      	subs	r0, #96	; 0x60
 23f801c:	6018      	str	r0, [r3, #0]
 23f801e:	e006      	b.n	23f802e <_Z8runSleepv+0x23a>
  } else if (reason == SystemSleepWakeupReason::BY_GPIO && r.wakeupPin() == MODE_PIN) {   // Woke from the button...
 23f8020:	2b0c      	cmp	r3, #12
 23f8022:	d1eb      	bne.n	23f7ffc <_Z8runSleepv+0x208>
    Log.info("WAKE: button -> publish");          // Log it.
 23f8024:	491e      	ldr	r1, [pc, #120]	; (23f80a0 <_Z8runSleepv+0x2ac>)
 23f8026:	4810      	ldr	r0, [pc, #64]	; (23f8068 <_Z8runSleepv+0x274>)
 23f8028:	f7fe fe36 	bl	23f6c98 <_ZNK5spark6Logger4infoEPKcz>
    triggerPublish = true;                        // A button press DOES request an immediate publish.
 23f802c:	702c      	strb	r4, [r5, #0]
        if (wakeupSource_) {
 23f802e:	9803      	ldr	r0, [sp, #12]
 23f8030:	b108      	cbz	r0, 23f8036 <_Z8runSleepv+0x242>
            free(wakeupSource_);
 23f8032:	f002 f86d 	bl	23fa110 <free>
        auto wakeupSource = config_.wakeup_sources;
 23f8036:	980a      	ldr	r0, [sp, #40]	; 0x28
        while (wakeupSource) {
 23f8038:	2800      	cmp	r0, #0
 23f803a:	f43f aee7 	beq.w	23f7e0c <_Z8runSleepv+0x18>
            auto next = wakeupSource->next;
 23f803e:	6884      	ldr	r4, [r0, #8]
            system_pool_free(wakeupSource, nullptr);
 23f8040:	2100      	movs	r1, #0
 23f8042:	f001 feeb 	bl	23f9e1c <system_pool_free>
            wakeupSource = next;
 23f8046:	4620      	mov	r0, r4
        while (wakeupSource) {
 23f8048:	e7f6      	b.n	23f8038 <_Z8runSleepv+0x244>
  } else if (reason == SystemSleepWakeupReason::BY_RTC) {   // Woke because the sleep timer (RTC) expired...
 23f804a:	2c04      	cmp	r4, #4
 23f804c:	d1d6      	bne.n	23f7ffc <_Z8runSleepv+0x208>
    Log.info("WAKE: timer chunk -> offload only (publish gated by 24h epoch)");   // Log it.
 23f804e:	4806      	ldr	r0, [pc, #24]	; (23f8068 <_Z8runSleepv+0x274>)
 23f8050:	4914      	ldr	r1, [pc, #80]	; (23f80a4 <_Z8runSleepv+0x2b0>)
 23f8052:	f7fe fe21 	bl	23f6c98 <_ZNK5spark6Logger4infoEPKcz>
    serviceMeterFromPic(false);     // grab anything the PIC still holds
 23f8056:	2000      	movs	r0, #0
 23f8058:	e7c1      	b.n	23f7fde <_Z8runSleepv+0x1ea>
                reinterpret_cast<hal_wakeup_source_rtc_t*>(wakeup)->ms = ms;
 23f805a:	60df      	str	r7, [r3, #12]
                return *this;
 23f805c:	e79d      	b.n	23f7f9a <_Z8runSleepv+0x1a6>
 23f805e:	bf00      	nop
 23f8060:	10079124 	.word	0x10079124
 23f8064:	023ff4df 	.word	0x023ff4df
 23f8068:	1007aeb4 	.word	0x1007aeb4
 23f806c:	1007b400 	.word	0x1007b400
 23f8070:	023ff50f 	.word	0x023ff50f
 23f8074:	023ff540 	.word	0x023ff540
 23f8078:	100791b8 	.word	0x100791b8
 23f807c:	100791bc 	.word	0x100791bc
 23f8080:	10079158 	.word	0x10079158
 23f8084:	1007af6c 	.word	0x1007af6c
 23f8088:	023ff56c 	.word	0x023ff56c
 23f808c:	100791c0 	.word	0x100791c0
 23f8090:	10079120 	.word	0x10079120
 23f8094:	023ff599 	.word	0x023ff599
 23f8098:	00030010 	.word	0x00030010
 23f809c:	023ff60a 	.word	0x023ff60a
 23f80a0:	023ff5b3 	.word	0x023ff5b3
 23f80a4:	023ff5cb 	.word	0x023ff5cb

023f80a8 <_Z16handleConnectingv>:

// =============================================================== State machine
// In the CONNECTING phase: once the network + cloud are ready, move to monitoring.
void handleConnecting() {
 23f80a8:	b508      	push	{r3, lr}
#if USE_WIFI
  if (WiFi.ready() && Particle.connected()) { changeState(STATE_MONITORING); triggerPublish = true; }   // Wi-Fi + cloud up -> monitor + publish.
 23f80aa:	4807      	ldr	r0, [pc, #28]	; (23f80c8 <_Z16handleConnectingv+0x20>)
 23f80ac:	f7fe fda7 	bl	23f6bfe <_ZN5spark9WiFiClass5readyEv>
 23f80b0:	b140      	cbz	r0, 23f80c4 <_Z16handleConnectingv+0x1c>
 23f80b2:	f001 ffd9 	bl	23fa068 <spark_cloud_flag_connected>
 23f80b6:	b128      	cbz	r0, 23f80c4 <_Z16handleConnectingv+0x1c>
void changeState(SystemState s) { currentState = s; }   // Just store the new state.
 23f80b8:	2202      	movs	r2, #2
 23f80ba:	4b04      	ldr	r3, [pc, #16]	; (23f80cc <_Z16handleConnectingv+0x24>)
 23f80bc:	701a      	strb	r2, [r3, #0]
  if (WiFi.ready() && Particle.connected()) { changeState(STATE_MONITORING); triggerPublish = true; }   // Wi-Fi + cloud up -> monitor + publish.
 23f80be:	2201      	movs	r2, #1
 23f80c0:	4b03      	ldr	r3, [pc, #12]	; (23f80d0 <_Z16handleConnectingv+0x28>)
 23f80c2:	701a      	strb	r2, [r3, #0]
#elif USE_CELLULAR
  if (Cellular.ready() && Particle.connected()) { changeState(STATE_MONITORING); triggerPublish = true; }   // Cell + cloud up -> monitor + publish.
#endif
}
 23f80c4:	bd08      	pop	{r3, pc}
 23f80c6:	bf00      	nop
 23f80c8:	1007af6c 	.word	0x1007af6c
 23f80cc:	10079120 	.word	0x10079120
 23f80d0:	100791c0 	.word	0x100791c0

023f80d4 <setup>:
  }
}

// =============================================================== Arduino entry
// setup() runs ONCE at power-on/reset. It prepares everything the program needs.
void setup() {
 23f80d4:	b57f      	push	{r0, r1, r2, r3, r4, r5, r6, lr}
  Serial.begin(115200);                           // Start the USB serial monitor at 115200 baud.
 23f80d6:	f004 f8a7 	bl	23fc228 <_Z16_fetch_usbserialv>
 23f80da:	f44f 31e1 	mov.w	r1, #115200	; 0x1c200
 23f80de:	f004 f891 	bl	23fc204 <_ZN9USBSerial5beginEl>
 23f80e2:	f001 fab9 	bl	23f9658 <HAL_Timer_Get_Milli_Seconds>
 23f80e6:	4604      	mov	r4, r0
 23f80e8:	f001 fab6 	bl	23f9658 <HAL_Timer_Get_Milli_Seconds>
        return waitConditionWhile(_condition, [=]{ return (::millis()-start)<timeout; });
 23f80ec:	1b00      	subs	r0, r0, r4
        while (_while() && !_condition()) {
 23f80ee:	f5b0 5ffa 	cmp.w	r0, #8000	; 0x1f40
 23f80f2:	d207      	bcs.n	23f8104 <setup+0x30>
  waitFor(Serial.isConnected, SERIAL_CONNECT_MS); // Wait up to 8 s for a serial monitor to attach.
 23f80f4:	f004 f898 	bl	23fc228 <_Z16_fetch_usbserialv>
 23f80f8:	f004 f88b 	bl	23fc212 <_ZN9USBSerial11isConnectedEv>
 23f80fc:	b910      	cbnz	r0, 23f8104 <setup+0x30>
            spark_process();
 23f80fe:	f001 ff97 	bl	23fa030 <spark_process>
        while (_while() && !_condition()) {
 23f8102:	e7f1      	b.n	23f80e8 <setup+0x14>
int  imuInit() { imu_data.sensor = 0; return 0; } // Mark "no IMU" and report success of the stub.
 23f8104:	2400      	movs	r4, #0
  waitFor(Serial.isConnected, SERIAL_CONNECT_MS); // Wait up to 8 s for a serial monitor to attach.
 23f8106:	f004 f88f 	bl	23fc228 <_Z16_fetch_usbserialv>
 23f810a:	f004 f882 	bl	23fc212 <_ZN9USBSerial11isConnectedEv>
  Time.zone(-8);                 // PST display; logger math stays in UTC
 23f810e:	f003 fbfd 	bl	23fb90c <_Z19__fetch_global_Timev>
 23f8112:	eeba 0a00 	vmov.f32	s0, #160	; 0xc1000000 -8.0
 23f8116:	f003 fb99 	bl	23fb84c <_ZN9TimeClass4zoneEf>
                                 //   Show local time as UTC-8 (Pacific); internal math still uses UTC.
  Log.info("LeakSense P2 boot on %s", PLATFORM_STR);   // Announce boot and which board we are.
 23f811a:	4a65      	ldr	r2, [pc, #404]	; (23f82b0 <setup+0x1dc>)
 23f811c:	4965      	ldr	r1, [pc, #404]	; (23f82b4 <setup+0x1e0>)
 23f811e:	4866      	ldr	r0, [pc, #408]	; (23f82b8 <setup+0x1e4>)
 23f8120:	f7fe fdba 	bl	23f6c98 <_ZNK5spark6Logger4infoEPKcz>

  loadFlowCal();                                  // Load the saved flow calibration from EEPROM.
 23f8124:	f7fe fecc 	bl	23f6ec0 <_Z11loadFlowCalv>
  loadConfig();                                   // Load the saved host config from EEPROM.
 23f8128:	f7fe ff24 	bl	23f6f74 <_Z10loadConfigv>
  loadPicParams();                                // Load the saved PIC params from EEPROM.
 23f812c:	f7fe ff78 	bl	23f7020 <_Z13loadPicParamsv>

  pinMode(LED1_PIN, OUTPUT);                       // Configure the status LED pin as an output.
 23f8130:	2101      	movs	r1, #1
 23f8132:	2007      	movs	r0, #7
 23f8134:	f004 fd72 	bl	23fcc1c <pinMode>
  pinMode(SHUTOFF_SWITCH_PIN, OUTPUT);             // Configure the valve direction pin as an output.
 23f8138:	2101      	movs	r1, #1
 23f813a:	2004      	movs	r0, #4
 23f813c:	f004 fd6e 	bl	23fcc1c <pinMode>
  pinMode(SHUTOFF_SSR_PIN, OUTPUT);                // Configure the valve power (SSR) pin as an output.
 23f8140:	2101      	movs	r1, #1
 23f8142:	2003      	movs	r0, #3
 23f8144:	f004 fd6a 	bl	23fcc1c <pinMode>
  pinMode(MODE_PIN, INPUT_PULLUP);                 // Configure the button pin as an input with a pull-up resistor.
 23f8148:	2102      	movs	r1, #2
 23f814a:	200c      	movs	r0, #12
 23f814c:	f004 fd66 	bl	23fcc1c <pinMode>
#if !HAS_FUEL_GAUGE
  pinMode(BATTERY_PIN, INPUT);                     // On boards without a fuel gauge, set the battery ADC pin as input.
 23f8150:	2100      	movs	r1, #0
 23f8152:	201b      	movs	r0, #27
 23f8154:	f004 fd62 	bl	23fcc1c <pinMode>
#endif
#if USE_LOCAL_METER
  pinMode(METER_PIN, INPUT_PULLUP);                // If using the local sensor, set its pin as a pulled-up input.
#endif
  shutoffSwitch("off");          // known-safe valve power state
 23f8158:	4958      	ldr	r1, [pc, #352]	; (23f82bc <setup+0x1e8>)
 23f815a:	4668      	mov	r0, sp
 23f815c:	f002 fa2d 	bl	23fa5ba <_ZN6StringC1EPK19__FlashStringHelper>
 23f8160:	4668      	mov	r0, sp
 23f8162:	f7ff f919 	bl	23f7398 <_Z13shutoffSwitch6String>
 23f8166:	4668      	mov	r0, sp
 23f8168:	f002 f9dc 	bl	23fa524 <_ZN6StringD1Ev>
                                 //   Start with the valve power OFF (a safe, defined state).

  picLink.begin(38400);          // Serial1 + WAKE pin
 23f816c:	f44f 4116 	mov.w	r1, #38400	; 0x9600
 23f8170:	4853      	ldr	r0, [pc, #332]	; (23f82c0 <setup+0x1ec>)
 23f8172:	f000 fda9 	bl	23f8cc8 <_ZN7PicLink5beginEm>
        return _function(name, args...);
 23f8176:	4953      	ldr	r1, [pc, #332]	; (23f82c4 <setup+0x1f0>)
 23f8178:	4853      	ldr	r0, [pc, #332]	; (23f82c8 <setup+0x1f4>)
 23f817a:	f7fe fcd5 	bl	23f6b28 <_ZN10CloudClass9_functionEPKcPFi6StringE.isra.0>
 23f817e:	4953      	ldr	r1, [pc, #332]	; (23f82cc <setup+0x1f8>)
 23f8180:	4853      	ldr	r0, [pc, #332]	; (23f82d0 <setup+0x1fc>)
 23f8182:	f7fe fcd1 	bl	23f6b28 <_ZN10CloudClass9_functionEPKcPFi6StringE.isra.0>
 23f8186:	4953      	ldr	r1, [pc, #332]	; (23f82d4 <setup+0x200>)
 23f8188:	4853      	ldr	r0, [pc, #332]	; (23f82d8 <setup+0x204>)
 23f818a:	f7fe fccd 	bl	23f6b28 <_ZN10CloudClass9_functionEPKcPFi6StringE.isra.0>
 23f818e:	4953      	ldr	r1, [pc, #332]	; (23f82dc <setup+0x208>)
 23f8190:	4853      	ldr	r0, [pc, #332]	; (23f82e0 <setup+0x20c>)
 23f8192:	f7fe fcc9 	bl	23f6b28 <_ZN10CloudClass9_functionEPKcPFi6StringE.isra.0>
 23f8196:	4953      	ldr	r1, [pc, #332]	; (23f82e4 <setup+0x210>)
 23f8198:	4853      	ldr	r0, [pc, #332]	; (23f82e8 <setup+0x214>)
 23f819a:	f7fe fcc5 	bl	23f6b28 <_ZN10CloudClass9_functionEPKcPFi6StringE.isra.0>
 23f819e:	4953      	ldr	r1, [pc, #332]	; (23f82ec <setup+0x218>)
 23f81a0:	4853      	ldr	r0, [pc, #332]	; (23f82f0 <setup+0x21c>)
 23f81a2:	f7fe fcc1 	bl	23f6b28 <_ZN10CloudClass9_functionEPKcPFi6StringE.isra.0>
 23f81a6:	4953      	ldr	r1, [pc, #332]	; (23f82f4 <setup+0x220>)
 23f81a8:	4853      	ldr	r0, [pc, #332]	; (23f82f8 <setup+0x224>)
 23f81aa:	f7fe fcbd 	bl	23f6b28 <_ZN10CloudClass9_functionEPKcPFi6StringE.isra.0>
 23f81ae:	4953      	ldr	r1, [pc, #332]	; (23f82fc <setup+0x228>)
 23f81b0:	4853      	ldr	r0, [pc, #332]	; (23f8300 <setup+0x22c>)
 23f81b2:	f7fe fcb9 	bl	23f6b28 <_ZN10CloudClass9_functionEPKcPFi6StringE.isra.0>
 23f81b6:	4953      	ldr	r1, [pc, #332]	; (23f8304 <setup+0x230>)
 23f81b8:	4853      	ldr	r0, [pc, #332]	; (23f8308 <setup+0x234>)
 23f81ba:	f7fe fcb5 	bl	23f6b28 <_ZN10CloudClass9_functionEPKcPFi6StringE.isra.0>
 23f81be:	4953      	ldr	r1, [pc, #332]	; (23f830c <setup+0x238>)
 23f81c0:	4853      	ldr	r0, [pc, #332]	; (23f8310 <setup+0x23c>)
 23f81c2:	f7fe fcb1 	bl	23f6b28 <_ZN10CloudClass9_functionEPKcPFi6StringE.isra.0>
 23f81c6:	4953      	ldr	r1, [pc, #332]	; (23f8314 <setup+0x240>)
 23f81c8:	4853      	ldr	r0, [pc, #332]	; (23f8318 <setup+0x244>)
 23f81ca:	f7fe fcad 	bl	23f6b28 <_ZN10CloudClass9_functionEPKcPFi6StringE.isra.0>
 23f81ce:	4953      	ldr	r1, [pc, #332]	; (23f831c <setup+0x248>)
 23f81d0:	4853      	ldr	r0, [pc, #332]	; (23f8320 <setup+0x24c>)
 23f81d2:	f7fe fca9 	bl	23f6b28 <_ZN10CloudClass9_functionEPKcPFi6StringE.isra.0>
 23f81d6:	4953      	ldr	r1, [pc, #332]	; (23f8324 <setup+0x250>)
 23f81d8:	4853      	ldr	r0, [pc, #332]	; (23f8328 <setup+0x254>)
 23f81da:	f7fe fca5 	bl	23f6b28 <_ZN10CloudClass9_functionEPKcPFi6StringE.isra.0>
 23f81de:	4953      	ldr	r1, [pc, #332]	; (23f832c <setup+0x258>)
 23f81e0:	4853      	ldr	r0, [pc, #332]	; (23f8330 <setup+0x25c>)
 23f81e2:	f7fe fca1 	bl	23f6b28 <_ZN10CloudClass9_functionEPKcPFi6StringE.isra.0>
int  imuInit() { imu_data.sensor = 0; return 0; } // Mark "no IMU" and report success of the stub.
 23f81e6:	4b53      	ldr	r3, [pc, #332]	; (23f8334 <setup+0x260>)
  imuInit();   // no-op stub: marks IMU absent, telemetry fields stay 0
                                                  //   With no IMU, just run the harmless stub.
#endif

#if USE_WIFI
  WiFi.on(); WiFi.connect(); waitFor(WiFi.ready, WIFI_CONNECT_TIMEOUT_MS);   // Bring up Wi-Fi at boot.
 23f81e8:	4853      	ldr	r0, [pc, #332]	; (23f8338 <setup+0x264>)
int  imuInit() { imu_data.sensor = 0; return 0; } // Mark "no IMU" and report success of the stub.
 23f81ea:	601c      	str	r4, [r3, #0]
  WiFi.on(); WiFi.connect(); waitFor(WiFi.ready, WIFI_CONNECT_TIMEOUT_MS);   // Bring up Wi-Fi at boot.
 23f81ec:	f7fe fcfc 	bl	23f6be8 <_ZN5spark9WiFiClass2onEv>
 23f81f0:	4621      	mov	r1, r4
 23f81f2:	4851      	ldr	r0, [pc, #324]	; (23f8338 <setup+0x264>)
 23f81f4:	f7fe fcfe 	bl	23f6bf4 <_ZN5spark9WiFiClass7connectEj>
 23f81f8:	f001 fa2e 	bl	23f9658 <HAL_Timer_Get_Milli_Seconds>
 23f81fc:	f644 651f 	movw	r5, #19999	; 0x4e1f
 23f8200:	4604      	mov	r4, r0
 23f8202:	4e4d      	ldr	r6, [pc, #308]	; (23f8338 <setup+0x264>)
 23f8204:	f001 fa28 	bl	23f9658 <HAL_Timer_Get_Milli_Seconds>
        return waitConditionWhile(_condition, [=]{ return (::millis()-start)<timeout; });
 23f8208:	1b00      	subs	r0, r0, r4
        while (_while() && !_condition()) {
 23f820a:	42a8      	cmp	r0, r5
 23f820c:	d806      	bhi.n	23f821c <setup+0x148>
 23f820e:	4630      	mov	r0, r6
 23f8210:	f7fe fcf5 	bl	23f6bfe <_ZN5spark9WiFiClass5readyEv>
 23f8214:	b910      	cbnz	r0, 23f821c <setup+0x148>
            spark_process();
 23f8216:	f001 ff0b 	bl	23fa030 <spark_process>
        while (_while() && !_condition()) {
 23f821a:	e7f3      	b.n	23f8204 <setup+0x130>
 23f821c:	4846      	ldr	r0, [pc, #280]	; (23f8338 <setup+0x264>)
 23f821e:	f7fe fcee 	bl	23f6bfe <_ZN5spark9WiFiClass5readyEv>
        spark_cloud_flag_connect();
 23f8222:	f001 ff13 	bl	23fa04c <spark_cloud_flag_connect>
 23f8226:	f001 fa17 	bl	23f9658 <HAL_Timer_Get_Milli_Seconds>
 23f822a:	f247 552f 	movw	r5, #29999	; 0x752f
 23f822e:	4604      	mov	r4, r0
 23f8230:	f001 fa12 	bl	23f9658 <HAL_Timer_Get_Milli_Seconds>
        return waitConditionWhile(_condition, [=]{ return (::millis()-start)<timeout; });
 23f8234:	1b00      	subs	r0, r0, r4
        while (_while() && !_condition()) {
 23f8236:	42a8      	cmp	r0, r5
 23f8238:	d805      	bhi.n	23f8246 <setup+0x172>
    static bool connected(void) { return spark_cloud_flag_connected(); }
 23f823a:	f001 ff15 	bl	23fa068 <spark_cloud_flag_connected>
 23f823e:	b910      	cbnz	r0, 23f8246 <setup+0x172>
            spark_process();
 23f8240:	f001 fef6 	bl	23fa030 <spark_process>
        while (_while() && !_condition()) {
 23f8244:	e7f4      	b.n	23f8230 <setup+0x15c>
 23f8246:	f001 ff0f 	bl	23fa068 <spark_cloud_flag_connected>

#if USE_LOCAL_METER
  attachInterrupt(METER_PIN, countPulse, CHANGE); // If local metering, call countPulse() on every pin change.
#endif

  waitUntil(Time.isValid);                        // Wait until the device has a valid clock (synced from the cloud).
 23f824a:	f003 fb5f 	bl	23fb90c <_Z19__fetch_global_Timev>
 23f824e:	f003 fb1d 	bl	23fb88c <_ZNK9TimeClass7isValidEv>
 23f8252:	b910      	cbnz	r0, 23f825a <setup+0x186>
            spark_process();
 23f8254:	f001 feec 	bl	23fa030 <spark_process>
        while (_while() && !_condition()) {
 23f8258:	e7f7      	b.n	23f824a <setup+0x176>
 23f825a:	f003 fb57 	bl	23fb90c <_Z19__fetch_global_Timev>
 23f825e:	f003 fb15 	bl	23fb88c <_ZNK9TimeClass7isValidEv>
  restorePersisted();            // load gMeter + leak model from LittleFS
 23f8262:	f7fe fda9 	bl	23f6db8 <_Z16restorePersistedv>
                                 //   Restore the logger buffer and leak model from flash.

  uint32_t now = Time.now();                      // Current UTC time.
 23f8266:	f003 fb51 	bl	23fb90c <_Z19__fetch_global_Timev>
 23f826a:	f003 fb35 	bl	23fb8d8 <_ZN9TimeClass3nowEv>
  if (nextSampleAtUtc == 0 || nextSampleAtUtc <= now)   // If the next-sample time is unset or in the past...
 23f826e:	4a33      	ldr	r2, [pc, #204]	; (23f833c <setup+0x268>)
 23f8270:	f8d2 30a0 	ldr.w	r3, [r2, #160]	; 0xa0
 23f8274:	4283      	cmp	r3, r0
    nextSampleAtUtc = ((now / METER_INTERVAL_SEC) + 1) * METER_INTERVAL_SEC;   // ...set it to the next 60 s boundary.
 23f8276:	bf9f      	itttt	ls
 23f8278:	233c      	movls	r3, #60	; 0x3c
 23f827a:	fbb0 f0f3 	udivls	r0, r0, r3
 23f827e:	fb00 3303 	mlals	r3, r0, r3, r3
 23f8282:	f8c2 30a0 	strls.w	r3, [r2, #160]	; 0xa0

  triggerPublish = true;                          // Request an initial publish after boot.
 23f8286:	2201      	movs	r2, #1
 23f8288:	4b2d      	ldr	r3, [pc, #180]	; (23f8340 <setup+0x26c>)
 23f828a:	701a      	strb	r2, [r3, #0]
 23f828c:	f001 f9e4 	bl	23f9658 <HAL_Timer_Get_Milli_Seconds>
  sleepStart = millis(); lastWakeTime = millis(); // Start the awake-window timers.
 23f8290:	4b2c      	ldr	r3, [pc, #176]	; (23f8344 <setup+0x270>)
 23f8292:	6018      	str	r0, [r3, #0]
 23f8294:	f001 f9e0 	bl	23f9658 <HAL_Timer_Get_Milli_Seconds>
void changeState(SystemState s) { currentState = s; }   // Just store the new state.
 23f8298:	2202      	movs	r2, #2
  sleepStart = millis(); lastWakeTime = millis(); // Start the awake-window timers.
 23f829a:	4b2b      	ldr	r3, [pc, #172]	; (23f8348 <setup+0x274>)
  changeState(STATE_MONITORING);                  // Enter the monitoring phase.
  Log.info("Setup complete");                     // Announce that setup finished.
 23f829c:	492b      	ldr	r1, [pc, #172]	; (23f834c <setup+0x278>)
  sleepStart = millis(); lastWakeTime = millis(); // Start the awake-window timers.
 23f829e:	6018      	str	r0, [r3, #0]
void changeState(SystemState s) { currentState = s; }   // Just store the new state.
 23f82a0:	4b2b      	ldr	r3, [pc, #172]	; (23f8350 <setup+0x27c>)
  Log.info("Setup complete");                     // Announce that setup finished.
 23f82a2:	4805      	ldr	r0, [pc, #20]	; (23f82b8 <setup+0x1e4>)
void changeState(SystemState s) { currentState = s; }   // Just store the new state.
 23f82a4:	701a      	strb	r2, [r3, #0]
  Log.info("Setup complete");                     // Announce that setup finished.
 23f82a6:	f7fe fcf7 	bl	23f6c98 <_ZNK5spark6Logger4infoEPKcz>
}
 23f82aa:	b004      	add	sp, #16
 23f82ac:	bd70      	pop	{r4, r5, r6, pc}
 23f82ae:	bf00      	nop
 23f82b0:	023ff640 	.word	0x023ff640
 23f82b4:	023ff643 	.word	0x023ff643
 23f82b8:	1007aeb4 	.word	0x1007aeb4
 23f82bc:	023ff735 	.word	0x023ff735
 23f82c0:	10079180 	.word	0x10079180
 23f82c4:	023f7399 	.word	0x023f7399
 23f82c8:	023ff2b8 	.word	0x023ff2b8
 23f82cc:	023f7755 	.word	0x023f7755
 23f82d0:	023ff37b 	.word	0x023ff37b
 23f82d4:	023f7a1d 	.word	0x023f7a1d
 23f82d8:	023ff411 	.word	0x023ff411
 23f82dc:	023f6971 	.word	0x023f6971
 23f82e0:	023ff65b 	.word	0x023ff65b
 23f82e4:	023f7aa9 	.word	0x023f7aa9
 23f82e8:	023ff42e 	.word	0x023ff42e
 23f82ec:	023f6995 	.word	0x023f6995
 23f82f0:	023ff666 	.word	0x023ff666
 23f82f4:	023f7c51 	.word	0x023f7c51
 23f82f8:	023ff481 	.word	0x023ff481
 23f82fc:	023f7dad 	.word	0x023f7dad
 23f8300:	023ff4d1 	.word	0x023ff4d1
 23f8304:	023f77e1 	.word	0x023f77e1
 23f8308:	023ff389 	.word	0x023ff389
 23f830c:	023f7811 	.word	0x023f7811
 23f8310:	023ff396 	.word	0x023ff396
 23f8314:	023f78e5 	.word	0x023f78e5
 23f8318:	023ff3da 	.word	0x023ff3da
 23f831c:	023f7911 	.word	0x023f7911
 23f8320:	023ff3f7 	.word	0x023ff3f7
 23f8324:	023f792d 	.word	0x023f792d
 23f8328:	023ff3ff 	.word	0x023ff3ff
 23f832c:	023f79f1 	.word	0x023f79f1
 23f8330:	023ff407 	.word	0x023ff407
 23f8334:	10079124 	.word	0x10079124
 23f8338:	1007af6c 	.word	0x1007af6c
 23f833c:	1007b400 	.word	0x1007b400
 23f8340:	100791c0 	.word	0x100791c0
 23f8344:	100791bc 	.word	0x100791bc
 23f8348:	10079158 	.word	0x10079158
 23f834c:	023ff670 	.word	0x023ff670
 23f8350:	10079120 	.word	0x10079120

023f8354 <_ZNSt14__shared_countILN9__gnu_cxx12_Lock_policyE0EED1Ev>:
      explicit __shared_count(const __weak_count<_Lp>& __r);

      // Does not throw if __r._M_get_use_count() == 0, caller must check.
      explicit __shared_count(const __weak_count<_Lp>& __r, std::nothrow_t);

      ~__shared_count() noexcept
 23f8354:	b538      	push	{r3, r4, r5, lr}
      {
	if (_M_pi != nullptr)
 23f8356:	6804      	ldr	r4, [r0, #0]
      ~__shared_count() noexcept
 23f8358:	4605      	mov	r5, r0
	if (_M_pi != nullptr)
 23f835a:	b17c      	cbz	r4, 23f837c <_ZNSt14__shared_countILN9__gnu_cxx12_Lock_policyE0EED1Ev+0x28>
      if (--_M_use_count == 0)
 23f835c:	6863      	ldr	r3, [r4, #4]
 23f835e:	3b01      	subs	r3, #1
 23f8360:	6063      	str	r3, [r4, #4]
 23f8362:	b95b      	cbnz	r3, 23f837c <_ZNSt14__shared_countILN9__gnu_cxx12_Lock_policyE0EED1Ev+0x28>
          _M_dispose();
 23f8364:	6823      	ldr	r3, [r4, #0]
 23f8366:	4620      	mov	r0, r4
 23f8368:	689b      	ldr	r3, [r3, #8]
 23f836a:	4798      	blx	r3
          if (--_M_weak_count == 0)
 23f836c:	68a3      	ldr	r3, [r4, #8]
 23f836e:	3b01      	subs	r3, #1
 23f8370:	60a3      	str	r3, [r4, #8]
 23f8372:	b91b      	cbnz	r3, 23f837c <_ZNSt14__shared_countILN9__gnu_cxx12_Lock_policyE0EED1Ev+0x28>
            _M_destroy();
 23f8374:	6823      	ldr	r3, [r4, #0]
 23f8376:	4620      	mov	r0, r4
 23f8378:	68db      	ldr	r3, [r3, #12]
 23f837a:	4798      	blx	r3
	  _M_pi->_M_release();
      }
 23f837c:	4628      	mov	r0, r5
 23f837e:	bd38      	pop	{r3, r4, r5, pc}

023f8380 <_ZN5spark6VectorINS_17LogCategoryFilterENS_16DefaultAllocatorEED1Ev>:
inline spark::Vector<T, AllocatorT>::Vector(Vector<T, AllocatorT>&& vector) : Vector() {
    swap(*this, vector);
}

template<typename T, typename AllocatorT>
inline spark::Vector<T, AllocatorT>::~Vector() {
 23f8380:	b570      	push	{r4, r5, r6, lr}
    destruct(data_, data_ + size_);
 23f8382:	2614      	movs	r6, #20
 23f8384:	e9d0 5300 	ldrd	r5, r3, [r0]
inline spark::Vector<T, AllocatorT>::~Vector() {
 23f8388:	4604      	mov	r4, r0
    destruct(data_, data_ + size_);
 23f838a:	fb06 5603 	mla	r6, r6, r3, r5
        for (; p != end; ++p) {
 23f838e:	42ae      	cmp	r6, r5
 23f8390:	d004      	beq.n	23f839c <_ZN5spark6VectorINS_17LogCategoryFilterENS_16DefaultAllocatorEED1Ev+0x1c>
class LogCategoryFilter {
 23f8392:	4628      	mov	r0, r5
 23f8394:	f002 f8c6 	bl	23fa524 <_ZN6StringD1Ev>
 23f8398:	3514      	adds	r5, #20
 23f839a:	e7f8      	b.n	23f838e <_ZN5spark6VectorINS_17LogCategoryFilterENS_16DefaultAllocatorEED1Ev+0xe>
    ::free(ptr);
 23f839c:	6820      	ldr	r0, [r4, #0]
 23f839e:	f001 feb7 	bl	23fa110 <free>
    AllocatorT::free(data_);
}
 23f83a2:	4620      	mov	r0, r4
 23f83a4:	bd70      	pop	{r4, r5, r6, pc}

023f83a6 <_ZN10JsonWriter14insertKeyValueIPKcEEvS2_T_>:
	void insertKeyValue(const char *key, T value) {
 23f83a6:	b537      	push	{r0, r1, r2, r4, r5, lr}
 23f83a8:	4604      	mov	r4, r0
 23f83aa:	4615      	mov	r5, r2
 23f83ac:	9101      	str	r1, [sp, #4]
		insertCheckSeparator();
 23f83ae:	f001 f869 	bl	23f9484 <_ZN10JsonWriter20insertCheckSeparatorEv>
	void insertValue(const char *value) { insertString(value, true); }
 23f83b2:	2201      	movs	r2, #1
 23f83b4:	4620      	mov	r0, r4
 23f83b6:	9901      	ldr	r1, [sp, #4]
 23f83b8:	f000 ffd2 	bl	23f9360 <_ZN10JsonWriter12insertStringEPKcb>
		insertChar(':');
 23f83bc:	4620      	mov	r0, r4
 23f83be:	213a      	movs	r1, #58	; 0x3a
 23f83c0:	f000 ff82 	bl	23f92c8 <_ZN10JsonWriter10insertCharEc>
	void insertValue(const char *value) { insertString(value, true); }
 23f83c4:	2201      	movs	r2, #1
 23f83c6:	4629      	mov	r1, r5
 23f83c8:	4620      	mov	r0, r4
	}
 23f83ca:	b003      	add	sp, #12
 23f83cc:	e8bd 4030 	ldmia.w	sp!, {r4, r5, lr}
	void insertValue(const char *value) { insertString(value, true); }
 23f83d0:	f000 bfc6 	b.w	23f9360 <_ZN10JsonWriter12insertStringEPKcb>

023f83d4 <_ZN10JsonWriter14insertKeyValueIiEEvPKcT_>:
	void insertKeyValue(const char *key, T value) {
 23f83d4:	b537      	push	{r0, r1, r2, r4, r5, lr}
 23f83d6:	4604      	mov	r4, r0
 23f83d8:	4615      	mov	r5, r2
 23f83da:	9101      	str	r1, [sp, #4]
		insertCheckSeparator();
 23f83dc:	f001 f852 	bl	23f9484 <_ZN10JsonWriter20insertCheckSeparatorEv>
	void insertValue(const char *value) { insertString(value, true); }
 23f83e0:	2201      	movs	r2, #1
 23f83e2:	4620      	mov	r0, r4
 23f83e4:	9901      	ldr	r1, [sp, #4]
 23f83e6:	f000 ffbb 	bl	23f9360 <_ZN10JsonWriter12insertStringEPKcb>
		insertChar(':');
 23f83ea:	4620      	mov	r0, r4
 23f83ec:	213a      	movs	r1, #58	; 0x3a
 23f83ee:	f000 ff6b 	bl	23f92c8 <_ZN10JsonWriter10insertCharEc>
	void insertValue(int value) { insertsprintf("%d", value); }
 23f83f2:	462a      	mov	r2, r5
 23f83f4:	4620      	mov	r0, r4
 23f83f6:	4903      	ldr	r1, [pc, #12]	; (23f8404 <_ZN10JsonWriter14insertKeyValueIiEEvPKcT_+0x30>)
	}
 23f83f8:	b003      	add	sp, #12
 23f83fa:	e8bd 4030 	ldmia.w	sp!, {r4, r5, lr}
	void insertValue(int value) { insertsprintf("%d", value); }
 23f83fe:	f000 bfa2 	b.w	23f9346 <_ZN10JsonWriter13insertsprintfEPKcz>
 23f8402:	bf00      	nop
 23f8404:	023ff378 	.word	0x023ff378

023f8408 <_Z25publishIntervalDataChunksv>:
void publishIntervalDataChunks() {
 23f8408:	e92d 4ff0 	stmdb	sp!, {r4, r5, r6, r7, r8, r9, sl, fp, lr}
  if (gMeter.count == 0) return;                  // Nothing logged yet -> nothing to publish.
 23f840c:	f8df a15c 	ldr.w	sl, [pc, #348]	; 23f856c <_Z25publishIntervalDataChunksv+0x164>
void publishIntervalDataChunks() {
 23f8410:	f5ad 7d6d 	sub.w	sp, sp, #948	; 0x3b4
  if (gMeter.count == 0) return;                  // Nothing logged yet -> nothing to publish.
 23f8414:	f8ba 6006 	ldrh.w	r6, [sl, #6]
 23f8418:	2e00      	cmp	r6, #0
 23f841a:	f000 808b 	beq.w	23f8534 <_Z25publishIntervalDataChunksv+0x12c>
  uint16_t total = (gMeter.count + per - 1) / per;   // Total number of chunks (round up the division).
 23f841e:	2378      	movs	r3, #120	; 0x78
 23f8420:	3677      	adds	r6, #119	; 0x77
 23f8422:	fbb6 f6f3 	udiv	r6, r6, r3
 23f8426:	2700      	movs	r7, #0
 23f8428:	b2b3      	uxth	r3, r6
 23f842a:	9301      	str	r3, [sp, #4]
    uint16_t cnt = gMeter.count - start;          // How many samples remain from here.
 23f842c:	f04f 0900 	mov.w	r9, #0
 23f8430:	ebc7 1507 	rsb	r5, r7, r7, lsl #4
 23f8434:	f8ba 4006 	ldrh.w	r4, [sl, #6]
 23f8438:	00ed      	lsls	r5, r5, #3
 23f843a:	b2ad      	uxth	r5, r5
 23f843c:	1b64      	subs	r4, r4, r5
 23f843e:	b2a4      	uxth	r4, r4
    if (cnt > per) cnt = per;                     // Cap this chunk at 'per' samples.
 23f8440:	2c78      	cmp	r4, #120	; 0x78
 23f8442:	bf28      	it	cs
 23f8444:	2478      	movcs	r4, #120	; 0x78
    size_t pos = 0;                               // Current write position in 'packed'.
 23f8446:	46c8      	mov	r8, r9
 23f8448:	f10d 0b14 	add.w	fp, sp, #20
    for (uint16_t i = 0; i < cnt; i++) {          // For each sample in this chunk...
 23f844c:	fa1f f389 	uxth.w	r3, r9
 23f8450:	429c      	cmp	r4, r3
 23f8452:	d912      	bls.n	23f847a <_Z25publishIntervalDataChunksv+0x72>
                      (unsigned)gMeter.raw[start + i]);
 23f8454:	eb09 0305 	add.w	r3, r9, r5
      pos += snprintf(&packed[pos], sizeof(packed) - pos, "%03u",   // ...append it as a 3-digit number ("007", "123").
 23f8458:	f5c8 71b4 	rsb	r1, r8, #360	; 0x168
                      (unsigned)gMeter.raw[start + i]);
 23f845c:	3304      	adds	r3, #4
      pos += snprintf(&packed[pos], sizeof(packed) - pos, "%03u",   // ...append it as a 3-digit number ("007", "123").
 23f845e:	eb0b 0008 	add.w	r0, fp, r8
 23f8462:	f83a 3013 	ldrh.w	r3, [sl, r3, lsl #1]
 23f8466:	4a35      	ldr	r2, [pc, #212]	; (23f853c <_Z25publishIntervalDataChunksv+0x134>)
 23f8468:	3101      	adds	r1, #1
 23f846a:	f001 fe6d 	bl	23fa148 <snprintf>
 23f846e:	4480      	add	r8, r0
      if (pos >= sizeof(packed) - 1) break;       // Safety: stop if the text buffer is full.
 23f8470:	f5b8 7fb4 	cmp.w	r8, #360	; 0x168
 23f8474:	f109 0901 	add.w	r9, r9, #1
 23f8478:	d3e8      	bcc.n	23f844c <_Z25publishIntervalDataChunksv+0x44>
    packed[pos] = '\0';                           // Terminate the string with a null character.
 23f847a:	2300      	movs	r3, #0
public:
	explicit JsonWriterStatic() : JsonWriter(staticBuffer, BUFFER_SIZE) {};
 23f847c:	f44f 7200 	mov.w	r2, #512	; 0x200
 23f8480:	a96c      	add	r1, sp, #432	; 0x1b0
 23f8482:	a860      	add	r0, sp, #384	; 0x180
 23f8484:	f80b 3008 	strb.w	r3, [fp, r8]
 23f8488:	f000 ff0c 	bl	23f92a4 <_ZN10JsonWriterC1EPcj>
 23f848c:	4b2c      	ldr	r3, [pc, #176]	; (23f8540 <_Z25publishIntervalDataChunksv+0x138>)
	bool startObject() { return startObjectOrArray('{', '}'); };
 23f848e:	227d      	movs	r2, #125	; 0x7d
 23f8490:	217b      	movs	r1, #123	; 0x7b
 23f8492:	a860      	add	r0, sp, #384	; 0x180
	explicit JsonWriterStatic() : JsonWriter(staticBuffer, BUFFER_SIZE) {};
 23f8494:	9360      	str	r3, [sp, #384]	; 0x180
	bool startObject() { return startObjectOrArray('{', '}'); };
 23f8496:	f001 f800 	bl	23f949a <_ZN10JsonWriter18startObjectOrArrayEcc>
      jw.insertKeyValue("platform", PLATFORM_STR);          // "platform": board name.
 23f849a:	4a2a      	ldr	r2, [pc, #168]	; (23f8544 <_Z25publishIntervalDataChunksv+0x13c>)
 23f849c:	492a      	ldr	r1, [pc, #168]	; (23f8548 <_Z25publishIntervalDataChunksv+0x140>)
 23f849e:	a860      	add	r0, sp, #384	; 0x180
 23f84a0:	f7ff ff81 	bl	23f83a6 <_ZN10JsonWriter14insertKeyValueIPKcEEvS2_T_>
      jw.insertKeyValue("day0Utc", (int)gMeter.day0_utc_midnight);   // "day0Utc": start-of-day UTC seconds.
 23f84a4:	f8da 2000 	ldr.w	r2, [sl]
 23f84a8:	4928      	ldr	r1, [pc, #160]	; (23f854c <_Z25publishIntervalDataChunksv+0x144>)
 23f84aa:	a860      	add	r0, sp, #384	; 0x180
 23f84ac:	f7ff ff92 	bl	23f83d4 <_ZN10JsonWriter14insertKeyValueIiEEvPKcT_>
      jw.insertKeyValue("intervalSec", (int)METER_INTERVAL_SEC);     // "intervalSec": seconds per sample (60).
 23f84b0:	3701      	adds	r7, #1
 23f84b2:	223c      	movs	r2, #60	; 0x3c
 23f84b4:	4926      	ldr	r1, [pc, #152]	; (23f8550 <_Z25publishIntervalDataChunksv+0x148>)
 23f84b6:	a860      	add	r0, sp, #384	; 0x180
 23f84b8:	f7ff ff8c 	bl	23f83d4 <_ZN10JsonWriter14insertKeyValueIiEEvPKcT_>
      jw.insertKeyValue("chunk", (int)(c + 1));             // "chunk": this chunk's number (1-based).
 23f84bc:	463a      	mov	r2, r7
 23f84be:	4925      	ldr	r1, [pc, #148]	; (23f8554 <_Z25publishIntervalDataChunksv+0x14c>)
 23f84c0:	a860      	add	r0, sp, #384	; 0x180
 23f84c2:	f7ff ff87 	bl	23f83d4 <_ZN10JsonWriter14insertKeyValueIiEEvPKcT_>
      jw.insertKeyValue("totalChunks", (int)total);         // "totalChunks": how many chunks total.
 23f84c6:	4632      	mov	r2, r6
 23f84c8:	4923      	ldr	r1, [pc, #140]	; (23f8558 <_Z25publishIntervalDataChunksv+0x150>)
 23f84ca:	a860      	add	r0, sp, #384	; 0x180
 23f84cc:	f7ff ff82 	bl	23f83d4 <_ZN10JsonWriter14insertKeyValueIiEEvPKcT_>
      jw.insertKeyValue("sampleStart", (int)start);         // "sampleStart": index of the first sample here.
 23f84d0:	462a      	mov	r2, r5
 23f84d2:	4922      	ldr	r1, [pc, #136]	; (23f855c <_Z25publishIntervalDataChunksv+0x154>)
 23f84d4:	a860      	add	r0, sp, #384	; 0x180
 23f84d6:	f7ff ff7d 	bl	23f83d4 <_ZN10JsonWriter14insertKeyValueIiEEvPKcT_>
      jw.insertKeyValue("sampleCount", (int)cnt);           // "sampleCount": how many samples in this chunk.
 23f84da:	4622      	mov	r2, r4
 23f84dc:	4920      	ldr	r1, [pc, #128]	; (23f8560 <_Z25publishIntervalDataChunksv+0x158>)
 23f84de:	a860      	add	r0, sp, #384	; 0x180
 23f84e0:	f7ff ff78 	bl	23f83d4 <_ZN10JsonWriter14insertKeyValueIiEEvPKcT_>
		insertCheckSeparator();
 23f84e4:	a860      	add	r0, sp, #384	; 0x180
 23f84e6:	f000 ffcd 	bl	23f9484 <_ZN10JsonWriter20insertCheckSeparatorEv>
	void insertValue(const char *value) { insertString(value, true); }
 23f84ea:	2201      	movs	r2, #1
 23f84ec:	491d      	ldr	r1, [pc, #116]	; (23f8564 <_Z25publishIntervalDataChunksv+0x15c>)
 23f84ee:	a860      	add	r0, sp, #384	; 0x180
 23f84f0:	f000 ff36 	bl	23f9360 <_ZN10JsonWriter12insertStringEPKcb>
		insertChar(':');
 23f84f4:	213a      	movs	r1, #58	; 0x3a
 23f84f6:	a860      	add	r0, sp, #384	; 0x180
 23f84f8:	f000 fee6 	bl	23f92c8 <_ZN10JsonWriter10insertCharEc>
	void insertValue(const char *value) { insertString(value, true); }
 23f84fc:	2201      	movs	r2, #1
 23f84fe:	4659      	mov	r1, fp
 23f8500:	a860      	add	r0, sp, #384	; 0x180
 23f8502:	f000 ff2d 	bl	23f9360 <_ZN10JsonWriter12insertStringEPKcb>

	/**
	 * @brief End the object
	 */
	~JsonWriterAutoObject() {
		jw->finishObjectOrArray();
 23f8506:	a860      	add	r0, sp, #384	; 0x180
 23f8508:	f000 feed 	bl	23f92e6 <_ZN10JsonWriter19finishObjectOrArrayEv>
    Particle.publish("meterIntervals", jw.getBuffer());     // Send this chunk to the cloud as a "meterIntervals" event.
 23f850c:	9a61      	ldr	r2, [sp, #388]	; 0x184
 23f850e:	4916      	ldr	r1, [pc, #88]	; (23f8568 <_Z25publishIntervalDataChunksv+0x160>)
 23f8510:	a803      	add	r0, sp, #12
 23f8512:	f7fe faeb 	bl	23f6aec <_ZN10CloudClass7publishEPKcS1_.isra.0>
	  __r._M_ptr = 0;
	}

      __shared_ptr(const __shared_ptr&) noexcept = default;
      __shared_ptr& operator=(const __shared_ptr&) noexcept = default;
      ~__shared_ptr() = default;
 23f8516:	a804      	add	r0, sp, #16
 23f8518:	f7ff ff1c 	bl	23f8354 <_ZNSt14__shared_countILN9__gnu_cxx12_Lock_policyE0EED1Ev>
    delay(1100);                                  // Wait 1.1 s between publishes (the cloud rate-limits to ~1/sec).
 23f851c:	f240 404c 	movw	r0, #1100	; 0x44c
 23f8520:	f003 fa10 	bl	23fb944 <delay>
    JsonWriterStatic<512> jw;                     // A 512-byte JSON builder for this chunk's message.
 23f8524:	a860      	add	r0, sp, #384	; 0x180
 23f8526:	f7fe fa3b 	bl	23f69a0 <_ZN16JsonWriterStaticILj512EED1Ev>
  for (uint16_t c = 0; c < total; c++) {          // For each chunk index c...
 23f852a:	9a01      	ldr	r2, [sp, #4]
 23f852c:	b2bb      	uxth	r3, r7
 23f852e:	429a      	cmp	r2, r3
 23f8530:	f63f af7c 	bhi.w	23f842c <_Z25publishIntervalDataChunksv+0x24>
}
 23f8534:	f50d 7d6d 	add.w	sp, sp, #948	; 0x3b4
 23f8538:	e8bd 8ff0 	ldmia.w	sp!, {r4, r5, r6, r7, r8, r9, sl, fp, pc}
 23f853c:	023ff67f 	.word	0x023ff67f
 23f8540:	023ff870 	.word	0x023ff870
 23f8544:	023ff640 	.word	0x023ff640
 23f8548:	023ff684 	.word	0x023ff684
 23f854c:	023ff68d 	.word	0x023ff68d
 23f8550:	023ff695 	.word	0x023ff695
 23f8554:	023ff6a1 	.word	0x023ff6a1
 23f8558:	023ff6a7 	.word	0x023ff6a7
 23f855c:	023ff6b3 	.word	0x023ff6b3
 23f8560:	023ff6bf 	.word	0x023ff6bf
 23f8564:	023ff6cb 	.word	0x023ff6cb
 23f8568:	023ff6d0 	.word	0x023ff6d0
 23f856c:	10077609 	.word	0x10077609

023f8570 <_ZN10JsonWriter14insertKeyValueIfEEvPKcT_>:
	void insertKeyValue(const char *key, T value) {
 23f8570:	b513      	push	{r0, r1, r4, lr}
 23f8572:	4604      	mov	r4, r0
 23f8574:	ed8d 0a00 	vstr	s0, [sp]
 23f8578:	9101      	str	r1, [sp, #4]
		insertCheckSeparator();
 23f857a:	f000 ff83 	bl	23f9484 <_ZN10JsonWriter20insertCheckSeparatorEv>
	void insertValue(const char *value) { insertString(value, true); }
 23f857e:	2201      	movs	r2, #1
 23f8580:	4620      	mov	r0, r4
 23f8582:	9901      	ldr	r1, [sp, #4]
 23f8584:	f000 feec 	bl	23f9360 <_ZN10JsonWriter12insertStringEPKcb>
		insertChar(':');
 23f8588:	4620      	mov	r0, r4
 23f858a:	213a      	movs	r1, #58	; 0x3a
 23f858c:	f000 fe9c 	bl	23f92c8 <_ZN10JsonWriter10insertCharEc>
		insertValue(value);
 23f8590:	ed9d 0a00 	vldr	s0, [sp]
 23f8594:	4620      	mov	r0, r4
	}
 23f8596:	b002      	add	sp, #8
 23f8598:	e8bd 4010 	ldmia.w	sp!, {r4, lr}
		insertValue(value);
 23f859c:	f000 bf96 	b.w	23f94cc <_ZN10JsonWriter11insertValueEf>

023f85a0 <_Z10imuPublishv>:
void imuPublish() {
 23f85a0:	b570      	push	{r4, r5, r6, lr}
 23f85a2:	ed2d 8b04 	vpush	{d8-d9}
  if (!WiFi.ready()) { WiFi.connect(); if (!waitFor(WiFi.ready, WIFI_CONNECT_TIMEOUT_MS)) { Log.error("WiFi fail"); return; } }
 23f85a6:	4898      	ldr	r0, [pc, #608]	; (23f8808 <_Z10imuPublishv+0x268>)
void imuPublish() {
 23f85a8:	f5ad 7d16 	sub.w	sp, sp, #600	; 0x258
  if (!WiFi.ready()) { WiFi.connect(); if (!waitFor(WiFi.ready, WIFI_CONNECT_TIMEOUT_MS)) { Log.error("WiFi fail"); return; } }
 23f85ac:	f7fe fb27 	bl	23f6bfe <_ZN5spark9WiFiClass5readyEv>
 23f85b0:	4601      	mov	r1, r0
 23f85b2:	bb08      	cbnz	r0, 23f85f8 <_Z10imuPublishv+0x58>
 23f85b4:	4894      	ldr	r0, [pc, #592]	; (23f8808 <_Z10imuPublishv+0x268>)
 23f85b6:	f7fe fb1d 	bl	23f6bf4 <_ZN5spark9WiFiClass7connectEj>
 23f85ba:	f001 f84d 	bl	23f9658 <HAL_Timer_Get_Milli_Seconds>
 23f85be:	f644 651f 	movw	r5, #19999	; 0x4e1f
 23f85c2:	4604      	mov	r4, r0
 23f85c4:	4e90      	ldr	r6, [pc, #576]	; (23f8808 <_Z10imuPublishv+0x268>)
 23f85c6:	f001 f847 	bl	23f9658 <HAL_Timer_Get_Milli_Seconds>
        return waitConditionWhile(_condition, [=]{ return (::millis()-start)<timeout; });
 23f85ca:	1b00      	subs	r0, r0, r4
        while (_while() && !_condition()) {
 23f85cc:	42a8      	cmp	r0, r5
 23f85ce:	d806      	bhi.n	23f85de <_Z10imuPublishv+0x3e>
 23f85d0:	4630      	mov	r0, r6
 23f85d2:	f7fe fb14 	bl	23f6bfe <_ZN5spark9WiFiClass5readyEv>
 23f85d6:	b910      	cbnz	r0, 23f85de <_Z10imuPublishv+0x3e>
            spark_process();
 23f85d8:	f001 fd2a 	bl	23fa030 <spark_process>
        while (_while() && !_condition()) {
 23f85dc:	e7f3      	b.n	23f85c6 <_Z10imuPublishv+0x26>
 23f85de:	488a      	ldr	r0, [pc, #552]	; (23f8808 <_Z10imuPublishv+0x268>)
 23f85e0:	f7fe fb0d 	bl	23f6bfe <_ZN5spark9WiFiClass5readyEv>
 23f85e4:	b940      	cbnz	r0, 23f85f8 <_Z10imuPublishv+0x58>
 23f85e6:	4989      	ldr	r1, [pc, #548]	; (23f880c <_Z10imuPublishv+0x26c>)
 23f85e8:	4889      	ldr	r0, [pc, #548]	; (23f8810 <_Z10imuPublishv+0x270>)
 23f85ea:	f7fe fb71 	bl	23f6cd0 <_ZNK5spark6Logger5errorEPKcz>
}
 23f85ee:	f50d 7d16 	add.w	sp, sp, #600	; 0x258
 23f85f2:	ecbd 8b04 	vpop	{d8-d9}
 23f85f6:	bd70      	pop	{r4, r5, r6, pc}
	explicit JsonWriterStatic() : JsonWriter(staticBuffer, BUFFER_SIZE) {};
 23f85f8:	f44f 7200 	mov.w	r2, #512	; 0x200
 23f85fc:	a916      	add	r1, sp, #88	; 0x58
 23f85fe:	a80a      	add	r0, sp, #40	; 0x28
 23f8600:	f000 fe50 	bl	23f92a4 <_ZN10JsonWriterC1EPcj>
 23f8604:	4b83      	ldr	r3, [pc, #524]	; (23f8814 <_Z10imuPublishv+0x274>)
	bool startObject() { return startObjectOrArray('{', '}'); };
 23f8606:	227d      	movs	r2, #125	; 0x7d
 23f8608:	217b      	movs	r1, #123	; 0x7b
    jw.insertKeyValue("sensor", imu_data.sensor); // IMU address (0 if none).
 23f860a:	4d83      	ldr	r5, [pc, #524]	; (23f8818 <_Z10imuPublishv+0x278>)
 23f860c:	a80a      	add	r0, sp, #40	; 0x28
	explicit JsonWriterStatic() : JsonWriter(staticBuffer, BUFFER_SIZE) {};
 23f860e:	930a      	str	r3, [sp, #40]	; 0x28
    jw.insertKeyValue("leaking", (int)leakingEventCount);    // Number of leak events this cycle.
 23f8610:	4c82      	ldr	r4, [pc, #520]	; (23f881c <_Z10imuPublishv+0x27c>)
	bool startObject() { return startObjectOrArray('{', '}'); };
 23f8612:	f000 ff42 	bl	23f949a <_ZN10JsonWriter18startObjectOrArrayEcc>
    jw.insertKeyValue("platform", PLATFORM_STR);  // Board name.
 23f8616:	4a82      	ldr	r2, [pc, #520]	; (23f8820 <_Z10imuPublishv+0x280>)
 23f8618:	4982      	ldr	r1, [pc, #520]	; (23f8824 <_Z10imuPublishv+0x284>)
 23f861a:	a80a      	add	r0, sp, #40	; 0x28
 23f861c:	f7ff fec3 	bl	23f83a6 <_ZN10JsonWriter14insertKeyValueIPKcEEvS2_T_>
    jw.insertKeyValue("sensor", imu_data.sensor); // IMU address (0 if none).
 23f8620:	682a      	ldr	r2, [r5, #0]
 23f8622:	4981      	ldr	r1, [pc, #516]	; (23f8828 <_Z10imuPublishv+0x288>)
 23f8624:	a80a      	add	r0, sp, #40	; 0x28
 23f8626:	f7ff fed5 	bl	23f83d4 <_ZN10JsonWriter14insertKeyValueIiEEvPKcT_>
    jw.insertKeyValue("leaking", (int)leakingEventCount);    // Number of leak events this cycle.
 23f862a:	f8d4 2090 	ldr.w	r2, [r4, #144]	; 0x90
 23f862e:	497f      	ldr	r1, [pc, #508]	; (23f882c <_Z10imuPublishv+0x28c>)
 23f8630:	a80a      	add	r0, sp, #40	; 0x28
 23f8632:	f7ff fecf 	bl	23f83d4 <_ZN10JsonWriter14insertKeyValueIiEEvPKcT_>
    jw.insertKeyValue("shutoff", (int)shutoffEventCount);    // Number of shutoff events this cycle.
 23f8636:	f8d4 2088 	ldr.w	r2, [r4, #136]	; 0x88
 23f863a:	497d      	ldr	r1, [pc, #500]	; (23f8830 <_Z10imuPublishv+0x290>)
 23f863c:	a80a      	add	r0, sp, #40	; 0x28
 23f863e:	f7ff fec9 	bl	23f83d4 <_ZN10JsonWriter14insertKeyValueIiEEvPKcT_>
    jw.insertKeyValue("overflow", (int)overflowEventCount);  // Number of overflow events this cycle.
 23f8642:	f8d4 208c 	ldr.w	r2, [r4, #140]	; 0x8c
 23f8646:	497b      	ldr	r1, [pc, #492]	; (23f8834 <_Z10imuPublishv+0x294>)
 23f8648:	a80a      	add	r0, sp, #40	; 0x28
 23f864a:	f7ff fec3 	bl	23f83d4 <_ZN10JsonWriter14insertKeyValueIiEEvPKcT_>
    jw.insertKeyValue("temp", imu_data.temperature);         // Current temperature.
 23f864e:	ed95 0a02 	vldr	s0, [r5, #8]
 23f8652:	4979      	ldr	r1, [pc, #484]	; (23f8838 <_Z10imuPublishv+0x298>)
 23f8654:	a80a      	add	r0, sp, #40	; 0x28
 23f8656:	f7ff ff8b 	bl	23f8570 <_ZN10JsonWriter14insertKeyValueIfEEvPKcT_>
    jw.insertKeyValue("flowCal", flowCalScale);              // Current flow calibration scale.
 23f865a:	ed94 0a00 	vldr	s0, [r4]
 23f865e:	4977      	ldr	r1, [pc, #476]	; (23f883c <_Z10imuPublishv+0x29c>)
 23f8660:	a80a      	add	r0, sp, #40	; 0x28
 23f8662:	f7ff ff85 	bl	23f8570 <_ZN10JsonWriter14insertKeyValueIfEEvPKcT_>
    jw.insertKeyValue("cfgLeakGpm", appConfig.leakThreshGpm);        // Host leak threshold (GPM).
 23f8666:	ed94 0a01 	vldr	s0, [r4, #4]
 23f866a:	4975      	ldr	r1, [pc, #468]	; (23f8840 <_Z10imuPublishv+0x2a0>)
 23f866c:	a80a      	add	r0, sp, #40	; 0x28
 23f866e:	f7ff ff7f 	bl	23f8570 <_ZN10JsonWriter14insertKeyValueIfEEvPKcT_>
    jw.insertKeyValue("cfgShutoffVol", appConfig.shutoffVolGal);     // Host 30-min shutoff volume.
 23f8672:	ed94 0a02 	vldr	s0, [r4, #8]
 23f8676:	4973      	ldr	r1, [pc, #460]	; (23f8844 <_Z10imuPublishv+0x2a4>)
 23f8678:	a80a      	add	r0, sp, #40	; 0x28
 23f867a:	f7ff ff79 	bl	23f8570 <_ZN10JsonWriter14insertKeyValueIfEEvPKcT_>
    jw.insertKeyValue("cfgAutoShutoff", (int)appConfig.autoShutoff); // Host auto-shutoff on/off.
 23f867e:	7b22      	ldrb	r2, [r4, #12]
 23f8680:	4971      	ldr	r1, [pc, #452]	; (23f8848 <_Z10imuPublishv+0x2a8>)
 23f8682:	a80a      	add	r0, sp, #40	; 0x28
 23f8684:	f7ff fea6 	bl	23f83d4 <_ZN10JsonWriter14insertKeyValueIiEEvPKcT_>
    jw.insertKeyValue("cfgAlertMode", (int)appConfig.alertMode);     // Host alert mode.
 23f8688:	7b62      	ldrb	r2, [r4, #13]
 23f868a:	4970      	ldr	r1, [pc, #448]	; (23f884c <_Z10imuPublishv+0x2ac>)
 23f868c:	a80a      	add	r0, sp, #40	; 0x28
 23f868e:	f7ff fea1 	bl	23f83d4 <_ZN10JsonWriter14insertKeyValueIiEEvPKcT_>
    jw.insertKeyValue("picLeak1Counts", (int)picParams.leak1_counts);   // PIC alert-1 counts.
 23f8692:	8a22      	ldrh	r2, [r4, #16]
 23f8694:	496e      	ldr	r1, [pc, #440]	; (23f8850 <_Z10imuPublishv+0x2b0>)
 23f8696:	a80a      	add	r0, sp, #40	; 0x28
 23f8698:	f7ff fe9c 	bl	23f83d4 <_ZN10JsonWriter14insertKeyValueIiEEvPKcT_>
    jw.insertKeyValue("picLeak1WinS",  (int)picParams.leak1_window_s);  // PIC alert-1 window seconds.
 23f869c:	8a62      	ldrh	r2, [r4, #18]
 23f869e:	496d      	ldr	r1, [pc, #436]	; (23f8854 <_Z10imuPublishv+0x2b4>)
 23f86a0:	a80a      	add	r0, sp, #40	; 0x28
 23f86a2:	f7ff fe97 	bl	23f83d4 <_ZN10JsonWriter14insertKeyValueIiEEvPKcT_>
    jw.insertKeyValue("picLeak2Counts", (int)picParams.leak2_counts);   // PIC alert-2 counts.
 23f86a6:	8aa2      	ldrh	r2, [r4, #20]
 23f86a8:	496b      	ldr	r1, [pc, #428]	; (23f8858 <_Z10imuPublishv+0x2b8>)
 23f86aa:	a80a      	add	r0, sp, #40	; 0x28
 23f86ac:	f7ff fe92 	bl	23f83d4 <_ZN10JsonWriter14insertKeyValueIiEEvPKcT_>
    jw.insertKeyValue("picLeak2WinS",  (int)picParams.leak2_window_s);  // PIC alert-2 window seconds.
 23f86b0:	8ae2      	ldrh	r2, [r4, #22]
 23f86b2:	496a      	ldr	r1, [pc, #424]	; (23f885c <_Z10imuPublishv+0x2bc>)
 23f86b4:	a80a      	add	r0, sp, #40	; 0x28
 23f86b6:	f7ff fe8d 	bl	23f83d4 <_ZN10JsonWriter14insertKeyValueIiEEvPKcT_>
    jw.insertKeyValue("picParamsDirty", (int)picParamsDirty);   // 1 = a write to the PIC is still pending.
 23f86ba:	f894 2084 	ldrb.w	r2, [r4, #132]	; 0x84
 23f86be:	4968      	ldr	r1, [pc, #416]	; (23f8860 <_Z10imuPublishv+0x2c0>)
 23f86c0:	a80a      	add	r0, sp, #40	; 0x28
 23f86c2:	f7ff fe87 	bl	23f83d4 <_ZN10JsonWriter14insertKeyValueIiEEvPKcT_>
    if (haveValve) {                              // Only include valve fields if we've read them at least once.
 23f86c6:	4b67      	ldr	r3, [pc, #412]	; (23f8864 <_Z10imuPublishv+0x2c4>)
 23f86c8:	781b      	ldrb	r3, [r3, #0]
 23f86ca:	b1cb      	cbz	r3, 23f8700 <_Z10imuPublishv+0x160>
      jw.insertKeyValue("valveMotion",   (int)lastValve.motion);         // Valve motion state (0..6).
 23f86cc:	4d66      	ldr	r5, [pc, #408]	; (23f8868 <_Z10imuPublishv+0x2c8>)
 23f86ce:	4967      	ldr	r1, [pc, #412]	; (23f886c <_Z10imuPublishv+0x2cc>)
 23f86d0:	78aa      	ldrb	r2, [r5, #2]
 23f86d2:	a80a      	add	r0, sp, #40	; 0x28
 23f86d4:	f7ff fe7e 	bl	23f83d4 <_ZN10JsonWriter14insertKeyValueIiEEvPKcT_>
      jw.insertKeyValue("valveLockFlags",(int)lastValve.lock_flags);     // Which locks are active.
 23f86d8:	78ea      	ldrb	r2, [r5, #3]
 23f86da:	4965      	ldr	r1, [pc, #404]	; (23f8870 <_Z10imuPublishv+0x2d0>)
 23f86dc:	a80a      	add	r0, sp, #40	; 0x28
 23f86de:	f7ff fe79 	bl	23f83d4 <_ZN10JsonWriter14insertKeyValueIiEEvPKcT_>
      jw.insertKeyValue("valvePwr",      (int)lastValve.pwr_pin);        // Valve power pin level.
 23f86e2:	782a      	ldrb	r2, [r5, #0]
 23f86e4:	4963      	ldr	r1, [pc, #396]	; (23f8874 <_Z10imuPublishv+0x2d4>)
 23f86e6:	a80a      	add	r0, sp, #40	; 0x28
 23f86e8:	f7ff fe74 	bl	23f83d4 <_ZN10JsonWriter14insertKeyValueIiEEvPKcT_>
      jw.insertKeyValue("valveCtrl",     (int)lastValve.ctrl_pin);       // Valve control pin level.
 23f86ec:	786a      	ldrb	r2, [r5, #1]
 23f86ee:	4962      	ldr	r1, [pc, #392]	; (23f8878 <_Z10imuPublishv+0x2d8>)
 23f86f0:	a80a      	add	r0, sp, #40	; 0x28
 23f86f2:	f7ff fe6f 	bl	23f83d4 <_ZN10JsonWriter14insertKeyValueIiEEvPKcT_>
      jw.insertKeyValue("valveTempLocks",(int)lastValve.temp_lock_count);// Cumulative temp-lock count.
 23f86f6:	686a      	ldr	r2, [r5, #4]
 23f86f8:	4960      	ldr	r1, [pc, #384]	; (23f887c <_Z10imuPublishv+0x2dc>)
 23f86fa:	a80a      	add	r0, sp, #40	; 0x28
 23f86fc:	f7ff fe6a 	bl	23f83d4 <_ZN10JsonWriter14insertKeyValueIiEEvPKcT_>
    jw.insertKeyArray("hourlyGallons");           // Begin an array "hourlyGallons": [ ... ].
 23f8700:	495f      	ldr	r1, [pc, #380]	; (23f8880 <_Z10imuPublishv+0x2e0>)
 23f8702:	a80a      	add	r0, sp, #40	; 0x28
 23f8704:	f000 ff02 	bl	23f950c <_ZN10JsonWriter14insertKeyArrayEPKc>
 23f8708:	2518      	movs	r5, #24
static inline float roundTenth(float v) { return floorf(v * 10.0f + 0.5f) / 10.0f; }   // *10, round, /10.
 23f870a:	eef2 8a04 	vmov.f32	s17, #36	; 0x41200000  10.0
 23f870e:	eeb6 9a00 	vmov.f32	s18, #96	; 0x3f000000  0.5
 23f8712:	4e5c      	ldr	r6, [pc, #368]	; (23f8884 <_Z10imuPublishv+0x2e4>)
    for (int i = 0; i < 24; i++) jw.insertArrayValue(roundTenth(hourlyData[i]));   // Add each hour's gallons (1 decimal).
 23f8714:	ecf6 7a01 	vldmia	r6!, {s15}
static inline float roundTenth(float v) { return floorf(v * 10.0f + 0.5f) / 10.0f; }   // *10, round, /10.
 23f8718:	eeb0 8a49 	vmov.f32	s16, s18
 23f871c:	eea7 8aa8 	vfma.f32	s16, s15, s17
 23f8720:	febb 8a48 	vrintm.f32	s16, s16
		insertCheckSeparator();
 23f8724:	a80a      	add	r0, sp, #40	; 0x28
 23f8726:	f000 fead 	bl	23f9484 <_ZN10JsonWriter20insertCheckSeparatorEv>
		insertValue(value);
 23f872a:	ee88 0a28 	vdiv.f32	s0, s16, s17
 23f872e:	a80a      	add	r0, sp, #40	; 0x28
 23f8730:	f000 fecc 	bl	23f94cc <_ZN10JsonWriter11insertValueEf>
    for (int i = 0; i < 24; i++) jw.insertArrayValue(roundTenth(hourlyData[i]));   // Add each hour's gallons (1 decimal).
 23f8734:	3d01      	subs	r5, #1
 23f8736:	d1ed      	bne.n	23f8714 <_Z10imuPublishv+0x174>
    jw.finishObjectOrArray();                     // Close the hourlyGallons array.
 23f8738:	a80a      	add	r0, sp, #40	; 0x28
 23f873a:	f000 fdd4 	bl	23f92e6 <_ZN10JsonWriter19finishObjectOrArrayEv>
    jw.insertKeyValue("rssi", (int)WiFi.RSSI().getStrength());          // Wi-Fi signal strength.
 23f873e:	4932      	ldr	r1, [pc, #200]	; (23f8808 <_Z10imuPublishv+0x268>)
 23f8740:	a801      	add	r0, sp, #4
 23f8742:	f004 f8e9 	bl	23fc918 <_ZN5spark9WiFiClass4RSSIEv>
 23f8746:	a801      	add	r0, sp, #4
 23f8748:	f004 f866 	bl	23fc818 <_ZNK10WiFiSignal11getStrengthEv>
 23f874c:	eefd 7ac0 	vcvt.s32.f32	s15, s0
 23f8750:	494d      	ldr	r1, [pc, #308]	; (23f8888 <_Z10imuPublishv+0x2e8>)
 23f8752:	ee17 2a90 	vmov	r2, s15
 23f8756:	a80a      	add	r0, sp, #40	; 0x28
 23f8758:	f7ff fe3c 	bl	23f83d4 <_ZN10JsonWriter14insertKeyValueIiEEvPKcT_>
    jw.insertKeyValue("battery", analogRead(BATTERY_PIN) / 819.2f);  // P2 ADC divider
 23f875c:	201b      	movs	r0, #27
 23f875e:	f004 fa9a 	bl	23fcc96 <analogRead>
 23f8762:	ee07 0a90 	vmov	s15, r0
 23f8766:	ed9f 0a49 	vldr	s0, [pc, #292]	; 23f888c <_Z10imuPublishv+0x2ec>
 23f876a:	eef8 7ae7 	vcvt.f32.s32	s15, s15
 23f876e:	4948      	ldr	r1, [pc, #288]	; (23f8890 <_Z10imuPublishv+0x2f0>)
 23f8770:	ee87 0a80 	vdiv.f32	s0, s15, s0
 23f8774:	a80a      	add	r0, sp, #40	; 0x28
 23f8776:	f7ff fefb 	bl	23f8570 <_ZN10JsonWriter14insertKeyValueIfEEvPKcT_>
    jw.insertKeyValue("freeMem", (int)System.freeMemory());   // Free RAM (helps debug memory issues).
 23f877a:	f001 fe5b 	bl	23fa434 <_ZN11SystemClass10freeMemoryEv>
 23f877e:	4945      	ldr	r1, [pc, #276]	; (23f8894 <_Z10imuPublishv+0x2f4>)
 23f8780:	4602      	mov	r2, r0
 23f8782:	a80a      	add	r0, sp, #40	; 0x28
 23f8784:	f7ff fe26 	bl	23f83d4 <_ZN10JsonWriter14insertKeyValueIiEEvPKcT_>
        return (hal_timer_millis(nullptr) / 1000);
 23f8788:	4628      	mov	r0, r5
 23f878a:	f000 ffab 	bl	23f96e4 <hal_timer_millis>
 23f878e:	2300      	movs	r3, #0
 23f8790:	f44f 727a 	mov.w	r2, #1000	; 0x3e8
 23f8794:	f7fd fe76 	bl	23f6484 <__aeabi_uldivmod>
    jw.insertKeyValue("uptime", (int)System.uptime());        // Seconds since boot.
 23f8798:	493f      	ldr	r1, [pc, #252]	; (23f8898 <_Z10imuPublishv+0x2f8>)
 23f879a:	4602      	mov	r2, r0
 23f879c:	a80a      	add	r0, sp, #40	; 0x28
 23f879e:	f7ff fe19 	bl	23f83d4 <_ZN10JsonWriter14insertKeyValueIiEEvPKcT_>
		jw->finishObjectOrArray();
 23f87a2:	a80a      	add	r0, sp, #40	; 0x28
 23f87a4:	f000 fd9f 	bl	23f92e6 <_ZN10JsonWriter19finishObjectOrArrayEv>
  Particle.publish("sensorData", jw.getBuffer()); // Send the finished JSON as a "sensorData" cloud event.
 23f87a8:	9a0b      	ldr	r2, [sp, #44]	; 0x2c
 23f87aa:	493c      	ldr	r1, [pc, #240]	; (23f889c <_Z10imuPublishv+0x2fc>)
 23f87ac:	a801      	add	r0, sp, #4
 23f87ae:	f7fe f99d 	bl	23f6aec <_ZN10CloudClass7publishEPKcS1_.isra.0>
  if (gMeter.count >= MAX_SAMPLES) {              // If the logger filled a whole day...
 23f87b2:	4e3b      	ldr	r6, [pc, #236]	; (23f88a0 <_Z10imuPublishv+0x300>)
 23f87b4:	a802      	add	r0, sp, #8
 23f87b6:	f7ff fdcd 	bl	23f8354 <_ZNSt14__shared_countILN9__gnu_cxx12_Lock_policyE0EED1Ev>
  Log.info("Published: %s", jw.getBuffer());      // Also log exactly what we published.
 23f87ba:	9a0b      	ldr	r2, [sp, #44]	; 0x2c
 23f87bc:	4939      	ldr	r1, [pc, #228]	; (23f88a4 <_Z10imuPublishv+0x304>)
 23f87be:	4814      	ldr	r0, [pc, #80]	; (23f8810 <_Z10imuPublishv+0x270>)
 23f87c0:	f7fe fa6a 	bl	23f6c98 <_ZNK5spark6Logger4infoEPKcz>
  publishIntervalDataChunks();                    // Then publish the detailed interval logger in chunks.
 23f87c4:	f7ff fe20 	bl	23f8408 <_Z25publishIntervalDataChunksv>
  if (gMeter.count >= MAX_SAMPLES) {              // If the logger filled a whole day...
 23f87c8:	88f3      	ldrh	r3, [r6, #6]
 23f87ca:	f5b3 6fb4 	cmp.w	r3, #1440	; 0x5a0
 23f87ce:	d310      	bcc.n	23f87f2 <_Z10imuPublishv+0x252>
    uint32_t now = Time.now();                    //   get the current time...
 23f87d0:	f003 f89c 	bl	23fb90c <_Z19__fetch_global_Timev>
 23f87d4:	f003 f880 	bl	23fb8d8 <_ZN9TimeClass3nowEv>
    gMeter.day0_utc_midnight = (now / 86400UL) * 86400UL;   //   set the new day's midnight,
 23f87d8:	4b33      	ldr	r3, [pc, #204]	; (23f88a8 <_Z10imuPublishv+0x308>)
    Log.info("gMeter rolled");                    //   Log the rollover.
 23f87da:	4934      	ldr	r1, [pc, #208]	; (23f88ac <_Z10imuPublishv+0x30c>)
    gMeter.day0_utc_midnight = (now / 86400UL) * 86400UL;   //   set the new day's midnight,
 23f87dc:	fbb0 f0f3 	udiv	r0, r0, r3
 23f87e0:	4358      	muls	r0, r3
 23f87e2:	6030      	str	r0, [r6, #0]
    Log.info("gMeter rolled");                    //   Log the rollover.
 23f87e4:	480a      	ldr	r0, [pc, #40]	; (23f8810 <_Z10imuPublishv+0x270>)
    gMeter.start_slot = 0;                        //   reset the start slot,
 23f87e6:	7135      	strb	r5, [r6, #4]
 23f87e8:	7175      	strb	r5, [r6, #5]
    gMeter.count = 0;                             //   and empty the buffer for a fresh day.
 23f87ea:	71b5      	strb	r5, [r6, #6]
 23f87ec:	71f5      	strb	r5, [r6, #7]
    Log.info("gMeter rolled");                    //   Log the rollover.
 23f87ee:	f7fe fa53 	bl	23f6c98 <_ZNK5spark6Logger4infoEPKcz>
  persistAll();                                   // Save everything to flash now that we've published.
 23f87f2:	f7fe faad 	bl	23f6d50 <_Z10persistAllv>
  leakingEventCount = shutoffEventCount = overflowEventCount = 0;   // Clear the per-cycle event counters.
 23f87f6:	2300      	movs	r3, #0
  JsonWriterStatic<512> jw;                       // A 512-byte JSON builder for the status message.
 23f87f8:	a80a      	add	r0, sp, #40	; 0x28
  leakingEventCount = shutoffEventCount = overflowEventCount = 0;   // Clear the per-cycle event counters.
 23f87fa:	e9c4 3322 	strd	r3, r3, [r4, #136]	; 0x88
 23f87fe:	f8c4 3090 	str.w	r3, [r4, #144]	; 0x90
  JsonWriterStatic<512> jw;                       // A 512-byte JSON builder for the status message.
 23f8802:	f7fe f8cd 	bl	23f69a0 <_ZN16JsonWriterStaticILj512EED1Ev>
 23f8806:	e6f2      	b.n	23f85ee <_Z10imuPublishv+0x4e>
 23f8808:	1007af6c 	.word	0x1007af6c
 23f880c:	023ff6df 	.word	0x023ff6df
 23f8810:	1007aeb4 	.word	0x1007aeb4
 23f8814:	023ff870 	.word	0x023ff870
 23f8818:	10079124 	.word	0x10079124
 23f881c:	1007b400 	.word	0x1007b400
 23f8820:	023ff640 	.word	0x023ff640
 23f8824:	023ff684 	.word	0x023ff684
 23f8828:	023ff6e9 	.word	0x023ff6e9
 23f882c:	023ff6f0 	.word	0x023ff6f0
 23f8830:	023ff6f8 	.word	0x023ff6f8
 23f8834:	023ff700 	.word	0x023ff700
 23f8838:	023ff3a2 	.word	0x023ff3a2
 23f883c:	023ff709 	.word	0x023ff709
 23f8840:	023ff711 	.word	0x023ff711
 23f8844:	023ff71c 	.word	0x023ff71c
 23f8848:	023ff72a 	.word	0x023ff72a
 23f884c:	023ff739 	.word	0x023ff739
 23f8850:	023ff746 	.word	0x023ff746
 23f8854:	023ff755 	.word	0x023ff755
 23f8858:	023ff762 	.word	0x023ff762
 23f885c:	023ff771 	.word	0x023ff771
 23f8860:	023ff77e 	.word	0x023ff77e
 23f8864:	10079114 	.word	0x10079114
 23f8868:	10079118 	.word	0x10079118
 23f886c:	023ff78d 	.word	0x023ff78d
 23f8870:	023ff799 	.word	0x023ff799
 23f8874:	023ff7a8 	.word	0x023ff7a8
 23f8878:	023ff7b1 	.word	0x023ff7b1
 23f887c:	023ff7bb 	.word	0x023ff7bb
 23f8880:	023ff7ca 	.word	0x023ff7ca
 23f8884:	1007b420 	.word	0x1007b420
 23f8888:	023ff7d8 	.word	0x023ff7d8
 23f888c:	444ccccd 	.word	0x444ccccd
 23f8890:	023ff7dd 	.word	0x023ff7dd
 23f8894:	023ff7e5 	.word	0x023ff7e5
 23f8898:	023ff7ed 	.word	0x023ff7ed
 23f889c:	023ff7f4 	.word	0x023ff7f4
 23f88a0:	10077609 	.word	0x10077609
 23f88a4:	023ff7ff 	.word	0x023ff7ff
 23f88a8:	00015180 	.word	0x00015180
 23f88ac:	023ff80d 	.word	0x023ff80d

023f88b0 <_Z16handleMonitoringv>:
void handleMonitoring() {
 23f88b0:	e92d 41ff 	stmdb	sp!, {r0, r1, r2, r3, r4, r5, r6, r7, r8, lr}
  bool btn = (digitalRead(MODE_PIN) == LOW) || (System.buttonPushed() > 0);   // Is the button pressed (pin LOW or system button)?
 23f88b4:	200c      	movs	r0, #12
 23f88b6:	f004 f9db 	bl	23fcc70 <digitalRead>
 23f88ba:	4e5f      	ldr	r6, [pc, #380]	; (23f8a38 <_Z16handleMonitoringv+0x188>)
 23f88bc:	4d5f      	ldr	r5, [pc, #380]	; (23f8a3c <_Z16handleMonitoringv+0x18c>)
 23f88be:	b9d8      	cbnz	r0, 23f88f8 <_Z16handleMonitoringv+0x48>
  if (btn && !lastButtonState) {                  // A NEW press = pressed now but not on the previous loop.
 23f88c0:	7834      	ldrb	r4, [r6, #0]
 23f88c2:	2c00      	cmp	r4, #0
 23f88c4:	f040 8086 	bne.w	23f89d4 <_Z16handleMonitoringv+0x124>
 23f88c8:	f000 fec6 	bl	23f9658 <HAL_Timer_Get_Milli_Seconds>
    if (t - lastPressTime > DEBOUNCE_TIME) {      // Ignore presses too close together (debounce).
 23f88cc:	4a5c      	ldr	r2, [pc, #368]	; (23f8a40 <_Z16handleMonitoringv+0x190>)
 23f88ce:	6813      	ldr	r3, [r2, #0]
 23f88d0:	1ac3      	subs	r3, r0, r3
 23f88d2:	f5b3 7f96 	cmp.w	r3, #300	; 0x12c
 23f88d6:	d97d      	bls.n	23f89d4 <_Z16handleMonitoringv+0x124>
      imu_data.leaking = false; leakRunLen = 0;   // A button press clears the leak state.
 23f88d8:	4b5a      	ldr	r3, [pc, #360]	; (23f8a44 <_Z16handleMonitoringv+0x194>)
      lastPressTime = t;                          // Record this accepted press time.
 23f88da:	6010      	str	r0, [r2, #0]
      imu_data.leaking = false; leakRunLen = 0;   // A button press clears the leak state.
 23f88dc:	711c      	strb	r4, [r3, #4]
 23f88de:	4b5a      	ldr	r3, [pc, #360]	; (23f8a48 <_Z16handleMonitoringv+0x198>)
      restartSleepTimer("button");                // ...and keeps the device awake a while.
 23f88e0:	485a      	ldr	r0, [pc, #360]	; (23f8a4c <_Z16handleMonitoringv+0x19c>)
      imu_data.leaking = false; leakRunLen = 0;   // A button press clears the leak state.
 23f88e2:	601c      	str	r4, [r3, #0]
      triggerPublish = true;                      // ...and requests a publish.
 23f88e4:	2401      	movs	r4, #1
 23f88e6:	702c      	strb	r4, [r5, #0]
      restartSleepTimer("button");                // ...and keeps the device awake a while.
 23f88e8:	f7fe fd36 	bl	23f7358 <_Z17restartSleepTimerPKc>
      delay(STATE_CHANGE_DELAY_MS);               // Brief pause to settle.
 23f88ec:	f44f 70fa 	mov.w	r0, #500	; 0x1f4
 23f88f0:	f003 f828 	bl	23fb944 <delay>
  bool btn = (digitalRead(MODE_PIN) == LOW) || (System.buttonPushed() > 0);   // Is the button pressed (pin LOW or system button)?
 23f88f4:	4620      	mov	r0, r4
 23f88f6:	e005      	b.n	23f8904 <_Z16handleMonitoringv+0x54>
        return system_button_pushed_duration(button, nullptr);
 23f88f8:	2100      	movs	r1, #0
 23f88fa:	4608      	mov	r0, r1
 23f88fc:	f001 fa2c 	bl	23f9d58 <system_button_pushed_duration>
 23f8900:	2800      	cmp	r0, #0
 23f8902:	d1dd      	bne.n	23f88c0 <_Z16handleMonitoringv+0x10>
  lastButtonState = btn;                          // Remember the button state for next loop's edge detection.
 23f8904:	7030      	strb	r0, [r6, #0]
  if (picLink.wakeIsHigh()) {                     // If the PIC's WAKE line is HIGH (it may have data)...
 23f8906:	4852      	ldr	r0, [pc, #328]	; (23f8a50 <_Z16handleMonitoringv+0x1a0>)
 23f8908:	f000 f9ec 	bl	23f8ce4 <_ZN7PicLink10wakeIsHighEv>
 23f890c:	4b51      	ldr	r3, [pc, #324]	; (23f8a54 <_Z16handleMonitoringv+0x1a4>)
 23f890e:	2800      	cmp	r0, #0
 23f8910:	d062      	beq.n	23f89d8 <_Z16handleMonitoringv+0x128>
    if (!wakeSessionDrained && (millis() - lastPicPoll >= PIC_POLL_MIN_MS)) {   // ...and we haven't drained it and enough time passed...
 23f8912:	781b      	ldrb	r3, [r3, #0]
 23f8914:	b96b      	cbnz	r3, 23f8932 <_Z16handleMonitoringv+0x82>
 23f8916:	f000 fe9f 	bl	23f9658 <HAL_Timer_Get_Milli_Seconds>
 23f891a:	4c4f      	ldr	r4, [pc, #316]	; (23f8a58 <_Z16handleMonitoringv+0x1a8>)
 23f891c:	6823      	ldr	r3, [r4, #0]
 23f891e:	1ac0      	subs	r0, r0, r3
 23f8920:	f5b0 7f7a 	cmp.w	r0, #1000	; 0x3e8
 23f8924:	d305      	bcc.n	23f8932 <_Z16handleMonitoringv+0x82>
 23f8926:	f000 fe97 	bl	23f9658 <HAL_Timer_Get_Milli_Seconds>
      lastPicPoll = millis();                     // ...record this poll time...
 23f892a:	6020      	str	r0, [r4, #0]
      serviceMeterFromPic(true);                  // ...and pull data from the PIC.
 23f892c:	2001      	movs	r0, #1
 23f892e:	f7fe fedd 	bl	23f76ec <_Z19serviceMeterFromPicb>
  if (resetShutoff) {                             // If the 10 s valve timer asked us to reset...
 23f8932:	4c4a      	ldr	r4, [pc, #296]	; (23f8a5c <_Z16handleMonitoringv+0x1ac>)
 23f8934:	7823      	ldrb	r3, [r4, #0]
 23f8936:	b17b      	cbz	r3, 23f8958 <_Z16handleMonitoringv+0xa8>
    shutoffSwitch("off"); imu_data.leaking = false; imu_data.shutoff = false;   // ...power off the valve and clear flags.
 23f8938:	4949      	ldr	r1, [pc, #292]	; (23f8a60 <_Z16handleMonitoringv+0x1b0>)
 23f893a:	4668      	mov	r0, sp
 23f893c:	f001 fe3d 	bl	23fa5ba <_ZN6StringC1EPK19__FlashStringHelper>
 23f8940:	4668      	mov	r0, sp
 23f8942:	f7fe fd29 	bl	23f7398 <_Z13shutoffSwitch6String>
 23f8946:	4668      	mov	r0, sp
 23f8948:	f001 fdec 	bl	23fa524 <_ZN6StringD1Ev>
 23f894c:	2300      	movs	r3, #0
 23f894e:	4a3d      	ldr	r2, [pc, #244]	; (23f8a44 <_Z16handleMonitoringv+0x194>)
 23f8950:	8093      	strh	r3, [r2, #4]
    triggerPublish = true; resetShutoff = false;  // ...request a publish and clear the request flag.
 23f8952:	2201      	movs	r2, #1
 23f8954:	702a      	strb	r2, [r5, #0]
 23f8956:	7023      	strb	r3, [r4, #0]
  if (nextPublishEpoch == 0)                      // If we've never scheduled a publish time...
 23f8958:	4c42      	ldr	r4, [pc, #264]	; (23f8a64 <_Z16handleMonitoringv+0x1b4>)
  unsigned long nowS = Time.now();                // Current UTC time in seconds.
 23f895a:	f002 ffd7 	bl	23fb90c <_Z19__fetch_global_Timev>
 23f895e:	f002 ffbb 	bl	23fb8d8 <_ZN9TimeClass3nowEv>
  if (nextPublishEpoch == 0)                      // If we've never scheduled a publish time...
 23f8962:	f8d4 309c 	ldr.w	r3, [r4, #156]	; 0x9c
 23f8966:	b933      	cbnz	r3, 23f8976 <_Z16handleMonitoringv+0xc6>
    nextPublishEpoch = ((nowS / SLEEP_DURATION_S) + 1) * SLEEP_DURATION_S;   // ...set it to the next 24 h boundary.
 23f8968:	4b3f      	ldr	r3, [pc, #252]	; (23f8a68 <_Z16handleMonitoringv+0x1b8>)
 23f896a:	fbb0 f2f3 	udiv	r2, r0, r3
 23f896e:	fb02 3303 	mla	r3, r2, r3, r3
 23f8972:	f8c4 309c 	str.w	r3, [r4, #156]	; 0x9c
  if (nowS >= nextPublishEpoch) {                 // If we've reached/passed the scheduled publish time...
 23f8976:	f8d4 309c 	ldr.w	r3, [r4, #156]	; 0x9c
 23f897a:	4283      	cmp	r3, r0
 23f897c:	d809      	bhi.n	23f8992 <_Z16handleMonitoringv+0xe2>
    triggerPublish = true;                        // ...request a publish...
 23f897e:	2201      	movs	r2, #1
 23f8980:	702a      	strb	r2, [r5, #0]
    do { nextPublishEpoch += SLEEP_DURATION_S; } while (nextPublishEpoch <= nowS);   // ...and advance to the next future boundary.
 23f8982:	f503 33a8 	add.w	r3, r3, #86016	; 0x15000
 23f8986:	f503 73c0 	add.w	r3, r3, #384	; 0x180
 23f898a:	4283      	cmp	r3, r0
 23f898c:	d9f9      	bls.n	23f8982 <_Z16handleMonitoringv+0xd2>
 23f898e:	f8c4 309c 	str.w	r3, [r4, #156]	; 0x9c
  if (triggerPublish) {                           // If a publish was requested by anything above...
 23f8992:	782b      	ldrb	r3, [r5, #0]
 23f8994:	2b00      	cmp	r3, #0
 23f8996:	d04b      	beq.n	23f8a30 <_Z16handleMonitoringv+0x180>
 23f8998:	f001 fb66 	bl	23fa068 <spark_cloud_flag_connected>
    if (!Particle.connected()) {                  // ...and we're not connected to the cloud yet...
 23f899c:	4606      	mov	r6, r0
 23f899e:	bbd0      	cbnz	r0, 23f8a16 <_Z16handleMonitoringv+0x166>
      WiFi.on(); WiFi.connect(); waitFor(WiFi.ready, WIFI_CONNECT_TIMEOUT_MS);   // Bring up Wi-Fi and wait.
 23f89a0:	4832      	ldr	r0, [pc, #200]	; (23f8a6c <_Z16handleMonitoringv+0x1bc>)
 23f89a2:	f7fe f921 	bl	23f6be8 <_ZN5spark9WiFiClass2onEv>
 23f89a6:	4631      	mov	r1, r6
 23f89a8:	4830      	ldr	r0, [pc, #192]	; (23f8a6c <_Z16handleMonitoringv+0x1bc>)
 23f89aa:	f7fe f923 	bl	23f6bf4 <_ZN5spark9WiFiClass7connectEj>
 23f89ae:	f000 fe53 	bl	23f9658 <HAL_Timer_Get_Milli_Seconds>
        while (_while() && !_condition()) {
 23f89b2:	f644 671f 	movw	r7, #19999	; 0x4e1f
 23f89b6:	4606      	mov	r6, r0
 23f89b8:	f8df 80b0 	ldr.w	r8, [pc, #176]	; 23f8a6c <_Z16handleMonitoringv+0x1bc>
 23f89bc:	f000 fe4c 	bl	23f9658 <HAL_Timer_Get_Milli_Seconds>
        return waitConditionWhile(_condition, [=]{ return (::millis()-start)<timeout; });
 23f89c0:	1b80      	subs	r0, r0, r6
        while (_while() && !_condition()) {
 23f89c2:	42b8      	cmp	r0, r7
 23f89c4:	d80a      	bhi.n	23f89dc <_Z16handleMonitoringv+0x12c>
 23f89c6:	4640      	mov	r0, r8
 23f89c8:	f7fe f919 	bl	23f6bfe <_ZN5spark9WiFiClass5readyEv>
 23f89cc:	b930      	cbnz	r0, 23f89dc <_Z16handleMonitoringv+0x12c>
            spark_process();
 23f89ce:	f001 fb2f 	bl	23fa030 <spark_process>
        while (_while() && !_condition()) {
 23f89d2:	e7f3      	b.n	23f89bc <_Z16handleMonitoringv+0x10c>
  bool btn = (digitalRead(MODE_PIN) == LOW) || (System.buttonPushed() > 0);   // Is the button pressed (pin LOW or system button)?
 23f89d4:	2001      	movs	r0, #1
 23f89d6:	e795      	b.n	23f8904 <_Z16handleMonitoringv+0x54>
    wakeSessionDrained = false;        // WAKE LOW -> next HIGH is a new session
 23f89d8:	7018      	strb	r0, [r3, #0]
 23f89da:	e7aa      	b.n	23f8932 <_Z16handleMonitoringv+0x82>
      WiFi.on(); WiFi.connect(); waitFor(WiFi.ready, WIFI_CONNECT_TIMEOUT_MS);   // Bring up Wi-Fi and wait.
 23f89dc:	4823      	ldr	r0, [pc, #140]	; (23f8a6c <_Z16handleMonitoringv+0x1bc>)
 23f89de:	f7fe f90e 	bl	23f6bfe <_ZN5spark9WiFiClass5readyEv>
        spark_cloud_flag_connect();
 23f89e2:	f001 fb33 	bl	23fa04c <spark_cloud_flag_connect>
 23f89e6:	f000 fe37 	bl	23f9658 <HAL_Timer_Get_Milli_Seconds>
 23f89ea:	f247 572f 	movw	r7, #29999	; 0x752f
 23f89ee:	4606      	mov	r6, r0
 23f89f0:	f000 fe32 	bl	23f9658 <HAL_Timer_Get_Milli_Seconds>
        return waitConditionWhile(_condition, [=]{ return (::millis()-start)<timeout; });
 23f89f4:	1b80      	subs	r0, r0, r6
        while (_while() && !_condition()) {
 23f89f6:	42b8      	cmp	r0, r7
 23f89f8:	d805      	bhi.n	23f8a06 <_Z16handleMonitoringv+0x156>
    static bool connected(void) { return spark_cloud_flag_connected(); }
 23f89fa:	f001 fb35 	bl	23fa068 <spark_cloud_flag_connected>
 23f89fe:	b910      	cbnz	r0, 23f8a06 <_Z16handleMonitoringv+0x156>
            spark_process();
 23f8a00:	f001 fb16 	bl	23fa030 <spark_process>
        while (_while() && !_condition()) {
 23f8a04:	e7f4      	b.n	23f89f0 <_Z16handleMonitoringv+0x140>
 23f8a06:	f001 fb2f 	bl	23fa068 <spark_cloud_flag_connected>
		return !thread || !thread->isRunning();
	}

	static inline system_tick_t current_time()
	{
		return HAL_Timer_Get_Milli_Seconds();
 23f8a0a:	f000 fe25 	bl	23f9658 <HAL_Timer_Get_Milli_Seconds>
	/**
	 * Lifesign that the application is still working normally.
	 */
	static void checkin()
	{
		last_checkin = current_time();
 23f8a0e:	4b18      	ldr	r3, [pc, #96]	; (23f8a70 <_Z16handleMonitoringv+0x1c0>)
 23f8a10:	6018      	str	r0, [r3, #0]
            return spark_process();
 23f8a12:	f001 fb0d 	bl	23fa030 <spark_process>
    if (picParamsDirty) pushPicParams();          // Deliver any pending PIC params while we're connected.
 23f8a16:	f894 3084 	ldrb.w	r3, [r4, #132]	; 0x84
 23f8a1a:	b10b      	cbz	r3, 23f8a20 <_Z16handleMonitoringv+0x170>
 23f8a1c:	f7fe fc4c 	bl	23f72b8 <_Z13pushPicParamsv>
    readValveStatus();                            // Read fresh valve status to include in the publish.
 23f8a20:	f7fe fc6e 	bl	23f7300 <_Z15readValveStatusv>
    imuPrint();                                   // Log a status summary.
 23f8a24:	f7fe fc3e 	bl	23f72a4 <_Z8imuPrintv>
    imuPublish();                                 // Publish "sensorData" + interval chunks to the cloud.
 23f8a28:	f7ff fdba 	bl	23f85a0 <_Z10imuPublishv>
    triggerPublish = false;                       // Clear the publish request now that it's done.
 23f8a2c:	2300      	movs	r3, #0
 23f8a2e:	702b      	strb	r3, [r5, #0]
}
 23f8a30:	b004      	add	sp, #16
 23f8a32:	e8bd 81f0 	ldmia.w	sp!, {r4, r5, r6, r7, r8, pc}
 23f8a36:	bf00      	nop
 23f8a38:	10079150 	.word	0x10079150
 23f8a3c:	100791c0 	.word	0x100791c0
 23f8a40:	10079154 	.word	0x10079154
 23f8a44:	10079124 	.word	0x10079124
 23f8a48:	10072f1c 	.word	0x10072f1c
 23f8a4c:	023ff81b 	.word	0x023ff81b
 23f8a50:	10079180 	.word	0x10079180
 23f8a54:	10072f24 	.word	0x10072f24
 23f8a58:	10072f20 	.word	0x10072f20
 23f8a5c:	10079198 	.word	0x10079198
 23f8a60:	023ff735 	.word	0x023ff735
 23f8a64:	1007b400 	.word	0x1007b400
 23f8a68:	00015180 	.word	0x00015180
 23f8a6c:	1007af6c 	.word	0x1007af6c
 23f8a70:	1007afd0 	.word	0x1007afd0

023f8a74 <loop>:

// loop() runs over and over forever after setup(). It is the program's main cycle.
void loop() {
 23f8a74:	b508      	push	{r3, lr}
  runSleep();   // 24 h sleep cadence (no-op while awake/flowing/alarmed)
 23f8a76:	f7ff f9bd 	bl	23f7df4 <_Z8runSleepv>
                //   First, decide whether to sleep (it returns immediately if we should stay awake).

  switch (currentState) {                         // Then act based on the current phase.
 23f8a7a:	4b08      	ldr	r3, [pc, #32]	; (23f8a9c <loop+0x28>)
 23f8a7c:	781b      	ldrb	r3, [r3, #0]
 23f8a7e:	2b01      	cmp	r3, #1
 23f8a80:	d906      	bls.n	23f8a90 <loop+0x1c>
 23f8a82:	2b02      	cmp	r3, #2
 23f8a84:	d007      	beq.n	23f8a96 <loop+0x22>
    case STATE_STARTUP:                           // (STARTUP falls through to CONNECTING.)
    case STATE_CONNECTING: handleConnecting(); break;   // While connecting, check if we're ready yet.
    case STATE_MONITORING: handleMonitoring(); break;   // While monitoring, do the main per-loop work.
  }
  delay(5);                                       // Small 5 ms pause so the loop doesn't spin too fast.
 23f8a86:	e8bd 4008 	ldmia.w	sp!, {r3, lr}
  delay(5);                                       // Small 5 ms pause so the loop doesn't spin too fast.
 23f8a8a:	2005      	movs	r0, #5
 23f8a8c:	f002 bf5a 	b.w	23fb944 <delay>
    case STATE_CONNECTING: handleConnecting(); break;   // While connecting, check if we're ready yet.
 23f8a90:	f7ff fb0a 	bl	23f80a8 <_Z16handleConnectingv>
 23f8a94:	e7f7      	b.n	23f8a86 <loop+0x12>
    case STATE_MONITORING: handleMonitoring(); break;   // While monitoring, do the main per-loop work.
 23f8a96:	f7ff ff0b 	bl	23f88b0 <_Z16handleMonitoringv>
 23f8a9a:	e7f4      	b.n	23f8a86 <loop+0x12>
 23f8a9c:	10079120 	.word	0x10079120

023f8aa0 <_ZN5spark6VectorINS_17LogCategoryFilterENS_16DefaultAllocatorEE4moveIS1_Li0EEEvPS1_S5_S5_>:
        if (dest > p && dest < end) {
 23f8aa0:	4288      	cmp	r0, r1
    static void move(T* dest, T* p, T* end) {
 23f8aa2:	b5f8      	push	{r3, r4, r5, r6, r7, lr}
 23f8aa4:	4604      	mov	r4, r0
 23f8aa6:	460d      	mov	r5, r1
 23f8aa8:	4616      	mov	r6, r2
        if (dest > p && dest < end) {
 23f8aaa:	d916      	bls.n	23f8ada <_ZN5spark6VectorINS_17LogCategoryFilterENS_16DefaultAllocatorEE4moveIS1_Li0EEEvPS1_S5_S5_+0x3a>
 23f8aac:	4290      	cmp	r0, r2
 23f8aae:	d215      	bcs.n	23f8adc <_ZN5spark6VectorINS_17LogCategoryFilterENS_16DefaultAllocatorEE4moveIS1_Li0EEEvPS1_S5_S5_+0x3c>
            --end;
 23f8ab0:	f1a2 0614 	sub.w	r6, r2, #20
            dest += end - p - 1;
 23f8ab4:	1a75      	subs	r5, r6, r1
 23f8ab6:	f1a1 0714 	sub.w	r7, r1, #20
 23f8aba:	442c      	add	r4, r5
            for (; end != p; --end, --dest) {
 23f8abc:	42b7      	cmp	r7, r6
 23f8abe:	d01c      	beq.n	23f8afa <_ZN5spark6VectorINS_17LogCategoryFilterENS_16DefaultAllocatorEE4moveIS1_Li0EEEvPS1_S5_S5_+0x5a>
                new(dest) T(std::move(*end));
 23f8ac0:	b12c      	cbz	r4, 23f8ace <_ZN5spark6VectorINS_17LogCategoryFilterENS_16DefaultAllocatorEE4moveIS1_Li0EEEvPS1_S5_S5_+0x2e>
 23f8ac2:	4631      	mov	r1, r6
 23f8ac4:	4620      	mov	r0, r4
 23f8ac6:	f001 fdaa 	bl	23fa61e <_ZN6StringC1EOS_>
 23f8aca:	7c33      	ldrb	r3, [r6, #16]
 23f8acc:	7423      	strb	r3, [r4, #16]
 23f8ace:	4630      	mov	r0, r6
 23f8ad0:	f001 fd28 	bl	23fa524 <_ZN6StringD1Ev>
            for (; end != p; --end, --dest) {
 23f8ad4:	3e14      	subs	r6, #20
 23f8ad6:	3c14      	subs	r4, #20
 23f8ad8:	e7f0      	b.n	23f8abc <_ZN5spark6VectorINS_17LogCategoryFilterENS_16DefaultAllocatorEE4moveIS1_Li0EEEvPS1_S5_S5_+0x1c>
        } else if (dest != p) {
 23f8ada:	d00e      	beq.n	23f8afa <_ZN5spark6VectorINS_17LogCategoryFilterENS_16DefaultAllocatorEE4moveIS1_Li0EEEvPS1_S5_S5_+0x5a>
            for (; p != end; ++p, ++dest) {
 23f8adc:	42b5      	cmp	r5, r6
 23f8ade:	d00c      	beq.n	23f8afa <_ZN5spark6VectorINS_17LogCategoryFilterENS_16DefaultAllocatorEE4moveIS1_Li0EEEvPS1_S5_S5_+0x5a>
                new(dest) T(std::move(*p));
 23f8ae0:	b12c      	cbz	r4, 23f8aee <_ZN5spark6VectorINS_17LogCategoryFilterENS_16DefaultAllocatorEE4moveIS1_Li0EEEvPS1_S5_S5_+0x4e>
 23f8ae2:	4629      	mov	r1, r5
 23f8ae4:	4620      	mov	r0, r4
 23f8ae6:	f001 fd9a 	bl	23fa61e <_ZN6StringC1EOS_>
 23f8aea:	7c2b      	ldrb	r3, [r5, #16]
 23f8aec:	7423      	strb	r3, [r4, #16]
 23f8aee:	4628      	mov	r0, r5
 23f8af0:	f001 fd18 	bl	23fa524 <_ZN6StringD1Ev>
            for (; p != end; ++p, ++dest) {
 23f8af4:	3514      	adds	r5, #20
 23f8af6:	3414      	adds	r4, #20
 23f8af8:	e7f0      	b.n	23f8adc <_ZN5spark6VectorINS_17LogCategoryFilterENS_16DefaultAllocatorEE4moveIS1_Li0EEEvPS1_S5_S5_+0x3c>
    }
 23f8afa:	bdf8      	pop	{r3, r4, r5, r6, r7, pc}

023f8afc <_ZN5spark6VectorINS_17LogCategoryFilterENS_16DefaultAllocatorEEC1ERKS3_>:
        capacity_(0) {
 23f8afc:	2300      	movs	r3, #0
inline spark::Vector<T, AllocatorT>::Vector(const Vector<T, AllocatorT>& vector) : Vector() {
 23f8afe:	e92d 41f0 	stmdb	sp!, {r4, r5, r6, r7, r8, lr}
        capacity_(0) {
 23f8b02:	e9c0 3300 	strd	r3, r3, [r0]
 23f8b06:	6083      	str	r3, [r0, #8]
    if (vector.size_ > 0 && realloc(vector.size_)) {
 23f8b08:	684f      	ldr	r7, [r1, #4]
inline spark::Vector<T, AllocatorT>::Vector(const Vector<T, AllocatorT>& vector) : Vector() {
 23f8b0a:	4604      	mov	r4, r0
    if (vector.size_ > 0 && realloc(vector.size_)) {
 23f8b0c:	429f      	cmp	r7, r3
inline spark::Vector<T, AllocatorT>::Vector(const Vector<T, AllocatorT>& vector) : Vector() {
 23f8b0e:	460e      	mov	r6, r1
    if (vector.size_ > 0 && realloc(vector.size_)) {
 23f8b10:	dd24      	ble.n	23f8b5c <_ZN5spark6VectorINS_17LogCategoryFilterENS_16DefaultAllocatorEEC1ERKS3_+0x60>
            d = (T*)AllocatorT::malloc(n * sizeof(T));
 23f8b12:	f04f 0814 	mov.w	r8, #20
    return ::malloc(size);
 23f8b16:	fb08 f007 	mul.w	r0, r8, r7
 23f8b1a:	f001 faeb 	bl	23fa0f4 <malloc>
            if (!d) {
 23f8b1e:	4605      	mov	r5, r0
 23f8b20:	b1e0      	cbz	r0, 23f8b5c <_ZN5spark6VectorINS_17LogCategoryFilterENS_16DefaultAllocatorEEC1ERKS3_+0x60>
            move(d, data_, data_ + size_);
 23f8b22:	e9d4 1200 	ldrd	r1, r2, [r4]
 23f8b26:	fb08 1202 	mla	r2, r8, r2, r1
 23f8b2a:	f7ff ffb9 	bl	23f8aa0 <_ZN5spark6VectorINS_17LogCategoryFilterENS_16DefaultAllocatorEE4moveIS1_Li0EEEvPS1_S5_S5_>
    ::free(ptr);
 23f8b2e:	6820      	ldr	r0, [r4, #0]
 23f8b30:	f001 faee 	bl	23fa110 <free>
        data_ = d;
 23f8b34:	6025      	str	r5, [r4, #0]
        capacity_ = n;
 23f8b36:	60a7      	str	r7, [r4, #8]
        copy(data_, vector.data_, vector.data_ + vector.size_);
 23f8b38:	e9d6 7300 	ldrd	r7, r3, [r6]
 23f8b3c:	fb08 7803 	mla	r8, r8, r3, r7
        for (; it != end; ++it, ++dest) {
 23f8b40:	45b8      	cmp	r8, r7
 23f8b42:	d009      	beq.n	23f8b58 <_ZN5spark6VectorINS_17LogCategoryFilterENS_16DefaultAllocatorEEC1ERKS3_+0x5c>
 23f8b44:	4639      	mov	r1, r7
 23f8b46:	4628      	mov	r0, r5
 23f8b48:	f001 fd83 	bl	23fa652 <_ZN6StringC1ERKS_>
 23f8b4c:	7c3b      	ldrb	r3, [r7, #16]
 23f8b4e:	3514      	adds	r5, #20
 23f8b50:	f805 3c04 	strb.w	r3, [r5, #-4]
 23f8b54:	3714      	adds	r7, #20
 23f8b56:	e7f3      	b.n	23f8b40 <_ZN5spark6VectorINS_17LogCategoryFilterENS_16DefaultAllocatorEEC1ERKS3_+0x44>
        size_ = vector.size_;
 23f8b58:	6873      	ldr	r3, [r6, #4]
 23f8b5a:	6063      	str	r3, [r4, #4]
}
 23f8b5c:	4620      	mov	r0, r4
 23f8b5e:	e8bd 81f0 	ldmia.w	sp!, {r4, r5, r6, r7, r8, pc}
	...

023f8b64 <_GLOBAL__sub_I___appProductVersion>:
 23f8b64:	e92d 43f0 	stmdb	sp!, {r4, r5, r6, r7, r8, r9, lr}
} // namespace particle

// particle::Flag<TagT, ValueT>
template<typename TagT, typename ValueT>
inline particle::Flag<TagT, ValueT>::Flag(ValueT val) :
        val_(val) {
 23f8b68:	2400      	movs	r4, #0
 23f8b6a:	4b43      	ldr	r3, [pc, #268]	; (23f8c78 <_GLOBAL__sub_I___appProductVersion+0x114>)
 23f8b6c:	b091      	sub	sp, #68	; 0x44
 23f8b6e:	701c      	strb	r4, [r3, #0]
    }
};

struct __ApplicationProductVersion {
    __ApplicationProductVersion(product_firmware_version_t version) {
        spark_protocol_set_product_firmware_version(spark_protocol_instance(), version);
 23f8b70:	f003 ffec 	bl	23fcb4c <spark_protocol_instance>
 23f8b74:	4623      	mov	r3, r4
 23f8b76:	4622      	mov	r2, r4
 23f8b78:	2102      	movs	r1, #2
 23f8b7a:	f004 f803 	bl	23fcb84 <spark_protocol_set_product_firmware_version>
        spark_protocol_set_product_id(spark_protocol_instance(), id);
 23f8b7e:	f003 ffe5 	bl	23fcb4c <spark_protocol_instance>
 23f8b82:	2120      	movs	r1, #32
 23f8b84:	4623      	mov	r3, r4
 23f8b86:	4622      	mov	r2, r4
 23f8b88:	f003 ffee 	bl	23fcb68 <spark_protocol_set_product_id>
              error_(SYSTEM_ERROR_NONE) {
 23f8b8c:	4b3b      	ldr	r3, [pc, #236]	; (23f8c7c <_GLOBAL__sub_I___appProductVersion+0x118>)
    SleepResult() {}
 23f8b8e:	4a3c      	ldr	r2, [pc, #240]	; (23f8c80 <_GLOBAL__sub_I___appProductVersion+0x11c>)
              error_(SYSTEM_ERROR_NONE) {
 23f8b90:	e9c3 4400 	strd	r4, r4, [r3]
    SleepResult() {}
 23f8b94:	609a      	str	r2, [r3, #8]
        set_system_mode(mode);
 23f8b96:	2003      	movs	r0, #3
 23f8b98:	f001 f8c2 	bl	23f9d20 <set_system_mode>
        capacity_(0) {
 23f8b9c:	e9cd 4403 	strd	r4, r4, [sp, #12]
 23f8ba0:	9405      	str	r4, [sp, #20]
            StreamLogHandler(Serial, level, filters) {
 23f8ba2:	f003 fb41 	bl	23fc228 <_Z16_fetch_usbserialv>
        filter_(level, filters) {
 23f8ba6:	4f37      	ldr	r7, [pc, #220]	; (23f8c84 <_GLOBAL__sub_I___appProductVersion+0x120>)
 23f8ba8:	4680      	mov	r8, r0
 23f8baa:	46b9      	mov	r9, r7
        stream_(&stream) {
 23f8bac:	ae09      	add	r6, sp, #36	; 0x24
 23f8bae:	a903      	add	r1, sp, #12
 23f8bb0:	a806      	add	r0, sp, #24
 23f8bb2:	f7ff ffa3 	bl	23f8afc <_ZN5spark6VectorINS_17LogCategoryFilterENS_16DefaultAllocatorEEC1ERKS3_>
 23f8bb6:	a906      	add	r1, sp, #24
 23f8bb8:	4630      	mov	r0, r6
 23f8bba:	f7ff ff9f 	bl	23f8afc <_ZN5spark6VectorINS_17LogCategoryFilterENS_16DefaultAllocatorEEC1ERKS3_>
        filter_(level, filters) {
 23f8bbe:	4b32      	ldr	r3, [pc, #200]	; (23f8c88 <_GLOBAL__sub_I___appProductVersion+0x124>)
 23f8bc0:	ad0c      	add	r5, sp, #48	; 0x30
 23f8bc2:	f849 3b04 	str.w	r3, [r9], #4
 23f8bc6:	4631      	mov	r1, r6
 23f8bc8:	4628      	mov	r0, r5
 23f8bca:	f7ff ff97 	bl	23f8afc <_ZN5spark6VectorINS_17LogCategoryFilterENS_16DefaultAllocatorEEC1ERKS3_>
 23f8bce:	462a      	mov	r2, r5
 23f8bd0:	211e      	movs	r1, #30
 23f8bd2:	4648      	mov	r0, r9
 23f8bd4:	f002 faca 	bl	23fb16c <_ZN5spark6detail9LogFilterC1E8LogLevelNS_6VectorINS_17LogCategoryFilterENS_16DefaultAllocatorEEE>
 23f8bd8:	4628      	mov	r0, r5
 23f8bda:	f7ff fbd1 	bl	23f8380 <_ZN5spark6VectorINS_17LogCategoryFilterENS_16DefaultAllocatorEED1Ev>
        stream_(&stream) {
 23f8bde:	4630      	mov	r0, r6
 23f8be0:	f7ff fbce 	bl	23f8380 <_ZN5spark6VectorINS_17LogCategoryFilterENS_16DefaultAllocatorEED1Ev>
 23f8be4:	4b29      	ldr	r3, [pc, #164]	; (23f8c8c <_GLOBAL__sub_I___appProductVersion+0x128>)
 23f8be6:	a806      	add	r0, sp, #24
 23f8be8:	603b      	str	r3, [r7, #0]
 23f8bea:	f8c7 8020 	str.w	r8, [r7, #32]
 23f8bee:	f7ff fbc7 	bl	23f8380 <_ZN5spark6VectorINS_17LogCategoryFilterENS_16DefaultAllocatorEED1Ev>
 23f8bf2:	4b27      	ldr	r3, [pc, #156]	; (23f8c90 <_GLOBAL__sub_I___appProductVersion+0x12c>)
 23f8bf4:	603b      	str	r3, [r7, #0]
        Serial.begin();
 23f8bf6:	f003 fb17 	bl	23fc228 <_Z16_fetch_usbserialv>
 23f8bfa:	f44f 5116 	mov.w	r1, #9600	; 0x2580
 23f8bfe:	f003 fb01 	bl	23fc204 <_ZN9USBSerial5beginEl>
        LogManager::instance()->addHandler(this);
 23f8c02:	f001 ffc7 	bl	23fab94 <_ZN5spark10LogManager8instanceEv>
 23f8c06:	4639      	mov	r1, r7
 23f8c08:	f002 f9ca 	bl	23fafa0 <_ZN5spark10LogManager10addHandlerEPNS_10LogHandlerE>
SerialLogHandler logHandler(LOG_LEVEL_INFO);   // Send Log.info()/warn()/error() messages to the USB serial port.
 23f8c0c:	a803      	add	r0, sp, #12
 23f8c0e:	f7ff fbb7 	bl	23f8380 <_ZN5spark6VectorINS_17LogCategoryFilterENS_16DefaultAllocatorEED1Ev>
        return HAL_Feature_Set(feature, true);
 23f8c12:	2101      	movs	r1, #1
 23f8c14:	4608      	mov	r0, r1
 23f8c16:	f000 fd8f 	bl	23f9738 <HAL_Feature_Set>
class PicLink {
 23f8c1a:	4b1e      	ldr	r3, [pc, #120]	; (23f8c94 <_GLOBAL__sub_I___appProductVersion+0x130>)
    Timer(unsigned period, timer_callback_fn callback_, bool one_shot=false) : running(false), handle(nullptr), callback(std::move(callback_)) {
 23f8c1c:	4a1e      	ldr	r2, [pc, #120]	; (23f8c98 <_GLOBAL__sub_I___appProductVersion+0x134>)
 23f8c1e:	701c      	strb	r4, [r3, #0]
	{ ::new (__functor._M_access()) _Functor(std::move(__f)); }
 23f8c20:	4b1e      	ldr	r3, [pc, #120]	; (23f8c9c <_GLOBAL__sub_I___appProductVersion+0x138>)
 23f8c22:	930c      	str	r3, [sp, #48]	; 0x30
    {
#if __cplusplus < 201103L
      // concept requirements
      __glibcxx_function_requires(_SGIAssignableConcept<_Tp>)
#endif
      _Tp __tmp = _GLIBCXX_MOVE(__a);
 23f8c24:	e895 0003 	ldmia.w	r5, {r0, r1}
 23f8c28:	4b1d      	ldr	r3, [pc, #116]	; (23f8ca0 <_GLOBAL__sub_I___appProductVersion+0x13c>)
 23f8c2a:	e886 0003 	stmia.w	r6, {r0, r1}
 23f8c2e:	601a      	str	r2, [r3, #0]
      __a = _GLIBCXX_MOVE(__b);
 23f8c30:	f103 020c 	add.w	r2, r3, #12
 23f8c34:	e892 0003 	ldmia.w	r2, {r0, r1}
 23f8c38:	e885 0003 	stmia.w	r5, {r0, r1}
      __b = _GLIBCXX_MOVE(__tmp);
 23f8c3c:	e896 0003 	ldmia.w	r6, {r0, r1}
 23f8c40:	e882 0003 	stmia.w	r2, {r0, r1}
 23f8c44:	4a17      	ldr	r2, [pc, #92]	; (23f8ca4 <_GLOBAL__sub_I___appProductVersion+0x140>)
 23f8c46:	711c      	strb	r4, [r3, #4]
 23f8c48:	615a      	str	r2, [r3, #20]
      __a = _GLIBCXX_MOVE(__b);
 23f8c4a:	699a      	ldr	r2, [r3, #24]
 23f8c4c:	609c      	str	r4, [r3, #8]
 23f8c4e:	920f      	str	r2, [sp, #60]	; 0x3c
      __b = _GLIBCXX_MOVE(__tmp);
 23f8c50:	4a15      	ldr	r2, [pc, #84]	; (23f8ca8 <_GLOBAL__sub_I___appProductVersion+0x144>)
        os_timer_create(&handle, period, invoke_timer, this, one_shot, nullptr);
 23f8c52:	f242 7110 	movw	r1, #10000	; 0x2710
 23f8c56:	619a      	str	r2, [r3, #24]
 23f8c58:	2201      	movs	r2, #1
 23f8c5a:	f103 0008 	add.w	r0, r3, #8
 23f8c5e:	9200      	str	r2, [sp, #0]
 23f8c60:	9401      	str	r4, [sp, #4]
 23f8c62:	4a12      	ldr	r2, [pc, #72]	; (23f8cac <_GLOBAL__sub_I___appProductVersion+0x148>)
      __a = _GLIBCXX_MOVE(__b);
 23f8c64:	940e      	str	r4, [sp, #56]	; 0x38
 23f8c66:	f000 fdd7 	bl	23f9818 <os_timer_create>
    class function<_Res(_ArgTypes...)>
 23f8c6a:	4628      	mov	r0, r5
 23f8c6c:	f7fd ff86 	bl	23f6b7c <_ZNSt14_Function_baseD1Ev>
 23f8c70:	b011      	add	sp, #68	; 0x44
 23f8c72:	e8bd 83f0 	ldmia.w	sp!, {r4, r5, r6, r7, r8, r9, pc}
 23f8c76:	bf00      	nop
 23f8c78:	10077608 	.word	0x10077608
 23f8c7c:	10072f10 	.word	0x10072f10
 23f8c80:	ffff0000 	.word	0xffff0000
 23f8c84:	1007915c 	.word	0x1007915c
 23f8c88:	023ff840 	.word	0x023ff840
 23f8c8c:	023ff9b0 	.word	0x023ff9b0
 23f8c90:	023ff858 	.word	0x023ff858
 23f8c94:	10079180 	.word	0x10079180
 23f8c98:	023ff82c 	.word	0x023ff82c
 23f8c9c:	023f695d 	.word	0x023f695d
 23f8ca0:	1007919c 	.word	0x1007919c
 23f8ca4:	023f6a99 	.word	0x023f6a99
 23f8ca8:	023f6aad 	.word	0x023f6aad
 23f8cac:	023f69d7 	.word	0x023f69d7

023f8cb0 <_Z20acquireSerial1Bufferv>:
// Grow the Serial1 RX buffer so a full RSP_DATA frame can land before we drain
// it:  7 (frame overhead) + 4 (COUNT) + 1000*3 (samples) = 3011 bytes. Spec 7
// asks for >= 4096.
// This special function name (acquireSerial1Buffer) is recognized by Device OS:
// if we define it, the OS uses OUR bigger buffers for Serial1 instead of tiny defaults.
hal_usart_buffer_config_t acquireSerial1Buffer(void) {
 23f8cb0:	b570      	push	{r4, r5, r6, lr}
  static uint8_t txBuf[256];     // 256-byte send buffer ("static" = created once, kept for the whole program).
  static uint8_t rxBuf[4096];    // 4096-byte receive buffer, big enough for the largest reply.
  hal_usart_buffer_config_t cfg = {   // Fill in a config struct describing those buffers.
 23f8cb2:	4604      	mov	r4, r0
hal_usart_buffer_config_t acquireSerial1Buffer(void) {
 23f8cb4:	4606      	mov	r6, r0
  hal_usart_buffer_config_t cfg = {   // Fill in a config struct describing those buffers.
 23f8cb6:	4d03      	ldr	r5, [pc, #12]	; (23f8cc4 <_Z20acquireSerial1Bufferv+0x14>)
 23f8cb8:	cd0f      	ldmia	r5!, {r0, r1, r2, r3}
 23f8cba:	c40f      	stmia	r4!, {r0, r1, r2, r3}
 23f8cbc:	682b      	ldr	r3, [r5, #0]
      .rx_buffer      = rxBuf,                               // Point it at our receive buffer.
      .rx_buffer_size = sizeof(rxBuf),                       // ...and its size (4096).
      .tx_buffer      = txBuf,                               // Point it at our send buffer.
      .tx_buffer_size = sizeof(txBuf)};                      // ...and its size (256).
  return cfg;                    // Hand the config back to Device OS.
}
 23f8cbe:	4630      	mov	r0, r6
  hal_usart_buffer_config_t cfg = {   // Fill in a config struct describing those buffers.
 23f8cc0:	6023      	str	r3, [r4, #0]
}
 23f8cc2:	bd70      	pop	{r4, r5, r6, pc}
 23f8cc4:	023ff068 	.word	0x023ff068

023f8cc8 <_ZN7PicLink5beginEm>:

// PicLink::begin -> one-time setup for the link. "PicLink::" means "this function
// belongs to the PicLink class".
void PicLink::begin(unsigned long baud) {
 23f8cc8:	b510      	push	{r4, lr}
 23f8cca:	460c      	mov	r4, r1
  pinMode(PIC_WAKE_PIN, INPUT_PULLDOWN);   // Make the WAKE pin an input; pull it DOWN so it reads LOW when idle.
 23f8ccc:	200a      	movs	r0, #10
 23f8cce:	2103      	movs	r1, #3
 23f8cd0:	f003 ffa4 	bl	23fcc1c <pinMode>
  Serial1.begin(baud, SERIAL_8N1);         // Start the hardware serial port: 'baud' speed, 8 data bits, No parity, 1 stop bit.
 23f8cd4:	f004 f81a 	bl	23fcd0c <_Z22__fetch_global_Serial1v>
 23f8cd8:	4621      	mov	r1, r4
}
 23f8cda:	e8bd 4010 	ldmia.w	sp!, {r4, lr}
  Serial1.begin(baud, SERIAL_8N1);         // Start the hardware serial port: 'baud' speed, 8 data bits, No parity, 1 stop bit.
 23f8cde:	2200      	movs	r2, #0
 23f8ce0:	f003 bcf0 	b.w	23fc6c4 <_ZN11USARTSerial5beginEmm>

023f8ce4 <_ZN7PicLink10wakeIsHighEv>:

// Return true if the PIC is currently signaling "I'm awake / ready" on the WAKE pin.
bool PicLink::wakeIsHigh() { return digitalRead(PIC_WAKE_PIN) == HIGH; }   // Read the pin; HIGH means ready.
 23f8ce4:	b508      	push	{r3, lr}
 23f8ce6:	200a      	movs	r0, #10
 23f8ce8:	f003 ffc2 	bl	23fcc70 <digitalRead>
 23f8cec:	1e43      	subs	r3, r0, #1
 23f8cee:	4258      	negs	r0, r3
 23f8cf0:	4158      	adcs	r0, r3
 23f8cf2:	bd08      	pop	{r3, pc}

023f8cf4 <_ZN7PicLink7flushRxEv>:

// Empty the receive buffer by reading and discarding every waiting byte.
void PicLink::flushRx() { while (Serial1.available()) Serial1.read(); }    // Keep reading until none are left.
 23f8cf4:	b508      	push	{r3, lr}
 23f8cf6:	f004 f809 	bl	23fcd0c <_Z22__fetch_global_Serial1v>
 23f8cfa:	6803      	ldr	r3, [r0, #0]
 23f8cfc:	691b      	ldr	r3, [r3, #16]
 23f8cfe:	4798      	blx	r3
 23f8d00:	b128      	cbz	r0, 23f8d0e <_ZN7PicLink7flushRxEv+0x1a>
 23f8d02:	f004 f803 	bl	23fcd0c <_Z22__fetch_global_Serial1v>
 23f8d06:	6803      	ldr	r3, [r0, #0]
 23f8d08:	695b      	ldr	r3, [r3, #20]
 23f8d0a:	4798      	blx	r3
 23f8d0c:	e7f3      	b.n	23f8cf6 <_ZN7PicLink7flushRxEv+0x2>
 23f8d0e:	bd08      	pop	{r3, pc}

023f8d10 <_ZN7PicLink12waitWakeHighEm>:

// Wait up to 'timeoutMs' for the WAKE line to become HIGH. Returns true if it did.
bool PicLink::waitWakeHigh(uint32_t timeoutMs) {
 23f8d10:	b538      	push	{r3, r4, r5, lr}
 23f8d12:	460d      	mov	r5, r1
 23f8d14:	f000 fca0 	bl	23f9658 <HAL_Timer_Get_Milli_Seconds>
 23f8d18:	4604      	mov	r4, r0
 23f8d1a:	f000 fc9d 	bl	23f9658 <HAL_Timer_Get_Milli_Seconds>
  uint32_t t = millis();                          // Remember the start time (millis() = ms since boot).
  while (millis() - t < timeoutMs) {              // Loop until 'timeoutMs' milliseconds have passed.
 23f8d1e:	1b00      	subs	r0, r0, r4
 23f8d20:	42a8      	cmp	r0, r5
    if (digitalRead(PIC_WAKE_PIN) == HIGH) return true;   // If WAKE went HIGH, succeed immediately.
 23f8d22:	f04f 000a 	mov.w	r0, #10
  while (millis() - t < timeoutMs) {              // Loop until 'timeoutMs' milliseconds have passed.
 23f8d26:	d207      	bcs.n	23f8d38 <_ZN7PicLink12waitWakeHighEm+0x28>
    if (digitalRead(PIC_WAKE_PIN) == HIGH) return true;   // If WAKE went HIGH, succeed immediately.
 23f8d28:	f003 ffa2 	bl	23fcc70 <digitalRead>
 23f8d2c:	2801      	cmp	r0, #1
 23f8d2e:	d008      	beq.n	23f8d42 <_ZN7PicLink12waitWakeHighEm+0x32>
    delay(1);                                     // Otherwise pause 1 ms so we don't spin too hard.
 23f8d30:	2001      	movs	r0, #1
 23f8d32:	f002 fe07 	bl	23fb944 <delay>
  while (millis() - t < timeoutMs) {              // Loop until 'timeoutMs' milliseconds have passed.
 23f8d36:	e7f0      	b.n	23f8d1a <_ZN7PicLink12waitWakeHighEm+0xa>
  }
  return digitalRead(PIC_WAKE_PIN) == HIGH;       // Final check after timeout: maybe it just went HIGH.
 23f8d38:	f003 ff9a 	bl	23fcc70 <digitalRead>
 23f8d3c:	1e43      	subs	r3, r0, #1
 23f8d3e:	4258      	negs	r0, r3
 23f8d40:	4158      	adcs	r0, r3
}
 23f8d42:	bd38      	pop	{r3, r4, r5, pc}

023f8d44 <_ZN7PicLink8readByteEPhm>:

// Read exactly one byte into *out, waiting up to 'timeoutMs'. Returns false on timeout.
bool PicLink::readByte(uint8_t *out, uint32_t timeoutMs) {
 23f8d44:	b5f8      	push	{r3, r4, r5, r6, r7, lr}
 23f8d46:	460d      	mov	r5, r1
 23f8d48:	4616      	mov	r6, r2
 23f8d4a:	f000 fc85 	bl	23f9658 <HAL_Timer_Get_Milli_Seconds>
 23f8d4e:	4607      	mov	r7, r0
  uint32_t start = millis();                      // Record when we started waiting.
  while (!Serial1.available()) {                  // While no byte has arrived yet...
 23f8d50:	f003 ffdc 	bl	23fcd0c <_Z22__fetch_global_Serial1v>
 23f8d54:	6803      	ldr	r3, [r0, #0]
 23f8d56:	691b      	ldr	r3, [r3, #16]
 23f8d58:	4798      	blx	r3
 23f8d5a:	4604      	mov	r4, r0
 23f8d5c:	b930      	cbnz	r0, 23f8d6c <_ZN7PicLink8readByteEPhm+0x28>
 23f8d5e:	f000 fc7b 	bl	23f9658 <HAL_Timer_Get_Milli_Seconds>
    if (millis() - start >= timeoutMs) return false;   // ...give up if we have waited too long.
 23f8d62:	1bc3      	subs	r3, r0, r7
 23f8d64:	42b3      	cmp	r3, r6
 23f8d66:	d3f3      	bcc.n	23f8d50 <_ZN7PicLink8readByteEPhm+0xc>
 23f8d68:	4620      	mov	r0, r4
 23f8d6a:	e006      	b.n	23f8d7a <_ZN7PicLink8readByteEPhm+0x36>
  }
  *out = (uint8_t)Serial1.read();                 // A byte is here: read it and store it where 'out' points.
 23f8d6c:	f003 ffce 	bl	23fcd0c <_Z22__fetch_global_Serial1v>
 23f8d70:	6803      	ldr	r3, [r0, #0]
 23f8d72:	695b      	ldr	r3, [r3, #20]
 23f8d74:	4798      	blx	r3
 23f8d76:	7028      	strb	r0, [r5, #0]
 23f8d78:	2001      	movs	r0, #1
  return true;                                    // Success.
}
 23f8d7a:	bdf8      	pop	{r3, r4, r5, r6, r7, pc}

023f8d7c <_ZN7PicLink5crc16EPKht>:

// CRC-16/MODBUS over func+len+data (marker excluded). Returns host-order value;
// transmitted big-endian as (crc>>8) then (crc&0xFF).
// A CRC is a math fingerprint of the bytes; if even one byte changes, the CRC changes.
uint16_t PicLink::crc16(const uint8_t *p, uint16_t n) {
 23f8d7c:	4602      	mov	r2, r0
 23f8d7e:	b530      	push	{r4, r5, lr}
 23f8d80:	4401      	add	r1, r0
  uint16_t crc = 0xFFFF;                          // Start value required by the MODBUS CRC standard.
  while (n--) {                                   // Loop over all n bytes (n-- counts down to 0).
    crc ^= *p++;                                  // XOR the current byte into the low part of crc; advance p.
    for (uint8_t i = 0; i < 8; i++)               // Process each of the 8 bits in that byte...
      crc = (crc & 1) ? (crc >> 1) ^ 0xA001 : (crc >> 1);
 23f8d82:	f24a 0501 	movw	r5, #40961	; 0xa001
  uint16_t crc = 0xFFFF;                          // Start value required by the MODBUS CRC standard.
 23f8d86:	f64f 70ff 	movw	r0, #65535	; 0xffff
  while (n--) {                                   // Loop over all n bytes (n-- counts down to 0).
 23f8d8a:	428a      	cmp	r2, r1
 23f8d8c:	d00f      	beq.n	23f8dae <_ZN7PicLink5crc16EPKht+0x32>
    crc ^= *p++;                                  // XOR the current byte into the low part of crc; advance p.
 23f8d8e:	2408      	movs	r4, #8
 23f8d90:	f812 3b01 	ldrb.w	r3, [r2], #1
 23f8d94:	4058      	eors	r0, r3
      crc = (crc & 1) ? (crc >> 1) ^ 0xA001 : (crc >> 1);
 23f8d96:	f000 0301 	and.w	r3, r0, #1
 23f8d9a:	0840      	lsrs	r0, r0, #1
 23f8d9c:	b113      	cbz	r3, 23f8da4 <_ZN7PicLink5crc16EPKht+0x28>
 23f8d9e:	ea80 0305 	eor.w	r3, r0, r5
 23f8da2:	b298      	uxth	r0, r3
    for (uint8_t i = 0; i < 8; i++)               // Process each of the 8 bits in that byte...
 23f8da4:	1e63      	subs	r3, r4, #1
 23f8da6:	f013 04ff 	ands.w	r4, r3, #255	; 0xff
 23f8daa:	d1f4      	bne.n	23f8d96 <_ZN7PicLink5crc16EPKht+0x1a>
 23f8dac:	e7ed      	b.n	23f8d8a <_ZN7PicLink5crc16EPKht+0xe>
                                                  // If the lowest bit is 1: shift right and XOR the polynomial 0xA001.
                                                  // If it is 0: just shift right. (This is the standard CRC loop.)
  }
  return crc;                                     // Return the finished 16-bit fingerprint.
}
 23f8dae:	bd30      	pop	{r4, r5, pc}

023f8db0 <_ZN7PicLink10ensureWakeEv>:

// Spec 5.3: make sure WAKE is HIGH before sending a packet. If LOW, send 0xF0
// and wait for HIGH, resending 0xF0 a few times. Never send a frame while LOW.
bool PicLink::ensureWake() {
 23f8db0:	b538      	push	{r3, r4, r5, lr}
 23f8db2:	4605      	mov	r5, r0
  if (wakeIsHigh()) return true;                  // Already awake? Nothing to do.
 23f8db4:	f7ff ff96 	bl	23f8ce4 <_ZN7PicLink10wakeIsHighEv>
 23f8db8:	b9c0      	cbnz	r0, 23f8dec <_ZN7PicLink10ensureWakeEv+0x3c>
 23f8dba:	2405      	movs	r4, #5
  for (uint8_t attempt = 0; attempt < PHOTON_WAKE_RETRIES; attempt++) {  // Try a few times...
    Serial1.write(PIC_WAKE_BYTE);                 // Send the single wake-up byte (0xF0).
 23f8dbc:	f003 ffa6 	bl	23fcd0c <_Z22__fetch_global_Serial1v>
  bool breakRx(void);

  inline size_t write(unsigned long n) { return write((uint16_t)n); }
  inline size_t write(long n) { return write((uint16_t)n); }
  inline size_t write(unsigned int n) { return write((uint16_t)n); }
  inline size_t write(int n) { return write((uint16_t)n); }
 23f8dc0:	21f0      	movs	r1, #240	; 0xf0
 23f8dc2:	f003 fc89 	bl	23fc6d8 <_ZN11USARTSerial5writeEt>
    Serial1.flush();                              // Block until that byte has fully left the serial port.
 23f8dc6:	f003 ffa1 	bl	23fcd0c <_Z22__fetch_global_Serial1v>
 23f8dca:	6803      	ldr	r3, [r0, #0]
 23f8dcc:	69db      	ldr	r3, [r3, #28]
 23f8dce:	4798      	blx	r3
    if (waitWakeHigh(PHOTON_WAKE_WAIT_MS)) return true;  // Did the PIC raise WAKE? If yes, success.
 23f8dd0:	2164      	movs	r1, #100	; 0x64
 23f8dd2:	4628      	mov	r0, r5
 23f8dd4:	f7ff ff9c 	bl	23f8d10 <_ZN7PicLink12waitWakeHighEm>
 23f8dd8:	b940      	cbnz	r0, 23f8dec <_ZN7PicLink10ensureWakeEv+0x3c>
  for (uint8_t attempt = 0; attempt < PHOTON_WAKE_RETRIES; attempt++) {  // Try a few times...
 23f8dda:	3c01      	subs	r4, #1
 23f8ddc:	f014 04ff 	ands.w	r4, r4, #255	; 0xff
 23f8de0:	d1ec      	bne.n	23f8dbc <_ZN7PicLink10ensureWakeEv+0xc>
  }
  return wakeIsHigh();                            // Out of retries: report whatever the line is now.
 23f8de2:	4628      	mov	r0, r5
}
 23f8de4:	e8bd 4038 	ldmia.w	sp!, {r3, r4, r5, lr}
  return wakeIsHigh();                            // Out of retries: report whatever the line is now.
 23f8de8:	f7ff bf7c 	b.w	23f8ce4 <_ZN7PicLink10wakeIsHighEv>
}
 23f8dec:	2001      	movs	r0, #1
 23f8dee:	bd38      	pop	{r3, r4, r5, pc}

023f8df0 <_ZN7PicLink9sendFrameEhPKht>:

// Build "AA 55 func len_hi len_lo data crc_hi crc_lo" and put it on the wire.
bool PicLink::sendFrame(uint8_t func, const uint8_t *data, uint16_t len) {
 23f8df0:	e92d 43f8 	stmdb	sp!, {r3, r4, r5, r6, r7, r8, r9, lr}
  if ((uint32_t)len + 7 > sizeof(_txbuf)) return false;   // host frames are tiny
 23f8df4:	f103 0807 	add.w	r8, r3, #7
 23f8df8:	f1b8 0f17 	cmp.w	r8, #23
bool PicLink::sendFrame(uint8_t func, const uint8_t *data, uint16_t len) {
 23f8dfc:	4604      	mov	r4, r0
 23f8dfe:	460f      	mov	r7, r1
 23f8e00:	4691      	mov	r9, r2
 23f8e02:	461d      	mov	r5, r3
  if ((uint32_t)len + 7 > sizeof(_txbuf)) return false;   // host frames are tiny
 23f8e04:	d903      	bls.n	23f8e0e <_ZN7PicLink9sendFrameEhPKht+0x1e>
 23f8e06:	2600      	movs	r6, #0
  flushRx();                                       // drop anything stale before we listen
                                                  //   Clear old/leftover received bytes so the upcoming reply is clean.
  Serial1.write(_txbuf, i);                        // Send all 'i' bytes of the finished frame at once.
  Serial1.flush();                                 // Wait until every byte has physically left the port.
  return true;                                     // Frame sent successfully.
}
 23f8e08:	4630      	mov	r0, r6
 23f8e0a:	e8bd 83f8 	ldmia.w	sp!, {r3, r4, r5, r6, r7, r8, r9, pc}
  if (!ensureWake()) return false;                // Make sure the PIC is awake; bail out if it never woke.
 23f8e0e:	f7ff ffcf 	bl	23f8db0 <_ZN7PicLink10ensureWakeEv>
 23f8e12:	4606      	mov	r6, r0
 23f8e14:	2800      	cmp	r0, #0
 23f8e16:	d0f6      	beq.n	23f8e06 <_ZN7PicLink9sendFrameEhPKht+0x16>
  _txbuf[i++] = PIC_MARK0;                         // Byte 0: first marker 0xAA. (i++ stores then advances.)
 23f8e18:	23aa      	movs	r3, #170	; 0xaa
 23f8e1a:	7063      	strb	r3, [r4, #1]
  _txbuf[i++] = PIC_MARK1;                         // Byte 1: second marker 0x55.
 23f8e1c:	2355      	movs	r3, #85	; 0x55
 23f8e1e:	70a3      	strb	r3, [r4, #2]
  _txbuf[i++] = (uint8_t)(len >> 8);               // Byte 3: high byte of the length (top 8 bits).
 23f8e20:	0a2b      	lsrs	r3, r5, #8
 23f8e22:	7123      	strb	r3, [r4, #4]
  _txbuf[i++] = (uint8_t)(len & 0xFF);             // Byte 4: low byte of the length (bottom 8 bits).
 23f8e24:	2300      	movs	r3, #0
  _txbuf[i++] = func;                              // Byte 2: the function code (what kind of message this is).
 23f8e26:	70e7      	strb	r7, [r4, #3]
  _txbuf[i++] = (uint8_t)(len & 0xFF);             // Byte 4: low byte of the length (bottom 8 bits).
 23f8e28:	7165      	strb	r5, [r4, #5]
  for (uint16_t k = 0; k < len; k++) _txbuf[i++] = data[k];  // Bytes 5..: copy the payload in, byte by byte.
 23f8e2a:	b29a      	uxth	r2, r3
 23f8e2c:	1d57      	adds	r7, r2, #5
 23f8e2e:	42aa      	cmp	r2, r5
 23f8e30:	fa14 f787 	uxtah	r7, r4, r7
 23f8e34:	d204      	bcs.n	23f8e40 <_ZN7PicLink9sendFrameEhPKht+0x50>
 23f8e36:	f819 2003 	ldrb.w	r2, [r9, r3]
 23f8e3a:	3301      	adds	r3, #1
 23f8e3c:	707a      	strb	r2, [r7, #1]
 23f8e3e:	e7f4      	b.n	23f8e2a <_ZN7PicLink9sendFrameEhPKht+0x3a>
  uint16_t crc = crc16(&_txbuf[2], (uint16_t)(3 + len));   // func+len+data
 23f8e40:	1ce9      	adds	r1, r5, #3
 23f8e42:	b289      	uxth	r1, r1
 23f8e44:	1ce0      	adds	r0, r4, #3
 23f8e46:	f7ff ff99 	bl	23f8d7c <_ZN7PicLink5crc16EPKht>
  for (uint16_t k = 0; k < len; k++) _txbuf[i++] = data[k];  // Bytes 5..: copy the payload in, byte by byte.
 23f8e4a:	3506      	adds	r5, #6
  _txbuf[i++] = (uint8_t)(crc >> 8);               // Append CRC high byte (big-endian: high byte first).
 23f8e4c:	0a03      	lsrs	r3, r0, #8
  _txbuf[i++] = (uint8_t)(crc & 0xFF);             // Append CRC low byte.
 23f8e4e:	fa14 f585 	uxtah	r5, r4, r5
  _txbuf[i++] = (uint8_t)(crc >> 8);               // Append CRC high byte (big-endian: high byte first).
 23f8e52:	707b      	strb	r3, [r7, #1]
  _txbuf[i++] = (uint8_t)(crc & 0xFF);             // Append CRC low byte.
 23f8e54:	7068      	strb	r0, [r5, #1]
  flushRx();                                       // drop anything stale before we listen
 23f8e56:	4620      	mov	r0, r4
 23f8e58:	f7ff ff4c 	bl	23f8cf4 <_ZN7PicLink7flushRxEv>
  Serial1.write(_txbuf, i);                        // Send all 'i' bytes of the finished frame at once.
 23f8e5c:	f003 ff56 	bl	23fcd0c <_Z22__fetch_global_Serial1v>
 23f8e60:	6803      	ldr	r3, [r0, #0]
 23f8e62:	4642      	mov	r2, r8
 23f8e64:	68db      	ldr	r3, [r3, #12]
 23f8e66:	1c61      	adds	r1, r4, #1
 23f8e68:	4798      	blx	r3
  Serial1.flush();                                 // Wait until every byte has physically left the port.
 23f8e6a:	f003 ff4f 	bl	23fcd0c <_Z22__fetch_global_Serial1v>
 23f8e6e:	6803      	ldr	r3, [r0, #0]
 23f8e70:	69db      	ldr	r3, [r3, #28]
 23f8e72:	4798      	blx	r3
  return true;                                     // Frame sent successfully.
 23f8e74:	e7c8      	b.n	23f8e08 <_ZN7PicLink9sendFrameEhPKht+0x18>

023f8e76 <_ZN7PicLink9readFrameEPhS0_tPtm>:

// Resynchronise on AA 55, then read func + len + data + crc and verify CRC.
// `cap` is the data[] capacity. On success *outLen = payload length.
int PicLink::readFrame(uint8_t *func, uint8_t *data, uint16_t cap,
                       uint16_t *outLen, uint32_t timeoutMs) {
 23f8e76:	e92d 43f0 	stmdb	sp!, {r4, r5, r6, r7, r8, r9, lr}
 23f8e7a:	b087      	sub	sp, #28
 23f8e7c:	4614      	mov	r4, r2
 23f8e7e:	4680      	mov	r8, r0
 23f8e80:	460e      	mov	r6, r1
 23f8e82:	4699      	mov	r9, r3
  uint32_t deadline = millis() + timeoutMs;       // Absolute time by which the whole frame must arrive.

  // Hunt for the AA 55 marker.
  uint8_t prev = 0, b = 0;                         // 'prev' = previous byte, 'b' = current byte.
 23f8e84:	2500      	movs	r5, #0
 23f8e86:	f000 fbe7 	bl	23f9658 <HAL_Timer_Get_Milli_Seconds>
  uint32_t deadline = millis() + timeoutMs;       // Absolute time by which the whole frame must arrive.
 23f8e8a:	9a0f      	ldr	r2, [sp, #60]	; 0x3c
  uint8_t prev = 0, b = 0;                         // 'prev' = previous byte, 'b' = current byte.
 23f8e8c:	f88d 500b 	strb.w	r5, [sp, #11]
  uint32_t deadline = millis() + timeoutMs;       // Absolute time by which the whole frame must arrive.
 23f8e90:	1817      	adds	r7, r2, r0
 23f8e92:	f000 fbe1 	bl	23f9658 <HAL_Timer_Get_Milli_Seconds>
  bool synced = false;                             // Becomes true once we find the AA 55 start marker.
  while ((int32_t)(deadline - millis()) > 0) {     // Keep scanning while there is still time left.
 23f8e96:	1a38      	subs	r0, r7, r0
 23f8e98:	2800      	cmp	r0, #0
 23f8e9a:	dc04      	bgt.n	23f8ea6 <_ZN7PicLink9readFrameEPhS0_tPtm+0x30>
    if (!readByte(&b, 5)) continue;                // Try to read a byte (5 ms each); if none, loop again.
    if (prev == PIC_MARK0 && b == PIC_MARK1) { synced = true; break; }  // Found "AA 55" -> a frame begins.
    prev = b;                                      // Slide the window: this byte becomes "previous" for next time.
  }
  if (!synced) return PIC_ERR_TIMEOUT;             // Never found a start marker in time -> timeout error.
 23f8e9c:	f06f 0001 	mvn.w	r0, #1
  if (crc != rxCrc) return PIC_ERR_BAD_CRC;        // If our computed CRC differs from the one received -> corrupted.

  *func   = hdr[0];                                // Tell the caller which function code this frame carried.
  *outLen = len;                                   // Tell the caller how many payload bytes are in data[].
  return PIC_OK;                                   // Frame received and verified successfully.
}
 23f8ea0:	b007      	add	sp, #28
 23f8ea2:	e8bd 83f0 	ldmia.w	sp!, {r4, r5, r6, r7, r8, r9, pc}
    if (!readByte(&b, 5)) continue;                // Try to read a byte (5 ms each); if none, loop again.
 23f8ea6:	2205      	movs	r2, #5
 23f8ea8:	4640      	mov	r0, r8
 23f8eaa:	f10d 010b 	add.w	r1, sp, #11
 23f8eae:	f7ff ff49 	bl	23f8d44 <_ZN7PicLink8readByteEPhm>
 23f8eb2:	2800      	cmp	r0, #0
 23f8eb4:	d0ed      	beq.n	23f8e92 <_ZN7PicLink9readFrameEPhS0_tPtm+0x1c>
    if (prev == PIC_MARK0 && b == PIC_MARK1) { synced = true; break; }  // Found "AA 55" -> a frame begins.
 23f8eb6:	2daa      	cmp	r5, #170	; 0xaa
 23f8eb8:	f89d 500b 	ldrb.w	r5, [sp, #11]
 23f8ebc:	d1e9      	bne.n	23f8e92 <_ZN7PicLink9readFrameEPhS0_tPtm+0x1c>
 23f8ebe:	2d55      	cmp	r5, #85	; 0x55
 23f8ec0:	d1e7      	bne.n	23f8e92 <_ZN7PicLink9readFrameEPhS0_tPtm+0x1c>
 23f8ec2:	f000 fbc9 	bl	23f9658 <HAL_Timer_Get_Milli_Seconds>
  uint32_t left = (int32_t)(deadline - millis()) > 0 ? deadline - millis() : 1;
 23f8ec6:	1a38      	subs	r0, r7, r0
 23f8ec8:	2800      	cmp	r0, #0
 23f8eca:	dc01      	bgt.n	23f8ed0 <_ZN7PicLink9readFrameEPhS0_tPtm+0x5a>
 23f8ecc:	2201      	movs	r2, #1
 23f8ece:	e002      	b.n	23f8ed6 <_ZN7PicLink9readFrameEPhS0_tPtm+0x60>
 23f8ed0:	f000 fbc2 	bl	23f9658 <HAL_Timer_Get_Milli_Seconds>
 23f8ed4:	1a3a      	subs	r2, r7, r0
 23f8ed6:	2500      	movs	r5, #0
    if (!readByte(&hdr[k], left)) return PIC_ERR_TIMEOUT;   // ...failing with timeout if any is missing.
 23f8ed8:	ab04      	add	r3, sp, #16
 23f8eda:	4640      	mov	r0, r8
 23f8edc:	1959      	adds	r1, r3, r5
 23f8ede:	9201      	str	r2, [sp, #4]
 23f8ee0:	f7ff ff30 	bl	23f8d44 <_ZN7PicLink8readByteEPhm>
 23f8ee4:	2800      	cmp	r0, #0
 23f8ee6:	d0d9      	beq.n	23f8e9c <_ZN7PicLink9readFrameEPhS0_tPtm+0x26>
  for (uint8_t k = 0; k < 3; k++)                  // Read those 3 header bytes...
 23f8ee8:	3501      	adds	r5, #1
 23f8eea:	2d03      	cmp	r5, #3
 23f8eec:	9a01      	ldr	r2, [sp, #4]
 23f8eee:	d1f3      	bne.n	23f8ed8 <_ZN7PicLink9readFrameEPhS0_tPtm+0x62>
  uint16_t len = ((uint16_t)hdr[1] << 8) | hdr[2]; // Rebuild the 16-bit length: high byte<<8 OR low byte.
 23f8ef0:	f8bd 7011 	ldrh.w	r7, [sp, #17]
 23f8ef4:	ba7f      	rev16	r7, r7
 23f8ef6:	b2bd      	uxth	r5, r7
  if (len > cap) return PIC_ERR_OVERFLOW;          // If the payload is bigger than our buffer, refuse it.
 23f8ef8:	45a9      	cmp	r9, r5
 23f8efa:	d34e      	bcc.n	23f8f9a <_ZN7PicLink9readFrameEPhS0_tPtm+0x124>
 23f8efc:	46a1      	mov	r9, r4
 23f8efe:	4425      	add	r5, r4
  for (uint16_t k = 0; k < len; k++)               // Read exactly 'len' payload bytes...
 23f8f00:	45a9      	cmp	r9, r5
    if (!readByte(&crcb[k], left)) return PIC_ERR_TIMEOUT; // ...timeout if missing.
 23f8f02:	9201      	str	r2, [sp, #4]
  for (uint16_t k = 0; k < len; k++)               // Read exactly 'len' payload bytes...
 23f8f04:	d137      	bne.n	23f8f76 <_ZN7PicLink9readFrameEPhS0_tPtm+0x100>
    if (!readByte(&crcb[k], left)) return PIC_ERR_TIMEOUT; // ...timeout if missing.
 23f8f06:	4640      	mov	r0, r8
 23f8f08:	a903      	add	r1, sp, #12
 23f8f0a:	f7ff ff1b 	bl	23f8d44 <_ZN7PicLink8readByteEPhm>
 23f8f0e:	2800      	cmp	r0, #0
 23f8f10:	d0c4      	beq.n	23f8e9c <_ZN7PicLink9readFrameEPhS0_tPtm+0x26>
 23f8f12:	4640      	mov	r0, r8
 23f8f14:	9a01      	ldr	r2, [sp, #4]
 23f8f16:	f10d 010d 	add.w	r1, sp, #13
 23f8f1a:	f7ff ff13 	bl	23f8d44 <_ZN7PicLink8readByteEPhm>
 23f8f1e:	2800      	cmp	r0, #0
 23f8f20:	d0bc      	beq.n	23f8e9c <_ZN7PicLink9readFrameEPhS0_tPtm+0x26>
  uint8_t  head[3] = {hdr[0], hdr[1], hdr[2]};      // Copy the 3 header bytes into a small contiguous array.
 23f8f22:	f89d 3011 	ldrb.w	r3, [sp, #17]
 23f8f26:	f89d 9010 	ldrb.w	r9, [sp, #16]
 23f8f2a:	f88d 3015 	strb.w	r3, [sp, #21]
 23f8f2e:	f89d 3012 	ldrb.w	r3, [sp, #18]
  crc = crc16(head, 3);                            // Run the CRC over those 3 header bytes first.
 23f8f32:	2103      	movs	r1, #3
 23f8f34:	a805      	add	r0, sp, #20
  uint8_t  head[3] = {hdr[0], hdr[1], hdr[2]};      // Copy the 3 header bytes into a small contiguous array.
 23f8f36:	f88d 9014 	strb.w	r9, [sp, #20]
 23f8f3a:	f88d 3016 	strb.w	r3, [sp, #22]
  crc = crc16(head, 3);                            // Run the CRC over those 3 header bytes first.
 23f8f3e:	f7ff ff1d 	bl	23f8d7c <_ZN7PicLink5crc16EPKht>
        c = (c & 1) ? (c >> 1) ^ 0xA001 : (c >> 1);
 23f8f42:	f24a 0201 	movw	r2, #40961	; 0xa001
 23f8f46:	f8bd 800c 	ldrh.w	r8, [sp, #12]
 23f8f4a:	fa98 f898 	rev16.w	r8, r8
 23f8f4e:	fa1f f888 	uxth.w	r8, r8
    for (uint16_t k = 0; k < len; k++) {           // Now fold every payload byte into the CRC...
 23f8f52:	42ac      	cmp	r4, r5
 23f8f54:	d019      	beq.n	23f8f8a <_ZN7PicLink9readFrameEPhS0_tPtm+0x114>
      c ^= data[k];                                // XOR this data byte into the running CRC.
 23f8f56:	f814 3b01 	ldrb.w	r3, [r4], #1
 23f8f5a:	4058      	eors	r0, r3
 23f8f5c:	2308      	movs	r3, #8
 23f8f5e:	b280      	uxth	r0, r0
        c = (c & 1) ? (c >> 1) ^ 0xA001 : (c >> 1);
 23f8f60:	f000 0101 	and.w	r1, r0, #1
 23f8f64:	f3c0 004f 	ubfx	r0, r0, #1, #16
 23f8f68:	b101      	cbz	r1, 23f8f6c <_ZN7PicLink9readFrameEPhS0_tPtm+0xf6>
 23f8f6a:	4050      	eors	r0, r2
      for (uint8_t i = 0; i < 8; i++)              // Process its 8 bits (same standard CRC step as before)...
 23f8f6c:	3b01      	subs	r3, #1
 23f8f6e:	f013 03ff 	ands.w	r3, r3, #255	; 0xff
 23f8f72:	d1f5      	bne.n	23f8f60 <_ZN7PicLink9readFrameEPhS0_tPtm+0xea>
 23f8f74:	e7ed      	b.n	23f8f52 <_ZN7PicLink9readFrameEPhS0_tPtm+0xdc>
    if (!readByte(&data[k], left)) return PIC_ERR_TIMEOUT; // ...timeout if any byte is missing.
 23f8f76:	4649      	mov	r1, r9
 23f8f78:	4640      	mov	r0, r8
 23f8f7a:	f7ff fee3 	bl	23f8d44 <_ZN7PicLink8readByteEPhm>
 23f8f7e:	f109 0901 	add.w	r9, r9, #1
 23f8f82:	9a01      	ldr	r2, [sp, #4]
 23f8f84:	2800      	cmp	r0, #0
 23f8f86:	d1bb      	bne.n	23f8f00 <_ZN7PicLink9readFrameEPhS0_tPtm+0x8a>
 23f8f88:	e788      	b.n	23f8e9c <_ZN7PicLink9readFrameEPhS0_tPtm+0x26>
  if (crc != rxCrc) return PIC_ERR_BAD_CRC;        // If our computed CRC differs from the one received -> corrupted.
 23f8f8a:	4540      	cmp	r0, r8
 23f8f8c:	d108      	bne.n	23f8fa0 <_ZN7PicLink9readFrameEPhS0_tPtm+0x12a>
  *outLen = len;                                   // Tell the caller how many payload bytes are in data[].
 23f8f8e:	9b0e      	ldr	r3, [sp, #56]	; 0x38
  *func   = hdr[0];                                // Tell the caller which function code this frame carried.
 23f8f90:	f886 9000 	strb.w	r9, [r6]
  return PIC_OK;                                   // Frame received and verified successfully.
 23f8f94:	2000      	movs	r0, #0
  *outLen = len;                                   // Tell the caller how many payload bytes are in data[].
 23f8f96:	801f      	strh	r7, [r3, #0]
  return PIC_OK;                                   // Frame received and verified successfully.
 23f8f98:	e782      	b.n	23f8ea0 <_ZN7PicLink9readFrameEPhS0_tPtm+0x2a>
  if (len > cap) return PIC_ERR_OVERFLOW;          // If the payload is bigger than our buffer, refuse it.
 23f8f9a:	f06f 0006 	mvn.w	r0, #6
 23f8f9e:	e77f      	b.n	23f8ea0 <_ZN7PicLink9readFrameEPhS0_tPtm+0x2a>
  if (crc != rxCrc) return PIC_ERR_BAD_CRC;        // If our computed CRC differs from the one received -> corrupted.
 23f8fa0:	f06f 0002 	mvn.w	r0, #2
 23f8fa4:	e77c      	b.n	23f8ea0 <_ZN7PicLink9readFrameEPhS0_tPtm+0x2a>

023f8fa6 <_ZN7PicLink8transactEhPKhthPhtPtm>:
// Send a REQ and wait for the matching RSP, retrying on timeout/bad CRC up to
// PHOTON_RETRY_COUNT (spec 5.4 / 7). RSP_NAK is reported as PIC_ERR_NAK and is
// NOT retried (the request was understood; the data was rejected).
int PicLink::transact(uint8_t reqFunc, const uint8_t *reqData, uint16_t reqLen,
                      uint8_t wantFunc, uint8_t *rspData, uint16_t rspCap,
                      uint16_t *rspLen, uint32_t timeoutMs) {
 23f8fa6:	e92d 4ff0 	stmdb	sp!, {r4, r5, r6, r7, r8, r9, sl, fp, lr}
 23f8faa:	4605      	mov	r5, r0
 23f8fac:	460e      	mov	r6, r1
 23f8fae:	4617      	mov	r7, r2
 23f8fb0:	4698      	mov	r8, r3
 23f8fb2:	2404      	movs	r4, #4
  int last = PIC_ERR_TIMEOUT;                      // Remember the most recent error to return if all tries fail.
  for (uint8_t attempt = 0; attempt <= PHOTON_RETRY_COUNT; attempt++) {  // Original try + up to N retries.
    if (!sendFrame(reqFunc, reqData, reqLen)) { last = PIC_ERR_NO_WAKE; continue; }
                                                  //   Could not send (PIC never woke) -> record error and retry.

    uint8_t  rf = 0;                               // Will hold the received reply's function code.
 23f8fb4:	f04f 0900 	mov.w	r9, #0
                      uint16_t *rspLen, uint32_t timeoutMs) {
 23f8fb8:	b085      	sub	sp, #20
 23f8fba:	f89d a038 	ldrb.w	sl, [sp, #56]	; 0x38
 23f8fbe:	f8bd b040 	ldrh.w	fp, [sp, #64]	; 0x40
    if (!sendFrame(reqFunc, reqData, reqLen)) { last = PIC_ERR_NO_WAKE; continue; }
 23f8fc2:	4643      	mov	r3, r8
 23f8fc4:	463a      	mov	r2, r7
 23f8fc6:	4631      	mov	r1, r6
 23f8fc8:	4628      	mov	r0, r5
 23f8fca:	f7ff ff11 	bl	23f8df0 <_ZN7PicLink9sendFrameEhPKht>
 23f8fce:	b348      	cbz	r0, 23f9024 <_ZN7PicLink8transactEhPKhthPhtPtm+0x7e>
    uint16_t rl = 0;                               // Will hold the received reply's payload length.
    int r = readFrame(&rf, rspData, rspCap, &rl, timeoutMs);  // Wait for one reply frame.
 23f8fd0:	9b12      	ldr	r3, [sp, #72]	; 0x48
 23f8fd2:	4628      	mov	r0, r5
 23f8fd4:	9301      	str	r3, [sp, #4]
 23f8fd6:	f10d 030e 	add.w	r3, sp, #14
 23f8fda:	9300      	str	r3, [sp, #0]
 23f8fdc:	9a0f      	ldr	r2, [sp, #60]	; 0x3c
 23f8fde:	465b      	mov	r3, fp
 23f8fe0:	f10d 010d 	add.w	r1, sp, #13
    uint8_t  rf = 0;                               // Will hold the received reply's function code.
 23f8fe4:	f88d 900d 	strb.w	r9, [sp, #13]
    uint16_t rl = 0;                               // Will hold the received reply's payload length.
 23f8fe8:	f8ad 900e 	strh.w	r9, [sp, #14]
    int r = readFrame(&rf, rspData, rspCap, &rl, timeoutMs);  // Wait for one reply frame.
 23f8fec:	f7ff ff43 	bl	23f8e76 <_ZN7PicLink9readFrameEPhS0_tPtm>
    if (r != PIC_OK) { last = r; continue; }       // timeout/CRC/overflow -> retry
 23f8ff0:	b9d0      	cbnz	r0, 23f9028 <_ZN7PicLink8transactEhPKhthPhtPtm+0x82>
                                                  //   Bad/no reply -> remember why and try again.

    if (rf == RSP_NAK) {                           // The PIC explicitly rejected our request.
 23f8ff2:	f89d 300d 	ldrb.w	r3, [sp, #13]
 23f8ff6:	2b8f      	cmp	r3, #143	; 0x8f
 23f8ff8:	d10a      	bne.n	23f9010 <_ZN7PicLink8transactEhPKhthPhtPtm+0x6a>
      _lastNak = (rl >= 1) ? rspData[0] : 0;       // Save the reason byte (if any) for lastNak().
 23f8ffa:	f8bd 300e 	ldrh.w	r3, [sp, #14]
 23f8ffe:	b10b      	cbz	r3, 23f9004 <_ZN7PicLink8transactEhPKhthPhtPtm+0x5e>
 23f9000:	9b0f      	ldr	r3, [sp, #60]	; 0x3c
 23f9002:	781b      	ldrb	r3, [r3, #0]
      return PIC_ERR_NAK;                          // understood but rejected
 23f9004:	f06f 0005 	mvn.w	r0, #5
      _lastNak = (rl >= 1) ? rspData[0] : 0;       // Save the reason byte (if any) for lastNak().
 23f9008:	702b      	strb	r3, [r5, #0]

    if (rspLen) *rspLen = rl;                       // If the caller wants the length, give it to them.
    return PIC_OK;                                  // We got exactly the reply we wanted -> success.
  }
  return last;                                      // All attempts failed -> return the last error seen.
}
 23f900a:	b005      	add	sp, #20
 23f900c:	e8bd 8ff0 	ldmia.w	sp!, {r4, r5, r6, r7, r8, r9, sl, fp, pc}
    if (rf != wantFunc) { last = PIC_ERR_WRONG_RSP; continue; }   // Reply was a valid frame but the wrong type -> retry.
 23f9010:	4553      	cmp	r3, sl
 23f9012:	d10e      	bne.n	23f9032 <_ZN7PicLink8transactEhPKhthPhtPtm+0x8c>
    if (rspLen) *rspLen = rl;                       // If the caller wants the length, give it to them.
 23f9014:	9b11      	ldr	r3, [sp, #68]	; 0x44
 23f9016:	2b00      	cmp	r3, #0
 23f9018:	d0f7      	beq.n	23f900a <_ZN7PicLink8transactEhPKhthPhtPtm+0x64>
 23f901a:	f8bd 300e 	ldrh.w	r3, [sp, #14]
 23f901e:	9a11      	ldr	r2, [sp, #68]	; 0x44
 23f9020:	8013      	strh	r3, [r2, #0]
 23f9022:	e7f2      	b.n	23f900a <_ZN7PicLink8transactEhPKhthPhtPtm+0x64>
    if (!sendFrame(reqFunc, reqData, reqLen)) { last = PIC_ERR_NO_WAKE; continue; }
 23f9024:	f04f 30ff 	mov.w	r0, #4294967295
  for (uint8_t attempt = 0; attempt <= PHOTON_RETRY_COUNT; attempt++) {  // Original try + up to N retries.
 23f9028:	3c01      	subs	r4, #1
 23f902a:	f014 04ff 	ands.w	r4, r4, #255	; 0xff
 23f902e:	d1c8      	bne.n	23f8fc2 <_ZN7PicLink8transactEhPKhthPhtPtm+0x1c>
 23f9030:	e7eb      	b.n	23f900a <_ZN7PicLink8transactEhPKhthPhtPtm+0x64>
    if (rf != wantFunc) { last = PIC_ERR_WRONG_RSP; continue; }   // Reply was a valid frame but the wrong type -> retry.
 23f9032:	f06f 0004 	mvn.w	r0, #4
 23f9036:	e7f7      	b.n	23f9028 <_ZN7PicLink8transactEhPKhthPhtPtm+0x82>

023f9038 <_ZN7PicLink11requestDataEP9PicSamplet>:

// ---- REQ_DATA -> RSP_DATA ---------------------------------------------------
// Ask the PIC for its stored flow samples, then unpack them into out[].
int PicLink::requestData(PicSample *out, uint16_t maxSamples) {
 23f9038:	b570      	push	{r4, r5, r6, lr}
 23f903a:	4616      	mov	r6, r2
  // RSP_DATA payload = COUNT(4) + COUNT*3 bytes. Decode straight from rxbuf.
  static uint8_t rx[4 + PIC_MAX_SAMPLES * PIC_BYTES_PER_SAMPLE];  // Raw reply buffer: 4 count bytes + up to 1000*3 sample bytes.
  uint16_t rl = 0;                                 // Will receive the actual reply length.
  int r = transact(REQ_DATA, nullptr, 0, RSP_DATA, // Send REQ_DATA (no payload) and expect RSP_DATA back.
 23f903c:	f44f 627a 	mov.w	r2, #4000	; 0xfa0
int PicLink::requestData(PicSample *out, uint16_t maxSamples) {
 23f9040:	b088      	sub	sp, #32
  int r = transact(REQ_DATA, nullptr, 0, RSP_DATA, // Send REQ_DATA (no payload) and expect RSP_DATA back.
 23f9042:	9204      	str	r2, [sp, #16]
 23f9044:	f10d 021e 	add.w	r2, sp, #30
 23f9048:	9203      	str	r2, [sp, #12]
 23f904a:	f640 32bc 	movw	r2, #3004	; 0xbbc
  uint16_t rl = 0;                                 // Will receive the actual reply length.
 23f904e:	2300      	movs	r3, #0
  int r = transact(REQ_DATA, nullptr, 0, RSP_DATA, // Send REQ_DATA (no payload) and expect RSP_DATA back.
 23f9050:	9202      	str	r2, [sp, #8]
 23f9052:	2281      	movs	r2, #129	; 0x81
 23f9054:	4c1b      	ldr	r4, [pc, #108]	; (23f90c4 <_ZN7PicLink11requestDataEP9PicSamplet+0x8c>)
int PicLink::requestData(PicSample *out, uint16_t maxSamples) {
 23f9056:	460d      	mov	r5, r1
  int r = transact(REQ_DATA, nullptr, 0, RSP_DATA, // Send REQ_DATA (no payload) and expect RSP_DATA back.
 23f9058:	9200      	str	r2, [sp, #0]
 23f905a:	2101      	movs	r1, #1
 23f905c:	461a      	mov	r2, r3
 23f905e:	9401      	str	r4, [sp, #4]
  uint16_t rl = 0;                                 // Will receive the actual reply length.
 23f9060:	f8ad 301e 	strh.w	r3, [sp, #30]
  int r = transact(REQ_DATA, nullptr, 0, RSP_DATA, // Send REQ_DATA (no payload) and expect RSP_DATA back.
 23f9064:	f7ff ff9f 	bl	23f8fa6 <_ZN7PicLink8transactEhPKhthPhtPtm>
                   rx, sizeof(rx), &rl, PHOTON_TIMEOUT_DATA_MS);
  if (r != PIC_OK) return r;                       // If the transaction failed, pass the error code up.
 23f9068:	bb38      	cbnz	r0, 23f90ba <_ZN7PicLink11requestDataEP9PicSamplet+0x82>
  if (rl < 4) return PIC_ERR_BAD_FRAME;            // The reply must have at least the 4-byte COUNT field.
 23f906a:	f8bd 201e 	ldrh.w	r2, [sp, #30]
 23f906e:	2a03      	cmp	r2, #3
 23f9070:	d921      	bls.n	23f90b6 <_ZN7PicLink11requestDataEP9PicSamplet+0x7e>

  uint32_t count = ((uint32_t)rx[0] << 24) | ((uint32_t)rx[1] << 16) |   // Rebuild the 32-bit sample COUNT
 23f9072:	6821      	ldr	r1, [r4, #0]
 23f9074:	ba09      	rev	r1, r1
                   ((uint32_t)rx[2] << 8)  |  (uint32_t)rx[3];           // from its 4 big-endian bytes.
  if (count > PIC_MAX_SAMPLES) return PIC_ERR_BAD_FRAME;   // Sanity: never more than 1000 samples.
 23f9076:	f5b1 7f7a 	cmp.w	r1, #1000	; 0x3e8
 23f907a:	d81c      	bhi.n	23f90b6 <_ZN7PicLink11requestDataEP9PicSamplet+0x7e>
  if ((uint32_t)4 + count * PIC_BYTES_PER_SAMPLE != rl) return PIC_ERR_BAD_FRAME;
 23f907c:	eb01 0341 	add.w	r3, r1, r1, lsl #1
 23f9080:	3304      	adds	r3, #4
 23f9082:	4293      	cmp	r3, r2
 23f9084:	d117      	bne.n	23f90b6 <_ZN7PicLink11requestDataEP9PicSamplet+0x7e>
                                                  //   The length must exactly match 4 + count*3, or the frame is wrong.
  if (count > maxSamples) return PIC_ERR_OVERFLOW; // The caller's out[] array is too small to hold them all.
 23f9086:	428e      	cmp	r6, r1
 23f9088:	d319      	bcc.n	23f90be <_ZN7PicLink11requestDataEP9PicSamplet+0x86>
 23f908a:	4623      	mov	r3, r4

  const uint8_t *p = &rx[4];                       // 'p' points at the first sample byte (just past the 4-byte count).
  for (uint32_t i = 0; i < count; i++, p += 3) {   // For each sample (3 bytes each), advance p by 3...
    uint32_t word = ((uint32_t)p[0] << 16) | ((uint32_t)p[1] << 8) | p[2];  // Combine 3 bytes into one 24-bit value.
    out[i].index  = (uint16_t)((word >> 14) & 0x03FF);   // high 10 bits  : top 10 bits = the time-slot index.
    out[i].pulses = (uint16_t)( word        & 0x3FFF);   // low 14 bits   : bottom 14 bits = the pulse count.
 23f908c:	1cae      	adds	r6, r5, #2
  for (uint32_t i = 0; i < count; i++, p += 3) {   // For each sample (3 bytes each), advance p by 3...
 23f908e:	4288      	cmp	r0, r1
 23f9090:	f103 0303 	add.w	r3, r3, #3
 23f9094:	d011      	beq.n	23f90ba <_ZN7PicLink11requestDataEP9PicSamplet+0x82>
    uint32_t word = ((uint32_t)p[0] << 16) | ((uint32_t)p[1] << 8) | p[2];  // Combine 3 bytes into one 24-bit value.
 23f9096:	789a      	ldrb	r2, [r3, #2]
 23f9098:	785c      	ldrb	r4, [r3, #1]
 23f909a:	0212      	lsls	r2, r2, #8
 23f909c:	ea42 4204 	orr.w	r2, r2, r4, lsl #16
 23f90a0:	78dc      	ldrb	r4, [r3, #3]
 23f90a2:	4314      	orrs	r4, r2
    out[i].index  = (uint16_t)((word >> 14) & 0x03FF);   // high 10 bits  : top 10 bits = the time-slot index.
 23f90a4:	0b92      	lsrs	r2, r2, #14
 23f90a6:	f825 2020 	strh.w	r2, [r5, r0, lsl #2]
    out[i].pulses = (uint16_t)( word        & 0x3FFF);   // low 14 bits   : bottom 14 bits = the pulse count.
 23f90aa:	f3c4 020d 	ubfx	r2, r4, #0, #14
 23f90ae:	f826 2020 	strh.w	r2, [r6, r0, lsl #2]
  for (uint32_t i = 0; i < count; i++, p += 3) {   // For each sample (3 bytes each), advance p by 3...
 23f90b2:	3001      	adds	r0, #1
 23f90b4:	e7eb      	b.n	23f908e <_ZN7PicLink11requestDataEP9PicSamplet+0x56>
  if (rl < 4) return PIC_ERR_BAD_FRAME;            // The reply must have at least the 4-byte COUNT field.
 23f90b6:	f06f 0003 	mvn.w	r0, #3
  }
  return (int)count;                               // Return how many samples we decoded (0 or more).
}
 23f90ba:	b008      	add	sp, #32
 23f90bc:	bd70      	pop	{r4, r5, r6, pc}
  if (count > maxSamples) return PIC_ERR_OVERFLOW; // The caller's out[] array is too small to hold them all.
 23f90be:	f06f 0006 	mvn.w	r0, #6
 23f90c2:	e7fa      	b.n	23f90ba <_ZN7PicLink11requestDataEP9PicSamplet+0x82>
 23f90c4:	1007a2c1 	.word	0x1007a2c1

023f90c8 <_ZN7PicLink9getParamsER9PicParams>:
// ---- REQ_GET_PARAM -> RSP_PARAM --------------------------------------------
// Read the PIC's four leak parameters into 'out'. Returns true on success.
bool PicLink::getParams(PicParams &out) {
  uint8_t  rx[8];                                  // The reply is exactly 8 bytes (4 values * 2 bytes each).
  uint16_t rl = 0;                                 // Will receive the reply length.
  int r = transact(REQ_GET_PARAM, nullptr, 0, RSP_PARAM,   // Send REQ_GET_PARAM, expect RSP_PARAM.
 23f90c8:	f44f 737a 	mov.w	r3, #1000	; 0x3e8
bool PicLink::getParams(PicParams &out) {
 23f90cc:	b530      	push	{r4, r5, lr}
 23f90ce:	b08b      	sub	sp, #44	; 0x2c
  int r = transact(REQ_GET_PARAM, nullptr, 0, RSP_PARAM,   // Send REQ_GET_PARAM, expect RSP_PARAM.
 23f90d0:	9304      	str	r3, [sp, #16]
 23f90d2:	f10d 031e 	add.w	r3, sp, #30
 23f90d6:	9303      	str	r3, [sp, #12]
 23f90d8:	2308      	movs	r3, #8
 23f90da:	9302      	str	r3, [sp, #8]
 23f90dc:	ab08      	add	r3, sp, #32
  uint16_t rl = 0;                                 // Will receive the reply length.
 23f90de:	2500      	movs	r5, #0
  int r = transact(REQ_GET_PARAM, nullptr, 0, RSP_PARAM,   // Send REQ_GET_PARAM, expect RSP_PARAM.
 23f90e0:	9301      	str	r3, [sp, #4]
 23f90e2:	2382      	movs	r3, #130	; 0x82
bool PicLink::getParams(PicParams &out) {
 23f90e4:	460c      	mov	r4, r1
  int r = transact(REQ_GET_PARAM, nullptr, 0, RSP_PARAM,   // Send REQ_GET_PARAM, expect RSP_PARAM.
 23f90e6:	9300      	str	r3, [sp, #0]
 23f90e8:	462a      	mov	r2, r5
 23f90ea:	462b      	mov	r3, r5
 23f90ec:	2102      	movs	r1, #2
  uint16_t rl = 0;                                 // Will receive the reply length.
 23f90ee:	f8ad 501e 	strh.w	r5, [sp, #30]
  int r = transact(REQ_GET_PARAM, nullptr, 0, RSP_PARAM,   // Send REQ_GET_PARAM, expect RSP_PARAM.
 23f90f2:	f7ff ff58 	bl	23f8fa6 <_ZN7PicLink8transactEhPKhthPhtPtm>
                   rx, sizeof(rx), &rl, PHOTON_TIMEOUT_READ_MS);
  if (r != PIC_OK || rl != 8) return false;        // Fail if the transaction failed or length wasn't 8.
 23f90f6:	b9b0      	cbnz	r0, 23f9126 <_ZN7PicLink9getParamsER9PicParams+0x5e>
 23f90f8:	f8bd 301e 	ldrh.w	r3, [sp, #30]
 23f90fc:	2b08      	cmp	r3, #8
 23f90fe:	d110      	bne.n	23f9122 <_ZN7PicLink9getParamsER9PicParams+0x5a>
  out.leak1_counts   = ((uint16_t)rx[0] << 8) | rx[1];   // Bytes 0-1 -> leak1 counts (big-endian).
  out.leak1_window_s = ((uint16_t)rx[2] << 8) | rx[3];   // Bytes 2-3 -> leak1 window seconds.
  out.leak2_counts   = ((uint16_t)rx[4] << 8) | rx[5];   // Bytes 4-5 -> leak2 counts.
  out.leak2_window_s = ((uint16_t)rx[6] << 8) | rx[7];   // Bytes 6-7 -> leak2 window seconds.
  return true;                                     // Successfully read all four values.
 23f9100:	2001      	movs	r0, #1
  out.leak1_counts   = ((uint16_t)rx[0] << 8) | rx[1];   // Bytes 0-1 -> leak1 counts (big-endian).
 23f9102:	f8bd 3020 	ldrh.w	r3, [sp, #32]
 23f9106:	ba5b      	rev16	r3, r3
 23f9108:	8023      	strh	r3, [r4, #0]
  out.leak1_window_s = ((uint16_t)rx[2] << 8) | rx[3];   // Bytes 2-3 -> leak1 window seconds.
 23f910a:	f8bd 3022 	ldrh.w	r3, [sp, #34]	; 0x22
 23f910e:	ba5b      	rev16	r3, r3
 23f9110:	8063      	strh	r3, [r4, #2]
  out.leak2_counts   = ((uint16_t)rx[4] << 8) | rx[5];   // Bytes 4-5 -> leak2 counts.
 23f9112:	f8bd 3024 	ldrh.w	r3, [sp, #36]	; 0x24
 23f9116:	ba5b      	rev16	r3, r3
 23f9118:	80a3      	strh	r3, [r4, #4]
  out.leak2_window_s = ((uint16_t)rx[6] << 8) | rx[7];   // Bytes 6-7 -> leak2 window seconds.
 23f911a:	f8bd 3026 	ldrh.w	r3, [sp, #38]	; 0x26
 23f911e:	ba5b      	rev16	r3, r3
 23f9120:	80e3      	strh	r3, [r4, #6]
}
 23f9122:	b00b      	add	sp, #44	; 0x2c
 23f9124:	bd30      	pop	{r4, r5, pc}
  if (r != PIC_OK || rl != 8) return false;        // Fail if the transaction failed or length wasn't 8.
 23f9126:	4628      	mov	r0, r5
 23f9128:	e7fb      	b.n	23f9122 <_ZN7PicLink9getParamsER9PicParams+0x5a>

023f912a <_ZN7PicLink9setParamsERK9PicParams>:

// ---- REQ_SET_PARAM -> RSP_ACK/NAK ------------------------------------------
// Write four leak parameters from 'in' to the PIC. Returns true only if ACKed.
bool PicLink::setParams(const PicParams &in) {
 23f912a:	b500      	push	{lr}
  uint8_t tx[8];                                   // We need to send 8 bytes (4 values * 2 bytes).
  tx[0] = (uint8_t)(in.leak1_counts   >> 8); tx[1] = (uint8_t)(in.leak1_counts);   // leak1 counts -> high, low byte.
 23f912c:	880b      	ldrh	r3, [r1, #0]
bool PicLink::setParams(const PicParams &in) {
 23f912e:	b08b      	sub	sp, #44	; 0x2c
  tx[0] = (uint8_t)(in.leak1_counts   >> 8); tx[1] = (uint8_t)(in.leak1_counts);   // leak1 counts -> high, low byte.
 23f9130:	0a1a      	lsrs	r2, r3, #8
 23f9132:	f88d 3021 	strb.w	r3, [sp, #33]	; 0x21
  tx[2] = (uint8_t)(in.leak1_window_s >> 8); tx[3] = (uint8_t)(in.leak1_window_s); // leak1 window -> high, low.
 23f9136:	884b      	ldrh	r3, [r1, #2]
  tx[0] = (uint8_t)(in.leak1_counts   >> 8); tx[1] = (uint8_t)(in.leak1_counts);   // leak1 counts -> high, low byte.
 23f9138:	f88d 2020 	strb.w	r2, [sp, #32]
  tx[2] = (uint8_t)(in.leak1_window_s >> 8); tx[3] = (uint8_t)(in.leak1_window_s); // leak1 window -> high, low.
 23f913c:	f88d 3023 	strb.w	r3, [sp, #35]	; 0x23
 23f9140:	0a1a      	lsrs	r2, r3, #8
  tx[4] = (uint8_t)(in.leak2_counts   >> 8); tx[5] = (uint8_t)(in.leak2_counts);   // leak2 counts -> high, low.
 23f9142:	888b      	ldrh	r3, [r1, #4]
  tx[2] = (uint8_t)(in.leak1_window_s >> 8); tx[3] = (uint8_t)(in.leak1_window_s); // leak1 window -> high, low.
 23f9144:	f88d 2022 	strb.w	r2, [sp, #34]	; 0x22
  tx[4] = (uint8_t)(in.leak2_counts   >> 8); tx[5] = (uint8_t)(in.leak2_counts);   // leak2 counts -> high, low.
 23f9148:	f88d 3025 	strb.w	r3, [sp, #37]	; 0x25
 23f914c:	0a1a      	lsrs	r2, r3, #8
  tx[6] = (uint8_t)(in.leak2_window_s >> 8); tx[7] = (uint8_t)(in.leak2_window_s); // leak2 window -> high, low.
 23f914e:	88cb      	ldrh	r3, [r1, #6]
  tx[4] = (uint8_t)(in.leak2_counts   >> 8); tx[5] = (uint8_t)(in.leak2_counts);   // leak2 counts -> high, low.
 23f9150:	f88d 2024 	strb.w	r2, [sp, #36]	; 0x24
  tx[6] = (uint8_t)(in.leak2_window_s >> 8); tx[7] = (uint8_t)(in.leak2_window_s); // leak2 window -> high, low.
 23f9154:	f88d 3027 	strb.w	r3, [sp, #39]	; 0x27
 23f9158:	0a1a      	lsrs	r2, r3, #8

  uint8_t  rx[2];                                  // The ACK/NAK reply is small; 2 bytes is enough.
  uint16_t rl = 0;                                 // Will receive the reply length.
 23f915a:	2300      	movs	r3, #0
 23f915c:	f8ad 301e 	strh.w	r3, [sp, #30]
  int r = transact(REQ_SET_PARAM, tx, sizeof(tx), RSP_ACK,   // Send the 8-byte payload, expect an ACK.
 23f9160:	f44f 737a 	mov.w	r3, #1000	; 0x3e8
 23f9164:	9304      	str	r3, [sp, #16]
 23f9166:	f10d 031e 	add.w	r3, sp, #30
 23f916a:	9303      	str	r3, [sp, #12]
 23f916c:	2302      	movs	r3, #2
 23f916e:	9302      	str	r3, [sp, #8]
 23f9170:	ab07      	add	r3, sp, #28
 23f9172:	9301      	str	r3, [sp, #4]
 23f9174:	238e      	movs	r3, #142	; 0x8e
  tx[6] = (uint8_t)(in.leak2_window_s >> 8); tx[7] = (uint8_t)(in.leak2_window_s); // leak2 window -> high, low.
 23f9176:	f88d 2026 	strb.w	r2, [sp, #38]	; 0x26
  int r = transact(REQ_SET_PARAM, tx, sizeof(tx), RSP_ACK,   // Send the 8-byte payload, expect an ACK.
 23f917a:	9300      	str	r3, [sp, #0]
 23f917c:	2103      	movs	r1, #3
 23f917e:	2308      	movs	r3, #8
 23f9180:	aa08      	add	r2, sp, #32
 23f9182:	f7ff ff10 	bl	23f8fa6 <_ZN7PicLink8transactEhPKhthPhtPtm>
                   rx, sizeof(rx), &rl, PHOTON_TIMEOUT_READ_MS);
  return (r == PIC_OK);                            // ACK; NAK/timeout -> false
                                                  //   true only if the PIC acknowledged the write.
}
 23f9186:	fab0 f080 	clz	r0, r0
 23f918a:	0940      	lsrs	r0, r0, #5
 23f918c:	b00b      	add	sp, #44	; 0x2c
 23f918e:	f85d fb04 	ldr.w	pc, [sp], #4

023f9192 <_ZN7PicLink8getValveER8PicValve>:
// ---- REQ_GET_VALVE -> RSP_VALVE --------------------------------------------
// Read the valve status into 'out'. Returns true on success.
bool PicLink::getValve(PicValve &out) {
  uint8_t  rx[8];                                  // The valve reply is 8 bytes.
  uint16_t rl = 0;                                 // Will receive the reply length.
  int r = transact(REQ_GET_VALVE, nullptr, 0, RSP_VALVE,   // Send REQ_GET_VALVE, expect RSP_VALVE.
 23f9192:	f44f 737a 	mov.w	r3, #1000	; 0x3e8
bool PicLink::getValve(PicValve &out) {
 23f9196:	b530      	push	{r4, r5, lr}
 23f9198:	b08b      	sub	sp, #44	; 0x2c
  int r = transact(REQ_GET_VALVE, nullptr, 0, RSP_VALVE,   // Send REQ_GET_VALVE, expect RSP_VALVE.
 23f919a:	9304      	str	r3, [sp, #16]
 23f919c:	f10d 031e 	add.w	r3, sp, #30
 23f91a0:	9303      	str	r3, [sp, #12]
 23f91a2:	2308      	movs	r3, #8
 23f91a4:	9302      	str	r3, [sp, #8]
 23f91a6:	ab08      	add	r3, sp, #32
  uint16_t rl = 0;                                 // Will receive the reply length.
 23f91a8:	2500      	movs	r5, #0
  int r = transact(REQ_GET_VALVE, nullptr, 0, RSP_VALVE,   // Send REQ_GET_VALVE, expect RSP_VALVE.
 23f91aa:	9301      	str	r3, [sp, #4]
 23f91ac:	2384      	movs	r3, #132	; 0x84
bool PicLink::getValve(PicValve &out) {
 23f91ae:	460c      	mov	r4, r1
  int r = transact(REQ_GET_VALVE, nullptr, 0, RSP_VALVE,   // Send REQ_GET_VALVE, expect RSP_VALVE.
 23f91b0:	9300      	str	r3, [sp, #0]
 23f91b2:	462a      	mov	r2, r5
 23f91b4:	462b      	mov	r3, r5
 23f91b6:	2104      	movs	r1, #4
  uint16_t rl = 0;                                 // Will receive the reply length.
 23f91b8:	f8ad 501e 	strh.w	r5, [sp, #30]
  int r = transact(REQ_GET_VALVE, nullptr, 0, RSP_VALVE,   // Send REQ_GET_VALVE, expect RSP_VALVE.
 23f91bc:	f7ff fef3 	bl	23f8fa6 <_ZN7PicLink8transactEhPKhthPhtPtm>
                   rx, sizeof(rx), &rl, PHOTON_TIMEOUT_READ_MS);
  if (r != PIC_OK || rl != 8) return false;        // Fail if transaction failed or length wasn't 8.
 23f91c0:	b9a8      	cbnz	r0, 23f91ee <_ZN7PicLink8getValveER8PicValve+0x5c>
 23f91c2:	f8bd 301e 	ldrh.w	r3, [sp, #30]
 23f91c6:	2b08      	cmp	r3, #8
 23f91c8:	d10f      	bne.n	23f91ea <_ZN7PicLink8getValveER8PicValve+0x58>
  out.ctrl_pin        = rx[1];                      // Byte 1: valve control/direction pin level (0/1).
  out.motion          = rx[2];                      // Byte 2: valve motion state (0..6).
  out.lock_flags      = rx[3];                      // Byte 3: which locks are active (bit0=temp, bit1=perm).
  out.temp_lock_count = ((uint32_t)rx[4] << 24) | ((uint32_t)rx[5] << 16) |   // Bytes 4-7: rebuild the 32-bit
                        ((uint32_t)rx[6] << 8)  |  (uint32_t)rx[7];           // cumulative temp-lock counter.
  return true;                                     // Successfully read the valve status.
 23f91ca:	2001      	movs	r0, #1
  out.pwr_pin         = rx[0];                      // Byte 0: valve power pin level (0/1).
 23f91cc:	f89d 3020 	ldrb.w	r3, [sp, #32]
 23f91d0:	7023      	strb	r3, [r4, #0]
  out.ctrl_pin        = rx[1];                      // Byte 1: valve control/direction pin level (0/1).
 23f91d2:	f89d 3021 	ldrb.w	r3, [sp, #33]	; 0x21
 23f91d6:	7063      	strb	r3, [r4, #1]
  out.motion          = rx[2];                      // Byte 2: valve motion state (0..6).
 23f91d8:	f89d 3022 	ldrb.w	r3, [sp, #34]	; 0x22
 23f91dc:	70a3      	strb	r3, [r4, #2]
  out.lock_flags      = rx[3];                      // Byte 3: which locks are active (bit0=temp, bit1=perm).
 23f91de:	f89d 3023 	ldrb.w	r3, [sp, #35]	; 0x23
 23f91e2:	70e3      	strb	r3, [r4, #3]
  out.temp_lock_count = ((uint32_t)rx[4] << 24) | ((uint32_t)rx[5] << 16) |   // Bytes 4-7: rebuild the 32-bit
 23f91e4:	9b09      	ldr	r3, [sp, #36]	; 0x24
 23f91e6:	ba1b      	rev	r3, r3
 23f91e8:	6063      	str	r3, [r4, #4]
}
 23f91ea:	b00b      	add	sp, #44	; 0x2c
 23f91ec:	bd30      	pop	{r4, r5, pc}
  if (r != PIC_OK || rl != 8) return false;        // Fail if transaction failed or length wasn't 8.
 23f91ee:	4628      	mov	r0, r5
 23f91f0:	e7fb      	b.n	23f91ea <_ZN7PicLink8getValveER8PicValve+0x58>

023f91f2 <_ZN7PicLink11unlockValveEh>:
// ---- REQ_VALVE_UNLOCK -> RSP_ACK/NAK ---------------------------------------
// Clear one or both valve locks. 'flags' picks which. Returns true only if ACKed.
bool PicLink::unlockValve(uint8_t flags) {
  uint8_t  tx[1] = { (uint8_t)(flags & VALVE_LOCK_BOTH) };   // One payload byte; mask off any stray bits (keep only temp/perm).
  uint8_t  rx[2];                                  // Small reply buffer for ACK/NAK.
  uint16_t rl = 0;                                 // Will receive reply length.
 23f91f2:	2300      	movs	r3, #0
bool PicLink::unlockValve(uint8_t flags) {
 23f91f4:	b500      	push	{lr}
 23f91f6:	b089      	sub	sp, #36	; 0x24
  uint16_t rl = 0;                                 // Will receive reply length.
 23f91f8:	f8ad 301e 	strh.w	r3, [sp, #30]
  int r = transact(REQ_VALVE_UNLOCK, tx, sizeof(tx), RSP_ACK,   // Send the unlock request, expect an ACK.
 23f91fc:	f44f 737a 	mov.w	r3, #1000	; 0x3e8
 23f9200:	9304      	str	r3, [sp, #16]
 23f9202:	f10d 031e 	add.w	r3, sp, #30
 23f9206:	9303      	str	r3, [sp, #12]
 23f9208:	2302      	movs	r3, #2
 23f920a:	9302      	str	r3, [sp, #8]
 23f920c:	ab07      	add	r3, sp, #28
 23f920e:	9301      	str	r3, [sp, #4]
 23f9210:	238e      	movs	r3, #142	; 0x8e
  uint8_t  tx[1] = { (uint8_t)(flags & VALVE_LOCK_BOTH) };   // One payload byte; mask off any stray bits (keep only temp/perm).
 23f9212:	f001 0103 	and.w	r1, r1, #3
 23f9216:	f88d 1018 	strb.w	r1, [sp, #24]
  int r = transact(REQ_VALVE_UNLOCK, tx, sizeof(tx), RSP_ACK,   // Send the unlock request, expect an ACK.
 23f921a:	9300      	str	r3, [sp, #0]
 23f921c:	2105      	movs	r1, #5
 23f921e:	2301      	movs	r3, #1
 23f9220:	aa06      	add	r2, sp, #24
 23f9222:	f7ff fec0 	bl	23f8fa6 <_ZN7PicLink8transactEhPKhthPhtPtm>
                   rx, sizeof(rx), &rl, PHOTON_TIMEOUT_READ_MS);
  return (r == PIC_OK);                            // true only if the PIC acknowledged the unlock.
}
 23f9226:	fab0 f080 	clz	r0, r0
 23f922a:	0940      	lsrs	r0, r0, #5
 23f922c:	b009      	add	sp, #36	; 0x24
 23f922e:	f85d fb04 	ldr.w	pc, [sp], #4

023f9232 <_ZN7PicLink8sysResetEv>:

// ---- PKT_SYS_RESET (no reply) ----------------------------------------------
// Tell the PIC to reset itself. We do not expect (or wait for) any answer.
void PicLink::sysReset() {
  sendFrame(PKT_SYS_RESET, nullptr, 0);            // fire and forget; PIC resets
 23f9232:	2300      	movs	r3, #0
 23f9234:	2106      	movs	r1, #6
 23f9236:	461a      	mov	r2, r3
 23f9238:	f7ff bdda 	b.w	23f8df0 <_ZN7PicLink9sendFrameEhPKht>

023f923c <_ZN10JsonBufferD1Ev>:


JsonBuffer::JsonBuffer()  : buffer(0), bufferLen(0), offset(0), staticBuffers(false) {

}
JsonBuffer::~JsonBuffer() {
 23f923c:	b510      	push	{r4, lr}
 23f923e:	4b05      	ldr	r3, [pc, #20]	; (23f9254 <_ZN10JsonBufferD1Ev+0x18>)
 23f9240:	4604      	mov	r4, r0
 23f9242:	6003      	str	r3, [r0, #0]
	if (!staticBuffers && buffer) {
 23f9244:	7c03      	ldrb	r3, [r0, #16]
 23f9246:	b91b      	cbnz	r3, 23f9250 <_ZN10JsonBufferD1Ev+0x14>
 23f9248:	6840      	ldr	r0, [r0, #4]
 23f924a:	b108      	cbz	r0, 23f9250 <_ZN10JsonBufferD1Ev+0x14>
		free(buffer);
 23f924c:	f000 ff60 	bl	23fa110 <free>
	}
}
 23f9250:	4620      	mov	r0, r4
 23f9252:	bd10      	pop	{r4, pc}
 23f9254:	023ff894 	.word	0x023ff894

023f9258 <_ZN10JsonBufferD0Ev>:
JsonBuffer::~JsonBuffer() {
 23f9258:	b510      	push	{r4, lr}
 23f925a:	4604      	mov	r4, r0
}
 23f925c:	f7ff ffee 	bl	23f923c <_ZN10JsonBufferD1Ev>
 23f9260:	4620      	mov	r0, r4
 23f9262:	2114      	movs	r1, #20
 23f9264:	f7fd fb5d 	bl	23f6922 <_ZdlPvj>
 23f9268:	4620      	mov	r0, r4
 23f926a:	bd10      	pop	{r4, pc}

023f926c <_ZN10JsonWriterD1Ev>:
//
JsonWriter::JsonWriter() : JsonBuffer(), floatPlaces(-1) {
	init();
}

JsonWriter::~JsonWriter() {
 23f926c:	b510      	push	{r4, lr}
 23f926e:	4604      	mov	r4, r0
 23f9270:	4b02      	ldr	r3, [pc, #8]	; (23f927c <_ZN10JsonWriterD1Ev+0x10>)
 23f9272:	6003      	str	r3, [r0, #0]
 23f9274:	f7ff ffe2 	bl	23f923c <_ZN10JsonBufferD1Ev>

}
 23f9278:	4620      	mov	r0, r4
 23f927a:	bd10      	pop	{r4, pc}
 23f927c:	023ff8a4 	.word	0x023ff8a4

023f9280 <_ZN10JsonWriterD0Ev>:
JsonWriter::~JsonWriter() {
 23f9280:	b510      	push	{r4, lr}
 23f9282:	4604      	mov	r4, r0
}
 23f9284:	f7ff fff2 	bl	23f926c <_ZN10JsonWriterD1Ev>
 23f9288:	4620      	mov	r0, r4
 23f928a:	2130      	movs	r1, #48	; 0x30
 23f928c:	f7fd fb49 	bl	23f6922 <_ZdlPvj>
 23f9290:	4620      	mov	r0, r4
 23f9292:	bd10      	pop	{r4, pc}

023f9294 <_ZN10JsonWriter4initEv>:
	init();
}

void JsonWriter::init() {
	// Save start of insertion point for later
	offset = 0;
 23f9294:	2300      	movs	r3, #0

	contextIndex = 0;
	context[contextIndex].isFirst = true;
 23f9296:	2201      	movs	r2, #1
	offset = 0;
 23f9298:	60c3      	str	r3, [r0, #12]
	contextIndex = 0;
 23f929a:	6143      	str	r3, [r0, #20]
	context[contextIndex].isFirst = true;
 23f929c:	8302      	strh	r2, [r0, #24]
	context[contextIndex].terminator = 0;

	truncated = false;
 23f929e:	f880 302a 	strb.w	r3, [r0, #42]	; 0x2a

}
 23f92a2:	4770      	bx	lr

023f92a4 <_ZN10JsonWriterC1EPcj>:
JsonBuffer::JsonBuffer(char *buffer, size_t bufferLen)  : buffer(buffer), bufferLen(bufferLen), offset(0), staticBuffers(true) {
 23f92a4:	e9c0 1201 	strd	r1, r2, [r0, #4]
 23f92a8:	2200      	movs	r2, #0
 23f92aa:	60c2      	str	r2, [r0, #12]
 23f92ac:	2201      	movs	r2, #1
 23f92ae:	7402      	strb	r2, [r0, #16]
JsonWriter::JsonWriter(char *buffer, size_t bufferLen) : JsonBuffer(buffer, bufferLen), floatPlaces(-1) {
 23f92b0:	4a04      	ldr	r2, [pc, #16]	; (23f92c4 <_ZN10JsonWriterC1EPcj+0x20>)
 23f92b2:	b508      	push	{r3, lr}
 23f92b4:	6002      	str	r2, [r0, #0]
 23f92b6:	f04f 32ff 	mov.w	r2, #4294967295
 23f92ba:	62c2      	str	r2, [r0, #44]	; 0x2c
	init();
 23f92bc:	f7ff ffea 	bl	23f9294 <_ZN10JsonWriter4initEv>
}
 23f92c0:	bd08      	pop	{r3, pc}
 23f92c2:	bf00      	nop
 23f92c4:	023ff8a4 	.word	0x023ff8a4

023f92c8 <_ZN10JsonWriter10insertCharEc>:
	}
}


void JsonWriter::insertChar(char ch) {
	if (offset < bufferLen) {
 23f92c8:	e9d0 2302 	ldrd	r2, r3, [r0, #8]
 23f92cc:	4293      	cmp	r3, r2
		buffer[offset++] = ch;
	}
	else {
		truncated = true;
 23f92ce:	bf28      	it	cs
 23f92d0:	2301      	movcs	r3, #1
void JsonWriter::insertChar(char ch) {
 23f92d2:	b510      	push	{r4, lr}
		buffer[offset++] = ch;
 23f92d4:	bf3f      	itttt	cc
 23f92d6:	6842      	ldrcc	r2, [r0, #4]
 23f92d8:	1c5c      	addcc	r4, r3, #1
 23f92da:	60c4      	strcc	r4, [r0, #12]
 23f92dc:	54d1      	strbcc	r1, [r2, r3]
		truncated = true;
 23f92de:	bf28      	it	cs
 23f92e0:	f880 302a 	strbcs.w	r3, [r0, #42]	; 0x2a
	}
}
 23f92e4:	bd10      	pop	{r4, pc}

023f92e6 <_ZN10JsonWriter19finishObjectOrArrayEv>:
void JsonWriter::finishObjectOrArray() {
 23f92e6:	b510      	push	{r4, lr}
	if (contextIndex > 0) {
 23f92e8:	6943      	ldr	r3, [r0, #20]
void JsonWriter::finishObjectOrArray() {
 23f92ea:	4604      	mov	r4, r0
	if (contextIndex > 0) {
 23f92ec:	b143      	cbz	r3, 23f9300 <_ZN10JsonWriter19finishObjectOrArrayEv+0x1a>
		if (context[contextIndex].terminator != 0) {
 23f92ee:	eb00 0343 	add.w	r3, r0, r3, lsl #1
 23f92f2:	7e59      	ldrb	r1, [r3, #25]
 23f92f4:	b109      	cbz	r1, 23f92fa <_ZN10JsonWriter19finishObjectOrArrayEv+0x14>
			insertChar(context[contextIndex].terminator);
 23f92f6:	f7ff ffe7 	bl	23f92c8 <_ZN10JsonWriter10insertCharEc>
		contextIndex--;
 23f92fa:	6963      	ldr	r3, [r4, #20]
 23f92fc:	3b01      	subs	r3, #1
 23f92fe:	6163      	str	r3, [r4, #20]
	if (offset < bufferLen) {
 23f9300:	2200      	movs	r2, #0
 23f9302:	e9d4 1002 	ldrd	r1, r0, [r4, #8]
		buffer[offset] = 0;
 23f9306:	6863      	ldr	r3, [r4, #4]
	if (offset < bufferLen) {
 23f9308:	4288      	cmp	r0, r1
		buffer[bufferLen - 1] = 0;
 23f930a:	bf2a      	itet	cs
 23f930c:	185b      	addcs	r3, r3, r1
		buffer[offset] = 0;
 23f930e:	541a      	strbcc	r2, [r3, r0]
		buffer[bufferLen - 1] = 0;
 23f9310:	f803 2c01 	strbcs.w	r2, [r3, #-1]
}
 23f9314:	bd10      	pop	{r4, pc}

023f9316 <_ZN10JsonWriter14insertvsprintfEPKcSt9__va_list>:
	va_start(ap, fmt);
	insertvsprintf(fmt, ap);
	va_end(ap);
}

void JsonWriter::insertvsprintf(const char *fmt, va_list ap) {
 23f9316:	b570      	push	{r4, r5, r6, lr}
 23f9318:	4604      	mov	r4, r0
	size_t spaceAvailable = bufferLen - offset;
 23f931a:	e9d0 5002 	ldrd	r5, r0, [r0, #8]

	size_t count = vsnprintf(&buffer[offset], spaceAvailable, fmt, ap);
 23f931e:	6866      	ldr	r6, [r4, #4]
	size_t spaceAvailable = bufferLen - offset;
 23f9320:	1a2d      	subs	r5, r5, r0
void JsonWriter::insertvsprintf(const char *fmt, va_list ap) {
 23f9322:	4613      	mov	r3, r2
	size_t count = vsnprintf(&buffer[offset], spaceAvailable, fmt, ap);
 23f9324:	4430      	add	r0, r6
 23f9326:	460a      	mov	r2, r1
 23f9328:	4629      	mov	r1, r5
 23f932a:	f000 ff1b 	bl	23fa164 <vsnprintf>
	if (count <= spaceAvailable) {
 23f932e:	4285      	cmp	r5, r0
		offset += count;
	}
	else {
		// Truncated, no more space left
		offset = bufferLen;
 23f9330:	bf37      	itett	cc
 23f9332:	68a3      	ldrcc	r3, [r4, #8]
		offset += count;
 23f9334:	68e3      	ldrcs	r3, [r4, #12]
		offset = bufferLen;
 23f9336:	60e3      	strcc	r3, [r4, #12]
		truncated = true;
 23f9338:	2301      	movcc	r3, #1
		offset += count;
 23f933a:	bf26      	itte	cs
 23f933c:	18c0      	addcs	r0, r0, r3
 23f933e:	60e0      	strcs	r0, [r4, #12]
		truncated = true;
 23f9340:	f884 302a 	strbcc.w	r3, [r4, #42]	; 0x2a
	}
}
 23f9344:	bd70      	pop	{r4, r5, r6, pc}

023f9346 <_ZN10JsonWriter13insertsprintfEPKcz>:
void JsonWriter::insertsprintf(const char *fmt, ...) {
 23f9346:	b40e      	push	{r1, r2, r3}
 23f9348:	b503      	push	{r0, r1, lr}
 23f934a:	aa03      	add	r2, sp, #12
 23f934c:	f852 1b04 	ldr.w	r1, [r2], #4
	va_start(ap, fmt);
 23f9350:	9201      	str	r2, [sp, #4]
	insertvsprintf(fmt, ap);
 23f9352:	f7ff ffe0 	bl	23f9316 <_ZN10JsonWriter14insertvsprintfEPKcSt9__va_list>
}
 23f9356:	b002      	add	sp, #8
 23f9358:	f85d eb04 	ldr.w	lr, [sp], #4
 23f935c:	b003      	add	sp, #12
 23f935e:	4770      	bx	lr

023f9360 <_ZN10JsonWriter12insertStringEPKcb>:
void JsonWriter::insertString(const char *s, bool quoted) {
 23f9360:	e92d 43f8 	stmdb	sp!, {r3, r4, r5, r6, r7, r8, r9, lr}
 23f9364:	4604      	mov	r4, r0
 23f9366:	460e      	mov	r6, r1
	if (quoted) {
 23f9368:	4617      	mov	r7, r2
 23f936a:	b112      	cbz	r2, 23f9372 <_ZN10JsonWriter12insertStringEPKcb+0x12>
		insertChar('"');
 23f936c:	2122      	movs	r1, #34	; 0x22
 23f936e:	f7ff ffab 	bl	23f92c8 <_ZN10JsonWriter10insertCharEc>
void JsonWriter::insertString(const char *s, bool quoted) {
 23f9372:	2500      	movs	r5, #0
				insertsprintf("\\u%04X", utf16);
 23f9374:	f8df 8108 	ldr.w	r8, [pc, #264]	; 23f9480 <_ZN10JsonWriter12insertStringEPKcb+0x120>
	for(size_t ii = 0; s[ii] && offset < bufferLen; ii++) {
 23f9378:	5d71      	ldrb	r1, [r6, r5]
 23f937a:	eb06 0905 	add.w	r9, r6, r5
 23f937e:	2900      	cmp	r1, #0
 23f9380:	d074      	beq.n	23f946c <_ZN10JsonWriter12insertStringEPKcb+0x10c>
 23f9382:	e9d4 3202 	ldrd	r3, r2, [r4, #8]
 23f9386:	429a      	cmp	r2, r3
 23f9388:	d270      	bcs.n	23f946c <_ZN10JsonWriter12insertStringEPKcb+0x10c>
		if (s[ii] & 0x80) {
 23f938a:	060b      	lsls	r3, r1, #24
 23f938c:	d534      	bpl.n	23f93f8 <_ZN10JsonWriter12insertStringEPKcb+0x98>
			if (((s[ii] & 0b11110000) == 0b11100000) && ((s[ii+1] & 0b11000000) == 0b10000000) && ((s[ii+2] & 0b11000000) == 0b10000000)) {
 23f938e:	f001 03f0 	and.w	r3, r1, #240	; 0xf0
 23f9392:	2be0      	cmp	r3, #224	; 0xe0
 23f9394:	f105 0901 	add.w	r9, r5, #1
 23f9398:	d11d      	bne.n	23f93d6 <_ZN10JsonWriter12insertStringEPKcb+0x76>
 23f939a:	f816 2009 	ldrb.w	r2, [r6, r9]
 23f939e:	f002 03c0 	and.w	r3, r2, #192	; 0xc0
 23f93a2:	2b80      	cmp	r3, #128	; 0x80
 23f93a4:	d139      	bne.n	23f941a <_ZN10JsonWriter12insertStringEPKcb+0xba>
 23f93a6:	f105 0902 	add.w	r9, r5, #2
 23f93aa:	f816 3009 	ldrb.w	r3, [r6, r9]
 23f93ae:	f003 00c0 	and.w	r0, r3, #192	; 0xc0
 23f93b2:	2880      	cmp	r0, #128	; 0x80
 23f93b4:	d131      	bne.n	23f941a <_ZN10JsonWriter12insertStringEPKcb+0xba>
				uint16_t utf16 = ((s[ii] & 0b1111) << 12) | ((s[ii+1] & 0b111111) << 6) | (s[ii+2] & 0b111111);
 23f93b6:	f003 033f 	and.w	r3, r3, #63	; 0x3f
 23f93ba:	0192      	lsls	r2, r2, #6
 23f93bc:	ea43 3301 	orr.w	r3, r3, r1, lsl #12
 23f93c0:	f402 627c 	and.w	r2, r2, #4032	; 0xfc0
 23f93c4:	431a      	orrs	r2, r3
				insertsprintf("\\u%04X", utf16);
 23f93c6:	b292      	uxth	r2, r2
				insertsprintf("\\u%04X", utf16);
 23f93c8:	4641      	mov	r1, r8
 23f93ca:	4620      	mov	r0, r4
 23f93cc:	f7ff ffbb 	bl	23f9346 <_ZN10JsonWriter13insertsprintfEPKcz>
				ii++; // plus one more in loop increment
 23f93d0:	464d      	mov	r5, r9
	for(size_t ii = 0; s[ii] && offset < bufferLen; ii++) {
 23f93d2:	3501      	adds	r5, #1
 23f93d4:	e7d0      	b.n	23f9378 <_ZN10JsonWriter12insertStringEPKcb+0x18>
			if (((s[ii] & 0b11100000) == 0b11000000) && ((s[ii+1] & 0b11000000) == 0b10000000)) {
 23f93d6:	f001 03e0 	and.w	r3, r1, #224	; 0xe0
 23f93da:	2bc0      	cmp	r3, #192	; 0xc0
 23f93dc:	d11d      	bne.n	23f941a <_ZN10JsonWriter12insertStringEPKcb+0xba>
 23f93de:	f816 3009 	ldrb.w	r3, [r6, r9]
 23f93e2:	f003 02c0 	and.w	r2, r3, #192	; 0xc0
 23f93e6:	2a80      	cmp	r2, #128	; 0x80
 23f93e8:	d117      	bne.n	23f941a <_ZN10JsonWriter12insertStringEPKcb+0xba>
				uint16_t utf16 = ((s[ii] & 0b11111) << 6) | (s[ii+1] & 0b111111);
 23f93ea:	0189      	lsls	r1, r1, #6
 23f93ec:	f401 62f8 	and.w	r2, r1, #1984	; 0x7c0
 23f93f0:	f003 033f 	and.w	r3, r3, #63	; 0x3f
				insertsprintf("\\u%04X", utf16);
 23f93f4:	431a      	orrs	r2, r3
 23f93f6:	e7e7      	b.n	23f93c8 <_ZN10JsonWriter12insertStringEPKcb+0x68>
			switch(s[ii]) {
 23f93f8:	290d      	cmp	r1, #13
 23f93fa:	d80a      	bhi.n	23f9412 <_ZN10JsonWriter12insertStringEPKcb+0xb2>
 23f93fc:	2907      	cmp	r1, #7
 23f93fe:	d90c      	bls.n	23f941a <_ZN10JsonWriter12insertStringEPKcb+0xba>
 23f9400:	f1a1 0308 	sub.w	r3, r1, #8
 23f9404:	2b05      	cmp	r3, #5
 23f9406:	d808      	bhi.n	23f941a <_ZN10JsonWriter12insertStringEPKcb+0xba>
 23f9408:	e8df f003 	tbb	[pc, r3]
 23f940c:	07172309 	.word	0x07172309
 23f9410:	1d11      	.short	0x1d11
 23f9412:	2922      	cmp	r1, #34	; 0x22
 23f9414:	d023      	beq.n	23f945e <_ZN10JsonWriter12insertStringEPKcb+0xfe>
 23f9416:	295c      	cmp	r1, #92	; 0x5c
 23f9418:	d021      	beq.n	23f945e <_ZN10JsonWriter12insertStringEPKcb+0xfe>
				insertChar(s[ii]);
 23f941a:	4620      	mov	r0, r4
 23f941c:	e004      	b.n	23f9428 <_ZN10JsonWriter12insertStringEPKcb+0xc8>
				insertChar('\\');
 23f941e:	215c      	movs	r1, #92	; 0x5c
 23f9420:	4620      	mov	r0, r4
 23f9422:	f7ff ff51 	bl	23f92c8 <_ZN10JsonWriter10insertCharEc>
				insertChar('b');
 23f9426:	2162      	movs	r1, #98	; 0x62
				insertChar(s[ii]);
 23f9428:	f7ff ff4e 	bl	23f92c8 <_ZN10JsonWriter10insertCharEc>
				break;
 23f942c:	e7d1      	b.n	23f93d2 <_ZN10JsonWriter12insertStringEPKcb+0x72>
				insertChar('\\');
 23f942e:	215c      	movs	r1, #92	; 0x5c
 23f9430:	4620      	mov	r0, r4
 23f9432:	f7ff ff49 	bl	23f92c8 <_ZN10JsonWriter10insertCharEc>
				insertChar('f');
 23f9436:	2166      	movs	r1, #102	; 0x66
 23f9438:	e7f6      	b.n	23f9428 <_ZN10JsonWriter12insertStringEPKcb+0xc8>
				insertChar('\\');
 23f943a:	215c      	movs	r1, #92	; 0x5c
 23f943c:	4620      	mov	r0, r4
 23f943e:	f7ff ff43 	bl	23f92c8 <_ZN10JsonWriter10insertCharEc>
				insertChar('n');
 23f9442:	216e      	movs	r1, #110	; 0x6e
 23f9444:	e7f0      	b.n	23f9428 <_ZN10JsonWriter12insertStringEPKcb+0xc8>
				insertChar('\\');
 23f9446:	215c      	movs	r1, #92	; 0x5c
 23f9448:	4620      	mov	r0, r4
 23f944a:	f7ff ff3d 	bl	23f92c8 <_ZN10JsonWriter10insertCharEc>
				insertChar('r');
 23f944e:	2172      	movs	r1, #114	; 0x72
 23f9450:	e7ea      	b.n	23f9428 <_ZN10JsonWriter12insertStringEPKcb+0xc8>
				insertChar('\\');
 23f9452:	215c      	movs	r1, #92	; 0x5c
 23f9454:	4620      	mov	r0, r4
 23f9456:	f7ff ff37 	bl	23f92c8 <_ZN10JsonWriter10insertCharEc>
				insertChar('t');
 23f945a:	2174      	movs	r1, #116	; 0x74
 23f945c:	e7e4      	b.n	23f9428 <_ZN10JsonWriter12insertStringEPKcb+0xc8>
				insertChar('\\');
 23f945e:	215c      	movs	r1, #92	; 0x5c
 23f9460:	4620      	mov	r0, r4
 23f9462:	f7ff ff31 	bl	23f92c8 <_ZN10JsonWriter10insertCharEc>
				insertChar(s[ii]);
 23f9466:	f899 1000 	ldrb.w	r1, [r9]
 23f946a:	e7dd      	b.n	23f9428 <_ZN10JsonWriter12insertStringEPKcb+0xc8>
	if (quoted) {
 23f946c:	b12f      	cbz	r7, 23f947a <_ZN10JsonWriter12insertStringEPKcb+0x11a>
		insertChar('"');
 23f946e:	4620      	mov	r0, r4
}
 23f9470:	e8bd 43f8 	ldmia.w	sp!, {r3, r4, r5, r6, r7, r8, r9, lr}
		insertChar('"');
 23f9474:	2122      	movs	r1, #34	; 0x22
 23f9476:	f7ff bf27 	b.w	23f92c8 <_ZN10JsonWriter10insertCharEc>
}
 23f947a:	e8bd 83f8 	ldmia.w	sp!, {r3, r4, r5, r6, r7, r8, r9, pc}
 23f947e:	bf00      	nop
 23f9480:	023ff87c 	.word	0x023ff87c

023f9484 <_ZN10JsonWriter20insertCheckSeparatorEv>:

void JsonWriter::insertCheckSeparator() {
	if (context[contextIndex].isFirst) {
 23f9484:	6942      	ldr	r2, [r0, #20]
 23f9486:	eb00 0342 	add.w	r3, r0, r2, lsl #1
 23f948a:	7e1a      	ldrb	r2, [r3, #24]
 23f948c:	b112      	cbz	r2, 23f9494 <_ZN10JsonWriter20insertCheckSeparatorEv+0x10>
		context[contextIndex].isFirst = false;
 23f948e:	2200      	movs	r2, #0
 23f9490:	761a      	strb	r2, [r3, #24]
	}
	else {
		insertChar(',');
	}
}
 23f9492:	4770      	bx	lr
		insertChar(',');
 23f9494:	212c      	movs	r1, #44	; 0x2c
 23f9496:	f7ff bf17 	b.w	23f92c8 <_ZN10JsonWriter10insertCharEc>

023f949a <_ZN10JsonWriter18startObjectOrArrayEcc>:
bool JsonWriter::startObjectOrArray(char startChar, char endChar) {
 23f949a:	b573      	push	{r0, r1, r4, r5, r6, lr}
	if ((contextIndex + 1) >= MAX_NESTED_CONTEXT) {
 23f949c:	6943      	ldr	r3, [r0, #20]
bool JsonWriter::startObjectOrArray(char startChar, char endChar) {
 23f949e:	4616      	mov	r6, r2
	if ((contextIndex + 1) >= MAX_NESTED_CONTEXT) {
 23f94a0:	3301      	adds	r3, #1
 23f94a2:	2b08      	cmp	r3, #8
bool JsonWriter::startObjectOrArray(char startChar, char endChar) {
 23f94a4:	9101      	str	r1, [sp, #4]
	if ((contextIndex + 1) >= MAX_NESTED_CONTEXT) {
 23f94a6:	d80f      	bhi.n	23f94c8 <_ZN10JsonWriter18startObjectOrArrayEcc+0x2e>
	context[contextIndex].isFirst = true;
 23f94a8:	2501      	movs	r5, #1
	insertCheckSeparator();
 23f94aa:	f7ff ffeb 	bl	23f9484 <_ZN10JsonWriter20insertCheckSeparatorEv>
	contextIndex++;
 23f94ae:	6943      	ldr	r3, [r0, #20]
	insertChar(startChar);
 23f94b0:	9901      	ldr	r1, [sp, #4]
 23f94b2:	eb00 0443 	add.w	r4, r0, r3, lsl #1
	contextIndex++;
 23f94b6:	1c5a      	adds	r2, r3, #1
 23f94b8:	6142      	str	r2, [r0, #20]
	context[contextIndex].isFirst = true;
 23f94ba:	76a5      	strb	r5, [r4, #26]
	context[contextIndex].terminator = endChar;
 23f94bc:	76e6      	strb	r6, [r4, #27]
	insertChar(startChar);
 23f94be:	f7ff ff03 	bl	23f92c8 <_ZN10JsonWriter10insertCharEc>
 23f94c2:	4628      	mov	r0, r5
}
 23f94c4:	b002      	add	sp, #8
 23f94c6:	bd70      	pop	{r4, r5, r6, pc}
		return false;
 23f94c8:	2000      	movs	r0, #0
 23f94ca:	e7fb      	b.n	23f94c4 <_ZN10JsonWriter18startObjectOrArrayEcc+0x2a>

023f94cc <_ZN10JsonWriter11insertValueEf>:
	else {
		insertString("false");
	}
}

void JsonWriter::insertValue(float value) {
 23f94cc:	b537      	push	{r0, r1, r2, r4, r5, lr}
 23f94ce:	4604      	mov	r4, r0
 23f94d0:	ee10 0a10 	vmov	r0, s0
	if (floatPlaces >= 0) {
		insertsprintf("%.*f", floatPlaces, value);
 23f94d4:	f7fc fc94 	bl	23f5e00 <__aeabi_f2d>
	if (floatPlaces >= 0) {
 23f94d8:	6ae5      	ldr	r5, [r4, #44]	; 0x2c
		insertsprintf("%.*f", floatPlaces, value);
 23f94da:	4602      	mov	r2, r0
	if (floatPlaces >= 0) {
 23f94dc:	2d00      	cmp	r5, #0
		insertsprintf("%.*f", floatPlaces, value);
 23f94de:	460b      	mov	r3, r1
	if (floatPlaces >= 0) {
 23f94e0:	db08      	blt.n	23f94f4 <_ZN10JsonWriter11insertValueEf+0x28>
		insertsprintf("%.*f", floatPlaces, value);
 23f94e2:	e9cd 2300 	strd	r2, r3, [sp]
 23f94e6:	4620      	mov	r0, r4
 23f94e8:	462a      	mov	r2, r5
 23f94ea:	4906      	ldr	r1, [pc, #24]	; (23f9504 <_ZN10JsonWriter11insertValueEf+0x38>)
 23f94ec:	f7ff ff2b 	bl	23f9346 <_ZN10JsonWriter13insertsprintfEPKcz>
	}
	else {
		insertsprintf("%f", value);
	}
}
 23f94f0:	b003      	add	sp, #12
 23f94f2:	bd30      	pop	{r4, r5, pc}
		insertsprintf("%f", value);
 23f94f4:	4620      	mov	r0, r4
 23f94f6:	4904      	ldr	r1, [pc, #16]	; (23f9508 <_ZN10JsonWriter11insertValueEf+0x3c>)
}
 23f94f8:	b003      	add	sp, #12
 23f94fa:	e8bd 4030 	ldmia.w	sp!, {r4, r5, lr}
		insertsprintf("%f", value);
 23f94fe:	f7ff bf22 	b.w	23f9346 <_ZN10JsonWriter13insertsprintfEPKcz>
 23f9502:	bf00      	nop
 23f9504:	023ff883 	.word	0x023ff883
 23f9508:	023ff888 	.word	0x023ff888

023f950c <_ZN10JsonWriter14insertKeyArrayEPKc>:
	insertChar(':');
	setIsFirst();
	startObject();
}

void JsonWriter::insertKeyArray(const char *key) {
 23f950c:	b513      	push	{r0, r1, r4, lr}
 23f950e:	4604      	mov	r4, r0
 23f9510:	9101      	str	r1, [sp, #4]
	insertCheckSeparator();
 23f9512:	f7ff ffb7 	bl	23f9484 <_ZN10JsonWriter20insertCheckSeparatorEv>
	void insertValue(const char *value) { insertString(value, true); }
 23f9516:	2201      	movs	r2, #1
 23f9518:	9901      	ldr	r1, [sp, #4]
 23f951a:	f7ff ff21 	bl	23f9360 <_ZN10JsonWriter12insertStringEPKcb>
	insertValue(key);
	insertChar(':');
 23f951e:	213a      	movs	r1, #58	; 0x3a
 23f9520:	4620      	mov	r0, r4
 23f9522:	f7ff fed1 	bl	23f92c8 <_ZN10JsonWriter10insertCharEc>
	setIsFirst(false);
}


void JsonWriter::setIsFirst(bool isFirst /* = true */) {
	context[contextIndex].isFirst = isFirst;
 23f9526:	2201      	movs	r2, #1
 23f9528:	6963      	ldr	r3, [r4, #20]
	bool startArray() { return startObjectOrArray('[', ']'); };
 23f952a:	215b      	movs	r1, #91	; 0x5b
 23f952c:	330c      	adds	r3, #12
 23f952e:	f804 2013 	strb.w	r2, [r4, r3, lsl #1]
 23f9532:	225d      	movs	r2, #93	; 0x5d
}
 23f9534:	b002      	add	sp, #8
 23f9536:	e8bd 4010 	ldmia.w	sp!, {r4, lr}
 23f953a:	f7ff bfae 	b.w	23f949a <_ZN10JsonWriter18startObjectOrArrayEcc>
	...

023f9540 <netdb_freeaddrinfo>:

DYNALIB_BEGIN(hal_netdb)

DYNALIB_FN(0, hal_netdb, netdb_gethostbyname, struct hostent*(const char*))
DYNALIB_FN(1, hal_netdb, netdb_gethostbyname_r, int(const char*, struct hostent*, char*, size_t, struct hostent**, int*))
DYNALIB_FN(2, hal_netdb, netdb_freeaddrinfo, void(struct addrinfo*))
 23f9540:	b509      	push	{r0, r3, lr}
 23f9542:	4804      	ldr	r0, [pc, #16]	; (23f9554 <netdb_freeaddrinfo+0x14>)
 23f9544:	6800      	ldr	r0, [r0, #0]
 23f9546:	4b04      	ldr	r3, [pc, #16]	; (23f9558 <netdb_freeaddrinfo+0x18>)
 23f9548:	4403      	add	r3, r0
 23f954a:	681b      	ldr	r3, [r3, #0]
 23f954c:	689b      	ldr	r3, [r3, #8]
 23f954e:	9302      	str	r3, [sp, #8]
 23f9550:	bd09      	pop	{r0, r3, pc}
 23f9552:	0000      	.short	0x0000
 23f9554:	10072d28 	.word	0x10072d28
 23f9558:	00000050 	.word	0x00000050

023f955c <netdb_getaddrinfo_ex>:
DYNALIB_FN(3, hal_netdb, netdb_getaddrinfo, int(const char*, const char*, const struct addrinfo*, struct addrinfo**))
DYNALIB_FN(4, hal_netdb, netdb_getnameinfo, int(const struct sockaddr*, socklen_t, char*, socklen_t, char*, socklen_t, int))
DYNALIB_FN(5, hal_netdb, netdb_getaddrinfo_ex, int(const char*, const char*, const struct addrinfo*, struct addrinfo**, if_t))
 23f955c:	b509      	push	{r0, r3, lr}
 23f955e:	4804      	ldr	r0, [pc, #16]	; (23f9570 <netdb_getaddrinfo_ex+0x14>)
 23f9560:	6800      	ldr	r0, [r0, #0]
 23f9562:	4b04      	ldr	r3, [pc, #16]	; (23f9574 <netdb_getaddrinfo_ex+0x18>)
 23f9564:	4403      	add	r3, r0
 23f9566:	681b      	ldr	r3, [r3, #0]
 23f9568:	695b      	ldr	r3, [r3, #20]
 23f956a:	9302      	str	r3, [sp, #8]
 23f956c:	bd09      	pop	{r0, r3, pc}
 23f956e:	0000      	.short	0x0000
 23f9570:	10072d28 	.word	0x10072d28
 23f9574:	00000050 	.word	0x00000050

023f9578 <hal_pin_validate_function>:
// GNINRAW

DYNALIB_BEGIN(hal_gpio)

DYNALIB_FN(0, hal_gpio, hal_pin_map, hal_pin_info_t*(void))
DYNALIB_FN(1, hal_gpio, hal_pin_validate_function, PinFunction(hal_pin_t, PinFunction))
 23f9578:	b509      	push	{r0, r3, lr}
 23f957a:	4804      	ldr	r0, [pc, #16]	; (23f958c <hal_pin_validate_function+0x14>)
 23f957c:	6800      	ldr	r0, [r0, #0]
 23f957e:	4b04      	ldr	r3, [pc, #16]	; (23f9590 <hal_pin_validate_function+0x18>)
 23f9580:	4403      	add	r3, r0
 23f9582:	681b      	ldr	r3, [r3, #0]
 23f9584:	685b      	ldr	r3, [r3, #4]
 23f9586:	9302      	str	r3, [sp, #8]
 23f9588:	bd09      	pop	{r0, r3, pc}
 23f958a:	0000      	.short	0x0000
 23f958c:	10072d28 	.word	0x10072d28
 23f9590:	00000014 	.word	0x00000014

023f9594 <hal_gpio_mode>:
DYNALIB_FN(2, hal_gpio, hal_gpio_mode, void(hal_pin_t, PinMode))
 23f9594:	b509      	push	{r0, r3, lr}
 23f9596:	4804      	ldr	r0, [pc, #16]	; (23f95a8 <hal_gpio_mode+0x14>)
 23f9598:	6800      	ldr	r0, [r0, #0]
 23f959a:	4b04      	ldr	r3, [pc, #16]	; (23f95ac <hal_gpio_mode+0x18>)
 23f959c:	4403      	add	r3, r0
 23f959e:	681b      	ldr	r3, [r3, #0]
 23f95a0:	689b      	ldr	r3, [r3, #8]
 23f95a2:	9302      	str	r3, [sp, #8]
 23f95a4:	bd09      	pop	{r0, r3, pc}
 23f95a6:	0000      	.short	0x0000
 23f95a8:	10072d28 	.word	0x10072d28
 23f95ac:	00000014 	.word	0x00000014

023f95b0 <hal_gpio_get_mode>:
DYNALIB_FN(3, hal_gpio, hal_gpio_get_mode, PinMode(hal_pin_t))
 23f95b0:	b509      	push	{r0, r3, lr}
 23f95b2:	4804      	ldr	r0, [pc, #16]	; (23f95c4 <hal_gpio_get_mode+0x14>)
 23f95b4:	6800      	ldr	r0, [r0, #0]
 23f95b6:	4b04      	ldr	r3, [pc, #16]	; (23f95c8 <hal_gpio_get_mode+0x18>)
 23f95b8:	4403      	add	r3, r0
 23f95ba:	681b      	ldr	r3, [r3, #0]
 23f95bc:	68db      	ldr	r3, [r3, #12]
 23f95be:	9302      	str	r3, [sp, #8]
 23f95c0:	bd09      	pop	{r0, r3, pc}
 23f95c2:	0000      	.short	0x0000
 23f95c4:	10072d28 	.word	0x10072d28
 23f95c8:	00000014 	.word	0x00000014

023f95cc <hal_gpio_write>:
DYNALIB_FN(4, hal_gpio, hal_gpio_write, void(hal_pin_t, uint8_t))
 23f95cc:	b509      	push	{r0, r3, lr}
 23f95ce:	4804      	ldr	r0, [pc, #16]	; (23f95e0 <hal_gpio_write+0x14>)
 23f95d0:	6800      	ldr	r0, [r0, #0]
 23f95d2:	4b04      	ldr	r3, [pc, #16]	; (23f95e4 <hal_gpio_write+0x18>)
 23f95d4:	4403      	add	r3, r0
 23f95d6:	681b      	ldr	r3, [r3, #0]
 23f95d8:	691b      	ldr	r3, [r3, #16]
 23f95da:	9302      	str	r3, [sp, #8]
 23f95dc:	bd09      	pop	{r0, r3, pc}
 23f95de:	0000      	.short	0x0000
 23f95e0:	10072d28 	.word	0x10072d28
 23f95e4:	00000014 	.word	0x00000014

023f95e8 <hal_gpio_read>:
DYNALIB_FN(5, hal_gpio, hal_gpio_read, int32_t(hal_pin_t))
 23f95e8:	b509      	push	{r0, r3, lr}
 23f95ea:	4804      	ldr	r0, [pc, #16]	; (23f95fc <hal_gpio_read+0x14>)
 23f95ec:	6800      	ldr	r0, [r0, #0]
 23f95ee:	4b04      	ldr	r3, [pc, #16]	; (23f9600 <hal_gpio_read+0x18>)
 23f95f0:	4403      	add	r3, r0
 23f95f2:	681b      	ldr	r3, [r3, #0]
 23f95f4:	695b      	ldr	r3, [r3, #20]
 23f95f6:	9302      	str	r3, [sp, #8]
 23f95f8:	bd09      	pop	{r0, r3, pc}
 23f95fa:	0000      	.short	0x0000
 23f95fc:	10072d28 	.word	0x10072d28
 23f9600:	00000014 	.word	0x00000014

023f9604 <hal_adc_read>:
DYNALIB_FN(8, hal_gpio, hal_interrupt_enable_all, void(void))
DYNALIB_FN(9, hal_gpio, hal_interrupt_disable_all, void(void))

DYNALIB_FN(10, hal_gpio, HAL_DAC_Write, void(hal_pin_t, uint16_t))
DYNALIB_FN(11, hal_gpio, hal_adc_set_sample_time, void(uint8_t))
DYNALIB_FN(12, hal_gpio, hal_adc_read, int32_t(uint16_t))
 23f9604:	b509      	push	{r0, r3, lr}
 23f9606:	4804      	ldr	r0, [pc, #16]	; (23f9618 <hal_adc_read+0x14>)
 23f9608:	6800      	ldr	r0, [r0, #0]
 23f960a:	4b04      	ldr	r3, [pc, #16]	; (23f961c <hal_adc_read+0x18>)
 23f960c:	4403      	add	r3, r0
 23f960e:	681b      	ldr	r3, [r3, #0]
 23f9610:	6b1b      	ldr	r3, [r3, #48]	; 0x30
 23f9612:	9302      	str	r3, [sp, #8]
 23f9614:	bd09      	pop	{r0, r3, pc}
 23f9616:	0000      	.short	0x0000
 23f9618:	10072d28 	.word	0x10072d28
 23f961c:	00000014 	.word	0x00000014

023f9620 <if_get_by_index>:
DYNALIB_FN(1, hal_ifapi, if_free_list, int(struct if_list*))
DYNALIB_FN(2, hal_ifapi, if_get_name_index, int(struct if_nameindex**))
DYNALIB_FN(3, hal_ifapi, if_free_name_index, int(struct if_nameindex*))
DYNALIB_FN(4, hal_ifapi, if_name_to_index, int(const char*, uint8_t*))
DYNALIB_FN(5, hal_ifapi, if_index_to_name, int(uint8_t, char*))
DYNALIB_FN(6, hal_ifapi, if_get_by_index, int(uint8_t, if_t*))
 23f9620:	b509      	push	{r0, r3, lr}
 23f9622:	4804      	ldr	r0, [pc, #16]	; (23f9634 <if_get_by_index+0x14>)
 23f9624:	6800      	ldr	r0, [r0, #0]
 23f9626:	4b04      	ldr	r3, [pc, #16]	; (23f9638 <if_get_by_index+0x18>)
 23f9628:	4403      	add	r3, r0
 23f962a:	681b      	ldr	r3, [r3, #0]
 23f962c:	699b      	ldr	r3, [r3, #24]
 23f962e:	9302      	str	r3, [sp, #8]
 23f9630:	bd09      	pop	{r0, r3, pc}
 23f9632:	0000      	.short	0x0000
 23f9634:	10072d28 	.word	0x10072d28
 23f9638:	00000054 	.word	0x00000054

023f963c <HAL_RNG_GetRandomNumber>:

DYNALIB_BEGIN(hal)

#if PLATFORM_ID > PLATFORM_GCC
DYNALIB_FN(0, hal, HAL_RNG_Configuration, void(void))
DYNALIB_FN(1, hal, HAL_RNG_GetRandomNumber, uint32_t(void))
 23f963c:	b509      	push	{r0, r3, lr}
 23f963e:	4804      	ldr	r0, [pc, #16]	; (23f9650 <HAL_RNG_GetRandomNumber+0x14>)
 23f9640:	6800      	ldr	r0, [r0, #0]
 23f9642:	4b04      	ldr	r3, [pc, #16]	; (23f9654 <HAL_RNG_GetRandomNumber+0x18>)
 23f9644:	4403      	add	r3, r0
 23f9646:	681b      	ldr	r3, [r3, #0]
 23f9648:	685b      	ldr	r3, [r3, #4]
 23f964a:	9302      	str	r3, [sp, #8]
 23f964c:	bd09      	pop	{r0, r3, pc}
 23f964e:	0000      	.short	0x0000
 23f9650:	10072d28 	.word	0x10072d28
 23f9654:	00000000 	.word	0x00000000

023f9658 <HAL_Timer_Get_Milli_Seconds>:
#endif // PLATFORM_ID > PLATFORM_GCC

DYNALIB_FN(BASE_IDX + 0, hal, HAL_Delay_Milliseconds, void(uint32_t))
DYNALIB_FN(BASE_IDX + 1, hal, HAL_Delay_Microseconds, void(uint32_t))
DYNALIB_FN(BASE_IDX + 2, hal, HAL_Timer_Get_Micro_Seconds, system_tick_t(void))
DYNALIB_FN(BASE_IDX + 3, hal, HAL_Timer_Get_Milli_Seconds, system_tick_t(void))
 23f9658:	b509      	push	{r0, r3, lr}
 23f965a:	4804      	ldr	r0, [pc, #16]	; (23f966c <HAL_Timer_Get_Milli_Seconds+0x14>)
 23f965c:	6800      	ldr	r0, [r0, #0]
 23f965e:	4b04      	ldr	r3, [pc, #16]	; (23f9670 <HAL_Timer_Get_Milli_Seconds+0x18>)
 23f9660:	4403      	add	r3, r0
 23f9662:	681b      	ldr	r3, [r3, #0]
 23f9664:	695b      	ldr	r3, [r3, #20]
 23f9666:	9302      	str	r3, [sp, #8]
 23f9668:	bd09      	pop	{r0, r3, pc}
 23f966a:	0000      	.short	0x0000
 23f966c:	10072d28 	.word	0x10072d28
 23f9670:	00000000 	.word	0x00000000

023f9674 <HAL_EEPROM_Init>:
DYNALIB_FN(BASE_IDX + 5, hal, hal_rtc_get_unixtime_deprecated, time32_t(void))
DYNALIB_FN(BASE_IDX + 6, hal, hal_rtc_set_unixtime_deprecated, void(time32_t))

DYNALIB_FN(BASE_IDX + 7, hal, hal_rtc_set_alarm, int(const struct timeval*, uint32_t, hal_rtc_alarm_handler, void*, void*))

DYNALIB_FN(BASE_IDX + 8, hal, HAL_EEPROM_Init, void(void))
 23f9674:	b509      	push	{r0, r3, lr}
 23f9676:	4804      	ldr	r0, [pc, #16]	; (23f9688 <HAL_EEPROM_Init+0x14>)
 23f9678:	6800      	ldr	r0, [r0, #0]
 23f967a:	4b04      	ldr	r3, [pc, #16]	; (23f968c <HAL_EEPROM_Init+0x18>)
 23f967c:	4403      	add	r3, r0
 23f967e:	681b      	ldr	r3, [r3, #0]
 23f9680:	6a9b      	ldr	r3, [r3, #40]	; 0x28
 23f9682:	9302      	str	r3, [sp, #8]
 23f9684:	bd09      	pop	{r0, r3, pc}
 23f9686:	0000      	.short	0x0000
 23f9688:	10072d28 	.word	0x10072d28
 23f968c:	00000000 	.word	0x00000000

023f9690 <HAL_EEPROM_Get>:

DYNALIB_FN(BASE_IDX + 12, hal, HAL_disable_irq, int(void))
DYNALIB_FN(BASE_IDX + 13, hal, HAL_enable_irq, void(int))
DYNALIB_FN(BASE_IDX + 14, hal, hal_rtc_cancel_alarm, void(void))

DYNALIB_FN(BASE_IDX + 15, hal, HAL_EEPROM_Get, void(uint32_t, void *, size_t))
 23f9690:	b509      	push	{r0, r3, lr}
 23f9692:	4804      	ldr	r0, [pc, #16]	; (23f96a4 <HAL_EEPROM_Get+0x14>)
 23f9694:	6800      	ldr	r0, [r0, #0]
 23f9696:	4b04      	ldr	r3, [pc, #16]	; (23f96a8 <HAL_EEPROM_Get+0x18>)
 23f9698:	4403      	add	r3, r0
 23f969a:	681b      	ldr	r3, [r3, #0]
 23f969c:	6c5b      	ldr	r3, [r3, #68]	; 0x44
 23f969e:	9302      	str	r3, [sp, #8]
 23f96a0:	bd09      	pop	{r0, r3, pc}
 23f96a2:	0000      	.short	0x0000
 23f96a4:	10072d28 	.word	0x10072d28
 23f96a8:	00000000 	.word	0x00000000

023f96ac <HAL_EEPROM_Put>:
DYNALIB_FN(BASE_IDX + 16, hal, HAL_EEPROM_Put, void(uint32_t, const void *, size_t))
 23f96ac:	b509      	push	{r0, r3, lr}
 23f96ae:	4804      	ldr	r0, [pc, #16]	; (23f96c0 <HAL_EEPROM_Put+0x14>)
 23f96b0:	6800      	ldr	r0, [r0, #0]
 23f96b2:	4b04      	ldr	r3, [pc, #16]	; (23f96c4 <HAL_EEPROM_Put+0x18>)
 23f96b4:	4403      	add	r3, r0
 23f96b6:	681b      	ldr	r3, [r3, #0]
 23f96b8:	6c9b      	ldr	r3, [r3, #72]	; 0x48
 23f96ba:	9302      	str	r3, [sp, #8]
 23f96bc:	bd09      	pop	{r0, r3, pc}
 23f96be:	0000      	.short	0x0000
 23f96c0:	10072d28 	.word	0x10072d28
 23f96c4:	00000000 	.word	0x00000000

023f96c8 <hal_rtc_time_is_valid>:
DYNALIB_FN(BASE_IDX + 17, hal, HAL_EEPROM_Clear, void(void))
DYNALIB_FN(BASE_IDX + 18, hal, HAL_EEPROM_Has_Pending_Erase, bool(void))
DYNALIB_FN(BASE_IDX + 19, hal, HAL_EEPROM_Perform_Pending_Erase, void(void))
DYNALIB_FN(BASE_IDX + 20, hal, hal_rtc_time_is_valid, bool(hal_rtc_option_t*))
 23f96c8:	b509      	push	{r0, r3, lr}
 23f96ca:	4804      	ldr	r0, [pc, #16]	; (23f96dc <hal_rtc_time_is_valid+0x14>)
 23f96cc:	6800      	ldr	r0, [r0, #0]
 23f96ce:	4b04      	ldr	r3, [pc, #16]	; (23f96e0 <hal_rtc_time_is_valid+0x18>)
 23f96d0:	4403      	add	r3, r0
 23f96d2:	681b      	ldr	r3, [r3, #0]
 23f96d4:	6d9b      	ldr	r3, [r3, #88]	; 0x58
 23f96d6:	9302      	str	r3, [sp, #8]
 23f96d8:	bd09      	pop	{r0, r3, pc}
 23f96da:	0000      	.short	0x0000
 23f96dc:	10072d28 	.word	0x10072d28
 23f96e0:	00000000 	.word	0x00000000

023f96e4 <hal_timer_millis>:

DYNALIB_FN(BASE_IDX + 21, hal, hal_timer_millis, uint64_t(void*))
 23f96e4:	b509      	push	{r0, r3, lr}
 23f96e6:	4804      	ldr	r0, [pc, #16]	; (23f96f8 <hal_timer_millis+0x14>)
 23f96e8:	6800      	ldr	r0, [r0, #0]
 23f96ea:	4b04      	ldr	r3, [pc, #16]	; (23f96fc <hal_timer_millis+0x18>)
 23f96ec:	4403      	add	r3, r0
 23f96ee:	681b      	ldr	r3, [r3, #0]
 23f96f0:	6ddb      	ldr	r3, [r3, #92]	; 0x5c
 23f96f2:	9302      	str	r3, [sp, #8]
 23f96f4:	bd09      	pop	{r0, r3, pc}
 23f96f6:	0000      	.short	0x0000
 23f96f8:	10072d28 	.word	0x10072d28
 23f96fc:	00000000 	.word	0x00000000

023f9700 <hal_rtc_get_time>:
DYNALIB_FN(BASE_IDX + 22, hal, hal_timer_micros, uint64_t(void*))

DYNALIB_FN(BASE_IDX + 23, hal, hal_rtc_get_time, int(struct timeval*, hal_rtc_option_t*))
 23f9700:	b509      	push	{r0, r3, lr}
 23f9702:	4804      	ldr	r0, [pc, #16]	; (23f9714 <hal_rtc_get_time+0x14>)
 23f9704:	6800      	ldr	r0, [r0, #0]
 23f9706:	4b04      	ldr	r3, [pc, #16]	; (23f9718 <hal_rtc_get_time+0x18>)
 23f9708:	4403      	add	r3, r0
 23f970a:	681b      	ldr	r3, [r3, #0]
 23f970c:	6e5b      	ldr	r3, [r3, #100]	; 0x64
 23f970e:	9302      	str	r3, [sp, #8]
 23f9710:	bd09      	pop	{r0, r3, pc}
 23f9712:	0000      	.short	0x0000
 23f9714:	10072d28 	.word	0x10072d28
 23f9718:	00000000 	.word	0x00000000

023f971c <HAL_Core_Runtime_Info>:
DYNALIB_FN(16, hal_core, hal_watchdog_reset_flagged_deprecated, bool(void))
DYNALIB_FN(17, hal_core, hal_watchdog_refresh_deprecated, void(void))
DYNALIB_FN(18, hal_core, HAL_Bootloader_Get_Flag, uint16_t(BootloaderFlag))
DYNALIB_FN(19, hal_core, HAL_Bootloader_Lock, void(bool))
DYNALIB_FN(20, hal_core, HAL_Core_System_Reset_FlagSet, bool(RESET_TypeDef))
DYNALIB_FN(21, hal_core, HAL_Core_Runtime_Info, uint32_t(runtime_info_t*, void*))
 23f971c:	b509      	push	{r0, r3, lr}
 23f971e:	4804      	ldr	r0, [pc, #16]	; (23f9730 <HAL_Core_Runtime_Info+0x14>)
 23f9720:	6800      	ldr	r0, [r0, #0]
 23f9722:	4b04      	ldr	r3, [pc, #16]	; (23f9734 <HAL_Core_Runtime_Info+0x18>)
 23f9724:	4403      	add	r3, r0
 23f9726:	681b      	ldr	r3, [r3, #0]
 23f9728:	6d5b      	ldr	r3, [r3, #84]	; 0x54
 23f972a:	9302      	str	r3, [sp, #8]
 23f972c:	bd09      	pop	{r0, r3, pc}
 23f972e:	0000      	.short	0x0000
 23f9730:	10072d28 	.word	0x10072d28
 23f9734:	0000001c 	.word	0x0000001c

023f9738 <HAL_Feature_Set>:
DYNALIB_FN(22, hal_core, HAL_Set_System_Config, int(hal_system_config_t, const void*, unsigned))
DYNALIB_FN(23, hal_core, HAL_Core_Enter_Safe_Mode, void(void*))
DYNALIB_FN(24, hal_core, HAL_Feature_Get, bool(HAL_Feature))
DYNALIB_FN(25, hal_core, HAL_Feature_Set, int(HAL_Feature, bool))
 23f9738:	b509      	push	{r0, r3, lr}
 23f973a:	4804      	ldr	r0, [pc, #16]	; (23f974c <HAL_Feature_Set+0x14>)
 23f973c:	6800      	ldr	r0, [r0, #0]
 23f973e:	4b04      	ldr	r3, [pc, #16]	; (23f9750 <HAL_Feature_Set+0x18>)
 23f9740:	4403      	add	r3, r0
 23f9742:	681b      	ldr	r3, [r3, #0]
 23f9744:	6e5b      	ldr	r3, [r3, #100]	; 0x64
 23f9746:	9302      	str	r3, [sp, #8]
 23f9748:	bd09      	pop	{r0, r3, pc}
 23f974a:	0000      	.short	0x0000
 23f974c:	10072d28 	.word	0x10072d28
 23f9750:	0000001c 	.word	0x0000001c

023f9754 <_open>:
// Function signatures shouldn't be changed other than changing pointer types.
// New HAL functions must be added to the end of this list.
// GNINRAW

DYNALIB_BEGIN(hal_posix_syscall)
DYNALIB_FN(0, hal_posix_syscall, _open, int(const char* pathname, int flags, ... /* arg */))
 23f9754:	b509      	push	{r0, r3, lr}
 23f9756:	4804      	ldr	r0, [pc, #16]	; (23f9768 <_open+0x14>)
 23f9758:	6800      	ldr	r0, [r0, #0]
 23f975a:	4b04      	ldr	r3, [pc, #16]	; (23f976c <_open+0x18>)
 23f975c:	4403      	add	r3, r0
 23f975e:	681b      	ldr	r3, [r3, #0]
 23f9760:	681b      	ldr	r3, [r3, #0]
 23f9762:	9302      	str	r3, [sp, #8]
 23f9764:	bd09      	pop	{r0, r3, pc}
 23f9766:	0000      	.short	0x0000
 23f9768:	10072d28 	.word	0x10072d28
 23f976c:	00000064 	.word	0x00000064

023f9770 <_write>:
DYNALIB_FN(1, hal_posix_syscall, _write, int(int fd, const void* buf, size_t count))
 23f9770:	b509      	push	{r0, r3, lr}
 23f9772:	4804      	ldr	r0, [pc, #16]	; (23f9784 <_write+0x14>)
 23f9774:	6800      	ldr	r0, [r0, #0]
 23f9776:	4b04      	ldr	r3, [pc, #16]	; (23f9788 <_write+0x18>)
 23f9778:	4403      	add	r3, r0
 23f977a:	681b      	ldr	r3, [r3, #0]
 23f977c:	685b      	ldr	r3, [r3, #4]
 23f977e:	9302      	str	r3, [sp, #8]
 23f9780:	bd09      	pop	{r0, r3, pc}
 23f9782:	0000      	.short	0x0000
 23f9784:	10072d28 	.word	0x10072d28
 23f9788:	00000064 	.word	0x00000064

023f978c <_read>:
DYNALIB_FN(2, hal_posix_syscall, _read, int(int fd, void* buf, size_t count))
 23f978c:	b509      	push	{r0, r3, lr}
 23f978e:	4804      	ldr	r0, [pc, #16]	; (23f97a0 <_read+0x14>)
 23f9790:	6800      	ldr	r0, [r0, #0]
 23f9792:	4b04      	ldr	r3, [pc, #16]	; (23f97a4 <_read+0x18>)
 23f9794:	4403      	add	r3, r0
 23f9796:	681b      	ldr	r3, [r3, #0]
 23f9798:	689b      	ldr	r3, [r3, #8]
 23f979a:	9302      	str	r3, [sp, #8]
 23f979c:	bd09      	pop	{r0, r3, pc}
 23f979e:	0000      	.short	0x0000
 23f97a0:	10072d28 	.word	0x10072d28
 23f97a4:	00000064 	.word	0x00000064

023f97a8 <_close>:
DYNALIB_FN(3, hal_posix_syscall, _close, int(int fd))
 23f97a8:	b509      	push	{r0, r3, lr}
 23f97aa:	4804      	ldr	r0, [pc, #16]	; (23f97bc <_close+0x14>)
 23f97ac:	6800      	ldr	r0, [r0, #0]
 23f97ae:	4b04      	ldr	r3, [pc, #16]	; (23f97c0 <_close+0x18>)
 23f97b0:	4403      	add	r3, r0
 23f97b2:	681b      	ldr	r3, [r3, #0]
 23f97b4:	68db      	ldr	r3, [r3, #12]
 23f97b6:	9302      	str	r3, [sp, #8]
 23f97b8:	bd09      	pop	{r0, r3, pc}
 23f97ba:	0000      	.short	0x0000
 23f97bc:	10072d28 	.word	0x10072d28
 23f97c0:	00000064 	.word	0x00000064

023f97c4 <hal_backup_ram_sync>:
// New HAL functions must be added to the end of this list.
// GNINRAW

DYNALIB_BEGIN(hal_backup_ram)

DYNALIB_FN(0, hal_backup_ram, hal_backup_ram_sync, int(void*))
 23f97c4:	b509      	push	{r0, r3, lr}
 23f97c6:	4804      	ldr	r0, [pc, #16]	; (23f97d8 <hal_backup_ram_sync+0x14>)
 23f97c8:	6800      	ldr	r0, [r0, #0]
 23f97ca:	4b04      	ldr	r3, [pc, #16]	; (23f97dc <hal_backup_ram_sync+0x18>)
 23f97cc:	4403      	add	r3, r0
 23f97ce:	681b      	ldr	r3, [r3, #0]
 23f97d0:	681b      	ldr	r3, [r3, #0]
 23f97d2:	9302      	str	r3, [sp, #8]
 23f97d4:	bd09      	pop	{r0, r3, pc}
 23f97d6:	0000      	.short	0x0000
 23f97d8:	10072d28 	.word	0x10072d28
 23f97dc:	00000070 	.word	0x00000070

023f97e0 <os_thread_yield>:

#if PLATFORM_THREADING
DYNALIB_FN(0, hal_concurrent, __gthread_equal, bool(__gthread_t, __gthread_t))
DYNALIB_FN(1, hal_concurrent, os_thread_create, os_result_t(os_thread_t*, const char*, os_thread_prio_t, os_thread_fn_t, void*, size_t))
DYNALIB_FN(2, hal_concurrent, os_thread_is_current, bool(os_thread_t))
DYNALIB_FN(3, hal_concurrent, os_thread_yield, os_result_t(void))
 23f97e0:	b509      	push	{r0, r3, lr}
 23f97e2:	4804      	ldr	r0, [pc, #16]	; (23f97f4 <os_thread_yield+0x14>)
 23f97e4:	6800      	ldr	r0, [r0, #0]
 23f97e6:	4b04      	ldr	r3, [pc, #16]	; (23f97f8 <os_thread_yield+0x18>)
 23f97e8:	4403      	add	r3, r0
 23f97ea:	681b      	ldr	r3, [r3, #0]
 23f97ec:	68db      	ldr	r3, [r3, #12]
 23f97ee:	9302      	str	r3, [sp, #8]
 23f97f0:	bd09      	pop	{r0, r3, pc}
 23f97f2:	0000      	.short	0x0000
 23f97f4:	10072d28 	.word	0x10072d28
 23f97f8:	00000030 	.word	0x00000030

023f97fc <os_thread_scheduling>:
DYNALIB_FN(4, hal_concurrent, os_thread_join, os_result_t(os_thread_t))
DYNALIB_FN(5, hal_concurrent, os_thread_cleanup, os_result_t(os_thread_t))
DYNALIB_FN(6, hal_concurrent, os_thread_delay_until, os_result_t(system_tick_t*, system_tick_t))
DYNALIB_FN(7, hal_concurrent, os_thread_scheduling, void(bool, void*))
 23f97fc:	b509      	push	{r0, r3, lr}
 23f97fe:	4804      	ldr	r0, [pc, #16]	; (23f9810 <os_thread_scheduling+0x14>)
 23f9800:	6800      	ldr	r0, [r0, #0]
 23f9802:	4b04      	ldr	r3, [pc, #16]	; (23f9814 <os_thread_scheduling+0x18>)
 23f9804:	4403      	add	r3, r0
 23f9806:	681b      	ldr	r3, [r3, #0]
 23f9808:	69db      	ldr	r3, [r3, #28]
 23f980a:	9302      	str	r3, [sp, #8]
 23f980c:	bd09      	pop	{r0, r3, pc}
 23f980e:	0000      	.short	0x0000
 23f9810:	10072d28 	.word	0x10072d28
 23f9814:	00000030 	.word	0x00000030

023f9818 <os_timer_create>:

DYNALIB_FN(8, hal_concurrent, os_timer_create, int(os_timer_t*, unsigned, void(*)(os_timer_t), void*, bool, void*))
 23f9818:	b509      	push	{r0, r3, lr}
 23f981a:	4804      	ldr	r0, [pc, #16]	; (23f982c <os_timer_create+0x14>)
 23f981c:	6800      	ldr	r0, [r0, #0]
 23f981e:	4b04      	ldr	r3, [pc, #16]	; (23f9830 <os_timer_create+0x18>)
 23f9820:	4403      	add	r3, r0
 23f9822:	681b      	ldr	r3, [r3, #0]
 23f9824:	6a1b      	ldr	r3, [r3, #32]
 23f9826:	9302      	str	r3, [sp, #8]
 23f9828:	bd09      	pop	{r0, r3, pc}
 23f982a:	0000      	.short	0x0000
 23f982c:	10072d28 	.word	0x10072d28
 23f9830:	00000030 	.word	0x00000030

023f9834 <os_timer_destroy>:
DYNALIB_FN(9, hal_concurrent, os_timer_destroy, int(os_timer_t, void*))
 23f9834:	b509      	push	{r0, r3, lr}
 23f9836:	4804      	ldr	r0, [pc, #16]	; (23f9848 <os_timer_destroy+0x14>)
 23f9838:	6800      	ldr	r0, [r0, #0]
 23f983a:	4b04      	ldr	r3, [pc, #16]	; (23f984c <os_timer_destroy+0x18>)
 23f983c:	4403      	add	r3, r0
 23f983e:	681b      	ldr	r3, [r3, #0]
 23f9840:	6a5b      	ldr	r3, [r3, #36]	; 0x24
 23f9842:	9302      	str	r3, [sp, #8]
 23f9844:	bd09      	pop	{r0, r3, pc}
 23f9846:	0000      	.short	0x0000
 23f9848:	10072d28 	.word	0x10072d28
 23f984c:	00000030 	.word	0x00000030

023f9850 <os_timer_get_id>:
DYNALIB_FN(10, hal_concurrent, os_timer_get_id, int(os_timer_t, void**))
 23f9850:	b509      	push	{r0, r3, lr}
 23f9852:	4804      	ldr	r0, [pc, #16]	; (23f9864 <os_timer_get_id+0x14>)
 23f9854:	6800      	ldr	r0, [r0, #0]
 23f9856:	4b04      	ldr	r3, [pc, #16]	; (23f9868 <os_timer_get_id+0x18>)
 23f9858:	4403      	add	r3, r0
 23f985a:	681b      	ldr	r3, [r3, #0]
 23f985c:	6a9b      	ldr	r3, [r3, #40]	; 0x28
 23f985e:	9302      	str	r3, [sp, #8]
 23f9860:	bd09      	pop	{r0, r3, pc}
 23f9862:	0000      	.short	0x0000
 23f9864:	10072d28 	.word	0x10072d28
 23f9868:	00000030 	.word	0x00000030

023f986c <os_timer_change>:
DYNALIB_FN(11, hal_concurrent, os_timer_change, int(os_timer_t, os_timer_change_t, bool, unsigned, unsigned, void*))
 23f986c:	b509      	push	{r0, r3, lr}
 23f986e:	4804      	ldr	r0, [pc, #16]	; (23f9880 <os_timer_change+0x14>)
 23f9870:	6800      	ldr	r0, [r0, #0]
 23f9872:	4b04      	ldr	r3, [pc, #16]	; (23f9884 <os_timer_change+0x18>)
 23f9874:	4403      	add	r3, r0
 23f9876:	681b      	ldr	r3, [r3, #0]
 23f9878:	6adb      	ldr	r3, [r3, #44]	; 0x2c
 23f987a:	9302      	str	r3, [sp, #8]
 23f987c:	bd09      	pop	{r0, r3, pc}
 23f987e:	0000      	.short	0x0000
 23f9880:	10072d28 	.word	0x10072d28
 23f9884:	00000030 	.word	0x00000030

023f9888 <os_mutex_recursive_create>:
DYNALIB_FN(13, hal_concurrent, os_mutex_destroy, int(os_mutex_t))
DYNALIB_FN(14, hal_concurrent, os_mutex_lock, int(os_mutex_t))
DYNALIB_FN(15, hal_concurrent, os_mutex_trylock, int(os_mutex_t))
DYNALIB_FN(16, hal_concurrent, os_mutex_unlock, int(os_mutex_t))

DYNALIB_FN(17, hal_concurrent, os_mutex_recursive_create, int(os_mutex_recursive_t*))
 23f9888:	b509      	push	{r0, r3, lr}
 23f988a:	4804      	ldr	r0, [pc, #16]	; (23f989c <os_mutex_recursive_create+0x14>)
 23f988c:	6800      	ldr	r0, [r0, #0]
 23f988e:	4b04      	ldr	r3, [pc, #16]	; (23f98a0 <os_mutex_recursive_create+0x18>)
 23f9890:	4403      	add	r3, r0
 23f9892:	681b      	ldr	r3, [r3, #0]
 23f9894:	6c5b      	ldr	r3, [r3, #68]	; 0x44
 23f9896:	9302      	str	r3, [sp, #8]
 23f9898:	bd09      	pop	{r0, r3, pc}
 23f989a:	0000      	.short	0x0000
 23f989c:	10072d28 	.word	0x10072d28
 23f98a0:	00000030 	.word	0x00000030

023f98a4 <os_mutex_recursive_destroy>:
DYNALIB_FN(18, hal_concurrent, os_mutex_recursive_destroy, int(os_mutex_recursive_t))
 23f98a4:	b509      	push	{r0, r3, lr}
 23f98a6:	4804      	ldr	r0, [pc, #16]	; (23f98b8 <os_mutex_recursive_destroy+0x14>)
 23f98a8:	6800      	ldr	r0, [r0, #0]
 23f98aa:	4b04      	ldr	r3, [pc, #16]	; (23f98bc <os_mutex_recursive_destroy+0x18>)
 23f98ac:	4403      	add	r3, r0
 23f98ae:	681b      	ldr	r3, [r3, #0]
 23f98b0:	6c9b      	ldr	r3, [r3, #72]	; 0x48
 23f98b2:	9302      	str	r3, [sp, #8]
 23f98b4:	bd09      	pop	{r0, r3, pc}
 23f98b6:	0000      	.short	0x0000
 23f98b8:	10072d28 	.word	0x10072d28
 23f98bc:	00000030 	.word	0x00000030

023f98c0 <os_mutex_recursive_lock>:
DYNALIB_FN(19, hal_concurrent, os_mutex_recursive_lock, int(os_mutex_recursive_t))
 23f98c0:	b509      	push	{r0, r3, lr}
 23f98c2:	4804      	ldr	r0, [pc, #16]	; (23f98d4 <os_mutex_recursive_lock+0x14>)
 23f98c4:	6800      	ldr	r0, [r0, #0]
 23f98c6:	4b04      	ldr	r3, [pc, #16]	; (23f98d8 <os_mutex_recursive_lock+0x18>)
 23f98c8:	4403      	add	r3, r0
 23f98ca:	681b      	ldr	r3, [r3, #0]
 23f98cc:	6cdb      	ldr	r3, [r3, #76]	; 0x4c
 23f98ce:	9302      	str	r3, [sp, #8]
 23f98d0:	bd09      	pop	{r0, r3, pc}
 23f98d2:	0000      	.short	0x0000
 23f98d4:	10072d28 	.word	0x10072d28
 23f98d8:	00000030 	.word	0x00000030

023f98dc <os_mutex_recursive_unlock>:
DYNALIB_FN(20, hal_concurrent, os_mutex_recursive_trylock, int(os_mutex_recursive_t))
DYNALIB_FN(21, hal_concurrent, os_mutex_recursive_unlock, int(os_mutex_recursive_t))
 23f98dc:	b509      	push	{r0, r3, lr}
 23f98de:	4804      	ldr	r0, [pc, #16]	; (23f98f0 <os_mutex_recursive_unlock+0x14>)
 23f98e0:	6800      	ldr	r0, [r0, #0]
 23f98e2:	4b04      	ldr	r3, [pc, #16]	; (23f98f4 <os_mutex_recursive_unlock+0x18>)
 23f98e4:	4403      	add	r3, r0
 23f98e6:	681b      	ldr	r3, [r3, #0]
 23f98e8:	6d5b      	ldr	r3, [r3, #84]	; 0x54
 23f98ea:	9302      	str	r3, [sp, #8]
 23f98ec:	bd09      	pop	{r0, r3, pc}
 23f98ee:	0000      	.short	0x0000
 23f98f0:	10072d28 	.word	0x10072d28
 23f98f4:	00000030 	.word	0x00000030

023f98f8 <os_timer_set_id>:
DYNALIB_FN(24, hal_concurrent, os_queue_destroy, int(os_queue_t, void*))
DYNALIB_FN(25, hal_concurrent, os_queue_put, int(os_queue_t, const void* item, system_tick_t, void*))
DYNALIB_FN(26, hal_concurrent, os_queue_take, int(os_queue_t, void* item, system_tick_t, void*))
DYNALIB_FN(27, hal_concurrent, os_thread_exit, os_result_t(os_thread_t))

DYNALIB_FN(28, hal_concurrent, os_timer_set_id, int(os_timer_t, void*))
 23f98f8:	b509      	push	{r0, r3, lr}
 23f98fa:	4804      	ldr	r0, [pc, #16]	; (23f990c <os_timer_set_id+0x14>)
 23f98fc:	6800      	ldr	r0, [r0, #0]
 23f98fe:	4b04      	ldr	r3, [pc, #16]	; (23f9910 <os_timer_set_id+0x18>)
 23f9900:	4403      	add	r3, r0
 23f9902:	681b      	ldr	r3, [r3, #0]
 23f9904:	6f1b      	ldr	r3, [r3, #112]	; 0x70
 23f9906:	9302      	str	r3, [sp, #8]
 23f9908:	bd09      	pop	{r0, r3, pc}
 23f990a:	0000      	.short	0x0000
 23f990c:	10072d28 	.word	0x10072d28
 23f9910:	00000030 	.word	0x00000030

023f9914 <inet_inet_ntop>:
DYNALIB_FN(0, hal_inet, inet_inet_addr, in_addr_t(const char*))
DYNALIB_FN(1, hal_inet, inet_inet_aton, int(const char*, struct in_addr*))
DYNALIB_FN(2, hal_inet, inet_inet_network, in_addr_t(const char*))
DYNALIB_FN(3, hal_inet, inet_inet_ntoa, char*(struct in_addr))
DYNALIB_FN(4, hal_inet, inet_inet_ntoa_r, char*(struct in_addr, char*, socklen_t))
DYNALIB_FN(5, hal_inet, inet_inet_ntop, const char*(int, const void*, char*, socklen_t))
 23f9914:	b509      	push	{r0, r3, lr}
 23f9916:	4804      	ldr	r0, [pc, #16]	; (23f9928 <inet_inet_ntop+0x14>)
 23f9918:	6800      	ldr	r0, [r0, #0]
 23f991a:	4b04      	ldr	r3, [pc, #16]	; (23f992c <inet_inet_ntop+0x18>)
 23f991c:	4403      	add	r3, r0
 23f991e:	681b      	ldr	r3, [r3, #0]
 23f9920:	695b      	ldr	r3, [r3, #20]
 23f9922:	9302      	str	r3, [sp, #8]
 23f9924:	bd09      	pop	{r0, r3, pc}
 23f9926:	0000      	.short	0x0000
 23f9928:	10072d28 	.word	0x10072d28
 23f992c:	0000004c 	.word	0x0000004c

023f9930 <hal_usart_end>:
#define BASE_IDX 0
#endif

DYNALIB_FN(BASE_IDX + 0, hal_usart, hal_usart_init, void(hal_usart_interface_t, hal_usart_ring_buffer_t*, hal_usart_ring_buffer_t*))
DYNALIB_FN(BASE_IDX + 1, hal_usart, hal_usart_begin, void(hal_usart_interface_t, uint32_t))
DYNALIB_FN(BASE_IDX + 2, hal_usart, hal_usart_end, void(hal_usart_interface_t))
 23f9930:	b509      	push	{r0, r3, lr}
 23f9932:	4804      	ldr	r0, [pc, #16]	; (23f9944 <hal_usart_end+0x14>)
 23f9934:	6800      	ldr	r0, [r0, #0]
 23f9936:	4b04      	ldr	r3, [pc, #16]	; (23f9948 <hal_usart_end+0x18>)
 23f9938:	4403      	add	r3, r0
 23f993a:	681b      	ldr	r3, [r3, #0]
 23f993c:	689b      	ldr	r3, [r3, #8]
 23f993e:	9302      	str	r3, [sp, #8]
 23f9940:	bd09      	pop	{r0, r3, pc}
 23f9942:	0000      	.short	0x0000
 23f9944:	10072d28 	.word	0x10072d28
 23f9948:	00000024 	.word	0x00000024

023f994c <hal_usart_write>:
DYNALIB_FN(BASE_IDX + 3, hal_usart, hal_usart_write, uint32_t(hal_usart_interface_t, uint8_t))
 23f994c:	b509      	push	{r0, r3, lr}
 23f994e:	4804      	ldr	r0, [pc, #16]	; (23f9960 <hal_usart_write+0x14>)
 23f9950:	6800      	ldr	r0, [r0, #0]
 23f9952:	4b04      	ldr	r3, [pc, #16]	; (23f9964 <hal_usart_write+0x18>)
 23f9954:	4403      	add	r3, r0
 23f9956:	681b      	ldr	r3, [r3, #0]
 23f9958:	68db      	ldr	r3, [r3, #12]
 23f995a:	9302      	str	r3, [sp, #8]
 23f995c:	bd09      	pop	{r0, r3, pc}
 23f995e:	0000      	.short	0x0000
 23f9960:	10072d28 	.word	0x10072d28
 23f9964:	00000024 	.word	0x00000024

023f9968 <hal_usart_available>:
DYNALIB_FN(BASE_IDX + 4, hal_usart, hal_usart_available, int32_t(hal_usart_interface_t))
 23f9968:	b509      	push	{r0, r3, lr}
 23f996a:	4804      	ldr	r0, [pc, #16]	; (23f997c <hal_usart_available+0x14>)
 23f996c:	6800      	ldr	r0, [r0, #0]
 23f996e:	4b04      	ldr	r3, [pc, #16]	; (23f9980 <hal_usart_available+0x18>)
 23f9970:	4403      	add	r3, r0
 23f9972:	681b      	ldr	r3, [r3, #0]
 23f9974:	691b      	ldr	r3, [r3, #16]
 23f9976:	9302      	str	r3, [sp, #8]
 23f9978:	bd09      	pop	{r0, r3, pc}
 23f997a:	0000      	.short	0x0000
 23f997c:	10072d28 	.word	0x10072d28
 23f9980:	00000024 	.word	0x00000024

023f9984 <hal_usart_read>:
DYNALIB_FN(BASE_IDX + 5, hal_usart, hal_usart_read, int32_t(hal_usart_interface_t))
 23f9984:	b509      	push	{r0, r3, lr}
 23f9986:	4804      	ldr	r0, [pc, #16]	; (23f9998 <hal_usart_read+0x14>)
 23f9988:	6800      	ldr	r0, [r0, #0]
 23f998a:	4b04      	ldr	r3, [pc, #16]	; (23f999c <hal_usart_read+0x18>)
 23f998c:	4403      	add	r3, r0
 23f998e:	681b      	ldr	r3, [r3, #0]
 23f9990:	695b      	ldr	r3, [r3, #20]
 23f9992:	9302      	str	r3, [sp, #8]
 23f9994:	bd09      	pop	{r0, r3, pc}
 23f9996:	0000      	.short	0x0000
 23f9998:	10072d28 	.word	0x10072d28
 23f999c:	00000024 	.word	0x00000024

023f99a0 <hal_usart_peek>:
DYNALIB_FN(BASE_IDX + 6, hal_usart, hal_usart_peek, int32_t(hal_usart_interface_t))
 23f99a0:	b509      	push	{r0, r3, lr}
 23f99a2:	4804      	ldr	r0, [pc, #16]	; (23f99b4 <hal_usart_peek+0x14>)
 23f99a4:	6800      	ldr	r0, [r0, #0]
 23f99a6:	4b04      	ldr	r3, [pc, #16]	; (23f99b8 <hal_usart_peek+0x18>)
 23f99a8:	4403      	add	r3, r0
 23f99aa:	681b      	ldr	r3, [r3, #0]
 23f99ac:	699b      	ldr	r3, [r3, #24]
 23f99ae:	9302      	str	r3, [sp, #8]
 23f99b0:	bd09      	pop	{r0, r3, pc}
 23f99b2:	0000      	.short	0x0000
 23f99b4:	10072d28 	.word	0x10072d28
 23f99b8:	00000024 	.word	0x00000024

023f99bc <hal_usart_flush>:
DYNALIB_FN(BASE_IDX + 7, hal_usart, hal_usart_flush, void(hal_usart_interface_t))
 23f99bc:	b509      	push	{r0, r3, lr}
 23f99be:	4804      	ldr	r0, [pc, #16]	; (23f99d0 <hal_usart_flush+0x14>)
 23f99c0:	6800      	ldr	r0, [r0, #0]
 23f99c2:	4b04      	ldr	r3, [pc, #16]	; (23f99d4 <hal_usart_flush+0x18>)
 23f99c4:	4403      	add	r3, r0
 23f99c6:	681b      	ldr	r3, [r3, #0]
 23f99c8:	69db      	ldr	r3, [r3, #28]
 23f99ca:	9302      	str	r3, [sp, #8]
 23f99cc:	bd09      	pop	{r0, r3, pc}
 23f99ce:	0000      	.short	0x0000
 23f99d0:	10072d28 	.word	0x10072d28
 23f99d4:	00000024 	.word	0x00000024

023f99d8 <hal_usart_is_enabled>:
DYNALIB_FN(BASE_IDX + 8, hal_usart, hal_usart_is_enabled, bool(hal_usart_interface_t))
 23f99d8:	b509      	push	{r0, r3, lr}
 23f99da:	4804      	ldr	r0, [pc, #16]	; (23f99ec <hal_usart_is_enabled+0x14>)
 23f99dc:	6800      	ldr	r0, [r0, #0]
 23f99de:	4b04      	ldr	r3, [pc, #16]	; (23f99f0 <hal_usart_is_enabled+0x18>)
 23f99e0:	4403      	add	r3, r0
 23f99e2:	681b      	ldr	r3, [r3, #0]
 23f99e4:	6a1b      	ldr	r3, [r3, #32]
 23f99e6:	9302      	str	r3, [sp, #8]
 23f99e8:	bd09      	pop	{r0, r3, pc}
 23f99ea:	0000      	.short	0x0000
 23f99ec:	10072d28 	.word	0x10072d28
 23f99f0:	00000024 	.word	0x00000024

023f99f4 <hal_usart_available_data_for_write>:
DYNALIB_FN(BASE_IDX + 9, hal_usart, hal_usart_half_duplex, void(hal_usart_interface_t, bool))
DYNALIB_FN(BASE_IDX + 10, hal_usart, hal_usart_available_data_for_write, int32_t(hal_usart_interface_t))
 23f99f4:	b509      	push	{r0, r3, lr}
 23f99f6:	4804      	ldr	r0, [pc, #16]	; (23f9a08 <hal_usart_available_data_for_write+0x14>)
 23f99f8:	6800      	ldr	r0, [r0, #0]
 23f99fa:	4b04      	ldr	r3, [pc, #16]	; (23f9a0c <hal_usart_available_data_for_write+0x18>)
 23f99fc:	4403      	add	r3, r0
 23f99fe:	681b      	ldr	r3, [r3, #0]
 23f9a00:	6a9b      	ldr	r3, [r3, #40]	; 0x28
 23f9a02:	9302      	str	r3, [sp, #8]
 23f9a04:	bd09      	pop	{r0, r3, pc}
 23f9a06:	0000      	.short	0x0000
 23f9a08:	10072d28 	.word	0x10072d28
 23f9a0c:	00000024 	.word	0x00000024

023f9a10 <hal_usart_begin_config>:
#define BASE_IDX2 (BASE_IDX+13)
#else
#define BASE_IDX2 (BASE_IDX+11)
#endif

DYNALIB_FN(BASE_IDX2 + 0, hal_usart, hal_usart_begin_config, void(hal_usart_interface_t serial, uint32_t baud, uint32_t config, void *ptr))
 23f9a10:	b509      	push	{r0, r3, lr}
 23f9a12:	4804      	ldr	r0, [pc, #16]	; (23f9a24 <hal_usart_begin_config+0x14>)
 23f9a14:	6800      	ldr	r0, [r0, #0]
 23f9a16:	4b04      	ldr	r3, [pc, #16]	; (23f9a28 <hal_usart_begin_config+0x18>)
 23f9a18:	4403      	add	r3, r0
 23f9a1a:	681b      	ldr	r3, [r3, #0]
 23f9a1c:	6adb      	ldr	r3, [r3, #44]	; 0x2c
 23f9a1e:	9302      	str	r3, [sp, #8]
 23f9a20:	bd09      	pop	{r0, r3, pc}
 23f9a22:	0000      	.short	0x0000
 23f9a24:	10072d28 	.word	0x10072d28
 23f9a28:	00000024 	.word	0x00000024

023f9a2c <hal_usart_write_nine_bits>:
DYNALIB_FN(BASE_IDX2 + 1, hal_usart, hal_usart_write_nine_bits, uint32_t(hal_usart_interface_t serial, uint16_t data))
 23f9a2c:	b509      	push	{r0, r3, lr}
 23f9a2e:	4804      	ldr	r0, [pc, #16]	; (23f9a40 <hal_usart_write_nine_bits+0x14>)
 23f9a30:	6800      	ldr	r0, [r0, #0]
 23f9a32:	4b04      	ldr	r3, [pc, #16]	; (23f9a44 <hal_usart_write_nine_bits+0x18>)
 23f9a34:	4403      	add	r3, r0
 23f9a36:	681b      	ldr	r3, [r3, #0]
 23f9a38:	6b1b      	ldr	r3, [r3, #48]	; 0x30
 23f9a3a:	9302      	str	r3, [sp, #8]
 23f9a3c:	bd09      	pop	{r0, r3, pc}
 23f9a3e:	0000      	.short	0x0000
 23f9a40:	10072d28 	.word	0x10072d28
 23f9a44:	00000024 	.word	0x00000024

023f9a48 <hal_usart_init_ex>:
DYNALIB_FN(BASE_IDX2 + 2, hal_usart, hal_usart_send_break, void(hal_usart_interface_t, void*))
DYNALIB_FN(BASE_IDX2 + 3, hal_usart, hal_usart_break_detected, uint8_t(hal_usart_interface_t))
DYNALIB_FN(BASE_IDX2 + 4, hal_usart, hal_usart_sleep, int(hal_usart_interface_t serial, bool, void*))
DYNALIB_FN(BASE_IDX2 + 5, hal_usart, hal_usart_init_ex, int(hal_usart_interface_t, const hal_usart_buffer_config_t*, void*))
 23f9a48:	b509      	push	{r0, r3, lr}
 23f9a4a:	4804      	ldr	r0, [pc, #16]	; (23f9a5c <hal_usart_init_ex+0x14>)
 23f9a4c:	6800      	ldr	r0, [r0, #0]
 23f9a4e:	4b04      	ldr	r3, [pc, #16]	; (23f9a60 <hal_usart_init_ex+0x18>)
 23f9a50:	4403      	add	r3, r0
 23f9a52:	681b      	ldr	r3, [r3, #0]
 23f9a54:	6c1b      	ldr	r3, [r3, #64]	; 0x40
 23f9a56:	9302      	str	r3, [sp, #8]
 23f9a58:	bd09      	pop	{r0, r3, pc}
 23f9a5a:	0000      	.short	0x0000
 23f9a5c:	10072d28 	.word	0x10072d28
 23f9a60:	00000024 	.word	0x00000024

023f9a64 <hal_i2c_write>:
DYNALIB_FN(3, hal_i2c, hal_i2c_begin, void(hal_i2c_interface_t, hal_i2c_mode_t, uint8_t, void*))
DYNALIB_FN(4, hal_i2c, hal_i2c_end, void(hal_i2c_interface_t, void*))
DYNALIB_FN(5, hal_i2c, hal_i2c_request, uint32_t(hal_i2c_interface_t, uint8_t, uint8_t, uint8_t, void*))
DYNALIB_FN(6, hal_i2c, hal_i2c_begin_transmission, void(hal_i2c_interface_t, uint8_t, const hal_i2c_transmission_config_t*))
DYNALIB_FN(7, hal_i2c, hal_i2c_end_transmission, uint8_t(hal_i2c_interface_t, uint8_t, void*))
DYNALIB_FN(8, hal_i2c, hal_i2c_write, uint32_t(hal_i2c_interface_t, uint8_t, void*))
 23f9a64:	b509      	push	{r0, r3, lr}
 23f9a66:	4804      	ldr	r0, [pc, #16]	; (23f9a78 <hal_i2c_write+0x14>)
 23f9a68:	6800      	ldr	r0, [r0, #0]
 23f9a6a:	4b04      	ldr	r3, [pc, #16]	; (23f9a7c <hal_i2c_write+0x18>)
 23f9a6c:	4403      	add	r3, r0
 23f9a6e:	681b      	ldr	r3, [r3, #0]
 23f9a70:	6a1b      	ldr	r3, [r3, #32]
 23f9a72:	9302      	str	r3, [sp, #8]
 23f9a74:	bd09      	pop	{r0, r3, pc}
 23f9a76:	0000      	.short	0x0000
 23f9a78:	10072d28 	.word	0x10072d28
 23f9a7c:	00000010 	.word	0x00000010

023f9a80 <hal_i2c_available>:
DYNALIB_FN(9, hal_i2c, hal_i2c_available, int32_t(hal_i2c_interface_t, void*))
 23f9a80:	b509      	push	{r0, r3, lr}
 23f9a82:	4804      	ldr	r0, [pc, #16]	; (23f9a94 <hal_i2c_available+0x14>)
 23f9a84:	6800      	ldr	r0, [r0, #0]
 23f9a86:	4b04      	ldr	r3, [pc, #16]	; (23f9a98 <hal_i2c_available+0x18>)
 23f9a88:	4403      	add	r3, r0
 23f9a8a:	681b      	ldr	r3, [r3, #0]
 23f9a8c:	6a5b      	ldr	r3, [r3, #36]	; 0x24
 23f9a8e:	9302      	str	r3, [sp, #8]
 23f9a90:	bd09      	pop	{r0, r3, pc}
 23f9a92:	0000      	.short	0x0000
 23f9a94:	10072d28 	.word	0x10072d28
 23f9a98:	00000010 	.word	0x00000010

023f9a9c <hal_i2c_read>:
DYNALIB_FN(10, hal_i2c, hal_i2c_read, int32_t(hal_i2c_interface_t, void*))
 23f9a9c:	b509      	push	{r0, r3, lr}
 23f9a9e:	4804      	ldr	r0, [pc, #16]	; (23f9ab0 <hal_i2c_read+0x14>)
 23f9aa0:	6800      	ldr	r0, [r0, #0]
 23f9aa2:	4b04      	ldr	r3, [pc, #16]	; (23f9ab4 <hal_i2c_read+0x18>)
 23f9aa4:	4403      	add	r3, r0
 23f9aa6:	681b      	ldr	r3, [r3, #0]
 23f9aa8:	6a9b      	ldr	r3, [r3, #40]	; 0x28
 23f9aaa:	9302      	str	r3, [sp, #8]
 23f9aac:	bd09      	pop	{r0, r3, pc}
 23f9aae:	0000      	.short	0x0000
 23f9ab0:	10072d28 	.word	0x10072d28
 23f9ab4:	00000010 	.word	0x00000010

023f9ab8 <hal_i2c_peek>:
DYNALIB_FN(11, hal_i2c, hal_i2c_peek, int32_t(hal_i2c_interface_t, void*))
 23f9ab8:	b509      	push	{r0, r3, lr}
 23f9aba:	4804      	ldr	r0, [pc, #16]	; (23f9acc <hal_i2c_peek+0x14>)
 23f9abc:	6800      	ldr	r0, [r0, #0]
 23f9abe:	4b04      	ldr	r3, [pc, #16]	; (23f9ad0 <hal_i2c_peek+0x18>)
 23f9ac0:	4403      	add	r3, r0
 23f9ac2:	681b      	ldr	r3, [r3, #0]
 23f9ac4:	6adb      	ldr	r3, [r3, #44]	; 0x2c
 23f9ac6:	9302      	str	r3, [sp, #8]
 23f9ac8:	bd09      	pop	{r0, r3, pc}
 23f9aca:	0000      	.short	0x0000
 23f9acc:	10072d28 	.word	0x10072d28
 23f9ad0:	00000010 	.word	0x00000010

023f9ad4 <hal_i2c_flush>:
DYNALIB_FN(12, hal_i2c, hal_i2c_flush, void(hal_i2c_interface_t, void*))
 23f9ad4:	b509      	push	{r0, r3, lr}
 23f9ad6:	4804      	ldr	r0, [pc, #16]	; (23f9ae8 <hal_i2c_flush+0x14>)
 23f9ad8:	6800      	ldr	r0, [r0, #0]
 23f9ada:	4b04      	ldr	r3, [pc, #16]	; (23f9aec <hal_i2c_flush+0x18>)
 23f9adc:	4403      	add	r3, r0
 23f9ade:	681b      	ldr	r3, [r3, #0]
 23f9ae0:	6b1b      	ldr	r3, [r3, #48]	; 0x30
 23f9ae2:	9302      	str	r3, [sp, #8]
 23f9ae4:	bd09      	pop	{r0, r3, pc}
 23f9ae6:	0000      	.short	0x0000
 23f9ae8:	10072d28 	.word	0x10072d28
 23f9aec:	00000010 	.word	0x00000010

023f9af0 <hal_i2c_is_enabled>:
DYNALIB_FN(13, hal_i2c, hal_i2c_is_enabled, bool(hal_i2c_interface_t, void*))
 23f9af0:	b509      	push	{r0, r3, lr}
 23f9af2:	4804      	ldr	r0, [pc, #16]	; (23f9b04 <hal_i2c_is_enabled+0x14>)
 23f9af4:	6800      	ldr	r0, [r0, #0]
 23f9af6:	4b04      	ldr	r3, [pc, #16]	; (23f9b08 <hal_i2c_is_enabled+0x18>)
 23f9af8:	4403      	add	r3, r0
 23f9afa:	681b      	ldr	r3, [r3, #0]
 23f9afc:	6b5b      	ldr	r3, [r3, #52]	; 0x34
 23f9afe:	9302      	str	r3, [sp, #8]
 23f9b00:	bd09      	pop	{r0, r3, pc}
 23f9b02:	0000      	.short	0x0000
 23f9b04:	10072d28 	.word	0x10072d28
 23f9b08:	00000010 	.word	0x00000010

023f9b0c <hal_i2c_init>:
DYNALIB_FN(14, hal_i2c, hal_i2c_set_callback_on_received, void(hal_i2c_interface_t, void(*)(int), void*))
DYNALIB_FN(15, hal_i2c, hal_i2c_set_callback_on_requested, void(hal_i2c_interface_t, void(*)(void), void*))
DYNALIB_FN(16, hal_i2c, hal_i2c_init, int(hal_i2c_interface_t, const hal_i2c_config_t*))
 23f9b0c:	b509      	push	{r0, r3, lr}
 23f9b0e:	4804      	ldr	r0, [pc, #16]	; (23f9b20 <hal_i2c_init+0x14>)
 23f9b10:	6800      	ldr	r0, [r0, #0]
 23f9b12:	4b04      	ldr	r3, [pc, #16]	; (23f9b24 <hal_i2c_init+0x18>)
 23f9b14:	4403      	add	r3, r0
 23f9b16:	681b      	ldr	r3, [r3, #0]
 23f9b18:	6c1b      	ldr	r3, [r3, #64]	; 0x40
 23f9b1a:	9302      	str	r3, [sp, #8]
 23f9b1c:	bd09      	pop	{r0, r3, pc}
 23f9b1e:	0000      	.short	0x0000
 23f9b20:	10072d28 	.word	0x10072d28
 23f9b24:	00000010 	.word	0x00000010

023f9b28 <hal_spi_init>:
DYNALIB_FN(2, hal_spi, hal_spi_set_bit_order, void(hal_spi_interface_t, uint8_t))
DYNALIB_FN(3, hal_spi, hal_spi_set_data_mode, void(hal_spi_interface_t, uint8_t))
DYNALIB_FN(4, hal_spi, hal_spi_set_clock_divider, void(hal_spi_interface_t, uint8_t))
DYNALIB_FN(5, hal_spi, hal_spi_transfer, uint16_t(hal_spi_interface_t, uint16_t))
DYNALIB_FN(6, hal_spi, hal_spi_is_enabled_deprecated, bool(void))
DYNALIB_FN(7, hal_spi, hal_spi_init, void(hal_spi_interface_t))
 23f9b28:	b509      	push	{r0, r3, lr}
 23f9b2a:	4804      	ldr	r0, [pc, #16]	; (23f9b3c <hal_spi_init+0x14>)
 23f9b2c:	6800      	ldr	r0, [r0, #0]
 23f9b2e:	4b04      	ldr	r3, [pc, #16]	; (23f9b40 <hal_spi_init+0x18>)
 23f9b30:	4403      	add	r3, r0
 23f9b32:	681b      	ldr	r3, [r3, #0]
 23f9b34:	69db      	ldr	r3, [r3, #28]
 23f9b36:	9302      	str	r3, [sp, #8]
 23f9b38:	bd09      	pop	{r0, r3, pc}
 23f9b3a:	0000      	.short	0x0000
 23f9b3c:	10072d28 	.word	0x10072d28
 23f9b40:	00000018 	.word	0x00000018

023f9b44 <hal_spi_is_enabled>:
DYNALIB_FN(8, hal_spi, hal_spi_is_enabled, bool(hal_spi_interface_t))
 23f9b44:	b509      	push	{r0, r3, lr}
 23f9b46:	4804      	ldr	r0, [pc, #16]	; (23f9b58 <hal_spi_is_enabled+0x14>)
 23f9b48:	6800      	ldr	r0, [r0, #0]
 23f9b4a:	4b04      	ldr	r3, [pc, #16]	; (23f9b5c <hal_spi_is_enabled+0x18>)
 23f9b4c:	4403      	add	r3, r0
 23f9b4e:	681b      	ldr	r3, [r3, #0]
 23f9b50:	6a1b      	ldr	r3, [r3, #32]
 23f9b52:	9302      	str	r3, [sp, #8]
 23f9b54:	bd09      	pop	{r0, r3, pc}
 23f9b56:	0000      	.short	0x0000
 23f9b58:	10072d28 	.word	0x10072d28
 23f9b5c:	00000018 	.word	0x00000018

023f9b60 <HAL_USB_USART_Init>:
// GNINRAW

DYNALIB_BEGIN(hal_usb)

#ifdef USB_CDC_ENABLE
DYNALIB_FN(0, hal_usb, HAL_USB_USART_Init, void(HAL_USB_USART_Serial, const HAL_USB_USART_Config*))
 23f9b60:	b509      	push	{r0, r3, lr}
 23f9b62:	4804      	ldr	r0, [pc, #16]	; (23f9b74 <HAL_USB_USART_Init+0x14>)
 23f9b64:	6800      	ldr	r0, [r0, #0]
 23f9b66:	4b04      	ldr	r3, [pc, #16]	; (23f9b78 <HAL_USB_USART_Init+0x18>)
 23f9b68:	4403      	add	r3, r0
 23f9b6a:	681b      	ldr	r3, [r3, #0]
 23f9b6c:	681b      	ldr	r3, [r3, #0]
 23f9b6e:	9302      	str	r3, [sp, #8]
 23f9b70:	bd09      	pop	{r0, r3, pc}
 23f9b72:	0000      	.short	0x0000
 23f9b74:	10072d28 	.word	0x10072d28
 23f9b78:	00000034 	.word	0x00000034

023f9b7c <HAL_USB_USART_Begin>:
DYNALIB_FN(1, hal_usb, HAL_USB_USART_Begin, void(HAL_USB_USART_Serial, uint32_t, void *))
 23f9b7c:	b509      	push	{r0, r3, lr}
 23f9b7e:	4804      	ldr	r0, [pc, #16]	; (23f9b90 <HAL_USB_USART_Begin+0x14>)
 23f9b80:	6800      	ldr	r0, [r0, #0]
 23f9b82:	4b04      	ldr	r3, [pc, #16]	; (23f9b94 <HAL_USB_USART_Begin+0x18>)
 23f9b84:	4403      	add	r3, r0
 23f9b86:	681b      	ldr	r3, [r3, #0]
 23f9b88:	685b      	ldr	r3, [r3, #4]
 23f9b8a:	9302      	str	r3, [sp, #8]
 23f9b8c:	bd09      	pop	{r0, r3, pc}
 23f9b8e:	0000      	.short	0x0000
 23f9b90:	10072d28 	.word	0x10072d28
 23f9b94:	00000034 	.word	0x00000034

023f9b98 <HAL_USB_USART_End>:
DYNALIB_FN(2, hal_usb, HAL_USB_USART_End, void(HAL_USB_USART_Serial))
 23f9b98:	b509      	push	{r0, r3, lr}
 23f9b9a:	4804      	ldr	r0, [pc, #16]	; (23f9bac <HAL_USB_USART_End+0x14>)
 23f9b9c:	6800      	ldr	r0, [r0, #0]
 23f9b9e:	4b04      	ldr	r3, [pc, #16]	; (23f9bb0 <HAL_USB_USART_End+0x18>)
 23f9ba0:	4403      	add	r3, r0
 23f9ba2:	681b      	ldr	r3, [r3, #0]
 23f9ba4:	689b      	ldr	r3, [r3, #8]
 23f9ba6:	9302      	str	r3, [sp, #8]
 23f9ba8:	bd09      	pop	{r0, r3, pc}
 23f9baa:	0000      	.short	0x0000
 23f9bac:	10072d28 	.word	0x10072d28
 23f9bb0:	00000034 	.word	0x00000034

023f9bb4 <HAL_USB_USART_Available_Data>:
DYNALIB_FN(3, hal_usb, HAL_USB_USART_Baud_Rate, unsigned int(HAL_USB_USART_Serial))
DYNALIB_FN_WRAP(4, hal_usb, HAL_USB_USART_Available_Data, protected, int32_t(HAL_USB_USART_Serial))
 23f9bb4:	b509      	push	{r0, r3, lr}
 23f9bb6:	4804      	ldr	r0, [pc, #16]	; (23f9bc8 <HAL_USB_USART_Available_Data+0x14>)
 23f9bb8:	6800      	ldr	r0, [r0, #0]
 23f9bba:	4b04      	ldr	r3, [pc, #16]	; (23f9bcc <HAL_USB_USART_Available_Data+0x18>)
 23f9bbc:	4403      	add	r3, r0
 23f9bbe:	681b      	ldr	r3, [r3, #0]
 23f9bc0:	691b      	ldr	r3, [r3, #16]
 23f9bc2:	9302      	str	r3, [sp, #8]
 23f9bc4:	bd09      	pop	{r0, r3, pc}
 23f9bc6:	0000      	.short	0x0000
 23f9bc8:	10072d28 	.word	0x10072d28
 23f9bcc:	00000034 	.word	0x00000034

023f9bd0 <HAL_USB_USART_Available_Data_For_Write>:
DYNALIB_FN_WRAP(5, hal_usb, HAL_USB_USART_Available_Data_For_Write, protected, int32_t(HAL_USB_USART_Serial))
 23f9bd0:	b509      	push	{r0, r3, lr}
 23f9bd2:	4804      	ldr	r0, [pc, #16]	; (23f9be4 <HAL_USB_USART_Available_Data_For_Write+0x14>)
 23f9bd4:	6800      	ldr	r0, [r0, #0]
 23f9bd6:	4b04      	ldr	r3, [pc, #16]	; (23f9be8 <HAL_USB_USART_Available_Data_For_Write+0x18>)
 23f9bd8:	4403      	add	r3, r0
 23f9bda:	681b      	ldr	r3, [r3, #0]
 23f9bdc:	695b      	ldr	r3, [r3, #20]
 23f9bde:	9302      	str	r3, [sp, #8]
 23f9be0:	bd09      	pop	{r0, r3, pc}
 23f9be2:	0000      	.short	0x0000
 23f9be4:	10072d28 	.word	0x10072d28
 23f9be8:	00000034 	.word	0x00000034

023f9bec <HAL_USB_USART_Receive_Data>:
DYNALIB_FN_WRAP(6, hal_usb, HAL_USB_USART_Receive_Data, protected, int32_t(HAL_USB_USART_Serial, uint8_t))
 23f9bec:	b509      	push	{r0, r3, lr}
 23f9bee:	4804      	ldr	r0, [pc, #16]	; (23f9c00 <HAL_USB_USART_Receive_Data+0x14>)
 23f9bf0:	6800      	ldr	r0, [r0, #0]
 23f9bf2:	4b04      	ldr	r3, [pc, #16]	; (23f9c04 <HAL_USB_USART_Receive_Data+0x18>)
 23f9bf4:	4403      	add	r3, r0
 23f9bf6:	681b      	ldr	r3, [r3, #0]
 23f9bf8:	699b      	ldr	r3, [r3, #24]
 23f9bfa:	9302      	str	r3, [sp, #8]
 23f9bfc:	bd09      	pop	{r0, r3, pc}
 23f9bfe:	0000      	.short	0x0000
 23f9c00:	10072d28 	.word	0x10072d28
 23f9c04:	00000034 	.word	0x00000034

023f9c08 <HAL_USB_USART_Send_Data>:
DYNALIB_FN_WRAP(7, hal_usb, HAL_USB_USART_Send_Data, protected, int32_t(HAL_USB_USART_Serial, uint8_t))
 23f9c08:	b509      	push	{r0, r3, lr}
 23f9c0a:	4804      	ldr	r0, [pc, #16]	; (23f9c1c <HAL_USB_USART_Send_Data+0x14>)
 23f9c0c:	6800      	ldr	r0, [r0, #0]
 23f9c0e:	4b04      	ldr	r3, [pc, #16]	; (23f9c20 <HAL_USB_USART_Send_Data+0x18>)
 23f9c10:	4403      	add	r3, r0
 23f9c12:	681b      	ldr	r3, [r3, #0]
 23f9c14:	69db      	ldr	r3, [r3, #28]
 23f9c16:	9302      	str	r3, [sp, #8]
 23f9c18:	bd09      	pop	{r0, r3, pc}
 23f9c1a:	0000      	.short	0x0000
 23f9c1c:	10072d28 	.word	0x10072d28
 23f9c20:	00000034 	.word	0x00000034

023f9c24 <HAL_USB_USART_Flush_Data>:
DYNALIB_FN_WRAP(8, hal_usb, HAL_USB_USART_Flush_Data, protected, void(HAL_USB_USART_Serial))
 23f9c24:	b509      	push	{r0, r3, lr}
 23f9c26:	4804      	ldr	r0, [pc, #16]	; (23f9c38 <HAL_USB_USART_Flush_Data+0x14>)
 23f9c28:	6800      	ldr	r0, [r0, #0]
 23f9c2a:	4b04      	ldr	r3, [pc, #16]	; (23f9c3c <HAL_USB_USART_Flush_Data+0x18>)
 23f9c2c:	4403      	add	r3, r0
 23f9c2e:	681b      	ldr	r3, [r3, #0]
 23f9c30:	6a1b      	ldr	r3, [r3, #32]
 23f9c32:	9302      	str	r3, [sp, #8]
 23f9c34:	bd09      	pop	{r0, r3, pc}
 23f9c36:	0000      	.short	0x0000
 23f9c38:	10072d28 	.word	0x10072d28
 23f9c3c:	00000034 	.word	0x00000034

023f9c40 <HAL_USB_USART_Is_Connected>:
DYNALIB_FN(9, hal_usb, HAL_USB_USART_Is_Enabled, bool(HAL_USB_USART_Serial))
DYNALIB_FN(10, hal_usb, HAL_USB_USART_Is_Connected, bool(HAL_USB_USART_Serial))
 23f9c40:	b509      	push	{r0, r3, lr}
 23f9c42:	4804      	ldr	r0, [pc, #16]	; (23f9c54 <HAL_USB_USART_Is_Connected+0x14>)
 23f9c44:	6800      	ldr	r0, [r0, #0]
 23f9c46:	4b04      	ldr	r3, [pc, #16]	; (23f9c58 <HAL_USB_USART_Is_Connected+0x18>)
 23f9c48:	4403      	add	r3, r0
 23f9c4a:	681b      	ldr	r3, [r3, #0]
 23f9c4c:	6a9b      	ldr	r3, [r3, #40]	; 0x28
 23f9c4e:	9302      	str	r3, [sp, #8]
 23f9c50:	bd09      	pop	{r0, r3, pc}
 23f9c52:	0000      	.short	0x0000
 23f9c54:	10072d28 	.word	0x10072d28
 23f9c58:	00000034 	.word	0x00000034

023f9c5c <wlan_connected_info>:
DYNALIB_FN(24, hal_wlan, wlan_get_credentials, int(wlan_scan_result_t, void*))
DYNALIB_FN(25, hal_wlan, softap_set_application_page_handler, int(PageProvider* provider, void* reserved))
DYNALIB_FN(26, hal_wlan, wlan_restart, int(void*))
DYNALIB_FN(27, hal_wlan, wlan_set_hostname, int(const char*, void*))
DYNALIB_FN(28, hal_wlan, wlan_get_hostname, int(char*, size_t, void*))
DYNALIB_FN(29, hal_wlan, wlan_connected_info, int(void*, wlan_connected_info_t*, void*))
 23f9c5c:	b509      	push	{r0, r3, lr}
 23f9c5e:	4804      	ldr	r0, [pc, #16]	; (23f9c70 <wlan_connected_info+0x14>)
 23f9c60:	6800      	ldr	r0, [r0, #0]
 23f9c62:	4b04      	ldr	r3, [pc, #16]	; (23f9c74 <wlan_connected_info+0x18>)
 23f9c64:	4403      	add	r3, r0
 23f9c66:	681b      	ldr	r3, [r3, #0]
 23f9c68:	6f5b      	ldr	r3, [r3, #116]	; 0x74
 23f9c6a:	9302      	str	r3, [sp, #8]
 23f9c6c:	bd09      	pop	{r0, r3, pc}
 23f9c6e:	0000      	.short	0x0000
 23f9c70:	10072d28 	.word	0x10072d28
 23f9c74:	0000005c 	.word	0x0000005c

023f9c78 <log_message>:
DYNALIB_FN(16, services, log_print_, void(int, int, const char*, const char*, const char*, ...)) // Deprecated
DYNALIB_FN(17, services, LED_RGB_SetChangeHandler, void(led_update_handler_fn, void*))
DYNALIB_FN(18, services, log_print_direct_, void(int, void*, const char*, ...)) // Deprecated
DYNALIB_FN(19, services, LED_GetColor, uint32_t(uint32_t, void*))

DYNALIB_FN(20, services, log_message, void(int, const char*, LogAttributes*, void*, const char*, ...))
 23f9c78:	b509      	push	{r0, r3, lr}
 23f9c7a:	4804      	ldr	r0, [pc, #16]	; (23f9c8c <log_message+0x14>)
 23f9c7c:	6800      	ldr	r0, [r0, #0]
 23f9c7e:	4b04      	ldr	r3, [pc, #16]	; (23f9c90 <log_message+0x18>)
 23f9c80:	4403      	add	r3, r0
 23f9c82:	681b      	ldr	r3, [r3, #0]
 23f9c84:	6d1b      	ldr	r3, [r3, #80]	; 0x50
 23f9c86:	9302      	str	r3, [sp, #8]
 23f9c88:	bd09      	pop	{r0, r3, pc}
 23f9c8a:	0000      	.short	0x0000
 23f9c8c:	10072d28 	.word	0x10072d28
 23f9c90:	00000048 	.word	0x00000048

023f9c94 <log_message_v>:
DYNALIB_FN(21, services, log_message_v, void(int, const char*, LogAttributes*, void*, const char*, va_list))
 23f9c94:	b509      	push	{r0, r3, lr}
 23f9c96:	4804      	ldr	r0, [pc, #16]	; (23f9ca8 <log_message_v+0x14>)
 23f9c98:	6800      	ldr	r0, [r0, #0]
 23f9c9a:	4b04      	ldr	r3, [pc, #16]	; (23f9cac <log_message_v+0x18>)
 23f9c9c:	4403      	add	r3, r0
 23f9c9e:	681b      	ldr	r3, [r3, #0]
 23f9ca0:	6d5b      	ldr	r3, [r3, #84]	; 0x54
 23f9ca2:	9302      	str	r3, [sp, #8]
 23f9ca4:	bd09      	pop	{r0, r3, pc}
 23f9ca6:	0000      	.short	0x0000
 23f9ca8:	10072d28 	.word	0x10072d28
 23f9cac:	00000048 	.word	0x00000048

023f9cb0 <log_level_name>:
DYNALIB_FN(22, services, log_write, void(int, const char*, const char*, size_t, void*))
DYNALIB_FN(23, services, log_printf, void(int, const char*, void*, const char*, ...))
DYNALIB_FN(24, services, log_printf_v, void(int, const char*, void*, const char*, va_list))
DYNALIB_FN(25, services, log_dump, void(int, const char*, const void*, size_t, int, void*))
DYNALIB_FN(26, services, log_enabled, int(int, const char*, void*))
DYNALIB_FN(27, services, log_level_name, const char*(int, void*))
 23f9cb0:	b509      	push	{r0, r3, lr}
 23f9cb2:	4804      	ldr	r0, [pc, #16]	; (23f9cc4 <log_level_name+0x14>)
 23f9cb4:	6800      	ldr	r0, [r0, #0]
 23f9cb6:	4b04      	ldr	r3, [pc, #16]	; (23f9cc8 <log_level_name+0x18>)
 23f9cb8:	4403      	add	r3, r0
 23f9cba:	681b      	ldr	r3, [r3, #0]
 23f9cbc:	6edb      	ldr	r3, [r3, #108]	; 0x6c
 23f9cbe:	9302      	str	r3, [sp, #8]
 23f9cc0:	bd09      	pop	{r0, r3, pc}
 23f9cc2:	0000      	.short	0x0000
 23f9cc4:	10072d28 	.word	0x10072d28
 23f9cc8:	00000048 	.word	0x00000048

023f9ccc <log_set_callbacks>:
DYNALIB_FN(28, services, log_set_callbacks, void(log_message_callback_type, log_write_callback_type, log_enabled_callback_type, void*))
 23f9ccc:	b509      	push	{r0, r3, lr}
 23f9cce:	4804      	ldr	r0, [pc, #16]	; (23f9ce0 <log_set_callbacks+0x14>)
 23f9cd0:	6800      	ldr	r0, [r0, #0]
 23f9cd2:	4b04      	ldr	r3, [pc, #16]	; (23f9ce4 <log_set_callbacks+0x18>)
 23f9cd4:	4403      	add	r3, r0
 23f9cd6:	681b      	ldr	r3, [r3, #0]
 23f9cd8:	6f1b      	ldr	r3, [r3, #112]	; 0x70
 23f9cda:	9302      	str	r3, [sp, #8]
 23f9cdc:	bd09      	pop	{r0, r3, pc}
 23f9cde:	0000      	.short	0x0000
 23f9ce0:	10072d28 	.word	0x10072d28
 23f9ce4:	00000048 	.word	0x00000048

023f9ce8 <panic_ext>:
DYNALIB_FN(48, services, devicetree_tree_lock, int(void*))
DYNALIB_FN(49, services, devicetree_tree_get, int(void*, uint32_t, void*))
DYNALIB_FN(50, services, devicetree_string_dictionary_lookup, const char*(uint32_t, void*))
DYNALIB_FN(51, services, devicetree_hash_string, uint32_t(const char*, size_t))
DYNALIB_FN(52, services, security_mode_get, int(void*))
DYNALIB_FN(53, services, panic_ext, void(const PanicData*, void*))
 23f9ce8:	b509      	push	{r0, r3, lr}
 23f9cea:	4804      	ldr	r0, [pc, #16]	; (23f9cfc <panic_ext+0x14>)
 23f9cec:	6800      	ldr	r0, [r0, #0]
 23f9cee:	4b04      	ldr	r3, [pc, #16]	; (23f9d00 <panic_ext+0x18>)
 23f9cf0:	4403      	add	r3, r0
 23f9cf2:	681b      	ldr	r3, [r3, #0]
 23f9cf4:	f8d3 30d4 	ldr.w	r3, [r3, #212]	; 0xd4
 23f9cf8:	9302      	str	r3, [sp, #8]
 23f9cfa:	bd09      	pop	{r0, r3, pc}
 23f9cfc:	10072d28 	.word	0x10072d28
 23f9d00:	00000048 	.word	0x00000048

023f9d04 <system_mode>:
#include "system_env.h"
#endif

DYNALIB_BEGIN(system)

DYNALIB_FN(0, system, system_mode, System_Mode_TypeDef(void))
 23f9d04:	b509      	push	{r0, r3, lr}
 23f9d06:	4804      	ldr	r0, [pc, #16]	; (23f9d18 <system_mode+0x14>)
 23f9d08:	6800      	ldr	r0, [r0, #0]
 23f9d0a:	4b04      	ldr	r3, [pc, #16]	; (23f9d1c <system_mode+0x18>)
 23f9d0c:	4403      	add	r3, r0
 23f9d0e:	681b      	ldr	r3, [r3, #0]
 23f9d10:	681b      	ldr	r3, [r3, #0]
 23f9d12:	9302      	str	r3, [sp, #8]
 23f9d14:	bd09      	pop	{r0, r3, pc}
 23f9d16:	0000      	.short	0x0000
 23f9d18:	10072d28 	.word	0x10072d28
 23f9d1c:	00000008 	.word	0x00000008

023f9d20 <set_system_mode>:
DYNALIB_FN(1, system, set_system_mode, void(System_Mode_TypeDef))
 23f9d20:	b509      	push	{r0, r3, lr}
 23f9d22:	4804      	ldr	r0, [pc, #16]	; (23f9d34 <set_system_mode+0x14>)
 23f9d24:	6800      	ldr	r0, [r0, #0]
 23f9d26:	4b04      	ldr	r3, [pc, #16]	; (23f9d38 <set_system_mode+0x18>)
 23f9d28:	4403      	add	r3, r0
 23f9d2a:	681b      	ldr	r3, [r3, #0]
 23f9d2c:	685b      	ldr	r3, [r3, #4]
 23f9d2e:	9302      	str	r3, [sp, #8]
 23f9d30:	bd09      	pop	{r0, r3, pc}
 23f9d32:	0000      	.short	0x0000
 23f9d34:	10072d28 	.word	0x10072d28
 23f9d38:	00000008 	.word	0x00000008

023f9d3c <system_delay_ms>:

DYNALIB_FN(2, system, set_ymodem_serial_flash_update_handler_deprecated, void(void*))
DYNALIB_FN(3, system, system_firmwareUpdate_deprecated, bool(Stream*, void*))
DYNALIB_FN(4, system, system_fileTransfer_deprecated, bool(system_file_transfer_t*, void*))

DYNALIB_FN(5, system, system_delay_ms, void(unsigned long, bool))
 23f9d3c:	b509      	push	{r0, r3, lr}
 23f9d3e:	4804      	ldr	r0, [pc, #16]	; (23f9d50 <system_delay_ms+0x14>)
 23f9d40:	6800      	ldr	r0, [r0, #0]
 23f9d42:	4b04      	ldr	r3, [pc, #16]	; (23f9d54 <system_delay_ms+0x18>)
 23f9d44:	4403      	add	r3, r0
 23f9d46:	681b      	ldr	r3, [r3, #0]
 23f9d48:	695b      	ldr	r3, [r3, #20]
 23f9d4a:	9302      	str	r3, [sp, #8]
 23f9d4c:	bd09      	pop	{r0, r3, pc}
 23f9d4e:	0000      	.short	0x0000
 23f9d50:	10072d28 	.word	0x10072d28
 23f9d54:	00000008 	.word	0x00000008

023f9d58 <system_button_pushed_duration>:
DYNALIB_FN(6, system, system_sleep, int(Spark_Sleep_TypeDef, long, uint32_t, void*))
DYNALIB_FN(7, system, system_sleep_pin, int(uint16_t, uint16_t, long, uint32_t, void*))
DYNALIB_FN(8, system, system_subscribe_event, int(system_event_t, system_event_handler_t*, SystemEventContext*))
DYNALIB_FN(9, system, system_unsubscribe_event, void(system_event_t, system_event_handler_t*, const SystemEventContext*))
DYNALIB_FN(10, system, system_button_pushed_duration, uint16_t(uint8_t, void*))
 23f9d58:	b509      	push	{r0, r3, lr}
 23f9d5a:	4804      	ldr	r0, [pc, #16]	; (23f9d6c <system_button_pushed_duration+0x14>)
 23f9d5c:	6800      	ldr	r0, [r0, #0]
 23f9d5e:	4b04      	ldr	r3, [pc, #16]	; (23f9d70 <system_button_pushed_duration+0x18>)
 23f9d60:	4403      	add	r3, r0
 23f9d62:	681b      	ldr	r3, [r3, #0]
 23f9d64:	6a9b      	ldr	r3, [r3, #40]	; 0x28
 23f9d66:	9302      	str	r3, [sp, #8]
 23f9d68:	bd09      	pop	{r0, r3, pc}
 23f9d6a:	0000      	.short	0x0000
 23f9d6c:	10072d28 	.word	0x10072d28
 23f9d70:	00000008 	.word	0x00000008

023f9d74 <application_thread_current>:
DYNALIB_FN(15, system, system_get_flag, int(system_flag_t, uint8_t*, void*))
DYNALIB_FN_WRAP(16, system, Spark_Prepare_For_Firmware_Update, protected, int(FileTransfer::Descriptor&, uint32_t, void*))
DYNALIB_FN_WRAP(17, system, Spark_Save_Firmware_Chunk, protected, int(FileTransfer::Descriptor&, const uint8_t*, void*))
DYNALIB_FN_WRAP(18, system, Spark_Finish_Firmware_Update, protected, int(FileTransfer::Descriptor&, uint32_t, void*))

DYNALIB_FN(19, system, application_thread_current, uint8_t(void*))
 23f9d74:	b509      	push	{r0, r3, lr}
 23f9d76:	4804      	ldr	r0, [pc, #16]	; (23f9d88 <application_thread_current+0x14>)
 23f9d78:	6800      	ldr	r0, [r0, #0]
 23f9d7a:	4b04      	ldr	r3, [pc, #16]	; (23f9d8c <application_thread_current+0x18>)
 23f9d7c:	4403      	add	r3, r0
 23f9d7e:	681b      	ldr	r3, [r3, #0]
 23f9d80:	6cdb      	ldr	r3, [r3, #76]	; 0x4c
 23f9d82:	9302      	str	r3, [sp, #8]
 23f9d84:	bd09      	pop	{r0, r3, pc}
 23f9d86:	0000      	.short	0x0000
 23f9d88:	10072d28 	.word	0x10072d28
 23f9d8c:	00000008 	.word	0x00000008

023f9d90 <application_thread_invoke>:
DYNALIB_FN(20, system, system_thread_current, uint8_t(void*))
DYNALIB_FN(21, system, application_thread_invoke, uint8_t(void(*)(void*), void*, void*))
 23f9d90:	b509      	push	{r0, r3, lr}
 23f9d92:	4804      	ldr	r0, [pc, #16]	; (23f9da4 <application_thread_invoke+0x14>)
 23f9d94:	6800      	ldr	r0, [r0, #0]
 23f9d96:	4b04      	ldr	r3, [pc, #16]	; (23f9da8 <application_thread_invoke+0x18>)
 23f9d98:	4403      	add	r3, r0
 23f9d9a:	681b      	ldr	r3, [r3, #0]
 23f9d9c:	6d5b      	ldr	r3, [r3, #84]	; 0x54
 23f9d9e:	9302      	str	r3, [sp, #8]
 23f9da0:	bd09      	pop	{r0, r3, pc}
 23f9da2:	0000      	.short	0x0000
 23f9da4:	10072d28 	.word	0x10072d28
 23f9da8:	00000008 	.word	0x00000008

023f9dac <system_thread_get_state>:
DYNALIB_FN(22, system, system_thread_get_state, spark::feature::State(void*))
 23f9dac:	b509      	push	{r0, r3, lr}
 23f9dae:	4804      	ldr	r0, [pc, #16]	; (23f9dc0 <system_thread_get_state+0x14>)
 23f9db0:	6800      	ldr	r0, [r0, #0]
 23f9db2:	4b04      	ldr	r3, [pc, #16]	; (23f9dc4 <system_thread_get_state+0x18>)
 23f9db4:	4403      	add	r3, r0
 23f9db6:	681b      	ldr	r3, [r3, #0]
 23f9db8:	6d9b      	ldr	r3, [r3, #88]	; 0x58
 23f9dba:	9302      	str	r3, [sp, #8]
 23f9dbc:	bd09      	pop	{r0, r3, pc}
 23f9dbe:	0000      	.short	0x0000
 23f9dc0:	10072d28 	.word	0x10072d28
 23f9dc4:	00000008 	.word	0x00000008

023f9dc8 <system_ctrl_set_app_request_handler>:
DYNALIB_FN(BASE_IDX + 6, system, led_pattern_period, uint16_t(int, int, void*))
DYNALIB_FN(BASE_IDX + 7, system, system_set_tester_handlers, int(system_tester_handlers_t*, void*))
DYNALIB_FN(BASE_IDX + 8, system, system_format_diag_data, int(const uint16_t*, size_t, unsigned, appender_fn, void*, void*))

// Control requests
DYNALIB_FN(BASE_IDX + 9, system, system_ctrl_set_app_request_handler, int(ctrl_request_handler_fn, void*))
 23f9dc8:	b509      	push	{r0, r3, lr}
 23f9dca:	4804      	ldr	r0, [pc, #16]	; (23f9ddc <system_ctrl_set_app_request_handler+0x14>)
 23f9dcc:	6800      	ldr	r0, [r0, #0]
 23f9dce:	4b04      	ldr	r3, [pc, #16]	; (23f9de0 <system_ctrl_set_app_request_handler+0x18>)
 23f9dd0:	4403      	add	r3, r0
 23f9dd2:	681b      	ldr	r3, [r3, #0]
 23f9dd4:	f8d3 3088 	ldr.w	r3, [r3, #136]	; 0x88
 23f9dd8:	9302      	str	r3, [sp, #8]
 23f9dda:	bd09      	pop	{r0, r3, pc}
 23f9ddc:	10072d28 	.word	0x10072d28
 23f9de0:	00000008 	.word	0x00000008

023f9de4 <system_ctrl_set_result>:
DYNALIB_FN(BASE_IDX + 10, system, system_ctrl_alloc_reply_data, int(ctrl_request*, size_t, void*))
DYNALIB_FN(BASE_IDX + 11, system, system_ctrl_free_request_data, void(ctrl_request*, void*))
DYNALIB_FN(BASE_IDX + 12, system, system_ctrl_set_result, void(ctrl_request*, int, ctrl_completion_handler_fn, void*, void*))
 23f9de4:	b509      	push	{r0, r3, lr}
 23f9de6:	4804      	ldr	r0, [pc, #16]	; (23f9df8 <system_ctrl_set_result+0x14>)
 23f9de8:	6800      	ldr	r0, [r0, #0]
 23f9dea:	4b04      	ldr	r3, [pc, #16]	; (23f9dfc <system_ctrl_set_result+0x18>)
 23f9dec:	4403      	add	r3, r0
 23f9dee:	681b      	ldr	r3, [r3, #0]
 23f9df0:	f8d3 3094 	ldr.w	r3, [r3, #148]	; 0x94
 23f9df4:	9302      	str	r3, [sp, #8]
 23f9df6:	bd09      	pop	{r0, r3, pc}
 23f9df8:	10072d28 	.word	0x10072d28
 23f9dfc:	00000008 	.word	0x00000008

023f9e00 <system_pool_alloc>:

DYNALIB_FN(BASE_IDX + 13, system, system_pool_alloc, void*(size_t, void*))
 23f9e00:	b509      	push	{r0, r3, lr}
 23f9e02:	4804      	ldr	r0, [pc, #16]	; (23f9e14 <system_pool_alloc+0x14>)
 23f9e04:	6800      	ldr	r0, [r0, #0]
 23f9e06:	4b04      	ldr	r3, [pc, #16]	; (23f9e18 <system_pool_alloc+0x18>)
 23f9e08:	4403      	add	r3, r0
 23f9e0a:	681b      	ldr	r3, [r3, #0]
 23f9e0c:	f8d3 3098 	ldr.w	r3, [r3, #152]	; 0x98
 23f9e10:	9302      	str	r3, [sp, #8]
 23f9e12:	bd09      	pop	{r0, r3, pc}
 23f9e14:	10072d28 	.word	0x10072d28
 23f9e18:	00000008 	.word	0x00000008

023f9e1c <system_pool_free>:
DYNALIB_FN(BASE_IDX + 14, system, system_pool_free, void(void*, void*))
 23f9e1c:	b509      	push	{r0, r3, lr}
 23f9e1e:	4804      	ldr	r0, [pc, #16]	; (23f9e30 <system_pool_free+0x14>)
 23f9e20:	6800      	ldr	r0, [r0, #0]
 23f9e22:	4b04      	ldr	r3, [pc, #16]	; (23f9e34 <system_pool_free+0x18>)
 23f9e24:	4403      	add	r3, r0
 23f9e26:	681b      	ldr	r3, [r3, #0]
 23f9e28:	f8d3 309c 	ldr.w	r3, [r3, #156]	; 0x9c
 23f9e2c:	9302      	str	r3, [sp, #8]
 23f9e2e:	bd09      	pop	{r0, r3, pc}
 23f9e30:	10072d28 	.word	0x10072d28
 23f9e34:	00000008 	.word	0x00000008

023f9e38 <system_sleep_ext>:
#define BASE_IDX1 (BASE_IDX + 18)
#else
#define BASE_IDX1 (BASE_IDX + 17)
#endif // HAL_PLATFORM_POWER_MANAGEMENT

DYNALIB_FN(BASE_IDX1 + 0, system, system_sleep_ext, int(const hal_sleep_config_t*, hal_wakeup_source_base_t**, void*))
 23f9e38:	b509      	push	{r0, r3, lr}
 23f9e3a:	4804      	ldr	r0, [pc, #16]	; (23f9e4c <system_sleep_ext+0x14>)
 23f9e3c:	6800      	ldr	r0, [r0, #0]
 23f9e3e:	4b04      	ldr	r3, [pc, #16]	; (23f9e50 <system_sleep_ext+0x18>)
 23f9e40:	4403      	add	r3, r0
 23f9e42:	681b      	ldr	r3, [r3, #0]
 23f9e44:	f8d3 30a8 	ldr.w	r3, [r3, #168]	; 0xa8
 23f9e48:	9302      	str	r3, [sp, #8]
 23f9e4a:	bd09      	pop	{r0, r3, pc}
 23f9e4c:	10072d28 	.word	0x10072d28
 23f9e50:	00000008 	.word	0x00000008

023f9e54 <network_connect>:
#endif

DYNALIB_BEGIN(system_net)

DYNALIB_FN(0, system_net, network_config, const void*(network_handle_t, uint32_t, void*))
DYNALIB_FN(1, system_net, network_connect, void(network_handle_t, uint32_t, uint32_t, void*))
 23f9e54:	b509      	push	{r0, r3, lr}
 23f9e56:	4804      	ldr	r0, [pc, #16]	; (23f9e68 <network_connect+0x14>)
 23f9e58:	6800      	ldr	r0, [r0, #0]
 23f9e5a:	4b04      	ldr	r3, [pc, #16]	; (23f9e6c <network_connect+0x18>)
 23f9e5c:	4403      	add	r3, r0
 23f9e5e:	681b      	ldr	r3, [r3, #0]
 23f9e60:	685b      	ldr	r3, [r3, #4]
 23f9e62:	9302      	str	r3, [sp, #8]
 23f9e64:	bd09      	pop	{r0, r3, pc}
 23f9e66:	0000      	.short	0x0000
 23f9e68:	10072d28 	.word	0x10072d28
 23f9e6c:	00000028 	.word	0x00000028

023f9e70 <network_connecting>:
DYNALIB_FN(2, system_net, network_connecting, bool(network_handle_t, uint32_t, void*))
 23f9e70:	b509      	push	{r0, r3, lr}
 23f9e72:	4804      	ldr	r0, [pc, #16]	; (23f9e84 <network_connecting+0x14>)
 23f9e74:	6800      	ldr	r0, [r0, #0]
 23f9e76:	4b04      	ldr	r3, [pc, #16]	; (23f9e88 <network_connecting+0x18>)
 23f9e78:	4403      	add	r3, r0
 23f9e7a:	681b      	ldr	r3, [r3, #0]
 23f9e7c:	689b      	ldr	r3, [r3, #8]
 23f9e7e:	9302      	str	r3, [sp, #8]
 23f9e80:	bd09      	pop	{r0, r3, pc}
 23f9e82:	0000      	.short	0x0000
 23f9e84:	10072d28 	.word	0x10072d28
 23f9e88:	00000028 	.word	0x00000028

023f9e8c <network_disconnect>:
DYNALIB_FN(3, system_net, network_disconnect, void(network_handle_t, uint32_t, void*))
 23f9e8c:	b509      	push	{r0, r3, lr}
 23f9e8e:	4804      	ldr	r0, [pc, #16]	; (23f9ea0 <network_disconnect+0x14>)
 23f9e90:	6800      	ldr	r0, [r0, #0]
 23f9e92:	4b04      	ldr	r3, [pc, #16]	; (23f9ea4 <network_disconnect+0x18>)
 23f9e94:	4403      	add	r3, r0
 23f9e96:	681b      	ldr	r3, [r3, #0]
 23f9e98:	68db      	ldr	r3, [r3, #12]
 23f9e9a:	9302      	str	r3, [sp, #8]
 23f9e9c:	bd09      	pop	{r0, r3, pc}
 23f9e9e:	0000      	.short	0x0000
 23f9ea0:	10072d28 	.word	0x10072d28
 23f9ea4:	00000028 	.word	0x00000028

023f9ea8 <network_ready>:
DYNALIB_FN(4, system_net, network_ready, bool(network_handle_t, uint32_t, void*))
 23f9ea8:	b509      	push	{r0, r3, lr}
 23f9eaa:	4804      	ldr	r0, [pc, #16]	; (23f9ebc <network_ready+0x14>)
 23f9eac:	6800      	ldr	r0, [r0, #0]
 23f9eae:	4b04      	ldr	r3, [pc, #16]	; (23f9ec0 <network_ready+0x18>)
 23f9eb0:	4403      	add	r3, r0
 23f9eb2:	681b      	ldr	r3, [r3, #0]
 23f9eb4:	691b      	ldr	r3, [r3, #16]
 23f9eb6:	9302      	str	r3, [sp, #8]
 23f9eb8:	bd09      	pop	{r0, r3, pc}
 23f9eba:	0000      	.short	0x0000
 23f9ebc:	10072d28 	.word	0x10072d28
 23f9ec0:	00000028 	.word	0x00000028

023f9ec4 <network_on>:
DYNALIB_FN(5, system_net, network_on, void(network_handle_t, uint32_t, uint32_t, void*))
 23f9ec4:	b509      	push	{r0, r3, lr}
 23f9ec6:	4804      	ldr	r0, [pc, #16]	; (23f9ed8 <network_on+0x14>)
 23f9ec8:	6800      	ldr	r0, [r0, #0]
 23f9eca:	4b04      	ldr	r3, [pc, #16]	; (23f9edc <network_on+0x18>)
 23f9ecc:	4403      	add	r3, r0
 23f9ece:	681b      	ldr	r3, [r3, #0]
 23f9ed0:	695b      	ldr	r3, [r3, #20]
 23f9ed2:	9302      	str	r3, [sp, #8]
 23f9ed4:	bd09      	pop	{r0, r3, pc}
 23f9ed6:	0000      	.short	0x0000
 23f9ed8:	10072d28 	.word	0x10072d28
 23f9edc:	00000028 	.word	0x00000028

023f9ee0 <network_off>:
DYNALIB_FN(6, system_net, network_off, void(network_handle_t, uint32_t, uint32_t, void*))
 23f9ee0:	b509      	push	{r0, r3, lr}
 23f9ee2:	4804      	ldr	r0, [pc, #16]	; (23f9ef4 <network_off+0x14>)
 23f9ee4:	6800      	ldr	r0, [r0, #0]
 23f9ee6:	4b04      	ldr	r3, [pc, #16]	; (23f9ef8 <network_off+0x18>)
 23f9ee8:	4403      	add	r3, r0
 23f9eea:	681b      	ldr	r3, [r3, #0]
 23f9eec:	699b      	ldr	r3, [r3, #24]
 23f9eee:	9302      	str	r3, [sp, #8]
 23f9ef0:	bd09      	pop	{r0, r3, pc}
 23f9ef2:	0000      	.short	0x0000
 23f9ef4:	10072d28 	.word	0x10072d28
 23f9ef8:	00000028 	.word	0x00000028

023f9efc <network_listen>:
DYNALIB_FN(7, system_net, network_listen, void(network_handle_t, uint32_t, void*))
 23f9efc:	b509      	push	{r0, r3, lr}
 23f9efe:	4804      	ldr	r0, [pc, #16]	; (23f9f10 <network_listen+0x14>)
 23f9f00:	6800      	ldr	r0, [r0, #0]
 23f9f02:	4b04      	ldr	r3, [pc, #16]	; (23f9f14 <network_listen+0x18>)
 23f9f04:	4403      	add	r3, r0
 23f9f06:	681b      	ldr	r3, [r3, #0]
 23f9f08:	69db      	ldr	r3, [r3, #28]
 23f9f0a:	9302      	str	r3, [sp, #8]
 23f9f0c:	bd09      	pop	{r0, r3, pc}
 23f9f0e:	0000      	.short	0x0000
 23f9f10:	10072d28 	.word	0x10072d28
 23f9f14:	00000028 	.word	0x00000028

023f9f18 <network_listening>:
DYNALIB_FN(8, system_net, network_listening, bool(network_handle_t, uint32_t, void*))
 23f9f18:	b509      	push	{r0, r3, lr}
 23f9f1a:	4804      	ldr	r0, [pc, #16]	; (23f9f2c <network_listening+0x14>)
 23f9f1c:	6800      	ldr	r0, [r0, #0]
 23f9f1e:	4b04      	ldr	r3, [pc, #16]	; (23f9f30 <network_listening+0x18>)
 23f9f20:	4403      	add	r3, r0
 23f9f22:	681b      	ldr	r3, [r3, #0]
 23f9f24:	6a1b      	ldr	r3, [r3, #32]
 23f9f26:	9302      	str	r3, [sp, #8]
 23f9f28:	bd09      	pop	{r0, r3, pc}
 23f9f2a:	0000      	.short	0x0000
 23f9f2c:	10072d28 	.word	0x10072d28
 23f9f30:	00000028 	.word	0x00000028

023f9f34 <network_set_credentials>:
DYNALIB_FN(9, system_net, network_has_credentials, bool(network_handle_t, uint32_t, void*))
DYNALIB_FN(10, system_net, network_set_credentials, int(network_handle_t, uint32_t, NetworkCredentials*, void*))
 23f9f34:	b509      	push	{r0, r3, lr}
 23f9f36:	4804      	ldr	r0, [pc, #16]	; (23f9f48 <network_set_credentials+0x14>)
 23f9f38:	6800      	ldr	r0, [r0, #0]
 23f9f3a:	4b04      	ldr	r3, [pc, #16]	; (23f9f4c <network_set_credentials+0x18>)
 23f9f3c:	4403      	add	r3, r0
 23f9f3e:	681b      	ldr	r3, [r3, #0]
 23f9f40:	6a9b      	ldr	r3, [r3, #40]	; 0x28
 23f9f42:	9302      	str	r3, [sp, #8]
 23f9f44:	bd09      	pop	{r0, r3, pc}
 23f9f46:	0000      	.short	0x0000
 23f9f48:	10072d28 	.word	0x10072d28
 23f9f4c:	00000028 	.word	0x00000028

023f9f50 <network_clear_credentials>:
DYNALIB_FN(11, system_net, network_clear_credentials, bool(network_handle_t, uint32_t, NetworkCredentials*, void*))
 23f9f50:	b509      	push	{r0, r3, lr}
 23f9f52:	4804      	ldr	r0, [pc, #16]	; (23f9f64 <network_clear_credentials+0x14>)
 23f9f54:	6800      	ldr	r0, [r0, #0]
 23f9f56:	4b04      	ldr	r3, [pc, #16]	; (23f9f68 <network_clear_credentials+0x18>)
 23f9f58:	4403      	add	r3, r0
 23f9f5a:	681b      	ldr	r3, [r3, #0]
 23f9f5c:	6adb      	ldr	r3, [r3, #44]	; 0x2c
 23f9f5e:	9302      	str	r3, [sp, #8]
 23f9f60:	bd09      	pop	{r0, r3, pc}
 23f9f62:	0000      	.short	0x0000
 23f9f64:	10072d28 	.word	0x10072d28
 23f9f68:	00000028 	.word	0x00000028

023f9f6c <network_set_listen_timeout>:
DYNALIB_FN(12, system_net, network_set_listen_timeout, void(network_handle_t, uint16_t, void*))
 23f9f6c:	b509      	push	{r0, r3, lr}
 23f9f6e:	4804      	ldr	r0, [pc, #16]	; (23f9f80 <network_set_listen_timeout+0x14>)
 23f9f70:	6800      	ldr	r0, [r0, #0]
 23f9f72:	4b04      	ldr	r3, [pc, #16]	; (23f9f84 <network_set_listen_timeout+0x18>)
 23f9f74:	4403      	add	r3, r0
 23f9f76:	681b      	ldr	r3, [r3, #0]
 23f9f78:	6b1b      	ldr	r3, [r3, #48]	; 0x30
 23f9f7a:	9302      	str	r3, [sp, #8]
 23f9f7c:	bd09      	pop	{r0, r3, pc}
 23f9f7e:	0000      	.short	0x0000
 23f9f80:	10072d28 	.word	0x10072d28
 23f9f84:	00000028 	.word	0x00000028

023f9f88 <network_get_listen_timeout>:
DYNALIB_FN(13, system_net, network_get_listen_timeout, uint16_t(network_handle_t, uint32_t, void*))
 23f9f88:	b509      	push	{r0, r3, lr}
 23f9f8a:	4804      	ldr	r0, [pc, #16]	; (23f9f9c <network_get_listen_timeout+0x14>)
 23f9f8c:	6800      	ldr	r0, [r0, #0]
 23f9f8e:	4b04      	ldr	r3, [pc, #16]	; (23f9fa0 <network_get_listen_timeout+0x18>)
 23f9f90:	4403      	add	r3, r0
 23f9f92:	681b      	ldr	r3, [r3, #0]
 23f9f94:	6b5b      	ldr	r3, [r3, #52]	; 0x34
 23f9f96:	9302      	str	r3, [sp, #8]
 23f9f98:	bd09      	pop	{r0, r3, pc}
 23f9f9a:	0000      	.short	0x0000
 23f9f9c:	10072d28 	.word	0x10072d28
 23f9fa0:	00000028 	.word	0x00000028

023f9fa4 <network_is_on>:
DYNALIB_FN(14, system_net, network_set_hostname, int(network_handle_t, uint32_t, const char*, void*))
DYNALIB_FN(15, system_net, network_get_hostname, int(network_handle_t, uint32_t, char*, size_t, void*))
DYNALIB_FN(16, system_net, network_is_on, bool(network_handle_t, void*))
 23f9fa4:	b509      	push	{r0, r3, lr}
 23f9fa6:	4804      	ldr	r0, [pc, #16]	; (23f9fb8 <network_is_on+0x14>)
 23f9fa8:	6800      	ldr	r0, [r0, #0]
 23f9faa:	4b04      	ldr	r3, [pc, #16]	; (23f9fbc <network_is_on+0x18>)
 23f9fac:	4403      	add	r3, r0
 23f9fae:	681b      	ldr	r3, [r3, #0]
 23f9fb0:	6c1b      	ldr	r3, [r3, #64]	; 0x40
 23f9fb2:	9302      	str	r3, [sp, #8]
 23f9fb4:	bd09      	pop	{r0, r3, pc}
 23f9fb6:	0000      	.short	0x0000
 23f9fb8:	10072d28 	.word	0x10072d28
 23f9fbc:	00000028 	.word	0x00000028

023f9fc0 <network_is_off>:
DYNALIB_FN(17, system_net, network_is_off, bool(network_handle_t, void*))
 23f9fc0:	b509      	push	{r0, r3, lr}
 23f9fc2:	4804      	ldr	r0, [pc, #16]	; (23f9fd4 <network_is_off+0x14>)
 23f9fc4:	6800      	ldr	r0, [r0, #0]
 23f9fc6:	4b04      	ldr	r3, [pc, #16]	; (23f9fd8 <network_is_off+0x18>)
 23f9fc8:	4403      	add	r3, r0
 23f9fca:	681b      	ldr	r3, [r3, #0]
 23f9fcc:	6c5b      	ldr	r3, [r3, #68]	; 0x44
 23f9fce:	9302      	str	r3, [sp, #8]
 23f9fd0:	bd09      	pop	{r0, r3, pc}
 23f9fd2:	0000      	.short	0x0000
 23f9fd4:	10072d28 	.word	0x10072d28
 23f9fd8:	00000028 	.word	0x00000028

023f9fdc <network_prefer>:
DYNALIB_FN(18, system_net, network_set_configuration, int(network_handle_t, const network_configuration_t*, void*))
DYNALIB_FN(19, system_net, network_get_configuration, int(network_handle_t, network_configuration_t**, size_t*, const char*, size_t, void*))
DYNALIB_FN(20, system_net, network_free_configuration, int(network_configuration_t*, size_t, void*))
DYNALIB_FN(21, system_net, network_prefer, network_handle_t(network_handle_t, bool, void*))
 23f9fdc:	b509      	push	{r0, r3, lr}
 23f9fde:	4804      	ldr	r0, [pc, #16]	; (23f9ff0 <network_prefer+0x14>)
 23f9fe0:	6800      	ldr	r0, [r0, #0]
 23f9fe2:	4b04      	ldr	r3, [pc, #16]	; (23f9ff4 <network_prefer+0x18>)
 23f9fe4:	4403      	add	r3, r0
 23f9fe6:	681b      	ldr	r3, [r3, #0]
 23f9fe8:	6d5b      	ldr	r3, [r3, #84]	; 0x54
 23f9fea:	9302      	str	r3, [sp, #8]
 23f9fec:	bd09      	pop	{r0, r3, pc}
 23f9fee:	0000      	.short	0x0000
 23f9ff0:	10072d28 	.word	0x10072d28
 23f9ff4:	00000028 	.word	0x00000028

023f9ff8 <network_is_preferred>:
DYNALIB_FN(22, system_net, network_is_preferred, bool(network_handle_t, void*))
 23f9ff8:	b509      	push	{r0, r3, lr}
 23f9ffa:	4804      	ldr	r0, [pc, #16]	; (23fa00c <network_is_preferred+0x14>)
 23f9ffc:	6800      	ldr	r0, [r0, #0]
 23f9ffe:	4b04      	ldr	r3, [pc, #16]	; (23fa010 <network_is_preferred+0x18>)
 23fa000:	4403      	add	r3, r0
 23fa002:	681b      	ldr	r3, [r3, #0]
 23fa004:	6d9b      	ldr	r3, [r3, #88]	; 0x58
 23fa006:	9302      	str	r3, [sp, #8]
 23fa008:	bd09      	pop	{r0, r3, pc}
 23fa00a:	0000      	.short	0x0000
 23fa00c:	10072d28 	.word	0x10072d28
 23fa010:	00000028 	.word	0x00000028

023fa014 <spark_function>:


DYNALIB_BEGIN(system_cloud)

DYNALIB_FN(0, system_cloud, spark_variable, bool(const char*, const void*, Spark_Data_TypeDef, spark_variable_t*))
DYNALIB_FN(1, system_cloud, spark_function, bool(const char*, p_user_function_int_str_t, void*))
 23fa014:	b509      	push	{r0, r3, lr}
 23fa016:	4804      	ldr	r0, [pc, #16]	; (23fa028 <spark_function+0x14>)
 23fa018:	6800      	ldr	r0, [r0, #0]
 23fa01a:	4b04      	ldr	r3, [pc, #16]	; (23fa02c <spark_function+0x18>)
 23fa01c:	4403      	add	r3, r0
 23fa01e:	681b      	ldr	r3, [r3, #0]
 23fa020:	685b      	ldr	r3, [r3, #4]
 23fa022:	9302      	str	r3, [sp, #8]
 23fa024:	bd09      	pop	{r0, r3, pc}
 23fa026:	0000      	.short	0x0000
 23fa028:	10072d28 	.word	0x10072d28
 23fa02c:	0000002c 	.word	0x0000002c

023fa030 <spark_process>:
DYNALIB_FN(2, system_cloud, spark_process, bool(void))
 23fa030:	b509      	push	{r0, r3, lr}
 23fa032:	4804      	ldr	r0, [pc, #16]	; (23fa044 <spark_process+0x14>)
 23fa034:	6800      	ldr	r0, [r0, #0]
 23fa036:	4b04      	ldr	r3, [pc, #16]	; (23fa048 <spark_process+0x18>)
 23fa038:	4403      	add	r3, r0
 23fa03a:	681b      	ldr	r3, [r3, #0]
 23fa03c:	689b      	ldr	r3, [r3, #8]
 23fa03e:	9302      	str	r3, [sp, #8]
 23fa040:	bd09      	pop	{r0, r3, pc}
 23fa042:	0000      	.short	0x0000
 23fa044:	10072d28 	.word	0x10072d28
 23fa048:	0000002c 	.word	0x0000002c

023fa04c <spark_cloud_flag_connect>:
DYNALIB_FN(3, system_cloud, spark_cloud_flag_connect, void(void))
 23fa04c:	b509      	push	{r0, r3, lr}
 23fa04e:	4804      	ldr	r0, [pc, #16]	; (23fa060 <spark_cloud_flag_connect+0x14>)
 23fa050:	6800      	ldr	r0, [r0, #0]
 23fa052:	4b04      	ldr	r3, [pc, #16]	; (23fa064 <spark_cloud_flag_connect+0x18>)
 23fa054:	4403      	add	r3, r0
 23fa056:	681b      	ldr	r3, [r3, #0]
 23fa058:	68db      	ldr	r3, [r3, #12]
 23fa05a:	9302      	str	r3, [sp, #8]
 23fa05c:	bd09      	pop	{r0, r3, pc}
 23fa05e:	0000      	.short	0x0000
 23fa060:	10072d28 	.word	0x10072d28
 23fa064:	0000002c 	.word	0x0000002c

023fa068 <spark_cloud_flag_connected>:
DYNALIB_FN(4, system_cloud, spark_cloud_flag_disconnect, void(void))
DYNALIB_FN(5, system_cloud, spark_cloud_flag_connected, bool(void))
 23fa068:	b509      	push	{r0, r3, lr}
 23fa06a:	4804      	ldr	r0, [pc, #16]	; (23fa07c <spark_cloud_flag_connected+0x14>)
 23fa06c:	6800      	ldr	r0, [r0, #0]
 23fa06e:	4b04      	ldr	r3, [pc, #16]	; (23fa080 <spark_cloud_flag_connected+0x18>)
 23fa070:	4403      	add	r3, r0
 23fa072:	681b      	ldr	r3, [r3, #0]
 23fa074:	695b      	ldr	r3, [r3, #20]
 23fa076:	9302      	str	r3, [sp, #8]
 23fa078:	bd09      	pop	{r0, r3, pc}
 23fa07a:	0000      	.short	0x0000
 23fa07c:	10072d28 	.word	0x10072d28
 23fa080:	0000002c 	.word	0x0000002c

023fa084 <spark_send_event>:
DYNALIB_FN(6, system_cloud, system_cloud_protocol_instance, ProtocolFacade*(void))
DYNALIB_FN(7, system_cloud, spark_deviceID, String(void))
DYNALIB_FN(8, system_cloud, spark_send_event, bool(const char*, const char*, int, uint32_t, void*))
 23fa084:	b509      	push	{r0, r3, lr}
 23fa086:	4804      	ldr	r0, [pc, #16]	; (23fa098 <spark_send_event+0x14>)
 23fa088:	6800      	ldr	r0, [r0, #0]
 23fa08a:	4b04      	ldr	r3, [pc, #16]	; (23fa09c <spark_send_event+0x18>)
 23fa08c:	4403      	add	r3, r0
 23fa08e:	681b      	ldr	r3, [r3, #0]
 23fa090:	6a1b      	ldr	r3, [r3, #32]
 23fa092:	9302      	str	r3, [sp, #8]
 23fa094:	bd09      	pop	{r0, r3, pc}
 23fa096:	0000      	.short	0x0000
 23fa098:	10072d28 	.word	0x10072d28
 23fa09c:	0000002c 	.word	0x0000002c

023fa0a0 <spark_sync_time_pending>:
DYNALIB_FN(9, system_cloud, spark_subscribe, bool(const char*, EventHandler, void*, Spark_Subscription_Scope_TypeDef, const char*, spark_subscribe_param*))
DYNALIB_FN(10, system_cloud, spark_unsubscribe, void(void*))
DYNALIB_FN(11, system_cloud, spark_sync_time, bool(void*))
DYNALIB_FN(12, system_cloud, spark_sync_time_pending, bool(void*))
 23fa0a0:	b509      	push	{r0, r3, lr}
 23fa0a2:	4804      	ldr	r0, [pc, #16]	; (23fa0b4 <spark_sync_time_pending+0x14>)
 23fa0a4:	6800      	ldr	r0, [r0, #0]
 23fa0a6:	4b04      	ldr	r3, [pc, #16]	; (23fa0b8 <spark_sync_time_pending+0x18>)
 23fa0a8:	4403      	add	r3, r0
 23fa0aa:	681b      	ldr	r3, [r3, #0]
 23fa0ac:	6b1b      	ldr	r3, [r3, #48]	; 0x30
 23fa0ae:	9302      	str	r3, [sp, #8]
 23fa0b0:	bd09      	pop	{r0, r3, pc}
 23fa0b2:	0000      	.short	0x0000
 23fa0b4:	10072d28 	.word	0x10072d28
 23fa0b8:	0000002c 	.word	0x0000002c

023fa0bc <spark_set_random_seed_from_cloud_handler>:
DYNALIB_FN(13, system_cloud, spark_sync_time_last, system_tick_t(time32_t*, time_t*))
DYNALIB_FN(14, system_cloud, spark_set_connection_property, int(unsigned, unsigned, const void*, void*))
DYNALIB_FN(15, system_cloud, spark_set_random_seed_from_cloud_handler, int(void (*handler)(unsigned int), void*))
 23fa0bc:	b509      	push	{r0, r3, lr}
 23fa0be:	4804      	ldr	r0, [pc, #16]	; (23fa0d0 <spark_set_random_seed_from_cloud_handler+0x14>)
 23fa0c0:	6800      	ldr	r0, [r0, #0]
 23fa0c2:	4b04      	ldr	r3, [pc, #16]	; (23fa0d4 <spark_set_random_seed_from_cloud_handler+0x18>)
 23fa0c4:	4403      	add	r3, r0
 23fa0c6:	681b      	ldr	r3, [r3, #0]
 23fa0c8:	6bdb      	ldr	r3, [r3, #60]	; 0x3c
 23fa0ca:	9302      	str	r3, [sp, #8]
 23fa0cc:	bd09      	pop	{r0, r3, pc}
 23fa0ce:	0000      	.short	0x0000
 23fa0d0:	10072d28 	.word	0x10072d28
 23fa0d4:	0000002c 	.word	0x0000002c

023fa0d8 <spark_cloud_disconnect>:
DYNALIB_FN(16, system_cloud, spark_publish_vitals, int(system_tick_t, void*))
DYNALIB_FN(17, system_cloud, spark_cloud_disconnect, int(const spark_cloud_disconnect_options*, void*))
 23fa0d8:	b509      	push	{r0, r3, lr}
 23fa0da:	4804      	ldr	r0, [pc, #16]	; (23fa0ec <spark_cloud_disconnect+0x14>)
 23fa0dc:	6800      	ldr	r0, [r0, #0]
 23fa0de:	4b04      	ldr	r3, [pc, #16]	; (23fa0f0 <spark_cloud_disconnect+0x18>)
 23fa0e0:	4403      	add	r3, r0
 23fa0e2:	681b      	ldr	r3, [r3, #0]
 23fa0e4:	6c5b      	ldr	r3, [r3, #68]	; 0x44
 23fa0e6:	9302      	str	r3, [sp, #8]
 23fa0e8:	bd09      	pop	{r0, r3, pc}
 23fa0ea:	0000      	.short	0x0000
 23fa0ec:	10072d28 	.word	0x10072d28
 23fa0f0:	0000002c 	.word	0x0000002c

023fa0f4 <malloc>:
#include "hal_platform.h"
#endif // defined(DYNALIB_EXPORT) || defined(DYNALIB_IMPORT)

DYNALIB_BEGIN(rt)

DYNALIB_FN(0, rt, malloc, void*(size_t))
 23fa0f4:	b509      	push	{r0, r3, lr}
 23fa0f6:	4804      	ldr	r0, [pc, #16]	; (23fa108 <malloc+0x14>)
 23fa0f8:	6800      	ldr	r0, [r0, #0]
 23fa0fa:	4b04      	ldr	r3, [pc, #16]	; (23fa10c <malloc+0x18>)
 23fa0fc:	4403      	add	r3, r0
 23fa0fe:	681b      	ldr	r3, [r3, #0]
 23fa100:	681b      	ldr	r3, [r3, #0]
 23fa102:	9302      	str	r3, [sp, #8]
 23fa104:	bd09      	pop	{r0, r3, pc}
 23fa106:	0000      	.short	0x0000
 23fa108:	10072d28 	.word	0x10072d28
 23fa10c:	00000004 	.word	0x00000004

023fa110 <free>:
DYNALIB_FN(1, rt, free, void(void*))
 23fa110:	b509      	push	{r0, r3, lr}
 23fa112:	4804      	ldr	r0, [pc, #16]	; (23fa124 <free+0x14>)
 23fa114:	6800      	ldr	r0, [r0, #0]
 23fa116:	4b04      	ldr	r3, [pc, #16]	; (23fa128 <free+0x18>)
 23fa118:	4403      	add	r3, r0
 23fa11a:	681b      	ldr	r3, [r3, #0]
 23fa11c:	685b      	ldr	r3, [r3, #4]
 23fa11e:	9302      	str	r3, [sp, #8]
 23fa120:	bd09      	pop	{r0, r3, pc}
 23fa122:	0000      	.short	0x0000
 23fa124:	10072d28 	.word	0x10072d28
 23fa128:	00000004 	.word	0x00000004

023fa12c <realloc>:
DYNALIB_FN(2, rt, realloc, void*(void*, size_t))
 23fa12c:	b509      	push	{r0, r3, lr}
 23fa12e:	4804      	ldr	r0, [pc, #16]	; (23fa140 <realloc+0x14>)
 23fa130:	6800      	ldr	r0, [r0, #0]
 23fa132:	4b04      	ldr	r3, [pc, #16]	; (23fa144 <realloc+0x18>)
 23fa134:	4403      	add	r3, r0
 23fa136:	681b      	ldr	r3, [r3, #0]
 23fa138:	689b      	ldr	r3, [r3, #8]
 23fa13a:	9302      	str	r3, [sp, #8]
 23fa13c:	bd09      	pop	{r0, r3, pc}
 23fa13e:	0000      	.short	0x0000
 23fa140:	10072d28 	.word	0x10072d28
 23fa144:	00000004 	.word	0x00000004

023fa148 <snprintf>:
DYNALIB_FN(3, rt, sprintf, int(char*, const char*, ...))
DYNALIB_FN(4, rt, siprintf, int(char*, const char*, ...))
DYNALIB_FN(5, rt, sscanf, int(const char*, const char*, ...))
DYNALIB_FN(6, rt, siscanf, int(const char*, const char*, ...))
DYNALIB_FN(7, rt, snprintf, int(char*, size_t, const char*, ...))
 23fa148:	b509      	push	{r0, r3, lr}
 23fa14a:	4804      	ldr	r0, [pc, #16]	; (23fa15c <snprintf+0x14>)
 23fa14c:	6800      	ldr	r0, [r0, #0]
 23fa14e:	4b04      	ldr	r3, [pc, #16]	; (23fa160 <snprintf+0x18>)
 23fa150:	4403      	add	r3, r0
 23fa152:	681b      	ldr	r3, [r3, #0]
 23fa154:	69db      	ldr	r3, [r3, #28]
 23fa156:	9302      	str	r3, [sp, #8]
 23fa158:	bd09      	pop	{r0, r3, pc}
 23fa15a:	0000      	.short	0x0000
 23fa15c:	10072d28 	.word	0x10072d28
 23fa160:	00000004 	.word	0x00000004

023fa164 <vsnprintf>:
DYNALIB_FN(8, rt, sniprintf, int(char*, size_t, const char*, ...))
DYNALIB_FN(9, rt, vsnprintf, int(char*, size_t, const char*, va_list))
 23fa164:	b509      	push	{r0, r3, lr}
 23fa166:	4804      	ldr	r0, [pc, #16]	; (23fa178 <vsnprintf+0x14>)
 23fa168:	6800      	ldr	r0, [r0, #0]
 23fa16a:	4b04      	ldr	r3, [pc, #16]	; (23fa17c <vsnprintf+0x18>)
 23fa16c:	4403      	add	r3, r0
 23fa16e:	681b      	ldr	r3, [r3, #0]
 23fa170:	6a5b      	ldr	r3, [r3, #36]	; 0x24
 23fa172:	9302      	str	r3, [sp, #8]
 23fa174:	bd09      	pop	{r0, r3, pc}
 23fa176:	0000      	.short	0x0000
 23fa178:	10072d28 	.word	0x10072d28
 23fa17c:	00000004 	.word	0x00000004

023fa180 <abort>:
DYNALIB_FN(10, rt, vsniprintf, int(char*, size_t, const char*, va_list))
DYNALIB_FN(11, rt, abort, void(void))
 23fa180:	b509      	push	{r0, r3, lr}
 23fa182:	4804      	ldr	r0, [pc, #16]	; (23fa194 <abort+0x14>)
 23fa184:	6800      	ldr	r0, [r0, #0]
 23fa186:	4b04      	ldr	r3, [pc, #16]	; (23fa198 <abort+0x18>)
 23fa188:	4403      	add	r3, r0
 23fa18a:	681b      	ldr	r3, [r3, #0]
 23fa18c:	6adb      	ldr	r3, [r3, #44]	; 0x2c
 23fa18e:	9302      	str	r3, [sp, #8]
 23fa190:	bd09      	pop	{r0, r3, pc}
 23fa192:	0000      	.short	0x0000
 23fa194:	10072d28 	.word	0x10072d28
 23fa198:	00000004 	.word	0x00000004

023fa19c <_malloc_r>:
DYNALIB_FN(12, rt, _malloc_r, void*(struct _reent*, size_t))
 23fa19c:	b509      	push	{r0, r3, lr}
 23fa19e:	4804      	ldr	r0, [pc, #16]	; (23fa1b0 <_malloc_r+0x14>)
 23fa1a0:	6800      	ldr	r0, [r0, #0]
 23fa1a2:	4b04      	ldr	r3, [pc, #16]	; (23fa1b4 <_malloc_r+0x18>)
 23fa1a4:	4403      	add	r3, r0
 23fa1a6:	681b      	ldr	r3, [r3, #0]
 23fa1a8:	6b1b      	ldr	r3, [r3, #48]	; 0x30
 23fa1aa:	9302      	str	r3, [sp, #8]
 23fa1ac:	bd09      	pop	{r0, r3, pc}
 23fa1ae:	0000      	.short	0x0000
 23fa1b0:	10072d28 	.word	0x10072d28
 23fa1b4:	00000004 	.word	0x00000004

023fa1b8 <__errno>:
DYNALIB_FN(13, rt, _free_r, void(struct _reent*, void*))
DYNALIB_FN(14, rt, _realloc_r, void*(struct _reent*, void*, size_t))
DYNALIB_FN(15, rt, __errno, int*())
 23fa1b8:	b509      	push	{r0, r3, lr}
 23fa1ba:	4804      	ldr	r0, [pc, #16]	; (23fa1cc <__errno+0x14>)
 23fa1bc:	6800      	ldr	r0, [r0, #0]
 23fa1be:	4b04      	ldr	r3, [pc, #16]	; (23fa1d0 <__errno+0x18>)
 23fa1c0:	4403      	add	r3, r0
 23fa1c2:	681b      	ldr	r3, [r3, #0]
 23fa1c4:	6bdb      	ldr	r3, [r3, #60]	; 0x3c
 23fa1c6:	9302      	str	r3, [sp, #8]
 23fa1c8:	bd09      	pop	{r0, r3, pc}
 23fa1ca:	0000      	.short	0x0000
 23fa1cc:	10072d28 	.word	0x10072d28
 23fa1d0:	00000004 	.word	0x00000004

023fa1d4 <__assert_func>:

#if defined(DYNALIB_EXPORT) || defined(DYNALIB_IMPORT)
DYNALIB_FN(16, rt, __assert_func, void(const char*, int, const char*, const char*))
 23fa1d4:	b509      	push	{r0, r3, lr}
 23fa1d6:	4804      	ldr	r0, [pc, #16]	; (23fa1e8 <__assert_func+0x14>)
 23fa1d8:	6800      	ldr	r0, [r0, #0]
 23fa1da:	4b04      	ldr	r3, [pc, #16]	; (23fa1ec <__assert_func+0x18>)
 23fa1dc:	4403      	add	r3, r0
 23fa1de:	681b      	ldr	r3, [r3, #0]
 23fa1e0:	6c1b      	ldr	r3, [r3, #64]	; 0x40
 23fa1e2:	9302      	str	r3, [sp, #8]
 23fa1e4:	bd09      	pop	{r0, r3, pc}
 23fa1e6:	0000      	.short	0x0000
 23fa1e8:	10072d28 	.word	0x10072d28
 23fa1ec:	00000004 	.word	0x00000004

023fa1f0 <newlib_impure_ptr_callback>:
DYNALIB_FN(17, rt, newlib_impure_ptr_callback, void(void (*)(struct _reent*, size_t, uint32_t, void*), void*))
 23fa1f0:	b509      	push	{r0, r3, lr}
 23fa1f2:	4804      	ldr	r0, [pc, #16]	; (23fa204 <newlib_impure_ptr_callback+0x14>)
 23fa1f4:	6800      	ldr	r0, [r0, #0]
 23fa1f6:	4b04      	ldr	r3, [pc, #16]	; (23fa208 <newlib_impure_ptr_callback+0x18>)
 23fa1f8:	4403      	add	r3, r0
 23fa1fa:	681b      	ldr	r3, [r3, #0]
 23fa1fc:	6c5b      	ldr	r3, [r3, #68]	; 0x44
 23fa1fe:	9302      	str	r3, [sp, #8]
 23fa200:	bd09      	pop	{r0, r3, pc}
 23fa202:	0000      	.short	0x0000
 23fa204:	10072d28 	.word	0x10072d28
 23fa208:	00000004 	.word	0x00000004

023fa20c <localtime_r>:

DYNALIB_FN(18, rt, strftime, size_t(char* __restrict, size_t, const char* __restrict, const struct tm* __restrict))
DYNALIB_FN(19, rt, localtime_r, struct tm*(const time_t* __restrict, struct tm* __restrict))
 23fa20c:	b509      	push	{r0, r3, lr}
 23fa20e:	4804      	ldr	r0, [pc, #16]	; (23fa220 <localtime_r+0x14>)
 23fa210:	6800      	ldr	r0, [r0, #0]
 23fa212:	4b04      	ldr	r3, [pc, #16]	; (23fa224 <localtime_r+0x18>)
 23fa214:	4403      	add	r3, r0
 23fa216:	681b      	ldr	r3, [r3, #0]
 23fa218:	6cdb      	ldr	r3, [r3, #76]	; 0x4c
 23fa21a:	9302      	str	r3, [sp, #8]
 23fa21c:	bd09      	pop	{r0, r3, pc}
 23fa21e:	0000      	.short	0x0000
 23fa220:	10072d28 	.word	0x10072d28
 23fa224:	00000004 	.word	0x00000004

023fa228 <__cxa_guard_acquire>:
DYNALIB_FN(20, rt, gmtime_r, struct tm*(const time_t* __restrict, struct tm* __restrict))
DYNALIB_FN(21, rt, mktime, time_t(struct tm*))
DYNALIB_FN(22, rt, __cxa_guard_acquire, int(__guard*))
 23fa228:	b509      	push	{r0, r3, lr}
 23fa22a:	4804      	ldr	r0, [pc, #16]	; (23fa23c <__cxa_guard_acquire+0x14>)
 23fa22c:	6800      	ldr	r0, [r0, #0]
 23fa22e:	4b04      	ldr	r3, [pc, #16]	; (23fa240 <__cxa_guard_acquire+0x18>)
 23fa230:	4403      	add	r3, r0
 23fa232:	681b      	ldr	r3, [r3, #0]
 23fa234:	6d9b      	ldr	r3, [r3, #88]	; 0x58
 23fa236:	9302      	str	r3, [sp, #8]
 23fa238:	bd09      	pop	{r0, r3, pc}
 23fa23a:	0000      	.short	0x0000
 23fa23c:	10072d28 	.word	0x10072d28
 23fa240:	00000004 	.word	0x00000004

023fa244 <__cxa_guard_release>:
DYNALIB_FN(23, rt, __cxa_guard_release, void(__guard*))
 23fa244:	b509      	push	{r0, r3, lr}
 23fa246:	4804      	ldr	r0, [pc, #16]	; (23fa258 <__cxa_guard_release+0x14>)
 23fa248:	6800      	ldr	r0, [r0, #0]
 23fa24a:	4b04      	ldr	r3, [pc, #16]	; (23fa25c <__cxa_guard_release+0x18>)
 23fa24c:	4403      	add	r3, r0
 23fa24e:	681b      	ldr	r3, [r3, #0]
 23fa250:	6ddb      	ldr	r3, [r3, #92]	; 0x5c
 23fa252:	9302      	str	r3, [sp, #8]
 23fa254:	bd09      	pop	{r0, r3, pc}
 23fa256:	0000      	.short	0x0000
 23fa258:	10072d28 	.word	0x10072d28
 23fa25c:	00000004 	.word	0x00000004

023fa260 <_ZN5spark13EthernetClass9listeningEv>:
    uint16_t getListenTimeout(void) {
        return network_get_listen_timeout(*this, 0, NULL);
    }

    bool listening(void) {
        return network_listening(*this, 0, NULL);
 23fa260:	2200      	movs	r2, #0
 23fa262:	6840      	ldr	r0, [r0, #4]
 23fa264:	4611      	mov	r1, r2
 23fa266:	f7ff be57 	b.w	23f9f18 <network_listening>

023fa26a <_ZN5spark13EthernetClass16getListenTimeoutEv>:
        return network_get_listen_timeout(*this, 0, NULL);
 23fa26a:	2200      	movs	r2, #0
 23fa26c:	6840      	ldr	r0, [r0, #4]
 23fa26e:	4611      	mov	r1, r2
 23fa270:	f7ff be8a 	b.w	23f9f88 <network_get_listen_timeout>

023fa274 <_ZN5spark13EthernetClass16setListenTimeoutEt>:
        network_set_listen_timeout(*this, timeout, NULL);
 23fa274:	2200      	movs	r2, #0
 23fa276:	6840      	ldr	r0, [r0, #4]
 23fa278:	f7ff be78 	b.w	23f9f6c <network_set_listen_timeout>

023fa27c <_ZN5spark13EthernetClass6listenEb>:
        network_listen(*this, begin ? 0 : 1, NULL);
 23fa27c:	2200      	movs	r2, #0
 23fa27e:	6840      	ldr	r0, [r0, #4]
 23fa280:	f081 0101 	eor.w	r1, r1, #1
 23fa284:	f7ff be3a 	b.w	23f9efc <network_listen>

023fa288 <_ZN5spark13EthernetClass3offEv>:
        network_off(*this, 0, 0, NULL);
 23fa288:	2300      	movs	r3, #0
 23fa28a:	6840      	ldr	r0, [r0, #4]
 23fa28c:	461a      	mov	r2, r3
 23fa28e:	4619      	mov	r1, r3
 23fa290:	f7ff be26 	b.w	23f9ee0 <network_off>

023fa294 <_ZN5spark13EthernetClass2onEv>:
        network_on(*this, 0, 0, NULL);
 23fa294:	2300      	movs	r3, #0
 23fa296:	6840      	ldr	r0, [r0, #4]
 23fa298:	461a      	mov	r2, r3
 23fa29a:	4619      	mov	r1, r3
 23fa29c:	f7ff be12 	b.w	23f9ec4 <network_on>

023fa2a0 <_ZN5spark13EthernetClass5readyEv>:
    }

    bool ready() {
        return network_ready(*this, 0,  NULL);
 23fa2a0:	2200      	movs	r2, #0
 23fa2a2:	6840      	ldr	r0, [r0, #4]
 23fa2a4:	4611      	mov	r1, r2
 23fa2a6:	f7ff bdff 	b.w	23f9ea8 <network_ready>

023fa2aa <_ZN5spark13EthernetClass10connectingEv>:
        return network_connecting(*this, 0, NULL);
 23fa2aa:	2200      	movs	r2, #0
 23fa2ac:	6840      	ldr	r0, [r0, #4]
 23fa2ae:	4611      	mov	r1, r2
 23fa2b0:	f7ff bdde 	b.w	23f9e70 <network_connecting>

023fa2b4 <_ZN5spark13EthernetClass10disconnectEv>:
        network_disconnect(*this, NETWORK_DISCONNECT_REASON_USER, NULL);
 23fa2b4:	2200      	movs	r2, #0
 23fa2b6:	2102      	movs	r1, #2
 23fa2b8:	6840      	ldr	r0, [r0, #4]
 23fa2ba:	f7ff bde7 	b.w	23f9e8c <network_disconnect>

023fa2be <_ZN5spark13EthernetClass7connectEj>:
        network_connect(*this, flags, 0, NULL);
 23fa2be:	2300      	movs	r3, #0
 23fa2c0:	6840      	ldr	r0, [r0, #4]
 23fa2c2:	461a      	mov	r2, r3
 23fa2c4:	f7ff bdc6 	b.w	23f9e54 <network_connect>

023fa2c8 <_GLOBAL__sub_I__ZN5spark8EthernetE>:
    static NetworkClass& from(network_interface_t nif);

    virtual IPAddress resolve(const char* name, bool flushCache = false);

    explicit NetworkClass(network_interface_t iface)
            : iface_(iface) {
 23fa2c8:	2203      	movs	r2, #3
 23fa2ca:	4b02      	ldr	r3, [pc, #8]	; (23fa2d4 <_GLOBAL__sub_I__ZN5spark8EthernetE+0xc>)
 23fa2cc:	605a      	str	r2, [r3, #4]
            NetworkClass(NETWORK_INTERFACE_ETHERNET) {
 23fa2ce:	4a02      	ldr	r2, [pc, #8]	; (23fa2d8 <_GLOBAL__sub_I__ZN5spark8EthernetE+0x10>)
 23fa2d0:	601a      	str	r2, [r3, #0]

namespace spark {

EthernetClass Ethernet;

} // spark
 23fa2d2:	4770      	bx	lr
 23fa2d4:	1007ae80 	.word	0x1007ae80
 23fa2d8:	023ff8b4 	.word	0x023ff8b4

023fa2dc <_ZNSt12__shared_ptrIN5spark6detail8JSONDataELN9__gnu_cxx12_Lock_policyE0EEC1ERKS5_>:
      __shared_ptr(const __shared_ptr&) noexcept = default;
 23fa2dc:	680b      	ldr	r3, [r1, #0]
 23fa2de:	6003      	str	r3, [r0, #0]
      : _M_pi(__r._M_pi)
 23fa2e0:	684b      	ldr	r3, [r1, #4]
 23fa2e2:	6043      	str	r3, [r0, #4]
	if (_M_pi != 0)
 23fa2e4:	b113      	cbz	r3, 23fa2ec <_ZNSt12__shared_ptrIN5spark6detail8JSONDataELN9__gnu_cxx12_Lock_policyE0EEC1ERKS5_+0x10>
    { ++_M_use_count; }
 23fa2e6:	685a      	ldr	r2, [r3, #4]
 23fa2e8:	3201      	adds	r2, #1
 23fa2ea:	605a      	str	r2, [r3, #4]
      __shared_ptr(const __shared_ptr&) noexcept = default;
 23fa2ec:	4770      	bx	lr
	...

023fa2f0 <_GLOBAL__sub_I__ZN8particle10CloudEvent15s_subscriptionsE>:
// spark::Vector
template<typename T, typename AllocatorT>
inline spark::Vector<T, AllocatorT>::Vector() :
        data_(nullptr),
        size_(0),
        capacity_(0) {
 23fa2f0:	2200      	movs	r2, #0
 23fa2f2:	4b02      	ldr	r3, [pc, #8]	; (23fa2fc <_GLOBAL__sub_I__ZN8particle10CloudEvent15s_subscriptionsE+0xc>)
 23fa2f4:	e9c3 2200 	strd	r2, r2, [r3]
 23fa2f8:	609a      	str	r2, [r3, #8]
        // Keep the reference around until the application callback is called
        d.unwrap();
    }
}

} // namespace particle
 23fa2fa:	4770      	bx	lr
 23fa2fc:	1007ae88 	.word	0x1007ae88

023fa300 <_ZN8SPIClassC1E19hal_spi_interface_t>:
    }
    return particle::SPISettings(info->clock, info->bit_order, info->data_mode);
}
} // namespace

SPIClass::SPIClass(hal_spi_interface_t spi)
 23fa300:	b510      	push	{r4, lr}
 23fa302:	4604      	mov	r4, r0
 23fa304:	4608      	mov	r0, r1
{
    _spi = spi;
 23fa306:	7021      	strb	r1, [r4, #0]
    hal_spi_init(_spi);
 23fa308:	f7ff fc0e 	bl	23f9b28 <hal_spi_init>
    _dividerReference = SPI_CLK_SYSTEM; // 0 indicates the system clock
 23fa30c:	2300      	movs	r3, #0
}
 23fa30e:	4620      	mov	r0, r4
    _dividerReference = SPI_CLK_SYSTEM; // 0 indicates the system clock
 23fa310:	6063      	str	r3, [r4, #4]
}
 23fa312:	bd10      	pop	{r4, pc}

023fa314 <_ZN17SystemSleepResult22freeWakeupSourceMemoryEv>:
    operator SleepResult() {
        return toSleepResult();
    }

private:
    void freeWakeupSourceMemory() {
 23fa314:	b510      	push	{r4, lr}
 23fa316:	4604      	mov	r4, r0
        if (wakeupSource_) {
 23fa318:	6800      	ldr	r0, [r0, #0]
 23fa31a:	b118      	cbz	r0, 23fa324 <_ZN17SystemSleepResult22freeWakeupSourceMemoryEv+0x10>
            free(wakeupSource_);
 23fa31c:	f7ff fef8 	bl	23fa110 <free>
            wakeupSource_ = nullptr;
 23fa320:	2300      	movs	r3, #0
 23fa322:	6023      	str	r3, [r4, #0]
        }
    }
 23fa324:	bd10      	pop	{r4, pc}

023fa326 <_ZN17SystemSleepResult16copyWakeupSourceEP24hal_wakeup_source_base_t.isra.0>:

    int copyWakeupSource(hal_wakeup_source_base_t* source) {
 23fa326:	b538      	push	{r3, r4, r5, lr}
 23fa328:	460c      	mov	r4, r1
 23fa32a:	4605      	mov	r5, r0
        freeWakeupSourceMemory();
 23fa32c:	f7ff fff2 	bl	23fa314 <_ZN17SystemSleepResult22freeWakeupSourceMemoryEv>
        if (source) {
 23fa330:	b154      	cbz	r4, 23fa348 <_ZN17SystemSleepResult16copyWakeupSourceEP24hal_wakeup_source_base_t.isra.0+0x22>
            wakeupSource_ = (hal_wakeup_source_base_t*)malloc(source->size);
 23fa332:	8820      	ldrh	r0, [r4, #0]
 23fa334:	f7ff fede 	bl	23fa0f4 <malloc>
 23fa338:	6028      	str	r0, [r5, #0]
            if (wakeupSource_) {
 23fa33a:	b128      	cbz	r0, 23fa348 <_ZN17SystemSleepResult16copyWakeupSourceEP24hal_wakeup_source_base_t.isra.0+0x22>
                memcpy(wakeupSource_, source, source->size);
 23fa33c:	4621      	mov	r1, r4
 23fa33e:	8822      	ldrh	r2, [r4, #0]
            } else {
                return SYSTEM_ERROR_NO_MEMORY;
            }
        }
        return SYSTEM_ERROR_NONE;
    }
 23fa340:	e8bd 4038 	ldmia.w	sp!, {r3, r4, r5, lr}
                memcpy(wakeupSource_, source, source->size);
 23fa344:	f002 be1e 	b.w	23fcf84 <memcpy>
    }
 23fa348:	bd38      	pop	{r3, r4, r5, pc}

023fa34a <_ZN17SystemSleepResultaSEOS_.isra.0>:
    SystemSleepResult& operator=(SystemSleepResult&& result) {
 23fa34a:	b538      	push	{r3, r4, r5, lr}
 23fa34c:	460c      	mov	r4, r1
        error_ = result.error_;
 23fa34e:	f9b1 3004 	ldrsh.w	r3, [r1, #4]
    SystemSleepResult& operator=(SystemSleepResult&& result) {
 23fa352:	4605      	mov	r5, r0
        error_ = result.error_;
 23fa354:	8083      	strh	r3, [r0, #4]
        compatResult_ = result.compatResult_;
 23fa356:	f8d1 3006 	ldr.w	r3, [r1, #6]
 23fa35a:	f8c0 3006 	str.w	r3, [r0, #6]
 23fa35e:	894b      	ldrh	r3, [r1, #10]
 23fa360:	8143      	strh	r3, [r0, #10]
        freeWakeupSourceMemory();
 23fa362:	f7ff ffd7 	bl	23fa314 <_ZN17SystemSleepResult22freeWakeupSourceMemoryEv>
        if (result.wakeupSource_) {
 23fa366:	6823      	ldr	r3, [r4, #0]
 23fa368:	b113      	cbz	r3, 23fa370 <_ZN17SystemSleepResultaSEOS_.isra.0+0x26>
            wakeupSource_ = result.wakeupSource_;
 23fa36a:	602b      	str	r3, [r5, #0]
            result.wakeupSource_ = nullptr;
 23fa36c:	2300      	movs	r3, #0
 23fa36e:	6023      	str	r3, [r4, #0]
    }
 23fa370:	bd38      	pop	{r3, r4, r5, pc}
	...

023fa374 <_ZN11SystemClass5sleepERKN8particle24SystemSleepConfigurationE>:
void SystemClass::enterSafeMode(SystemResetFlags flags)
{
    system_reset(SYSTEM_RESET_MODE_SAFE, 0, 0, flags.value(), nullptr);
}

SystemSleepResult SystemClass::sleep(const particle::SystemSleepConfiguration& config) {
 23fa374:	b5f0      	push	{r4, r5, r6, r7, lr}
 23fa376:	4d2b      	ldr	r5, [pc, #172]	; (23fa424 <_ZN11SystemClass5sleepERKN8particle24SystemSleepConfigurationE+0xb0>)
    }

    // It doesn't guarantee the combination of sleep mode and
    // wakeup sources that the platform supports.
    bool valid() const {
        if (!valid_) {
 23fa378:	7d0b      	ldrb	r3, [r1, #20]
 23fa37a:	4604      	mov	r4, r0
 23fa37c:	b08b      	sub	sp, #44	; 0x2c
 23fa37e:	4608      	mov	r0, r1
 23fa380:	1daf      	adds	r7, r5, #6
 23fa382:	2b00      	cmp	r3, #0
 23fa384:	d036      	beq.n	23fa3f4 <_ZN11SystemClass5sleepERKN8particle24SystemSleepConfigurationE+0x80>
        return static_cast<SystemSleepMode>(config_->mode);
 23fa386:	680b      	ldr	r3, [r1, #0]
            return valid_;
        }
        if (sleepMode() == SystemSleepMode::NONE) {
 23fa388:	791b      	ldrb	r3, [r3, #4]
 23fa38a:	2b00      	cmp	r3, #0
 23fa38c:	d032      	beq.n	23fa3f4 <_ZN11SystemClass5sleepERKN8particle24SystemSleepConfigurationE+0x80>
              error_(SYSTEM_ERROR_NONE) {
 23fa38e:	2200      	movs	r2, #0
    SleepResult() {}
 23fa390:	4b25      	ldr	r3, [pc, #148]	; (23fa428 <_ZN11SystemClass5sleepERKN8particle24SystemSleepConfigurationE+0xb4>)
    if (!config.valid()) {
        LOG(ERROR, "System sleep configuration is invalid.");
        System.systemSleepResult_ = SystemSleepResult(SYSTEM_ERROR_INVALID_ARGUMENT);
    } else {
        SystemSleepResult result;
        int ret = system_sleep_ext(config.halConfig(), result.halWakeupSource(), nullptr);
 23fa392:	a902      	add	r1, sp, #8
 23fa394:	3004      	adds	r0, #4
 23fa396:	9304      	str	r3, [sp, #16]
              error_(SYSTEM_ERROR_NONE) {
 23fa398:	e9cd 2202 	strd	r2, r2, [sp, #8]
 23fa39c:	f7ff fd4c 	bl	23f9e38 <system_sleep_ext>
        compatResult_ = result.compatResult_;
 23fa3a0:	f8dd 300e 	ldr.w	r3, [sp, #14]
        result.setError(static_cast<system_error_t>(ret));
 23fa3a4:	b200      	sxth	r0, r0
 23fa3a6:	f8c5 3006 	str.w	r3, [r5, #6]
 23fa3aa:	f8bd 3012 	ldrh.w	r3, [sp, #18]
        error_ = error;
 23fa3ae:	f8ad 000c 	strh.w	r0, [sp, #12]
        error_ = result.error_;
 23fa3b2:	80a8      	strh	r0, [r5, #4]
        copyWakeupSource(result.wakeupSource_);
 23fa3b4:	9902      	ldr	r1, [sp, #8]
 23fa3b6:	4628      	mov	r0, r5
        compatResult_ = result.compatResult_;
 23fa3b8:	80bb      	strh	r3, [r7, #4]
        copyWakeupSource(result.wakeupSource_);
 23fa3ba:	f7ff ffb4 	bl	23fa326 <_ZN17SystemSleepResult16copyWakeupSourceEP24hal_wakeup_source_base_t.isra.0>
        freeWakeupSourceMemory();
 23fa3be:	a802      	add	r0, sp, #8
 23fa3c0:	f7ff ffa8 	bl	23fa314 <_ZN17SystemSleepResult22freeWakeupSourceMemoryEv>
              error_(SYSTEM_ERROR_NONE) {
 23fa3c4:	2300      	movs	r3, #0
 23fa3c6:	6023      	str	r3, [r4, #0]
 23fa3c8:	80a3      	strh	r3, [r4, #4]
    SleepResult() {}
 23fa3ca:	71a3      	strb	r3, [r4, #6]
 23fa3cc:	8123      	strh	r3, [r4, #8]
 23fa3ce:	f64f 73ff 	movw	r3, #65535	; 0xffff
 23fa3d2:	8163      	strh	r3, [r4, #10]
        error_ = result.error_;
 23fa3d4:	f9b5 3004 	ldrsh.w	r3, [r5, #4]
        copyWakeupSource(result.wakeupSource_);
 23fa3d8:	4620      	mov	r0, r4
        error_ = result.error_;
 23fa3da:	80a3      	strh	r3, [r4, #4]
        compatResult_ = result.compatResult_;
 23fa3dc:	f8d5 3006 	ldr.w	r3, [r5, #6]
        copyWakeupSource(result.wakeupSource_);
 23fa3e0:	6829      	ldr	r1, [r5, #0]
        compatResult_ = result.compatResult_;
 23fa3e2:	f8c4 3006 	str.w	r3, [r4, #6]
 23fa3e6:	88bb      	ldrh	r3, [r7, #4]
 23fa3e8:	8163      	strh	r3, [r4, #10]
        copyWakeupSource(result.wakeupSource_);
 23fa3ea:	f7ff ff9c 	bl	23fa326 <_ZN17SystemSleepResult16copyWakeupSourceEP24hal_wakeup_source_base_t.isra.0>
        System.systemSleepResult_ = result;
    }
    return System.systemSleepResult_;
}
 23fa3ee:	4620      	mov	r0, r4
 23fa3f0:	b00b      	add	sp, #44	; 0x2c
 23fa3f2:	bdf0      	pop	{r4, r5, r6, r7, pc}
        LOG(ERROR, "System sleep configuration is invalid.");
 23fa3f4:	2600      	movs	r6, #0
 23fa3f6:	2320      	movs	r3, #32
 23fa3f8:	e9cd 3602 	strd	r3, r6, [sp, #8]
 23fa3fc:	4b0b      	ldr	r3, [pc, #44]	; (23fa42c <_ZN11SystemClass5sleepERKN8particle24SystemSleepConfigurationE+0xb8>)
 23fa3fe:	aa02      	add	r2, sp, #8
 23fa400:	9300      	str	r3, [sp, #0]
 23fa402:	2032      	movs	r0, #50	; 0x32
 23fa404:	4633      	mov	r3, r6
 23fa406:	490a      	ldr	r1, [pc, #40]	; (23fa430 <_ZN11SystemClass5sleepERKN8particle24SystemSleepConfigurationE+0xbc>)
 23fa408:	f7ff fc36 	bl	23f9c78 <log_message>
            : wakeupSource_(nullptr),
 23fa40c:	f64f 62f2 	movw	r2, #65266	; 0xfef2
 23fa410:	4b05      	ldr	r3, [pc, #20]	; (23fa428 <_ZN11SystemClass5sleepERKN8particle24SystemSleepConfigurationE+0xb4>)
        System.systemSleepResult_ = SystemSleepResult(SYSTEM_ERROR_INVALID_ARGUMENT);
 23fa412:	4804      	ldr	r0, [pc, #16]	; (23fa424 <_ZN11SystemClass5sleepERKN8particle24SystemSleepConfigurationE+0xb0>)
 23fa414:	a902      	add	r1, sp, #8
 23fa416:	e9cd 2303 	strd	r2, r3, [sp, #12]
              error_(SYSTEM_ERROR_NONE) {
 23fa41a:	9602      	str	r6, [sp, #8]
 23fa41c:	f7ff ff95 	bl	23fa34a <_ZN17SystemSleepResultaSEOS_.isra.0>
 23fa420:	e7cd      	b.n	23fa3be <_ZN11SystemClass5sleepERKN8particle24SystemSleepConfigurationE+0x4a>
 23fa422:	bf00      	nop
 23fa424:	1007ae94 	.word	0x1007ae94
 23fa428:	ffff0000 	.word	0xffff0000
 23fa42c:	023ff8f7 	.word	0x023ff8f7
 23fa430:	023ff8f0 	.word	0x023ff8f0

023fa434 <_ZN11SystemClass10freeMemoryEv>:
    System.systemSleepResult_ = SystemSleepResult(SleepResult(ret, pins, pins_count));
    return System.systemSleepResult_;
}

uint32_t SystemClass::freeMemory()
{
 23fa434:	b510      	push	{r4, lr}
    runtime_info_t info;
    memset(&info, 0, sizeof(info));
 23fa436:	2420      	movs	r4, #32
{
 23fa438:	b088      	sub	sp, #32
    memset(&info, 0, sizeof(info));
 23fa43a:	4622      	mov	r2, r4
 23fa43c:	2100      	movs	r1, #0
 23fa43e:	4668      	mov	r0, sp
 23fa440:	f002 fdc7 	bl	23fcfd2 <memset>
    info.size = sizeof(info);
    HAL_Core_Runtime_Info(&info, NULL);
 23fa444:	2100      	movs	r1, #0
 23fa446:	4668      	mov	r0, sp
    info.size = sizeof(info);
 23fa448:	f8ad 4000 	strh.w	r4, [sp]
    HAL_Core_Runtime_Info(&info, NULL);
 23fa44c:	f7ff f966 	bl	23f971c <HAL_Core_Runtime_Info>
    return info.freeheap;
}
 23fa450:	9801      	ldr	r0, [sp, #4]
 23fa452:	b008      	add	sp, #32
 23fa454:	bd10      	pop	{r4, pc}

023fa456 <_ZN5spark6VectorI6StringNS_16DefaultAllocatorEED1Ev>:
inline spark::Vector<T, AllocatorT>::Vector(Vector<T, AllocatorT>&& vector) : Vector() {
    swap(*this, vector);
}

template<typename T, typename AllocatorT>
inline spark::Vector<T, AllocatorT>::~Vector() {
 23fa456:	b570      	push	{r4, r5, r6, lr}
 23fa458:	4604      	mov	r4, r0
    destruct(data_, data_ + size_);
 23fa45a:	e9d0 5300 	ldrd	r5, r3, [r0]
 23fa45e:	eb05 1603 	add.w	r6, r5, r3, lsl #4
        for (; p != end; ++p) {
 23fa462:	42ae      	cmp	r6, r5
 23fa464:	d004      	beq.n	23fa470 <_ZN5spark6VectorI6StringNS_16DefaultAllocatorEED1Ev+0x1a>
            p->~T();
 23fa466:	4628      	mov	r0, r5
 23fa468:	f000 f85c 	bl	23fa524 <_ZN6StringD1Ev>
        for (; p != end; ++p) {
 23fa46c:	3510      	adds	r5, #16
 23fa46e:	e7f8      	b.n	23fa462 <_ZN5spark6VectorI6StringNS_16DefaultAllocatorEED1Ev+0xc>
    ::free(ptr);
 23fa470:	6820      	ldr	r0, [r4, #0]
 23fa472:	f7ff fe4d 	bl	23fa110 <free>
    AllocatorT::free(data_);
}
 23fa476:	4620      	mov	r0, r4
 23fa478:	bd70      	pop	{r4, r5, r6, pc}

023fa47a <_ZN5spark6VectorI6StringNS_16DefaultAllocatorEE4moveIS1_Li0EEEvPS1_S5_S5_>:
        if (dest > p && dest < end) {
 23fa47a:	4288      	cmp	r0, r1
    static void move(T* dest, T* p, T* end) {
 23fa47c:	b5f8      	push	{r3, r4, r5, r6, r7, lr}
 23fa47e:	4604      	mov	r4, r0
 23fa480:	460d      	mov	r5, r1
 23fa482:	4616      	mov	r6, r2
        if (dest > p && dest < end) {
 23fa484:	d914      	bls.n	23fa4b0 <_ZN5spark6VectorI6StringNS_16DefaultAllocatorEE4moveIS1_Li0EEEvPS1_S5_S5_+0x36>
 23fa486:	4290      	cmp	r0, r2
 23fa488:	d213      	bcs.n	23fa4b2 <_ZN5spark6VectorI6StringNS_16DefaultAllocatorEE4moveIS1_Li0EEEvPS1_S5_S5_+0x38>
            --end;
 23fa48a:	f1a2 0610 	sub.w	r6, r2, #16
            dest += end - p - 1;
 23fa48e:	1a75      	subs	r5, r6, r1
 23fa490:	f1a1 0710 	sub.w	r7, r1, #16
 23fa494:	442c      	add	r4, r5
            for (; end != p; --end, --dest) {
 23fa496:	42b7      	cmp	r7, r6
 23fa498:	d018      	beq.n	23fa4cc <_ZN5spark6VectorI6StringNS_16DefaultAllocatorEE4moveIS1_Li0EEEvPS1_S5_S5_+0x52>
                new(dest) T(std::move(*end));
 23fa49a:	b11c      	cbz	r4, 23fa4a4 <_ZN5spark6VectorI6StringNS_16DefaultAllocatorEE4moveIS1_Li0EEEvPS1_S5_S5_+0x2a>
 23fa49c:	4631      	mov	r1, r6
 23fa49e:	4620      	mov	r0, r4
 23fa4a0:	f000 f8bd 	bl	23fa61e <_ZN6StringC1EOS_>
                end->~T();
 23fa4a4:	4630      	mov	r0, r6
 23fa4a6:	f000 f83d 	bl	23fa524 <_ZN6StringD1Ev>
            for (; end != p; --end, --dest) {
 23fa4aa:	3e10      	subs	r6, #16
 23fa4ac:	3c10      	subs	r4, #16
 23fa4ae:	e7f2      	b.n	23fa496 <_ZN5spark6VectorI6StringNS_16DefaultAllocatorEE4moveIS1_Li0EEEvPS1_S5_S5_+0x1c>
        } else if (dest != p) {
 23fa4b0:	d00c      	beq.n	23fa4cc <_ZN5spark6VectorI6StringNS_16DefaultAllocatorEE4moveIS1_Li0EEEvPS1_S5_S5_+0x52>
            for (; p != end; ++p, ++dest) {
 23fa4b2:	42b5      	cmp	r5, r6
 23fa4b4:	d00a      	beq.n	23fa4cc <_ZN5spark6VectorI6StringNS_16DefaultAllocatorEE4moveIS1_Li0EEEvPS1_S5_S5_+0x52>
                new(dest) T(std::move(*p));
 23fa4b6:	b11c      	cbz	r4, 23fa4c0 <_ZN5spark6VectorI6StringNS_16DefaultAllocatorEE4moveIS1_Li0EEEvPS1_S5_S5_+0x46>
 23fa4b8:	4629      	mov	r1, r5
 23fa4ba:	4620      	mov	r0, r4
 23fa4bc:	f000 f8af 	bl	23fa61e <_ZN6StringC1EOS_>
                p->~T();
 23fa4c0:	4628      	mov	r0, r5
 23fa4c2:	f000 f82f 	bl	23fa524 <_ZN6StringD1Ev>
            for (; p != end; ++p, ++dest) {
 23fa4c6:	3510      	adds	r5, #16
 23fa4c8:	3410      	adds	r4, #16
 23fa4ca:	e7f2      	b.n	23fa4b2 <_ZN5spark6VectorI6StringNS_16DefaultAllocatorEE4moveIS1_Li0EEEvPS1_S5_S5_+0x38>
    }
 23fa4cc:	bdf8      	pop	{r3, r4, r5, r6, r7, pc}

023fa4ce <_ZN5spark6VectorI6StringNS_16DefaultAllocatorEE7reallocIS1_Li0EEEbi>:
    bool realloc(int n) {
 23fa4ce:	b570      	push	{r4, r5, r6, lr}
        if (n > 0) {
 23fa4d0:	1e0e      	subs	r6, r1, #0
    bool realloc(int n) {
 23fa4d2:	4605      	mov	r5, r0
        if (n > 0) {
 23fa4d4:	dd11      	ble.n	23fa4fa <_ZN5spark6VectorI6StringNS_16DefaultAllocatorEE7reallocIS1_Li0EEEbi+0x2c>
    return ::malloc(size);
 23fa4d6:	0130      	lsls	r0, r6, #4
 23fa4d8:	f7ff fe0c 	bl	23fa0f4 <malloc>
            if (!d) {
 23fa4dc:	4604      	mov	r4, r0
 23fa4de:	b158      	cbz	r0, 23fa4f8 <_ZN5spark6VectorI6StringNS_16DefaultAllocatorEE7reallocIS1_Li0EEEbi+0x2a>
            move(d, data_, data_ + size_);
 23fa4e0:	e9d5 1200 	ldrd	r1, r2, [r5]
 23fa4e4:	eb01 1202 	add.w	r2, r1, r2, lsl #4
 23fa4e8:	f7ff ffc7 	bl	23fa47a <_ZN5spark6VectorI6StringNS_16DefaultAllocatorEE4moveIS1_Li0EEEvPS1_S5_S5_>
    ::free(ptr);
 23fa4ec:	6828      	ldr	r0, [r5, #0]
 23fa4ee:	f7ff fe0f 	bl	23fa110 <free>
        return true;
 23fa4f2:	2001      	movs	r0, #1
        data_ = d;
 23fa4f4:	602c      	str	r4, [r5, #0]
        capacity_ = n;
 23fa4f6:	60ae      	str	r6, [r5, #8]
    }
 23fa4f8:	bd70      	pop	{r4, r5, r6, pc}
        T* d = nullptr;
 23fa4fa:	2400      	movs	r4, #0
 23fa4fc:	e7f6      	b.n	23fa4ec <_ZN5spark6VectorI6StringNS_16DefaultAllocatorEE7reallocIS1_Li0EEEbi+0x1e>
	...

023fa500 <_GLOBAL__sub_I_System>:
} // namespace particle

// particle::Flag<TagT, ValueT>
template<typename TagT, typename ValueT>
inline particle::Flag<TagT, ValueT>::Flag(ValueT val) :
        val_(val) {
 23fa500:	2202      	movs	r2, #2
 23fa502:	2000      	movs	r0, #0
 23fa504:	4b04      	ldr	r3, [pc, #16]	; (23fa518 <_GLOBAL__sub_I_System+0x18>)
 23fa506:	601a      	str	r2, [r3, #0]
 23fa508:	4b04      	ldr	r3, [pc, #16]	; (23fa51c <_GLOBAL__sub_I_System+0x1c>)
    SleepResult() {}
 23fa50a:	4a05      	ldr	r2, [pc, #20]	; (23fa520 <_GLOBAL__sub_I_System+0x20>)
              error_(SYSTEM_ERROR_NONE) {
 23fa50c:	e9c3 0000 	strd	r0, r0, [r3]
    SleepResult() {}
 23fa510:	609a      	str	r2, [r3, #8]

class SystemClass {
public:

    SystemClass(System_Mode_TypeDef mode = DEFAULT) {
        set_system_mode(mode);
 23fa512:	f7ff bc05 	b.w	23f9d20 <set_system_mode>
 23fa516:	bf00      	nop
 23fa518:	1007aea0 	.word	0x1007aea0
 23fa51c:	1007ae94 	.word	0x1007ae94
 23fa520:	ffff0000 	.word	0xffff0000

023fa524 <_ZN6StringD1Ev>:
    init();
    char buf[33] = {};
    dtoa(value, decimalPlaces, buf);
  *this = buf;
}
String::~String()
 23fa524:	b510      	push	{r4, lr}
 23fa526:	4604      	mov	r4, r0
{
    free(buffer);
 23fa528:	6800      	ldr	r0, [r0, #0]
 23fa52a:	f7ff fdf1 	bl	23fa110 <free>
}
 23fa52e:	4620      	mov	r0, r4
 23fa530:	bd10      	pop	{r4, pc}

023fa532 <_ZN6String10invalidateEv>:
    len = 0;
    flags = 0;
}

void String::invalidate(void)
{
 23fa532:	b510      	push	{r4, lr}
 23fa534:	4604      	mov	r4, r0
    if (buffer) {
 23fa536:	6800      	ldr	r0, [r0, #0]
 23fa538:	b108      	cbz	r0, 23fa53e <_ZN6String10invalidateEv+0xc>
        free(buffer);
 23fa53a:	f7ff fde9 	bl	23fa110 <free>
    }
    buffer = nullptr;
 23fa53e:	2300      	movs	r3, #0
    capacity_ = len = 0;
 23fa540:	e9c4 3301 	strd	r3, r3, [r4, #4]
    buffer = nullptr;
 23fa544:	6023      	str	r3, [r4, #0]
}
 23fa546:	bd10      	pop	{r4, pc}

023fa548 <_ZN6String12changeBufferEj>:
    len = size;
    return true;
}

unsigned char String::changeBuffer(unsigned int maxStrLen)
{
 23fa548:	b538      	push	{r3, r4, r5, lr}
 23fa54a:	4604      	mov	r4, r0
 23fa54c:	460d      	mov	r5, r1
    char *newbuffer = (char *)realloc(buffer, maxStrLen + 1);
 23fa54e:	6800      	ldr	r0, [r0, #0]
 23fa550:	3101      	adds	r1, #1
 23fa552:	f7ff fdeb 	bl	23fa12c <realloc>
    if (newbuffer) {
 23fa556:	b110      	cbz	r0, 23fa55e <_ZN6String12changeBufferEj+0x16>
        buffer = newbuffer;
        capacity_ = maxStrLen;
 23fa558:	e9c4 0500 	strd	r0, r5, [r4]
        return 1;
 23fa55c:	2001      	movs	r0, #1
    }
    return 0;
}
 23fa55e:	bd38      	pop	{r3, r4, r5, pc}

023fa560 <_ZN6String7reserveEj>:
{
 23fa560:	b510      	push	{r4, lr}
    if (buffer && capacity_ >= size) {
 23fa562:	6803      	ldr	r3, [r0, #0]
{
 23fa564:	4604      	mov	r4, r0
    if (buffer && capacity_ >= size) {
 23fa566:	b123      	cbz	r3, 23fa572 <_ZN6String7reserveEj+0x12>
 23fa568:	6843      	ldr	r3, [r0, #4]
 23fa56a:	428b      	cmp	r3, r1
 23fa56c:	d301      	bcc.n	23fa572 <_ZN6String7reserveEj+0x12>
 23fa56e:	2001      	movs	r0, #1
}
 23fa570:	bd10      	pop	{r4, pc}
    if (changeBuffer(size)) {
 23fa572:	4620      	mov	r0, r4
 23fa574:	f7ff ffe8 	bl	23fa548 <_ZN6String12changeBufferEj>
 23fa578:	2800      	cmp	r0, #0
 23fa57a:	d0f9      	beq.n	23fa570 <_ZN6String7reserveEj+0x10>
        if (len == 0) {
 23fa57c:	68a3      	ldr	r3, [r4, #8]
 23fa57e:	2b00      	cmp	r3, #0
 23fa580:	d1f5      	bne.n	23fa56e <_ZN6String7reserveEj+0xe>
            buffer[0] = 0;
 23fa582:	6822      	ldr	r2, [r4, #0]
 23fa584:	7013      	strb	r3, [r2, #0]
 23fa586:	e7f2      	b.n	23fa56e <_ZN6String7reserveEj+0xe>

023fa588 <_ZN6String4copyEPKcj>:
/*********************************************/
/*  Copy and Move                            */
/*********************************************/

String & String::copy(const char *cstr, unsigned int length)
{
 23fa588:	b537      	push	{r0, r1, r2, r4, r5, lr}
 23fa58a:	460d      	mov	r5, r1
    if (!reserve(length)) {
 23fa58c:	4611      	mov	r1, r2
 23fa58e:	9201      	str	r2, [sp, #4]
{
 23fa590:	4604      	mov	r4, r0
    if (!reserve(length)) {
 23fa592:	f7ff ffe5 	bl	23fa560 <_ZN6String7reserveEj>
 23fa596:	9a01      	ldr	r2, [sp, #4]
 23fa598:	b928      	cbnz	r0, 23fa5a6 <_ZN6String4copyEPKcj+0x1e>
        invalidate();
 23fa59a:	4620      	mov	r0, r4
 23fa59c:	f7ff ffc9 	bl	23fa532 <_ZN6String10invalidateEv>
    }
    len = length;
    memcpy(buffer, cstr, length);
    buffer[len] = 0;
    return *this;
}
 23fa5a0:	4620      	mov	r0, r4
 23fa5a2:	b003      	add	sp, #12
 23fa5a4:	bd30      	pop	{r4, r5, pc}
    memcpy(buffer, cstr, length);
 23fa5a6:	4629      	mov	r1, r5
    len = length;
 23fa5a8:	60a2      	str	r2, [r4, #8]
    memcpy(buffer, cstr, length);
 23fa5aa:	6820      	ldr	r0, [r4, #0]
 23fa5ac:	f002 fcea 	bl	23fcf84 <memcpy>
    buffer[len] = 0;
 23fa5b0:	2100      	movs	r1, #0
 23fa5b2:	6822      	ldr	r2, [r4, #0]
 23fa5b4:	68a3      	ldr	r3, [r4, #8]
 23fa5b6:	54d1      	strb	r1, [r2, r3]
    return *this;
 23fa5b8:	e7f2      	b.n	23fa5a0 <_ZN6String4copyEPKcj+0x18>

023fa5ba <_ZN6StringC1EPK19__FlashStringHelper>:
    buffer = nullptr;
 23fa5ba:	2300      	movs	r3, #0
String::String(const __FlashStringHelper *pstr)
 23fa5bc:	b513      	push	{r0, r1, r4, lr}
 23fa5be:	4604      	mov	r4, r0
    capacity_ = 0;
 23fa5c0:	e9c0 3300 	strd	r3, r3, [r0]
    len = 0;
 23fa5c4:	6083      	str	r3, [r0, #8]
    flags = 0;
 23fa5c6:	7303      	strb	r3, [r0, #12]
    if (cstr) {
 23fa5c8:	b141      	cbz	r1, 23fa5dc <_ZN6StringC1EPK19__FlashStringHelper+0x22>
        copy(cstr, strlen(cstr));
 23fa5ca:	4608      	mov	r0, r1
 23fa5cc:	9101      	str	r1, [sp, #4]
 23fa5ce:	f7fc f965 	bl	23f689c <strlen>
 23fa5d2:	9901      	ldr	r1, [sp, #4]
 23fa5d4:	4602      	mov	r2, r0
 23fa5d6:	4620      	mov	r0, r4
 23fa5d8:	f7ff ffd6 	bl	23fa588 <_ZN6String4copyEPKcj>
}
 23fa5dc:	4620      	mov	r0, r4
 23fa5de:	b002      	add	sp, #8
 23fa5e0:	bd10      	pop	{r4, pc}

023fa5e2 <_ZN6String4moveERS_>:
    return copy(reinterpret_cast<const char*>(pstr), length);
}

#ifdef __GXX_EXPERIMENTAL_CXX0X__
void String::move(String &rhs)
{
 23fa5e2:	b538      	push	{r3, r4, r5, lr}
 23fa5e4:	4605      	mov	r5, r0
    if (buffer) {
 23fa5e6:	6800      	ldr	r0, [r0, #0]
{
 23fa5e8:	460c      	mov	r4, r1
    if (buffer) {
 23fa5ea:	b170      	cbz	r0, 23fa60a <_ZN6String4moveERS_+0x28>
        if (capacity_ >= rhs.len && rhs.buffer) {
 23fa5ec:	686a      	ldr	r2, [r5, #4]
 23fa5ee:	688b      	ldr	r3, [r1, #8]
 23fa5f0:	429a      	cmp	r2, r3
 23fa5f2:	d308      	bcc.n	23fa606 <_ZN6String4moveERS_+0x24>
 23fa5f4:	6809      	ldr	r1, [r1, #0]
 23fa5f6:	b131      	cbz	r1, 23fa606 <_ZN6String4moveERS_+0x24>
            strcpy(buffer, rhs.buffer);
 23fa5f8:	f002 fd39 	bl	23fd06e <strcpy>
            len = rhs.len;
 23fa5fc:	68a3      	ldr	r3, [r4, #8]
 23fa5fe:	60ab      	str	r3, [r5, #8]
            rhs.len = 0;
 23fa600:	2300      	movs	r3, #0
    buffer = rhs.buffer;
    capacity_ = rhs.capacity_;
    len = rhs.len;
    rhs.buffer = nullptr;
    rhs.capacity_ = 0;
    rhs.len = 0;
 23fa602:	60a3      	str	r3, [r4, #8]
}
 23fa604:	bd38      	pop	{r3, r4, r5, pc}
            free(buffer);
 23fa606:	f7ff fd83 	bl	23fa110 <free>
    buffer = rhs.buffer;
 23fa60a:	6823      	ldr	r3, [r4, #0]
 23fa60c:	602b      	str	r3, [r5, #0]
    capacity_ = rhs.capacity_;
 23fa60e:	6863      	ldr	r3, [r4, #4]
 23fa610:	606b      	str	r3, [r5, #4]
    len = rhs.len;
 23fa612:	68a3      	ldr	r3, [r4, #8]
 23fa614:	60ab      	str	r3, [r5, #8]
    rhs.buffer = nullptr;
 23fa616:	2300      	movs	r3, #0
    rhs.capacity_ = 0;
 23fa618:	e9c4 3300 	strd	r3, r3, [r4]
 23fa61c:	e7f1      	b.n	23fa602 <_ZN6String4moveERS_+0x20>

023fa61e <_ZN6StringC1EOS_>:
    buffer = nullptr;
 23fa61e:	2300      	movs	r3, #0
String::String(String &&rval)
 23fa620:	b510      	push	{r4, lr}
 23fa622:	4604      	mov	r4, r0
    capacity_ = 0;
 23fa624:	e9c0 3300 	strd	r3, r3, [r0]
    len = 0;
 23fa628:	6083      	str	r3, [r0, #8]
    flags = 0;
 23fa62a:	7303      	strb	r3, [r0, #12]
    move(rval);
 23fa62c:	f7ff ffd9 	bl	23fa5e2 <_ZN6String4moveERS_>
}
 23fa630:	4620      	mov	r0, r4
 23fa632:	bd10      	pop	{r4, pc}

023fa634 <_ZN6StringaSERKS_>:
#endif

String & String::operator = (const String &rhs)
{
    if (this == &rhs) {
 23fa634:	4288      	cmp	r0, r1
{
 23fa636:	b510      	push	{r4, lr}
 23fa638:	4604      	mov	r4, r0
    if (this == &rhs) {
 23fa63a:	d005      	beq.n	23fa648 <_ZN6StringaSERKS_+0x14>
        return *this;
    }

    if (rhs.buffer) {
 23fa63c:	680b      	ldr	r3, [r1, #0]
 23fa63e:	b12b      	cbz	r3, 23fa64c <_ZN6StringaSERKS_+0x18>
        copy(rhs.buffer, rhs.len);
 23fa640:	688a      	ldr	r2, [r1, #8]
 23fa642:	4619      	mov	r1, r3
 23fa644:	f7ff ffa0 	bl	23fa588 <_ZN6String4copyEPKcj>
    else {
        invalidate();
    }

    return *this;
}
 23fa648:	4620      	mov	r0, r4
 23fa64a:	bd10      	pop	{r4, pc}
        invalidate();
 23fa64c:	f7ff ff71 	bl	23fa532 <_ZN6String10invalidateEv>
 23fa650:	e7fa      	b.n	23fa648 <_ZN6StringaSERKS_+0x14>

023fa652 <_ZN6StringC1ERKS_>:
    buffer = nullptr;
 23fa652:	2300      	movs	r3, #0
String::String(const String &value)
 23fa654:	b510      	push	{r4, lr}
 23fa656:	4604      	mov	r4, r0
    capacity_ = 0;
 23fa658:	e9c0 3300 	strd	r3, r3, [r0]
    len = 0;
 23fa65c:	6083      	str	r3, [r0, #8]
    flags = 0;
 23fa65e:	7303      	strb	r3, [r0, #12]
    *this = value;
 23fa660:	f7ff ffe8 	bl	23fa634 <_ZN6StringaSERKS_>
}
 23fa664:	4620      	mov	r0, r4
 23fa666:	bd10      	pop	{r4, pc}

023fa668 <_ZNK6String6equalsEPKc>:
{
    return (len == s2.len && compareTo(s2) == 0);
}

unsigned char String::equals(const char *cstr) const
{
 23fa668:	b508      	push	{r3, lr}
    if (len == 0) {
 23fa66a:	6882      	ldr	r2, [r0, #8]
 23fa66c:	b93a      	cbnz	r2, 23fa67e <_ZNK6String6equalsEPKc+0x16>
        return (cstr == nullptr || *cstr == 0);
 23fa66e:	b121      	cbz	r1, 23fa67a <_ZNK6String6equalsEPKc+0x12>
 23fa670:	7808      	ldrb	r0, [r1, #0]
    }
    if (cstr == nullptr) {
        return buffer[0] == 0;
    }
    return strcmp(buffer, cstr) == 0;
 23fa672:	fab0 f080 	clz	r0, r0
 23fa676:	0940      	lsrs	r0, r0, #5
 23fa678:	e000      	b.n	23fa67c <_ZNK6String6equalsEPKc+0x14>
        return (cstr == nullptr || *cstr == 0);
 23fa67a:	2001      	movs	r0, #1
}
 23fa67c:	bd08      	pop	{r3, pc}
        return buffer[0] == 0;
 23fa67e:	6800      	ldr	r0, [r0, #0]
    if (cstr == nullptr) {
 23fa680:	b909      	cbnz	r1, 23fa686 <_ZNK6String6equalsEPKc+0x1e>
        return buffer[0] == 0;
 23fa682:	7800      	ldrb	r0, [r0, #0]
 23fa684:	e7f5      	b.n	23fa672 <_ZNK6String6equalsEPKc+0xa>
    return strcmp(buffer, cstr) == 0;
 23fa686:	f7fc f8ff 	bl	23f6888 <strcmp>
 23fa68a:	e7f2      	b.n	23fa672 <_ZNK6String6equalsEPKc+0xa>

023fa68c <_ZNK6String7indexOfEcj>:
{
    return indexOf(c, 0);
}

int String::indexOf( char ch, unsigned int fromIndex ) const
{
 23fa68c:	b510      	push	{r4, lr}
    if (fromIndex >= len) {
 23fa68e:	6883      	ldr	r3, [r0, #8]
 23fa690:	4293      	cmp	r3, r2
 23fa692:	d906      	bls.n	23fa6a2 <_ZNK6String7indexOfEcj+0x16>
        return -1;
    }
    const char* temp = strchr(buffer + fromIndex, ch);
 23fa694:	6804      	ldr	r4, [r0, #0]
 23fa696:	18a0      	adds	r0, r4, r2
 23fa698:	f002 fcd2 	bl	23fd040 <strchr>
    if (temp == nullptr) {
 23fa69c:	b108      	cbz	r0, 23fa6a2 <_ZNK6String7indexOfEcj+0x16>
        return -1;
    }
    return temp - buffer;
 23fa69e:	1b00      	subs	r0, r0, r4
}
 23fa6a0:	bd10      	pop	{r4, pc}
        return -1;
 23fa6a2:	f04f 30ff 	mov.w	r0, #4294967295
 23fa6a6:	e7fb      	b.n	23fa6a0 <_ZNK6String7indexOfEcj+0x14>

023fa6a8 <_ZNK6String7indexOfEc>:
    return indexOf(c, 0);
 23fa6a8:	2200      	movs	r2, #0
 23fa6aa:	f7ff bfef 	b.w	23fa68c <_ZNK6String7indexOfEcj>
	...

023fa6b0 <_ZNK6String9substringEjj>:
{
    return substring(left, len);
}

String String::substring(unsigned int left, unsigned int right) const
{
 23fa6b0:	b5f8      	push	{r3, r4, r5, r6, r7, lr}
 23fa6b2:	461d      	mov	r5, r3
    if (left > right) {
 23fa6b4:	429a      	cmp	r2, r3
 23fa6b6:	bf88      	it	hi
 23fa6b8:	4613      	movhi	r3, r2
{
 23fa6ba:	460f      	mov	r7, r1
 23fa6bc:	4614      	mov	r4, r2
    if (left > right) {
 23fa6be:	bf88      	it	hi
 23fa6c0:	462c      	movhi	r4, r5
        unsigned int temp = right;
        right = left;
        left = temp;
    }
    String out;
 23fa6c2:	490b      	ldr	r1, [pc, #44]	; (23fa6f0 <_ZNK6String9substringEjj+0x40>)
    if (left > right) {
 23fa6c4:	bf88      	it	hi
 23fa6c6:	461d      	movhi	r5, r3
{
 23fa6c8:	4606      	mov	r6, r0
    String out;
 23fa6ca:	f7ff ff76 	bl	23fa5ba <_ZN6StringC1EPK19__FlashStringHelper>
    if (left > len) {
 23fa6ce:	68bb      	ldr	r3, [r7, #8]
 23fa6d0:	42a3      	cmp	r3, r4
 23fa6d2:	d30a      	bcc.n	23fa6ea <_ZNK6String9substringEjj+0x3a>
        return out;
    }
    if (right > len) {
        right = len;
    }
    out.copy(&buffer[left], right - left);
 23fa6d4:	6839      	ldr	r1, [r7, #0]
 23fa6d6:	42ab      	cmp	r3, r5
 23fa6d8:	bf94      	ite	ls
 23fa6da:	ebc4 0203 	rsbls	r2, r4, r3
 23fa6de:	ebc4 0205 	rsbhi	r2, r4, r5
 23fa6e2:	4630      	mov	r0, r6
 23fa6e4:	4421      	add	r1, r4
 23fa6e6:	f7ff ff4f 	bl	23fa588 <_ZN6String4copyEPKcj>
    return out;
}
 23fa6ea:	4630      	mov	r0, r6
 23fa6ec:	bdf8      	pop	{r3, r4, r5, r6, r7, pc}
 23fa6ee:	bf00      	nop
 23fa6f0:	023ff992 	.word	0x023ff992

023fa6f4 <_ZNK6String9substringEj>:
{
 23fa6f4:	b510      	push	{r4, lr}
 23fa6f6:	4604      	mov	r4, r0
    return substring(left, len);
 23fa6f8:	688b      	ldr	r3, [r1, #8]
 23fa6fa:	f7ff ffd9 	bl	23fa6b0 <_ZNK6String9substringEjj>
}
 23fa6fe:	4620      	mov	r0, r4
 23fa700:	bd10      	pop	{r4, pc}

023fa702 <_ZN6String11toLowerCaseEv>:
    buffer[len] = 0;
    return *this;
}

String& String::toLowerCase(void)
{
 23fa702:	b538      	push	{r3, r4, r5, lr}
    if (buffer) {
 23fa704:	6804      	ldr	r4, [r0, #0]
{
 23fa706:	4605      	mov	r5, r0
    if (buffer) {
 23fa708:	b13c      	cbz	r4, 23fa71a <_ZN6String11toLowerCaseEv+0x18>
 23fa70a:	3c01      	subs	r4, #1
        for (char *p = buffer; *p; p++) {
 23fa70c:	f814 0f01 	ldrb.w	r0, [r4, #1]!
 23fa710:	b118      	cbz	r0, 23fa71a <_ZN6String11toLowerCaseEv+0x18>
            *p = tolower(*p);
 23fa712:	f003 fbe3 	bl	23fdedc <tolower>
 23fa716:	7020      	strb	r0, [r4, #0]
        for (char *p = buffer; *p; p++) {
 23fa718:	e7f8      	b.n	23fa70c <_ZN6String11toLowerCaseEv+0xa>
        }
    }
    return *this;
}
 23fa71a:	4628      	mov	r0, r5
 23fa71c:	bd38      	pop	{r3, r4, r5, pc}

023fa71e <_ZN6String4trimEv>:
    }
    return *this;
}

String& String::trim(void)
{
 23fa71e:	e92d 41f0 	stmdb	sp!, {r4, r5, r6, r7, r8, lr}
    if (!buffer || len == 0) {
 23fa722:	6806      	ldr	r6, [r0, #0]
{
 23fa724:	4605      	mov	r5, r0
    if (!buffer || len == 0) {
 23fa726:	b306      	cbz	r6, 23fa76a <_ZN6String4trimEv+0x4c>
 23fa728:	6884      	ldr	r4, [r0, #8]
 23fa72a:	b1f4      	cbz	r4, 23fa76a <_ZN6String4trimEv+0x4c>
 23fa72c:	46b0      	mov	r8, r6
 23fa72e:	4647      	mov	r7, r8
        return *this;
    }
    char *begin = buffer;
    while (isspace(*begin)) {
 23fa730:	f818 0b01 	ldrb.w	r0, [r8], #1
 23fa734:	f002 fc1e 	bl	23fcf74 <isspace>
 23fa738:	2800      	cmp	r0, #0
 23fa73a:	d1f8      	bne.n	23fa72e <_ZN6String4trimEv+0x10>
        begin++;
    }
    char *end = buffer + len - 1;
 23fa73c:	3c01      	subs	r4, #1
 23fa73e:	4434      	add	r4, r6
    while (isspace(*end) && end >= begin) {
 23fa740:	7820      	ldrb	r0, [r4, #0]
 23fa742:	f002 fc17 	bl	23fcf74 <isspace>
 23fa746:	b118      	cbz	r0, 23fa750 <_ZN6String4trimEv+0x32>
 23fa748:	42a7      	cmp	r7, r4
 23fa74a:	d801      	bhi.n	23fa750 <_ZN6String4trimEv+0x32>
        end--;
 23fa74c:	3c01      	subs	r4, #1
    while (isspace(*end) && end >= begin) {
 23fa74e:	e7f7      	b.n	23fa740 <_ZN6String4trimEv+0x22>
    }
    len = end + 1 - begin;
 23fa750:	1c62      	adds	r2, r4, #1
 23fa752:	1bd2      	subs	r2, r2, r7
    if (begin > buffer) {
 23fa754:	42be      	cmp	r6, r7
    len = end + 1 - begin;
 23fa756:	60aa      	str	r2, [r5, #8]
    if (begin > buffer) {
 23fa758:	d203      	bcs.n	23fa762 <_ZN6String4trimEv+0x44>
        memcpy(buffer, begin, len);
 23fa75a:	4639      	mov	r1, r7
 23fa75c:	4630      	mov	r0, r6
 23fa75e:	f002 fc11 	bl	23fcf84 <memcpy>
    }
    buffer[len] = 0;
 23fa762:	2100      	movs	r1, #0
 23fa764:	682a      	ldr	r2, [r5, #0]
 23fa766:	68ab      	ldr	r3, [r5, #8]
 23fa768:	54d1      	strb	r1, [r2, r3]
  return *this;
}
 23fa76a:	4628      	mov	r0, r5
 23fa76c:	e8bd 81f0 	ldmia.w	sp!, {r4, r5, r6, r7, r8, pc}

023fa770 <_ZNSt16_Sp_counted_baseILN9__gnu_cxx12_Lock_policyE0EE10_M_releaseEv>:
    {
 23fa770:	b510      	push	{r4, lr}
      if (--_M_use_count == 0)
 23fa772:	6843      	ldr	r3, [r0, #4]
    {
 23fa774:	4604      	mov	r4, r0
      if (--_M_use_count == 0)
 23fa776:	3b01      	subs	r3, #1
 23fa778:	6043      	str	r3, [r0, #4]
 23fa77a:	b963      	cbnz	r3, 23fa796 <_ZNSt16_Sp_counted_baseILN9__gnu_cxx12_Lock_policyE0EE10_M_releaseEv+0x26>
          _M_dispose();
 23fa77c:	6803      	ldr	r3, [r0, #0]
 23fa77e:	689b      	ldr	r3, [r3, #8]
 23fa780:	4798      	blx	r3
          if (--_M_weak_count == 0)
 23fa782:	68a3      	ldr	r3, [r4, #8]
 23fa784:	3b01      	subs	r3, #1
 23fa786:	60a3      	str	r3, [r4, #8]
 23fa788:	b92b      	cbnz	r3, 23fa796 <_ZNSt16_Sp_counted_baseILN9__gnu_cxx12_Lock_policyE0EE10_M_releaseEv+0x26>
            _M_destroy();
 23fa78a:	6823      	ldr	r3, [r4, #0]
 23fa78c:	4620      	mov	r0, r4
    }
 23fa78e:	e8bd 4010 	ldmia.w	sp!, {r4, lr}
            _M_destroy();
 23fa792:	68db      	ldr	r3, [r3, #12]
 23fa794:	4718      	bx	r3
    }
 23fa796:	bd10      	pop	{r4, pc}

023fa798 <_ZSt4swapISt9_Any_dataENSt9enable_ifIXsrSt6__and_IJSt6__not_ISt15__is_tuple_likeIT_EESt21is_move_constructibleIS5_ESt18is_move_assignableIS5_EEE5valueEvE4typeERS5_SF_>:
    swap(_Tp& __a, _Tp& __b)
 23fa798:	b513      	push	{r0, r1, r4, lr}
      _Tp __tmp = _GLIBCXX_MOVE(__a);
 23fa79a:	466c      	mov	r4, sp
    swap(_Tp& __a, _Tp& __b)
 23fa79c:	460b      	mov	r3, r1
 23fa79e:	4602      	mov	r2, r0
      _Tp __tmp = _GLIBCXX_MOVE(__a);
 23fa7a0:	e9d0 0100 	ldrd	r0, r1, [r0]
 23fa7a4:	e884 0003 	stmia.w	r4, {r0, r1}
      __a = _GLIBCXX_MOVE(__b);
 23fa7a8:	e893 0003 	ldmia.w	r3, {r0, r1}
 23fa7ac:	e882 0003 	stmia.w	r2, {r0, r1}
      __b = _GLIBCXX_MOVE(__tmp);
 23fa7b0:	e894 0003 	ldmia.w	r4, {r0, r1}
 23fa7b4:	e883 0003 	stmia.w	r3, {r0, r1}
    }
 23fa7b8:	b002      	add	sp, #8
 23fa7ba:	bd10      	pop	{r4, pc}

023fa7bc <_GLOBAL__sub_I__ZN8particle3ble13WiringBleLock6mutex_E>:
    /**
     * Creates a shared mutex.
     */
    RecursiveMutex(os_mutex_recursive_t handle) : handle_(handle) {}

    RecursiveMutex() : handle_(nullptr)
 23fa7bc:	2300      	movs	r3, #0
 23fa7be:	4802      	ldr	r0, [pc, #8]	; (23fa7c8 <_GLOBAL__sub_I__ZN8particle3ble13WiringBleLock6mutex_E+0xc>)
 23fa7c0:	6003      	str	r3, [r0, #0]
    {
        os_mutex_recursive_create(&handle_);
 23fa7c2:	f7ff b861 	b.w	23f9888 <os_mutex_recursive_create>
 23fa7c6:	bf00      	nop
 23fa7c8:	1007aea4 	.word	0x1007aea4

023fa7cc <_ZN5spark16JSONStreamWriter5writeEPKcj>:

inline Print* spark::JSONStreamWriter::stream() const {
    return &strm_;
}

inline void spark::JSONStreamWriter::write(const char *data, size_t size) {
 23fa7cc:	b510      	push	{r4, lr}
 23fa7ce:	4604      	mov	r4, r0
    bytesWritten_ += strm_.write((const uint8_t*)data, size);
 23fa7d0:	6880      	ldr	r0, [r0, #8]
 23fa7d2:	6803      	ldr	r3, [r0, #0]
 23fa7d4:	68db      	ldr	r3, [r3, #12]
 23fa7d6:	4798      	blx	r3
 23fa7d8:	68e3      	ldr	r3, [r4, #12]
 23fa7da:	4418      	add	r0, r3
 23fa7dc:	60e0      	str	r0, [r4, #12]
}
 23fa7de:	bd10      	pop	{r4, pc}

023fa7e0 <_ZN5Print5writeEPKhj>:

// Public Methods //////////////////////////////////////////////////////////////

/* default implementation: may be overridden */
size_t Print::write(const uint8_t *buffer, size_t size)
{
 23fa7e0:	b5f8      	push	{r3, r4, r5, r6, r7, lr}
 23fa7e2:	4606      	mov	r6, r0
 23fa7e4:	460d      	mov	r5, r1
  size_t n = 0;
 23fa7e6:	2400      	movs	r4, #0
 23fa7e8:	188f      	adds	r7, r1, r2
  while (size--) {
 23fa7ea:	42bd      	cmp	r5, r7
 23fa7ec:	d00c      	beq.n	23fa808 <_ZN5Print5writeEPKhj+0x28>
     int chunk = write(*buffer++);
 23fa7ee:	6833      	ldr	r3, [r6, #0]
 23fa7f0:	4630      	mov	r0, r6
 23fa7f2:	689b      	ldr	r3, [r3, #8]
 23fa7f4:	f815 1b01 	ldrb.w	r1, [r5], #1
 23fa7f8:	4798      	blx	r3
     if (chunk>=0)
 23fa7fa:	1e03      	subs	r3, r0, #0
 23fa7fc:	db01      	blt.n	23fa802 <_ZN5Print5writeEPKhj+0x22>
         n += chunk;
 23fa7fe:	441c      	add	r4, r3
  while (size--) {
 23fa800:	e7f3      	b.n	23fa7ea <_ZN5Print5writeEPKhj+0xa>
     int chunk = write(*buffer++);
 23fa802:	2c00      	cmp	r4, #0
 23fa804:	bf08      	it	eq
 23fa806:	461c      	moveq	r4, r3
             n = chunk;
         break;
     }
  }
  return n;
}
 23fa808:	4620      	mov	r0, r4
 23fa80a:	bdf8      	pop	{r3, r4, r5, r6, r7, pc}

023fa80c <_ZN5spark16JSONStreamWriterD1Ev>:
class JSONStreamWriter: public JSONWriter {
 23fa80c:	4770      	bx	lr

023fa80e <_ZN5spark16JSONStreamWriterD0Ev>:
 23fa80e:	b510      	push	{r4, lr}
 23fa810:	4604      	mov	r4, r0
 23fa812:	2110      	movs	r1, #16
 23fa814:	f7fc f885 	bl	23f6922 <_ZdlPvj>
 23fa818:	4620      	mov	r0, r4
 23fa81a:	bd10      	pop	{r4, pc}

023fa81c <_ZN5Print5writeEPKc>:

    int getWriteError() const { return write_error; }
    void clearWriteError() { setWriteError(0); }

    virtual size_t write(uint8_t) = 0;
    size_t write(const char *str) {
 23fa81c:	b513      	push	{r0, r1, r4, lr}
 23fa81e:	4604      	mov	r4, r0
      if (str == NULL) return 0;
      return write((const uint8_t *)str, strlen(str));
    }
 23fa820:	4608      	mov	r0, r1
      if (str == NULL) return 0;
 23fa822:	b159      	cbz	r1, 23fa83c <_ZN5Print5writeEPKc+0x20>
      return write((const uint8_t *)str, strlen(str));
 23fa824:	9101      	str	r1, [sp, #4]
 23fa826:	f7fc f839 	bl	23f689c <strlen>
 23fa82a:	4602      	mov	r2, r0
 23fa82c:	4620      	mov	r0, r4
 23fa82e:	6823      	ldr	r3, [r4, #0]
 23fa830:	9901      	ldr	r1, [sp, #4]
 23fa832:	68db      	ldr	r3, [r3, #12]
    }
 23fa834:	b002      	add	sp, #8
 23fa836:	e8bd 4010 	ldmia.w	sp!, {r4, lr}
      return write((const uint8_t *)str, strlen(str));
 23fa83a:	4718      	bx	r3
    }
 23fa83c:	b002      	add	sp, #8
 23fa83e:	bd10      	pop	{r4, pc}

023fa840 <_ZN5Print5printEc>:
  return write(str);
}

size_t Print::print(char c)
{
  return write(c);
 23fa840:	6803      	ldr	r3, [r0, #0]
 23fa842:	689b      	ldr	r3, [r3, #8]
 23fa844:	4718      	bx	r3

023fa846 <_ZN5Print11printNumberEmh>:

size_t Print::printNumber(unsigned long n, uint8_t base) {
  char buf[8 * sizeof(n) + 1]; // Assumes 8-bit chars plus zero byte.
  char *str = &buf[sizeof(buf) - 1];

  *str = '\0';
 23fa846:	2300      	movs	r3, #0

  // prevent crash if called with base == 1
  if (base < 2) base = 10;
 23fa848:	2a01      	cmp	r2, #1
 23fa84a:	bf98      	it	ls
 23fa84c:	220a      	movls	r2, #10
size_t Print::printNumber(unsigned long n, uint8_t base) {
 23fa84e:	b530      	push	{r4, r5, lr}
 23fa850:	b08b      	sub	sp, #44	; 0x2c
  *str = '\0';
 23fa852:	f88d 3024 	strb.w	r3, [sp, #36]	; 0x24
  if (base < 2) base = 10;
 23fa856:	ac09      	add	r4, sp, #36	; 0x24

  do {
   decltype(n) m = n;
   n /= base;
 23fa858:	460d      	mov	r5, r1
 23fa85a:	fbb1 f1f2 	udiv	r1, r1, r2
   char c = m - base * n;
 23fa85e:	fb01 5312 	mls	r3, r1, r2, r5
 23fa862:	f003 03ff 	and.w	r3, r3, #255	; 0xff
   *--str = c < 10 ? c + '0' : c + 'A' - 10;
 23fa866:	2b09      	cmp	r3, #9
 23fa868:	bf94      	ite	ls
 23fa86a:	3330      	addls	r3, #48	; 0x30
 23fa86c:	3337      	addhi	r3, #55	; 0x37
 23fa86e:	b2db      	uxtb	r3, r3
  } while(n);
 23fa870:	42aa      	cmp	r2, r5
   *--str = c < 10 ? c + '0' : c + 'A' - 10;
 23fa872:	f804 3d01 	strb.w	r3, [r4, #-1]!
  } while(n);
 23fa876:	d9ef      	bls.n	23fa858 <_ZN5Print11printNumberEmh+0x12>

  return write(str);
 23fa878:	4621      	mov	r1, r4
 23fa87a:	f7ff ffcf 	bl	23fa81c <_ZN5Print5writeEPKc>
}
 23fa87e:	b00b      	add	sp, #44	; 0x2c
 23fa880:	bd30      	pop	{r4, r5, pc}

023fa882 <_ZN6Stream9timedReadEv>:
#define PARSE_TIMEOUT 1000  // default number of milli-seconds to wait
#define NO_SKIP_CHAR  1  // a magic char not found in a valid ASCII numeric field

// private method to read stream with timeout
int Stream::timedRead()
{
 23fa882:	b510      	push	{r4, lr}
 23fa884:	4604      	mov	r4, r0

#ifdef __cplusplus
extern "C" {
#endif

inline system_tick_t millis(void) { return HAL_Timer_Get_Milli_Seconds(); }
 23fa886:	f7fe fee7 	bl	23f9658 <HAL_Timer_Get_Milli_Seconds>
  int c;
  _startMillis = millis();
 23fa88a:	60e0      	str	r0, [r4, #12]
  do {
    c = read();
 23fa88c:	6823      	ldr	r3, [r4, #0]
 23fa88e:	4620      	mov	r0, r4
 23fa890:	695b      	ldr	r3, [r3, #20]
 23fa892:	4798      	blx	r3
    if (c >= 0) return c;
 23fa894:	2800      	cmp	r0, #0
 23fa896:	da08      	bge.n	23fa8aa <_ZN6Stream9timedReadEv+0x28>
 23fa898:	f7fe fede 	bl	23f9658 <HAL_Timer_Get_Milli_Seconds>
  } while(millis() - _startMillis < _timeout);
 23fa89c:	68e3      	ldr	r3, [r4, #12]
 23fa89e:	1ac0      	subs	r0, r0, r3
 23fa8a0:	68a3      	ldr	r3, [r4, #8]
 23fa8a2:	4298      	cmp	r0, r3
 23fa8a4:	d3f2      	bcc.n	23fa88c <_ZN6Stream9timedReadEv+0xa>
  return -1;     // -1 indicates timeout
 23fa8a6:	f04f 30ff 	mov.w	r0, #4294967295
}
 23fa8aa:	bd10      	pop	{r4, pc}

023fa8ac <_ZN6Stream9readBytesEPcj>:
// terminates if length characters have been read, or timeout (see setTimeout)
// returns the number of characters placed in the buffer
// the buffer is NOT null terminated.
//
size_t Stream::readBytes(char *buffer, size_t length)
{
 23fa8ac:	e92d 41f0 	stmdb	sp!, {r4, r5, r6, r7, r8, lr}
 23fa8b0:	4607      	mov	r7, r0
 23fa8b2:	460c      	mov	r4, r1
 23fa8b4:	460d      	mov	r5, r1
 23fa8b6:	188e      	adds	r6, r1, r2
  size_t count = 0;
  while (count < length) {
 23fa8b8:	42b5      	cmp	r5, r6
 23fa8ba:	eba5 0804 	sub.w	r8, r5, r4
 23fa8be:	d007      	beq.n	23fa8d0 <_ZN6Stream9readBytesEPcj+0x24>
    int c = timedRead();
 23fa8c0:	4638      	mov	r0, r7
 23fa8c2:	f7ff ffde 	bl	23fa882 <_ZN6Stream9timedReadEv>
    if (c < 0) break;
 23fa8c6:	1e03      	subs	r3, r0, #0
 23fa8c8:	db02      	blt.n	23fa8d0 <_ZN6Stream9readBytesEPcj+0x24>
    *buffer++ = (char)c;
 23fa8ca:	f805 3b01 	strb.w	r3, [r5], #1
  while (count < length) {
 23fa8ce:	e7f3      	b.n	23fa8b8 <_ZN6Stream9readBytesEPcj+0xc>
    count++;
  }
  return count;
}
 23fa8d0:	4640      	mov	r0, r8
 23fa8d2:	e8bd 81f0 	ldmia.w	sp!, {r4, r5, r6, r7, r8, pc}

023fa8d6 <_ZN5spark20JSONStreamLogHandler5writeEPKcj>:
}

// spark::JSONStreamLogHandler
inline void spark::JSONStreamLogHandler::write(const char *data, size_t size) {
    // This handler doesn't support direct logging
}
 23fa8d6:	4770      	bx	lr

023fa8d8 <_ZN5spark17LogHandlerFactory14destroyHandlerEPNS_10LogHandlerE>:

#if Wiring_LogConfig

// spark::LogHandlerFactory
inline void spark::LogHandlerFactory::destroyHandler(LogHandler *handler) {
    delete handler;
 23fa8d8:	4608      	mov	r0, r1
 23fa8da:	b111      	cbz	r1, 23fa8e2 <_ZN5spark17LogHandlerFactory14destroyHandlerEPNS_10LogHandlerE+0xa>
 23fa8dc:	680b      	ldr	r3, [r1, #0]
 23fa8de:	685b      	ldr	r3, [r3, #4]
 23fa8e0:	4718      	bx	r3
}
 23fa8e2:	4770      	bx	lr

023fa8e4 <__tcf_0>:
    }
    return nullptr; // Unknown handler type
}

spark::DefaultLogHandlerFactory* spark::DefaultLogHandlerFactory::instance() {
    static DefaultLogHandlerFactory factory;
 23fa8e4:	4770      	bx	lr

023fa8e6 <_ZN5spark26DefaultOutputStreamFactoryD1Ev>:
class DefaultOutputStreamFactory: public OutputStreamFactory {
 23fa8e6:	4770      	bx	lr

023fa8e8 <_ZN5spark24DefaultLogHandlerFactoryD1Ev>:
class DefaultLogHandlerFactory: public LogHandlerFactory {
 23fa8e8:	4770      	bx	lr

023fa8ea <_ZN12_GLOBAL__N_119nextSubcategoryNameERPKcRj>:
const char* nextSubcategoryName(const char* &category, size_t &size) {
 23fa8ea:	b538      	push	{r3, r4, r5, lr}
 23fa8ec:	4604      	mov	r4, r0
 23fa8ee:	460d      	mov	r5, r1
    const char *s = strchrnul(category, '.');
 23fa8f0:	6800      	ldr	r0, [r0, #0]
 23fa8f2:	212e      	movs	r1, #46	; 0x2e
 23fa8f4:	f002 fbb1 	bl	23fd05a <strchrnul>
    size = s - category;
 23fa8f8:	6823      	ldr	r3, [r4, #0]
 23fa8fa:	1ac3      	subs	r3, r0, r3
 23fa8fc:	602b      	str	r3, [r5, #0]
    if (size) {
 23fa8fe:	b123      	cbz	r3, 23fa90a <_ZN12_GLOBAL__N_119nextSubcategoryNameERPKcRj+0x20>
        if (*s) {
 23fa900:	7803      	ldrb	r3, [r0, #0]
 23fa902:	b103      	cbz	r3, 23fa906 <_ZN12_GLOBAL__N_119nextSubcategoryNameERPKcRj+0x1c>
            ++s;
 23fa904:	3001      	adds	r0, #1
      __a = _GLIBCXX_MOVE(__b);
 23fa906:	6823      	ldr	r3, [r4, #0]
      __b = _GLIBCXX_MOVE(__tmp);
 23fa908:	6020      	str	r0, [r4, #0]
}
 23fa90a:	4618      	mov	r0, r3
 23fa90c:	bd38      	pop	{r3, r4, r5, pc}

023fa90e <_ZN5spark24DefaultLogHandlerFactoryD0Ev>:
 23fa90e:	b510      	push	{r4, lr}
 23fa910:	4604      	mov	r4, r0
 23fa912:	2104      	movs	r1, #4
 23fa914:	f7fc f805 	bl	23f6922 <_ZdlPvj>
 23fa918:	4620      	mov	r0, r4
 23fa91a:	bd10      	pop	{r4, pc}

023fa91c <_ZN5spark26DefaultOutputStreamFactoryD0Ev>:
class DefaultOutputStreamFactory: public OutputStreamFactory {
 23fa91c:	b510      	push	{r4, lr}
 23fa91e:	4604      	mov	r4, r0
 23fa920:	2104      	movs	r1, #4
 23fa922:	f7fb fffe 	bl	23f6922 <_ZdlPvj>
 23fa926:	4620      	mov	r0, r4
 23fa928:	bd10      	pop	{r4, pc}

023fa92a <_ZN14RecursiveMutex4lockEv.isra.0>:
            os_mutex_recursive_destroy(handle_);
            handle_ = nullptr;
        }
    }

    void lock() { os_mutex_recursive_lock(handle_); }
 23fa92a:	f7fe bfc9 	b.w	23f98c0 <os_mutex_recursive_lock>

023fa92e <_ZNK5spark10JSONStringeqEPKc.isra.0>:
inline bool spark::JSONString::operator==(const char *str) const {
 23fa92e:	b508      	push	{r3, lr}
    return strcmp(s_, str) == 0;
 23fa930:	f7fb ffaa 	bl	23f6888 <strcmp>
}
 23fa934:	fab0 f080 	clz	r0, r0
 23fa938:	0940      	lsrs	r0, r0, #5
 23fa93a:	bd08      	pop	{r3, pc}

023fa93c <__tcf_1>:
 23fa93c:	4770      	bx	lr

023fa93e <_ZN5spark26DefaultOutputStreamFactory13destroyStreamEP5Print>:
    }
#endif // PLATFORM_ID != PLATFORM_GCC
    return nullptr;
}

void spark::DefaultOutputStreamFactory::destroyStream(Print *stream) {
 23fa93e:	b510      	push	{r4, lr}
 23fa940:	460c      	mov	r4, r1
#if PLATFORM_ID != PLATFORM_GCC
    if (stream == &Serial) {
 23fa942:	f001 fc71 	bl	23fc228 <_Z16_fetch_usbserialv>
 23fa946:	4284      	cmp	r4, r0
 23fa948:	d105      	bne.n	23fa956 <_ZN5spark26DefaultOutputStreamFactory13destroyStreamEP5Print+0x18>
        // FIXME: Uninitializing Serial detaches a Gen 3 device from the host
#if !HAL_PLATFORM_NRF52840
        Serial.end();
 23fa94a:	f001 fc6d 	bl	23fc228 <_Z16_fetch_usbserialv>
        Serial1.end();
        return;
    }
#endif // PLATFORM_ID != PLATFORM_GCC
    OutputStreamFactory::destroyStream(stream);
}
 23fa94e:	e8bd 4010 	ldmia.w	sp!, {r4, lr}
        Serial.end();
 23fa952:	f001 bc5b 	b.w	23fc20c <_ZN9USBSerial3endEv>
    if (stream == &Serial1) {
 23fa956:	f002 f9d9 	bl	23fcd0c <_Z22__fetch_global_Serial1v>
 23fa95a:	4284      	cmp	r4, r0
 23fa95c:	d105      	bne.n	23fa96a <_ZN5spark26DefaultOutputStreamFactory13destroyStreamEP5Print+0x2c>
        Serial1.end();
 23fa95e:	f002 f9d5 	bl	23fcd0c <_Z22__fetch_global_Serial1v>
}
 23fa962:	e8bd 4010 	ldmia.w	sp!, {r4, lr}
        Serial1.end();
 23fa966:	f001 beb4 	b.w	23fc6d2 <_ZN11USARTSerial3endEv>

// spark::OutputStreamFactory
inline void spark::OutputStreamFactory::destroyStream(Print *stream) {
    delete stream;
 23fa96a:	b12c      	cbz	r4, 23fa978 <_ZN5spark26DefaultOutputStreamFactory13destroyStreamEP5Print+0x3a>
 23fa96c:	6823      	ldr	r3, [r4, #0]
 23fa96e:	4620      	mov	r0, r4
}
 23fa970:	e8bd 4010 	ldmia.w	sp!, {r4, lr}
 23fa974:	685b      	ldr	r3, [r3, #4]
 23fa976:	4718      	bx	r3
 23fa978:	bd10      	pop	{r4, pc}

023fa97a <_ZN5spark10JSONWriter5valueEPKc>:
inline spark::JSONWriter& spark::JSONWriter::value(const char *val) {
 23fa97a:	b513      	push	{r0, r1, r4, lr}
 23fa97c:	4604      	mov	r4, r0
    return value(val, strlen(val));
 23fa97e:	4608      	mov	r0, r1
 23fa980:	9101      	str	r1, [sp, #4]
 23fa982:	f7fb ff8b 	bl	23f689c <strlen>
 23fa986:	4602      	mov	r2, r0
 23fa988:	4620      	mov	r0, r4
 23fa98a:	9901      	ldr	r1, [sp, #4]
}
 23fa98c:	b002      	add	sp, #8
 23fa98e:	e8bd 4010 	ldmia.w	sp!, {r4, lr}
    return value(val, strlen(val));
 23fa992:	f001 be35 	b.w	23fc600 <_ZN5spark10JSONWriter5valueEPKcj>

023fa996 <_ZN5spark16StreamLogHandler5writeEPKc>:
inline void spark::StreamLogHandler::write(const char *str) {
 23fa996:	b513      	push	{r0, r1, r4, lr}
 23fa998:	4604      	mov	r4, r0
    write(str, strlen(str));
 23fa99a:	4608      	mov	r0, r1
 23fa99c:	9101      	str	r1, [sp, #4]
 23fa99e:	f7fb ff7d 	bl	23f689c <strlen>
 23fa9a2:	4602      	mov	r2, r0
 23fa9a4:	4620      	mov	r0, r4
 23fa9a6:	6823      	ldr	r3, [r4, #0]
 23fa9a8:	9901      	ldr	r1, [sp, #4]
 23fa9aa:	68db      	ldr	r3, [r3, #12]
}
 23fa9ac:	b002      	add	sp, #8
 23fa9ae:	e8bd 4010 	ldmia.w	sp!, {r4, lr}
    write(str, strlen(str));
 23fa9b2:	4718      	bx	r3

023fa9b4 <_ZN5spark16StreamLogHandler5writeEc>:
inline void spark::StreamLogHandler::write(char c) {
 23fa9b4:	b507      	push	{r0, r1, r2, lr}
    write(&c, 1);
 23fa9b6:	6803      	ldr	r3, [r0, #0]
inline void spark::StreamLogHandler::write(char c) {
 23fa9b8:	f88d 1007 	strb.w	r1, [sp, #7]
    write(&c, 1);
 23fa9bc:	2201      	movs	r2, #1
 23fa9be:	68db      	ldr	r3, [r3, #12]
 23fa9c0:	f10d 0107 	add.w	r1, sp, #7
 23fa9c4:	4798      	blx	r3
}
 23fa9c6:	b003      	add	sp, #12
 23fa9c8:	f85d fb04 	ldr.w	pc, [sp], #4

023fa9cc <_ZN5spark6detail9LogFilter9nodeIndexERKNS_6VectorINS1_4NodeENS_16DefaultAllocatorEEEPKcjRb>:
int spark::detail::LogFilter::nodeIndex(const Vector<Node> &nodes, const char *name, size_t size, bool &found) {
 23fa9cc:	e92d 4ff7 	stmdb	sp!, {r0, r1, r2, r4, r5, r6, r7, r8, r9, sl, fp, lr}
    return data_ + size_;
}

template<typename T, typename AllocatorT>
inline typename spark::Vector<T, AllocatorT>::ConstIterator spark::Vector<T, AllocatorT>::end() const {
    return data_ + size_;
 23fa9d0:	f04f 0a14 	mov.w	sl, #20
 23fa9d4:	e9d0 8400 	ldrd	r8, r4, [r0]
 23fa9d8:	4617      	mov	r7, r2
               random_access_iterator_tag)
    {
      // concept requirements
      __glibcxx_function_requires(_RandomAccessIteratorConcept<
				  _RandomAccessIterator>)
      return __last - __first;
 23fa9da:	4645      	mov	r5, r8
 23fa9dc:	fb0a f404 	mul.w	r4, sl, r4
 23fa9e0:	9300      	str	r3, [sp, #0]
 23fa9e2:	4b17      	ldr	r3, [pc, #92]	; (23faa40 <_ZN5spark6detail9LogFilter9nodeIndexERKNS_6VectorINS1_4NodeENS_16DefaultAllocatorEEEPKcjRb+0x74>)
 23fa9e4:	10a4      	asrs	r4, r4, #2
 23fa9e6:	435c      	muls	r4, r3
      typedef typename iterator_traits<_ForwardIterator>::difference_type
	_DistanceType;

      _DistanceType __len = std::distance(__first, __last);

      while (__len > 0)
 23fa9e8:	2c00      	cmp	r4, #0
 23fa9ea:	dd21      	ble.n	23faa30 <_ZN5spark6detail9LogFilter9nodeIndexERKNS_6VectorINS1_4NodeENS_16DefaultAllocatorEEEPKcjRb+0x64>
	{
	  _DistanceType __half = __len >> 1;
 23fa9ec:	1066      	asrs	r6, r4, #1
      if (__builtin_constant_p(__n) && __n == 1)
	++__i;
      else if (__builtin_constant_p(__n) && __n == -1)
	--__i;
      else
	__i += __n;
 23fa9ee:	fb0a f006 	mul.w	r0, sl, r6
 23fa9f2:	eb05 0900 	add.w	r9, r5, r0
                const int cmp = strncmp(node.name, value.first, std::min<size_t>(node.size, value.second));
 23fa9f6:	f8b9 b004 	ldrh.w	fp, [r9, #4]
 23fa9fa:	463a      	mov	r2, r7
 23fa9fc:	455f      	cmp	r7, fp
 23fa9fe:	bf28      	it	cs
 23faa00:	465a      	movcs	r2, fp
 23faa02:	5828      	ldr	r0, [r5, r0]
 23faa04:	9101      	str	r1, [sp, #4]
 23faa06:	f002 fb58 	bl	23fd0ba <strncmp>
                if (cmp == 0) {
 23faa0a:	2800      	cmp	r0, #0
 23faa0c:	f04f 0301 	mov.w	r3, #1
 23faa10:	9901      	ldr	r1, [sp, #4]
 23faa12:	d10b      	bne.n	23faa2c <_ZN5spark6detail9LogFilter9nodeIndexERKNS_6VectorINS1_4NodeENS_16DefaultAllocatorEEEPKcjRb+0x60>
                    if (node.size == value.second) { // Lengths are equal
 23faa14:	455f      	cmp	r7, fp
 23faa16:	d103      	bne.n	23faa20 <_ZN5spark6detail9LogFilter9nodeIndexERKNS_6VectorINS1_4NodeENS_16DefaultAllocatorEEEPKcjRb+0x54>
                        found = true; // Allows caller code to avoid extra call to strncmp()
 23faa18:	9a00      	ldr	r2, [sp, #0]
 23faa1a:	7013      	strb	r3, [r2, #0]
int spark::detail::LogFilter::nodeIndex(const Vector<Node> &nodes, const char *name, size_t size, bool &found) {
 23faa1c:	4634      	mov	r4, r6
 23faa1e:	e7e3      	b.n	23fa9e8 <_ZN5spark6detail9LogFilter9nodeIndexERKNS_6VectorINS1_4NodeENS_16DefaultAllocatorEEEPKcjRb+0x1c>
	  _ForwardIterator __middle = __first;
	  std::advance(__middle, __half);
	  if (__comp(__middle, __val))
 23faa20:	d9fc      	bls.n	23faa1c <_ZN5spark6detail9LogFilter9nodeIndexERKNS_6VectorINS1_4NodeENS_16DefaultAllocatorEEEPKcjRb+0x50>
	    {
	      __first = __middle;
	      ++__first;
	      __len = __len - __half - 1;
 23faa22:	1ba6      	subs	r6, r4, r6
	      ++__first;
 23faa24:	f109 0514 	add.w	r5, r9, #20
	      __len = __len - __half - 1;
 23faa28:	3e01      	subs	r6, #1
 23faa2a:	e7f7      	b.n	23faa1c <_ZN5spark6detail9LogFilter9nodeIndexERKNS_6VectorINS1_4NodeENS_16DefaultAllocatorEEEPKcjRb+0x50>
	  if (__comp(__middle, __val))
 23faa2c:	dbf9      	blt.n	23faa22 <_ZN5spark6detail9LogFilter9nodeIndexERKNS_6VectorINS1_4NodeENS_16DefaultAllocatorEEEPKcjRb+0x56>
 23faa2e:	e7f5      	b.n	23faa1c <_ZN5spark6detail9LogFilter9nodeIndexERKNS_6VectorINS1_4NodeENS_16DefaultAllocatorEEEPKcjRb+0x50>
      return __last - __first;
 23faa30:	eba5 0508 	sub.w	r5, r5, r8
}
 23faa34:	4802      	ldr	r0, [pc, #8]	; (23faa40 <_ZN5spark6detail9LogFilter9nodeIndexERKNS_6VectorINS1_4NodeENS_16DefaultAllocatorEEEPKcjRb+0x74>)
 23faa36:	10ad      	asrs	r5, r5, #2
 23faa38:	4368      	muls	r0, r5
 23faa3a:	b003      	add	sp, #12
 23faa3c:	e8bd 8ff0 	ldmia.w	sp!, {r4, r5, r6, r7, r8, r9, sl, fp, pc}
 23faa40:	cccccccd 	.word	0xcccccccd

023faa44 <_ZNK5spark6detail9LogFilter5levelEPKc>:
LogLevel spark::detail::LogFilter::level(const char *category) const {
 23faa44:	b57f      	push	{r0, r1, r2, r3, r4, r5, r6, lr}
    if (!nodes_.isEmpty() && category) {
 23faa46:	6903      	ldr	r3, [r0, #16]
    LogLevel level = level_; // Default level
 23faa48:	7e05      	ldrb	r5, [r0, #24]
LogLevel spark::detail::LogFilter::level(const char *category) const {
 23faa4a:	9101      	str	r1, [sp, #4]
    if (!nodes_.isEmpty() && category) {
 23faa4c:	b303      	cbz	r3, 23faa90 <_ZNK5spark6detail9LogFilter5levelEPKc+0x4c>
 23faa4e:	b1f9      	cbz	r1, 23faa90 <_ZNK5spark6detail9LogFilter5levelEPKc+0x4c>
        size_t size = 0; // Name length
 23faa50:	2600      	movs	r6, #0
        const Vector<Node> *pNodes = &nodes_; // Root nodes
 23faa52:	f100 040c 	add.w	r4, r0, #12
        size_t size = 0; // Name length
 23faa56:	9603      	str	r6, [sp, #12]
        while ((name = nextSubcategoryName(category, size))) {
 23faa58:	a903      	add	r1, sp, #12
 23faa5a:	a801      	add	r0, sp, #4
 23faa5c:	f7ff ff45 	bl	23fa8ea <_ZN12_GLOBAL__N_119nextSubcategoryNameERPKcRj>
 23faa60:	4601      	mov	r1, r0
 23faa62:	b1a8      	cbz	r0, 23faa90 <_ZNK5spark6detail9LogFilter5levelEPKc+0x4c>
            const int index = nodeIndex(*pNodes, name, size, found);
 23faa64:	f10d 030b 	add.w	r3, sp, #11
 23faa68:	4620      	mov	r0, r4
 23faa6a:	9a03      	ldr	r2, [sp, #12]
            bool found = false;
 23faa6c:	f88d 600b 	strb.w	r6, [sp, #11]
            const int index = nodeIndex(*pNodes, name, size, found);
 23faa70:	f7ff ffac 	bl	23fa9cc <_ZN5spark6detail9LogFilter9nodeIndexERKNS_6VectorINS1_4NodeENS_16DefaultAllocatorEEEPKcjRb>
            if (!found) {
 23faa74:	f89d 300b 	ldrb.w	r3, [sp, #11]
 23faa78:	b153      	cbz	r3, 23faa90 <_ZNK5spark6detail9LogFilter5levelEPKc+0x4c>
    return data_[i];
 23faa7a:	6823      	ldr	r3, [r4, #0]
 23faa7c:	2414      	movs	r4, #20
 23faa7e:	fb04 3400 	mla	r4, r4, r0, r3
            if (node.level >= 0) {
 23faa82:	f9b4 3006 	ldrsh.w	r3, [r4, #6]
            pNodes = &node.nodes;
 23faa86:	3408      	adds	r4, #8
            if (node.level >= 0) {
 23faa88:	2b00      	cmp	r3, #0
                level = (LogLevel)node.level;
 23faa8a:	bfa8      	it	ge
 23faa8c:	b2dd      	uxtbge	r5, r3
        while ((name = nextSubcategoryName(category, size))) {
 23faa8e:	e7e3      	b.n	23faa58 <_ZNK5spark6detail9LogFilter5levelEPKc+0x14>
}
 23faa90:	4628      	mov	r0, r5
 23faa92:	b004      	add	sp, #16
 23faa94:	bd70      	pop	{r4, r5, r6, pc}

023faa96 <_ZN5spark16StreamLogHandler6printfEPKcz>:
void spark::StreamLogHandler::printf(const char *fmt, ...) {
 23faa96:	b40e      	push	{r1, r2, r3}
 23faa98:	b5f0      	push	{r4, r5, r6, r7, lr}
 23faa9a:	b08c      	sub	sp, #48	; 0x30
 23faa9c:	af00      	add	r7, sp, #0
 23faa9e:	f107 0544 	add.w	r5, r7, #68	; 0x44
 23faaa2:	f855 2b04 	ldr.w	r2, [r5], #4
 23faaa6:	4604      	mov	r4, r0
    int n = vsnprintf(buf, sizeof(buf), fmt, args);
 23faaa8:	462b      	mov	r3, r5
 23faaaa:	2120      	movs	r1, #32
 23faaac:	f107 0010 	add.w	r0, r7, #16
 23faab0:	607a      	str	r2, [r7, #4]
    va_start(args, fmt);
 23faab2:	60fd      	str	r5, [r7, #12]
    int n = vsnprintf(buf, sizeof(buf), fmt, args);
 23faab4:	f7ff fb56 	bl	23fa164 <vsnprintf>
    if ((size_t)n >= sizeof(buf)) {
 23faab8:	281f      	cmp	r0, #31
 23faaba:	687a      	ldr	r2, [r7, #4]
 23faabc:	d91a      	bls.n	23faaf4 <_ZN5spark16StreamLogHandler6printfEPKcz+0x5e>
        char buf[n + 1]; // Use a larger buffer
 23faabe:	f100 0308 	add.w	r3, r0, #8
 23faac2:	f023 0307 	bic.w	r3, r3, #7
        }
 23faac6:	466e      	mov	r6, sp
        char buf[n + 1]; // Use a larger buffer
 23faac8:	ebad 0d03 	sub.w	sp, sp, r3
        n = vsnprintf(buf, sizeof(buf), fmt, args);
 23faacc:	1c41      	adds	r1, r0, #1
 23faace:	462b      	mov	r3, r5
 23faad0:	4668      	mov	r0, sp
        va_start(args, fmt);
 23faad2:	60fd      	str	r5, [r7, #12]
        n = vsnprintf(buf, sizeof(buf), fmt, args);
 23faad4:	f7ff fb46 	bl	23fa164 <vsnprintf>
        if (n > 0) {
 23faad8:	1e02      	subs	r2, r0, #0
 23faada:	dd04      	ble.n	23faae6 <_ZN5spark16StreamLogHandler6printfEPKcz+0x50>
            write(buf, n);
 23faadc:	6823      	ldr	r3, [r4, #0]
 23faade:	4669      	mov	r1, sp
 23faae0:	4620      	mov	r0, r4
 23faae2:	68db      	ldr	r3, [r3, #12]
 23faae4:	4798      	blx	r3
 23faae6:	46b5      	mov	sp, r6
}
 23faae8:	3730      	adds	r7, #48	; 0x30
 23faaea:	46bd      	mov	sp, r7
 23faaec:	e8bd 40f0 	ldmia.w	sp!, {r4, r5, r6, r7, lr}
 23faaf0:	b003      	add	sp, #12
 23faaf2:	4770      	bx	lr
    } else if (n > 0) {
 23faaf4:	2800      	cmp	r0, #0
 23faaf6:	d0f7      	beq.n	23faae8 <_ZN5spark16StreamLogHandler6printfEPKcz+0x52>
        write(buf, n);
 23faaf8:	6823      	ldr	r3, [r4, #0]
 23faafa:	4602      	mov	r2, r0
 23faafc:	68db      	ldr	r3, [r3, #12]
 23faafe:	4620      	mov	r0, r4
 23fab00:	f107 0110 	add.w	r1, r7, #16
 23fab04:	4798      	blx	r3
}
 23fab06:	e7ef      	b.n	23faae8 <_ZN5spark16StreamLogHandler6printfEPKcz+0x52>

023fab08 <_ZN5spark24DefaultLogHandlerFactory8instanceEv>:
spark::DefaultLogHandlerFactory* spark::DefaultLogHandlerFactory::instance() {
 23fab08:	b510      	push	{r4, lr}
    static DefaultLogHandlerFactory factory;
 23fab0a:	4c08      	ldr	r4, [pc, #32]	; (23fab2c <_ZN5spark24DefaultLogHandlerFactory8instanceEv+0x24>)
 23fab0c:	e8d4 3f8f 	ldab	r3, [r4]
 23fab10:	07db      	lsls	r3, r3, #31
 23fab12:	d409      	bmi.n	23fab28 <_ZN5spark24DefaultLogHandlerFactory8instanceEv+0x20>
 23fab14:	4620      	mov	r0, r4
 23fab16:	f7ff fb87 	bl	23fa228 <__cxa_guard_acquire>
 23fab1a:	b128      	cbz	r0, 23fab28 <_ZN5spark24DefaultLogHandlerFactory8instanceEv+0x20>
 23fab1c:	4620      	mov	r0, r4
 23fab1e:	f7ff fb91 	bl	23fa244 <__cxa_guard_release>
 23fab22:	4803      	ldr	r0, [pc, #12]	; (23fab30 <_ZN5spark24DefaultLogHandlerFactory8instanceEv+0x28>)
 23fab24:	f002 fa0c 	bl	23fcf40 <atexit>
}
 23fab28:	4802      	ldr	r0, [pc, #8]	; (23fab34 <_ZN5spark24DefaultLogHandlerFactory8instanceEv+0x2c>)
 23fab2a:	bd10      	pop	{r4, pc}
 23fab2c:	1007aeac 	.word	0x1007aeac
 23fab30:	023fa8e5 	.word	0x023fa8e5
 23fab34:	10072d2c 	.word	0x10072d2c

023fab38 <_ZN5spark26DefaultOutputStreamFactory8instanceEv>:

spark::DefaultOutputStreamFactory* spark::DefaultOutputStreamFactory::instance() {
 23fab38:	b510      	push	{r4, lr}
    static DefaultOutputStreamFactory factory;
 23fab3a:	4c08      	ldr	r4, [pc, #32]	; (23fab5c <_ZN5spark26DefaultOutputStreamFactory8instanceEv+0x24>)
 23fab3c:	e8d4 3f8f 	ldab	r3, [r4]
 23fab40:	07db      	lsls	r3, r3, #31
 23fab42:	d409      	bmi.n	23fab58 <_ZN5spark26DefaultOutputStreamFactory8instanceEv+0x20>
 23fab44:	4620      	mov	r0, r4
 23fab46:	f7ff fb6f 	bl	23fa228 <__cxa_guard_acquire>
 23fab4a:	b128      	cbz	r0, 23fab58 <_ZN5spark26DefaultOutputStreamFactory8instanceEv+0x20>
 23fab4c:	4620      	mov	r0, r4
 23fab4e:	f7ff fb79 	bl	23fa244 <__cxa_guard_release>
 23fab52:	4803      	ldr	r0, [pc, #12]	; (23fab60 <_ZN5spark26DefaultOutputStreamFactory8instanceEv+0x28>)
 23fab54:	f002 f9f4 	bl	23fcf40 <atexit>
    return &factory;
}
 23fab58:	4802      	ldr	r0, [pc, #8]	; (23fab64 <_ZN5spark26DefaultOutputStreamFactory8instanceEv+0x2c>)
 23fab5a:	bd10      	pop	{r4, pc}
 23fab5c:	1007aeb0 	.word	0x1007aeb0
 23fab60:	023fa93d 	.word	0x023fa93d
 23fab64:	10072d30 	.word	0x10072d30

023fab68 <_ZN5spark10LogManagerC1Ev>:
    Print *stream;
};

#endif // Wiring_LogConfig

spark::LogManager::LogManager() {
 23fab68:	b538      	push	{r3, r4, r5, lr}
        capacity_(0) {
 23fab6a:	2500      	movs	r5, #0
 23fab6c:	4604      	mov	r4, r0
 23fab6e:	e9c0 5500 	strd	r5, r5, [r0]
 23fab72:	e9c0 5504 	strd	r5, r5, [r0, #16]
 23fab76:	6085      	str	r5, [r0, #8]
 23fab78:	6185      	str	r5, [r0, #24]
    RecursiveMutex() : handle_(nullptr)
 23fab7a:	f840 5f24 	str.w	r5, [r0, #36]!
        os_mutex_recursive_create(&handle_);
 23fab7e:	f7fe fe83 	bl	23f9888 <os_mutex_recursive_create>
#if Wiring_LogConfig
    handlerFactory_ = DefaultLogHandlerFactory::instance();
 23fab82:	f7ff ffc1 	bl	23fab08 <_ZN5spark24DefaultLogHandlerFactory8instanceEv>
 23fab86:	61e0      	str	r0, [r4, #28]
    streamFactory_ = DefaultOutputStreamFactory::instance();
 23fab88:	f7ff ffd6 	bl	23fab38 <_ZN5spark26DefaultOutputStreamFactory8instanceEv>
#endif
    outputActive_ = false;
 23fab8c:	7325      	strb	r5, [r4, #12]
    streamFactory_ = DefaultOutputStreamFactory::instance();
 23fab8e:	6220      	str	r0, [r4, #32]
}
 23fab90:	4620      	mov	r0, r4
 23fab92:	bd38      	pop	{r3, r4, r5, pc}

023fab94 <_ZN5spark10LogManager8instanceEv>:
            resetSystemCallbacks();
        }
    }
}

spark::LogManager* spark::LogManager::instance() {
 23fab94:	b510      	push	{r4, lr}
    static LogManager mgr;
 23fab96:	4c0a      	ldr	r4, [pc, #40]	; (23fabc0 <_ZN5spark10LogManager8instanceEv+0x2c>)
 23fab98:	e8d4 3f8f 	ldab	r3, [r4]
 23fab9c:	07db      	lsls	r3, r3, #31
 23fab9e:	d40c      	bmi.n	23fabba <_ZN5spark10LogManager8instanceEv+0x26>
 23faba0:	4620      	mov	r0, r4
 23faba2:	f7ff fb41 	bl	23fa228 <__cxa_guard_acquire>
 23faba6:	b140      	cbz	r0, 23fabba <_ZN5spark10LogManager8instanceEv+0x26>
 23faba8:	4806      	ldr	r0, [pc, #24]	; (23fabc4 <_ZN5spark10LogManager8instanceEv+0x30>)
 23fabaa:	f7ff ffdd 	bl	23fab68 <_ZN5spark10LogManagerC1Ev>
 23fabae:	4620      	mov	r0, r4
 23fabb0:	f7ff fb48 	bl	23fa244 <__cxa_guard_release>
 23fabb4:	4804      	ldr	r0, [pc, #16]	; (23fabc8 <_ZN5spark10LogManager8instanceEv+0x34>)
 23fabb6:	f002 f9c3 	bl	23fcf40 <atexit>
    return &mgr;
}
 23fabba:	4802      	ldr	r0, [pc, #8]	; (23fabc4 <_ZN5spark10LogManager8instanceEv+0x30>)
 23fabbc:	bd10      	pop	{r4, pc}
 23fabbe:	bf00      	nop
 23fabc0:	1007aea8 	.word	0x1007aea8
 23fabc4:	1007aeb8 	.word	0x1007aeb8
 23fabc8:	023fb109 	.word	0x023fb109

023fabcc <_ZN5spark10LogManager18setSystemCallbacksEv>:
}

#endif // Wiring_LogConfig

void spark::LogManager::setSystemCallbacks() {
    log_set_callbacks(logMessage, logWrite, logEnabled, nullptr);
 23fabcc:	2300      	movs	r3, #0
 23fabce:	4a02      	ldr	r2, [pc, #8]	; (23fabd8 <_ZN5spark10LogManager18setSystemCallbacksEv+0xc>)
 23fabd0:	4902      	ldr	r1, [pc, #8]	; (23fabdc <_ZN5spark10LogManager18setSystemCallbacksEv+0x10>)
 23fabd2:	4803      	ldr	r0, [pc, #12]	; (23fabe0 <_ZN5spark10LogManager18setSystemCallbacksEv+0x14>)
 23fabd4:	f7ff b87a 	b.w	23f9ccc <log_set_callbacks>
 23fabd8:	023faef1 	.word	0x023faef1
 23fabdc:	023fae7d 	.word	0x023fae7d
 23fabe0:	023fadfd 	.word	0x023fadfd

023fabe4 <_ZN5spark10LogManager20resetSystemCallbacksEv>:
}

void spark::LogManager::resetSystemCallbacks() {
    log_set_callbacks(nullptr, nullptr, nullptr, nullptr);
 23fabe4:	2300      	movs	r3, #0
 23fabe6:	461a      	mov	r2, r3
 23fabe8:	4619      	mov	r1, r3
 23fabea:	4618      	mov	r0, r3
 23fabec:	f7ff b86e 	b.w	23f9ccc <log_set_callbacks>

023fabf0 <_ZN5spark18JSONObjectIteratorC1ERKNS_9JSONValueE>:
inline spark::JSONObjectIterator::JSONObjectIterator(const JSONValue &value) :
 23fabf0:	b537      	push	{r0, r1, r2, r4, r5, lr}
 23fabf2:	4604      	mov	r4, r0
        JSONObjectIterator(value.t_, value.d_) {
 23fabf4:	688d      	ldr	r5, [r1, #8]
       *  @brief  Construct an empty %shared_ptr.
       *  @post   use_count()==0 && get()==0
       */
      constexpr shared_ptr() noexcept : __shared_ptr<_Tp>() { }

      shared_ptr(const shared_ptr&) noexcept = default; ///< Copy constructor
 23fabf6:	4668      	mov	r0, sp
 23fabf8:	f7ff fb70 	bl	23fa2dc <_ZNSt12__shared_ptrIN5spark6detail8JSONDataELN9__gnu_cxx12_Lock_policyE0EEC1ERKS5_>
 23fabfc:	466a      	mov	r2, sp
 23fabfe:	4629      	mov	r1, r5
 23fac00:	4620      	mov	r0, r4
 23fac02:	f001 fc1d 	bl	23fc440 <_ZN5spark18JSONObjectIteratorC1EPK9jsmntok_tSt10shared_ptrINS_6detail8JSONDataEE>
      ~__shared_ptr() = default;
 23fac06:	a801      	add	r0, sp, #4
 23fac08:	f7fd fba4 	bl	23f8354 <_ZNSt14__shared_countILN9__gnu_cxx12_Lock_policyE0EED1Ev>
}
 23fac0c:	4620      	mov	r0, r4
 23fac0e:	b003      	add	sp, #12
 23fac10:	bd30      	pop	{r4, r5, pc}

023fac12 <_ZNK5spark18JSONObjectIterator4nameEv>:
inline spark::JSONString spark::JSONObjectIterator::name() const {
 23fac12:	b537      	push	{r0, r1, r2, r4, r5, lr}
 23fac14:	4604      	mov	r4, r0
    return JSONString(k_, d_);
 23fac16:	68cd      	ldr	r5, [r1, #12]
 23fac18:	4668      	mov	r0, sp
 23fac1a:	f7ff fb5f 	bl	23fa2dc <_ZNSt12__shared_ptrIN5spark6detail8JSONDataELN9__gnu_cxx12_Lock_policyE0EEC1ERKS5_>
 23fac1e:	466a      	mov	r2, sp
 23fac20:	4629      	mov	r1, r5
 23fac22:	4620      	mov	r0, r4
 23fac24:	f001 fbe8 	bl	23fc3f8 <_ZN5spark10JSONStringC1EPK9jsmntok_tSt10shared_ptrINS_6detail8JSONDataEE>
 23fac28:	a801      	add	r0, sp, #4
 23fac2a:	f7fd fb93 	bl	23f8354 <_ZNSt14__shared_countILN9__gnu_cxx12_Lock_policyE0EED1Ev>
}
 23fac2e:	4620      	mov	r0, r4
 23fac30:	b003      	add	sp, #12
 23fac32:	bd30      	pop	{r4, r5, pc}

023fac34 <_ZNK5spark18JSONObjectIterator5valueEv>:
inline spark::JSONValue spark::JSONObjectIterator::value() const {
 23fac34:	b537      	push	{r0, r1, r2, r4, r5, lr}
 23fac36:	4604      	mov	r4, r0
    return JSONValue(v_, d_);
 23fac38:	690d      	ldr	r5, [r1, #16]
 23fac3a:	4668      	mov	r0, sp
 23fac3c:	f7ff fb4e 	bl	23fa2dc <_ZNSt12__shared_ptrIN5spark6detail8JSONDataELN9__gnu_cxx12_Lock_policyE0EEC1ERKS5_>
 23fac40:	466a      	mov	r2, sp
 23fac42:	4629      	mov	r1, r5
 23fac44:	4620      	mov	r0, r4
 23fac46:	f001 fb80 	bl	23fc34a <_ZN5spark9JSONValueC1EPK9jsmntok_tSt10shared_ptrINS_6detail8JSONDataEE>
 23fac4a:	a801      	add	r0, sp, #4
 23fac4c:	f7fd fb82 	bl	23f8354 <_ZNSt14__shared_countILN9__gnu_cxx12_Lock_policyE0EED1Ev>
}
 23fac50:	4620      	mov	r0, r4
 23fac52:	b003      	add	sp, #12
 23fac54:	bd30      	pop	{r4, r5, pc}
	...

023fac58 <_ZN5spark26DefaultOutputStreamFactory9getParamsERKNS_9JSONValueEPi>:
void spark::DefaultOutputStreamFactory::getParams(const JSONValue &params, int *baudRate) {
 23fac58:	b570      	push	{r4, r5, r6, lr}
 23fac5a:	b08a      	sub	sp, #40	; 0x28
 23fac5c:	460d      	mov	r5, r1
    JSONObjectIterator it(params);
 23fac5e:	4601      	mov	r1, r0
 23fac60:	a804      	add	r0, sp, #16
 23fac62:	f7ff ffc5 	bl	23fabf0 <_ZN5spark18JSONObjectIteratorC1ERKNS_9JSONValueE>
        if (it.name() == "baud" && baudRate) {
 23fac66:	4e14      	ldr	r6, [pc, #80]	; (23facb8 <_ZN5spark26DefaultOutputStreamFactory9getParamsERKNS_9JSONValueEPi+0x60>)
    while (it.next()) {
 23fac68:	a804      	add	r0, sp, #16
 23fac6a:	f001 fc01 	bl	23fc470 <_ZN5spark18JSONObjectIterator4nextEv>
 23fac6e:	b1e8      	cbz	r0, 23facac <_ZN5spark26DefaultOutputStreamFactory9getParamsERKNS_9JSONValueEPi+0x54>
        if (it.name() == "baud" && baudRate) {
 23fac70:	4668      	mov	r0, sp
 23fac72:	a904      	add	r1, sp, #16
 23fac74:	f7ff ffcd 	bl	23fac12 <_ZNK5spark18JSONObjectIterator4nameEv>
 23fac78:	4631      	mov	r1, r6
 23fac7a:	9802      	ldr	r0, [sp, #8]
 23fac7c:	f7ff fe57 	bl	23fa92e <_ZNK5spark10JSONStringeqEPKc.isra.0>
 23fac80:	4604      	mov	r4, r0
 23fac82:	b110      	cbz	r0, 23fac8a <_ZN5spark26DefaultOutputStreamFactory9getParamsERKNS_9JSONValueEPi+0x32>
 23fac84:	1e2c      	subs	r4, r5, #0
 23fac86:	bf18      	it	ne
 23fac88:	2401      	movne	r4, #1
 23fac8a:	a801      	add	r0, sp, #4
 23fac8c:	f7fd fb62 	bl	23f8354 <_ZNSt14__shared_countILN9__gnu_cxx12_Lock_policyE0EED1Ev>
 23fac90:	2c00      	cmp	r4, #0
 23fac92:	d0e9      	beq.n	23fac68 <_ZN5spark26DefaultOutputStreamFactory9getParamsERKNS_9JSONValueEPi+0x10>
            *baudRate = it.value().toInt();
 23fac94:	4668      	mov	r0, sp
 23fac96:	a904      	add	r1, sp, #16
 23fac98:	f7ff ffcc 	bl	23fac34 <_ZNK5spark18JSONObjectIterator5valueEv>
 23fac9c:	4668      	mov	r0, sp
 23fac9e:	f001 fb8a 	bl	23fc3b6 <_ZNK5spark9JSONValue5toIntEv>
 23faca2:	6028      	str	r0, [r5, #0]
 23faca4:	a801      	add	r0, sp, #4
 23faca6:	f7fd fb55 	bl	23f8354 <_ZNSt14__shared_countILN9__gnu_cxx12_Lock_policyE0EED1Ev>
 23facaa:	e7dd      	b.n	23fac68 <_ZN5spark26DefaultOutputStreamFactory9getParamsERKNS_9JSONValueEPi+0x10>
 23facac:	a805      	add	r0, sp, #20
 23facae:	f7fd fb51 	bl	23f8354 <_ZNSt14__shared_countILN9__gnu_cxx12_Lock_policyE0EED1Ev>
}
 23facb2:	b00a      	add	sp, #40	; 0x28
 23facb4:	bd70      	pop	{r4, r5, r6, pc}
 23facb6:	bf00      	nop
 23facb8:	023ff938 	.word	0x023ff938

023facbc <_ZN5spark26DefaultOutputStreamFactory12createStreamEPKcRKNS_9JSONValueE>:
Print* spark::DefaultOutputStreamFactory::createStream(const char *type, const JSONValue &params) {
 23facbc:	b537      	push	{r0, r1, r2, r4, r5, lr}
 23facbe:	460c      	mov	r4, r1
    if (strcmp(type, "Serial") == 0) {
 23facc0:	4913      	ldr	r1, [pc, #76]	; (23fad10 <_ZN5spark26DefaultOutputStreamFactory12createStreamEPKcRKNS_9JSONValueE+0x54>)
 23facc2:	4620      	mov	r0, r4
Print* spark::DefaultOutputStreamFactory::createStream(const char *type, const JSONValue &params) {
 23facc4:	4615      	mov	r5, r2
    if (strcmp(type, "Serial") == 0) {
 23facc6:	f7fb fddf 	bl	23f6888 <strcmp>
 23facca:	b950      	cbnz	r0, 23face2 <_ZN5spark26DefaultOutputStreamFactory12createStreamEPKcRKNS_9JSONValueE+0x26>
        Serial.begin();
 23faccc:	f001 faac 	bl	23fc228 <_Z16_fetch_usbserialv>
 23facd0:	f44f 5116 	mov.w	r1, #9600	; 0x2580
 23facd4:	f001 fa96 	bl	23fc204 <_ZN9USBSerial5beginEl>
}
 23facd8:	b003      	add	sp, #12
 23facda:	e8bd 4030 	ldmia.w	sp!, {r4, r5, lr}
        return &Serial;
 23facde:	f001 baa3 	b.w	23fc228 <_Z16_fetch_usbserialv>
    if (strcmp(type, "Serial1") == 0) {
 23face2:	4620      	mov	r0, r4
 23face4:	490b      	ldr	r1, [pc, #44]	; (23fad14 <_ZN5spark26DefaultOutputStreamFactory12createStreamEPKcRKNS_9JSONValueE+0x58>)
 23face6:	f7fb fdcf 	bl	23f6888 <strcmp>
 23facea:	b978      	cbnz	r0, 23fad0c <_ZN5spark26DefaultOutputStreamFactory12createStreamEPKcRKNS_9JSONValueE+0x50>
        int baud = 9600;
 23facec:	f44f 5316 	mov.w	r3, #9600	; 0x2580
        getParams(params, &baud);
 23facf0:	a901      	add	r1, sp, #4
 23facf2:	4628      	mov	r0, r5
        int baud = 9600;
 23facf4:	9301      	str	r3, [sp, #4]
        getParams(params, &baud);
 23facf6:	f7ff ffaf 	bl	23fac58 <_ZN5spark26DefaultOutputStreamFactory9getParamsERKNS_9JSONValueEPi>
        Serial1.begin(baud);
 23facfa:	f002 f807 	bl	23fcd0c <_Z22__fetch_global_Serial1v>
 23facfe:	9901      	ldr	r1, [sp, #4]
 23fad00:	f001 fce4 	bl	23fc6cc <_ZN11USARTSerial5beginEm>
        return &Serial1;
 23fad04:	f002 f802 	bl	23fcd0c <_Z22__fetch_global_Serial1v>
}
 23fad08:	b003      	add	sp, #12
 23fad0a:	bd30      	pop	{r4, r5, pc}
    return nullptr;
 23fad0c:	2000      	movs	r0, #0
 23fad0e:	e7fb      	b.n	23fad08 <_ZN5spark26DefaultOutputStreamFactory12createStreamEPKcRKNS_9JSONValueE+0x4c>
 23fad10:	023ff93d 	.word	0x023ff93d
 23fad14:	023ff944 	.word	0x023ff944

023fad18 <_ZN5spark6VectorINS_6detail9LogFilter4NodeENS_16DefaultAllocatorEED1Ev>:
inline spark::Vector<T, AllocatorT>::~Vector() {
 23fad18:	b570      	push	{r4, r5, r6, lr}
    destruct(data_, data_ + size_);
 23fad1a:	2614      	movs	r6, #20
 23fad1c:	e9d0 5300 	ldrd	r5, r3, [r0]
inline spark::Vector<T, AllocatorT>::~Vector() {
 23fad20:	4604      	mov	r4, r0
    destruct(data_, data_ + size_);
 23fad22:	fb06 5603 	mla	r6, r6, r3, r5
        for (; p != end; ++p) {
 23fad26:	42ae      	cmp	r6, r5
 23fad28:	d005      	beq.n	23fad36 <_ZN5spark6VectorINS_6detail9LogFilter4NodeENS_16DefaultAllocatorEED1Ev+0x1e>
struct spark::detail::LogFilter::Node {
 23fad2a:	f105 0008 	add.w	r0, r5, #8
 23fad2e:	f7ff fff3 	bl	23fad18 <_ZN5spark6VectorINS_6detail9LogFilter4NodeENS_16DefaultAllocatorEED1Ev>
 23fad32:	3514      	adds	r5, #20
 23fad34:	e7f7      	b.n	23fad26 <_ZN5spark6VectorINS_6detail9LogFilter4NodeENS_16DefaultAllocatorEED1Ev+0xe>
    ::free(ptr);
 23fad36:	6820      	ldr	r0, [r4, #0]
 23fad38:	f7ff f9ea 	bl	23fa110 <free>
}
 23fad3c:	4620      	mov	r0, r4
 23fad3e:	bd70      	pop	{r4, r5, r6, pc}

023fad40 <_ZN5spark6detail9LogFilterD1Ev>:
spark::detail::LogFilter::~LogFilter() {
 23fad40:	b510      	push	{r4, lr}
 23fad42:	4604      	mov	r4, r0
 23fad44:	300c      	adds	r0, #12
 23fad46:	f7ff ffe7 	bl	23fad18 <_ZN5spark6VectorINS_6detail9LogFilter4NodeENS_16DefaultAllocatorEED1Ev>
 23fad4a:	4620      	mov	r0, r4
 23fad4c:	f7ff fb83 	bl	23fa456 <_ZN5spark6VectorI6StringNS_16DefaultAllocatorEED1Ev>
}
 23fad50:	4620      	mov	r0, r4
 23fad52:	bd10      	pop	{r4, pc}

023fad54 <_ZN5spark16StreamLogHandlerD1Ev>:
class StreamLogHandler: public LogHandler {
 23fad54:	b510      	push	{r4, lr}
 23fad56:	4604      	mov	r4, r0
    virtual ~LogHandler() = default;
 23fad58:	4b03      	ldr	r3, [pc, #12]	; (23fad68 <_ZN5spark16StreamLogHandlerD1Ev+0x14>)
 23fad5a:	f840 3b04 	str.w	r3, [r0], #4
 23fad5e:	f7ff ffef 	bl	23fad40 <_ZN5spark6detail9LogFilterD1Ev>
class StreamLogHandler: public LogHandler {
 23fad62:	4620      	mov	r0, r4
 23fad64:	bd10      	pop	{r4, pc}
 23fad66:	bf00      	nop
 23fad68:	023ff840 	.word	0x023ff840

023fad6c <_ZN5spark16StreamLogHandlerD0Ev>:
 23fad6c:	b510      	push	{r4, lr}
 23fad6e:	4604      	mov	r4, r0
 23fad70:	f7ff fff0 	bl	23fad54 <_ZN5spark16StreamLogHandlerD1Ev>
 23fad74:	4620      	mov	r0, r4
 23fad76:	2124      	movs	r1, #36	; 0x24
 23fad78:	f7fb fdd3 	bl	23f6922 <_ZdlPvj>
 23fad7c:	4620      	mov	r0, r4
 23fad7e:	bd10      	pop	{r4, pc}

023fad80 <_ZN5spark20JSONStreamLogHandlerD1Ev>:
class JSONStreamLogHandler: public StreamLogHandler {
 23fad80:	b510      	push	{r4, lr}
 23fad82:	4604      	mov	r4, r0
 23fad84:	4b02      	ldr	r3, [pc, #8]	; (23fad90 <_ZN5spark20JSONStreamLogHandlerD1Ev+0x10>)
 23fad86:	6003      	str	r3, [r0, #0]
 23fad88:	f7ff ffe4 	bl	23fad54 <_ZN5spark16StreamLogHandlerD1Ev>
 23fad8c:	4620      	mov	r0, r4
 23fad8e:	bd10      	pop	{r4, pc}
 23fad90:	023ff9c8 	.word	0x023ff9c8

023fad94 <_ZN5spark20JSONStreamLogHandlerD0Ev>:
 23fad94:	b510      	push	{r4, lr}
 23fad96:	4604      	mov	r4, r0
 23fad98:	f7ff fff2 	bl	23fad80 <_ZN5spark20JSONStreamLogHandlerD1Ev>
 23fad9c:	4620      	mov	r0, r4
 23fad9e:	2124      	movs	r1, #36	; 0x24
 23fada0:	f7fb fdbf 	bl	23f6922 <_ZdlPvj>
 23fada4:	4620      	mov	r0, r4
 23fada6:	bd10      	pop	{r4, pc}

023fada8 <_ZN5spark6detail9LogFilter4NodeC1EOS2_>:
struct spark::detail::LogFilter::Node {
 23fada8:	680a      	ldr	r2, [r1, #0]
 23fadaa:	b510      	push	{r4, lr}
 23fadac:	6002      	str	r2, [r0, #0]
 23fadae:	684a      	ldr	r2, [r1, #4]
 23fadb0:	6042      	str	r2, [r0, #4]
        capacity_(0) {
 23fadb2:	2200      	movs	r2, #0
 23fadb4:	e9c0 2202 	strd	r2, r2, [r0, #8]
 23fadb8:	6102      	str	r2, [r0, #16]
      __a = _GLIBCXX_MOVE(__b);
 23fadba:	688c      	ldr	r4, [r1, #8]
      __b = _GLIBCXX_MOVE(__tmp);
 23fadbc:	608a      	str	r2, [r1, #8]
      __a = _GLIBCXX_MOVE(__b);
 23fadbe:	6084      	str	r4, [r0, #8]
 23fadc0:	68cc      	ldr	r4, [r1, #12]
      __b = _GLIBCXX_MOVE(__tmp);
 23fadc2:	60ca      	str	r2, [r1, #12]
      __a = _GLIBCXX_MOVE(__b);
 23fadc4:	60c4      	str	r4, [r0, #12]
 23fadc6:	690c      	ldr	r4, [r1, #16]
      __b = _GLIBCXX_MOVE(__tmp);
 23fadc8:	610a      	str	r2, [r1, #16]
      __a = _GLIBCXX_MOVE(__b);
 23fadca:	6104      	str	r4, [r0, #16]
 23fadcc:	bd10      	pop	{r4, pc}

023fadce <_ZN5spark6VectorINS_17LogCategoryFilterENS_16DefaultAllocatorEEC1EOS3_>:
 23fadce:	2200      	movs	r2, #0
 23fadd0:	e9c0 2200 	strd	r2, r2, [r0]
 23fadd4:	6082      	str	r2, [r0, #8]
inline spark::Vector<T, AllocatorT>::Vector(Vector<T, AllocatorT>&& vector) : Vector() {
 23fadd6:	b510      	push	{r4, lr}
 23fadd8:	680c      	ldr	r4, [r1, #0]
      __b = _GLIBCXX_MOVE(__tmp);
 23fadda:	600a      	str	r2, [r1, #0]
      __a = _GLIBCXX_MOVE(__b);
 23faddc:	6004      	str	r4, [r0, #0]
 23fadde:	684c      	ldr	r4, [r1, #4]
      __b = _GLIBCXX_MOVE(__tmp);
 23fade0:	604a      	str	r2, [r1, #4]
      __a = _GLIBCXX_MOVE(__b);
 23fade2:	6044      	str	r4, [r0, #4]
 23fade4:	688c      	ldr	r4, [r1, #8]
      __b = _GLIBCXX_MOVE(__tmp);
 23fade6:	608a      	str	r2, [r1, #8]
      __a = _GLIBCXX_MOVE(__b);
 23fade8:	6084      	str	r4, [r0, #8]
}
 23fadea:	bd10      	pop	{r4, pc}

023fadec <_ZNSt10lock_guardI14RecursiveMutexED1Ev>:
      { _M_device.lock(); }

      lock_guard(mutex_type& __m, adopt_lock_t) noexcept : _M_device(__m)
      { } // calling thread owns mutex

      ~lock_guard()
 23fadec:	b510      	push	{r4, lr}
 23fadee:	4604      	mov	r4, r0
    bool trylock() { return os_mutex_recursive_trylock(handle_)==0; }
    bool try_lock() { return trylock(); }
    void unlock() { os_mutex_recursive_unlock(handle_); }
 23fadf0:	6803      	ldr	r3, [r0, #0]
 23fadf2:	6818      	ldr	r0, [r3, #0]
 23fadf4:	f7fe fd72 	bl	23f98dc <os_mutex_recursive_unlock>
      { _M_device.unlock(); }
 23fadf8:	4620      	mov	r0, r4
 23fadfa:	bd10      	pop	{r4, pc}

023fadfc <_ZN5spark10LogManager10logMessageEPKciS2_PK13LogAttributesPv>:
}

void spark::LogManager::logMessage(const char *msg, int level, const char *category, const LogAttributes *attr, void *reserved) {
 23fadfc:	e92d 4ff0 	stmdb	sp!, {r4, r5, r6, r7, r8, r9, sl, fp, lr}
 23fae00:	b087      	sub	sp, #28
 23fae02:	9303      	str	r3, [sp, #12]

#elif defined(CONFIG_PLATFORM_8721D)


static inline bool hal_interrupt_is_isr() {
    return (SCB->ICSR & SCB_ICSR_VECTACTIVE_Msk) != 0;
 23fae04:	4b1c      	ldr	r3, [pc, #112]	; (23fae78 <_ZN5spark10LogManager10logMessageEPKciS2_PK13LogAttributesPv+0x7c>)
 23fae06:	4680      	mov	r8, r0
 23fae08:	685b      	ldr	r3, [r3, #4]
 23fae0a:	4689      	mov	r9, r1
 23fae0c:	f3c3 0308 	ubfx	r3, r3, #0, #9
 23fae10:	4616      	mov	r6, r2
#ifndef LOG_FROM_ISR
    if (hal_interrupt_is_isr()) {
 23fae12:	b96b      	cbnz	r3, 23fae30 <_ZN5spark10LogManager10logMessageEPKciS2_PK13LogAttributesPv+0x34>
        return;
    }
#endif
    LogManager *that = instance();
 23fae14:	f7ff febe 	bl	23fab94 <_ZN5spark10LogManager8instanceEv>
 23fae18:	4604      	mov	r4, r0
    LOG_WITH_LOCK(that->mutex_) {
 23fae1a:	f100 0324 	add.w	r3, r0, #36	; 0x24
      { _M_device.lock(); }
 23fae1e:	6a40      	ldr	r0, [r0, #36]	; 0x24
      explicit lock_guard(mutex_type& __m) : _M_device(__m)
 23fae20:	9305      	str	r3, [sp, #20]
      { _M_device.lock(); }
 23fae22:	f7ff fd82 	bl	23fa92a <_ZN14RecursiveMutex4lockEv.isra.0>
        // prevent re-entry
        if (that->isActive()) {
 23fae26:	7b23      	ldrb	r3, [r4, #12]
 23fae28:	b12b      	cbz	r3, 23fae36 <_ZN5spark10LogManager10logMessageEPKciS2_PK13LogAttributesPv+0x3a>
    LOG_WITH_LOCK(that->mutex_) {
 23fae2a:	a805      	add	r0, sp, #20
 23fae2c:	f7ff ffde 	bl	23fadec <_ZNSt10lock_guardI14RecursiveMutexED1Ev>
        for (LogHandler *handler: that->activeHandlers_) {
            handler->message(msg, (LogLevel)level, category, *attr);
        }
        that->setActive(false);
    }
}
 23fae30:	b007      	add	sp, #28
 23fae32:	e8bd 8ff0 	ldmia.w	sp!, {r4, r5, r6, r7, r8, r9, sl, fp, pc}
inline bool spark::LogManager::isActive() const {
    return outputActive_;
}

inline void spark::LogManager::setActive(bool outputActive) {
    outputActive_ = outputActive;
 23fae36:	2301      	movs	r3, #1
            handler->message(msg, (LogLevel)level, category, *attr);
 23fae38:	fa5f f989 	uxtb.w	r9, r9
    outputActive_ = outputActive;
 23fae3c:	7323      	strb	r3, [r4, #12]
    return data_ + size_;
 23fae3e:	e9d4 5300 	ldrd	r5, r3, [r4]
 23fae42:	eb05 0a83 	add.w	sl, r5, r3, lsl #2
        for (LogHandler *handler: that->activeHandlers_) {
 23fae46:	45aa      	cmp	sl, r5
 23fae48:	d012      	beq.n	23fae70 <_ZN5spark10LogManager10logMessageEPKciS2_PK13LogAttributesPv+0x74>
 23fae4a:	f855 7b04 	ldr.w	r7, [r5], #4
    if (level >= filter_.level(category)) {
 23fae4e:	4631      	mov	r1, r6
 23fae50:	1d38      	adds	r0, r7, #4
 23fae52:	f7ff fdf7 	bl	23faa44 <_ZNK5spark6detail9LogFilter5levelEPKc>
 23fae56:	4581      	cmp	r9, r0
 23fae58:	d3f5      	bcc.n	23fae46 <_ZN5spark10LogManager10logMessageEPKciS2_PK13LogAttributesPv+0x4a>
        logMessage(msg, level, category, attr);
 23fae5a:	9a03      	ldr	r2, [sp, #12]
 23fae5c:	683b      	ldr	r3, [r7, #0]
 23fae5e:	9200      	str	r2, [sp, #0]
 23fae60:	f8d3 b008 	ldr.w	fp, [r3, #8]
 23fae64:	464a      	mov	r2, r9
 23fae66:	4633      	mov	r3, r6
 23fae68:	4641      	mov	r1, r8
 23fae6a:	4638      	mov	r0, r7
 23fae6c:	47d8      	blx	fp
 23fae6e:	e7ea      	b.n	23fae46 <_ZN5spark10LogManager10logMessageEPKciS2_PK13LogAttributesPv+0x4a>
    outputActive_ = outputActive;
 23fae70:	2300      	movs	r3, #0
 23fae72:	7323      	strb	r3, [r4, #12]
 23fae74:	e7d9      	b.n	23fae2a <_ZN5spark10LogManager10logMessageEPKciS2_PK13LogAttributesPv+0x2e>
 23fae76:	bf00      	nop
 23fae78:	e000ed00 	.word	0xe000ed00

023fae7c <_ZN5spark10LogManager8logWriteEPKcjiS2_Pv>:
void spark::LogManager::logWrite(const char *data, size_t size, int level, const char *category, void *reserved) {
 23fae7c:	e92d 4ff7 	stmdb	sp!, {r0, r1, r2, r4, r5, r6, r7, r8, r9, sl, fp, lr}
 23fae80:	469b      	mov	fp, r3
 23fae82:	4b1a      	ldr	r3, [pc, #104]	; (23faeec <_ZN5spark10LogManager8logWriteEPKcjiS2_Pv+0x70>)
 23fae84:	4680      	mov	r8, r0
 23fae86:	685b      	ldr	r3, [r3, #4]
 23fae88:	4689      	mov	r9, r1
 23fae8a:	f3c3 0308 	ubfx	r3, r3, #0, #9
 23fae8e:	4616      	mov	r6, r2
    if (hal_interrupt_is_isr()) {
 23fae90:	b96b      	cbnz	r3, 23faeae <_ZN5spark10LogManager8logWriteEPKcjiS2_Pv+0x32>
    LogManager *that = instance();
 23fae92:	f7ff fe7f 	bl	23fab94 <_ZN5spark10LogManager8instanceEv>
 23fae96:	4604      	mov	r4, r0
    LOG_WITH_LOCK(that->mutex_) {
 23fae98:	f100 0324 	add.w	r3, r0, #36	; 0x24
 23fae9c:	6a40      	ldr	r0, [r0, #36]	; 0x24
      explicit lock_guard(mutex_type& __m) : _M_device(__m)
 23fae9e:	9301      	str	r3, [sp, #4]
      { _M_device.lock(); }
 23faea0:	f7ff fd43 	bl	23fa92a <_ZN14RecursiveMutex4lockEv.isra.0>
        if (that->isActive()) {
 23faea4:	7b23      	ldrb	r3, [r4, #12]
 23faea6:	b12b      	cbz	r3, 23faeb4 <_ZN5spark10LogManager8logWriteEPKcjiS2_Pv+0x38>
    LOG_WITH_LOCK(that->mutex_) {
 23faea8:	a801      	add	r0, sp, #4
 23faeaa:	f7ff ff9f 	bl	23fadec <_ZNSt10lock_guardI14RecursiveMutexED1Ev>
}
 23faeae:	b003      	add	sp, #12
 23faeb0:	e8bd 8ff0 	ldmia.w	sp!, {r4, r5, r6, r7, r8, r9, sl, fp, pc}
    outputActive_ = outputActive;
 23faeb4:	2301      	movs	r3, #1
    if (level >= filter_.level(category)) {
 23faeb6:	b2f6      	uxtb	r6, r6
 23faeb8:	7323      	strb	r3, [r4, #12]
 23faeba:	e9d4 5300 	ldrd	r5, r3, [r4]
 23faebe:	eb05 0a83 	add.w	sl, r5, r3, lsl #2
        for (LogHandler *handler: that->activeHandlers_) {
 23faec2:	4555      	cmp	r5, sl
 23faec4:	d00e      	beq.n	23faee4 <_ZN5spark10LogManager8logWriteEPKcjiS2_Pv+0x68>
 23faec6:	f855 7b04 	ldr.w	r7, [r5], #4
 23faeca:	4659      	mov	r1, fp
 23faecc:	1d38      	adds	r0, r7, #4
 23faece:	f7ff fdb9 	bl	23faa44 <_ZNK5spark6detail9LogFilter5levelEPKc>
 23faed2:	4286      	cmp	r6, r0
 23faed4:	d3f5      	bcc.n	23faec2 <_ZN5spark10LogManager8logWriteEPKcjiS2_Pv+0x46>
        write(data, size);
 23faed6:	683b      	ldr	r3, [r7, #0]
 23faed8:	464a      	mov	r2, r9
 23faeda:	4641      	mov	r1, r8
 23faedc:	4638      	mov	r0, r7
 23faede:	68db      	ldr	r3, [r3, #12]
 23faee0:	4798      	blx	r3
 23faee2:	e7ee      	b.n	23faec2 <_ZN5spark10LogManager8logWriteEPKcjiS2_Pv+0x46>
    outputActive_ = outputActive;
 23faee4:	2300      	movs	r3, #0
 23faee6:	7323      	strb	r3, [r4, #12]
 23faee8:	e7de      	b.n	23faea8 <_ZN5spark10LogManager8logWriteEPKcjiS2_Pv+0x2c>
 23faeea:	bf00      	nop
 23faeec:	e000ed00 	.word	0xe000ed00

023faef0 <_ZN5spark10LogManager10logEnabledEiPKcPv>:
int spark::LogManager::logEnabled(int level, const char *category, void *reserved) {
 23faef0:	e92d 41f3 	stmdb	sp!, {r0, r1, r4, r5, r6, r7, r8, lr}
 23faef4:	4b16      	ldr	r3, [pc, #88]	; (23faf50 <_ZN5spark10LogManager10logEnabledEiPKcPv+0x60>)
 23faef6:	4605      	mov	r5, r0
 23faef8:	685b      	ldr	r3, [r3, #4]
 23faefa:	460f      	mov	r7, r1
 23faefc:	f3c3 0308 	ubfx	r3, r3, #0, #9
    if (hal_interrupt_is_isr()) {
 23faf00:	bb1b      	cbnz	r3, 23faf4a <_ZN5spark10LogManager10logEnabledEiPKcPv+0x5a>
    LogManager *that = instance();
 23faf02:	f7ff fe47 	bl	23fab94 <_ZN5spark10LogManager8instanceEv>
 23faf06:	4604      	mov	r4, r0
    LOG_WITH_LOCK(that->mutex_) {
 23faf08:	f100 0324 	add.w	r3, r0, #36	; 0x24
 23faf0c:	6a40      	ldr	r0, [r0, #36]	; 0x24
      explicit lock_guard(mutex_type& __m) : _M_device(__m)
 23faf0e:	9301      	str	r3, [sp, #4]
      { _M_device.lock(); }
 23faf10:	f7ff fd0b 	bl	23fa92a <_ZN14RecursiveMutex4lockEv.isra.0>
 23faf14:	e9d4 6300 	ldrd	r6, r3, [r4]
    int minLevel = LOG_LEVEL_NONE;
 23faf18:	2446      	movs	r4, #70	; 0x46
 23faf1a:	eb06 0883 	add.w	r8, r6, r3, lsl #2
        for (LogHandler *handler: that->activeHandlers_) {
 23faf1e:	45b0      	cmp	r8, r6
 23faf20:	d109      	bne.n	23faf36 <_ZN5spark10LogManager10logEnabledEiPKcPv+0x46>
    LOG_WITH_LOCK(that->mutex_) {
 23faf22:	a801      	add	r0, sp, #4
 23faf24:	f7ff ff62 	bl	23fadec <_ZNSt10lock_guardI14RecursiveMutexED1Ev>
    return (level >= minLevel);
 23faf28:	42a5      	cmp	r5, r4
 23faf2a:	bfb4      	ite	lt
 23faf2c:	2000      	movlt	r0, #0
 23faf2e:	2001      	movge	r0, #1
}
 23faf30:	b002      	add	sp, #8
 23faf32:	e8bd 81f0 	ldmia.w	sp!, {r4, r5, r6, r7, r8, pc}
    return filter_.level(category);
 23faf36:	f856 0b04 	ldr.w	r0, [r6], #4
 23faf3a:	4639      	mov	r1, r7
 23faf3c:	3004      	adds	r0, #4
 23faf3e:	f7ff fd81 	bl	23faa44 <_ZNK5spark6detail9LogFilter5levelEPKc>
            if (level < minLevel) {
 23faf42:	4284      	cmp	r4, r0
 23faf44:	bfa8      	it	ge
 23faf46:	4604      	movge	r4, r0
        for (LogHandler *handler: that->activeHandlers_) {
 23faf48:	e7e9      	b.n	23faf1e <_ZN5spark10LogManager10logEnabledEiPKcPv+0x2e>
        return 0;
 23faf4a:	2000      	movs	r0, #0
 23faf4c:	e7f0      	b.n	23faf30 <_ZN5spark10LogManager10logEnabledEiPKcPv+0x40>
 23faf4e:	bf00      	nop
 23faf50:	e000ed00 	.word	0xe000ed00

023faf54 <_ZN5spark6VectorIPNS_10LogHandlerENS_16DefaultAllocatorEE6appendES2_>:
inline bool spark::Vector<T, AllocatorT>::append(T value) {
 23faf54:	b5f8      	push	{r3, r4, r5, r6, r7, lr}
    if (size_ + 1 > capacity_ && !realloc(size_ + 1)) {
 23faf56:	e9d0 5301 	ldrd	r5, r3, [r0, #4]
 23faf5a:	429d      	cmp	r5, r3
inline bool spark::Vector<T, AllocatorT>::append(T value) {
 23faf5c:	4604      	mov	r4, r0
 23faf5e:	460e      	mov	r6, r1
    if (size_ + 1 > capacity_ && !realloc(size_ + 1)) {
 23faf60:	db0d      	blt.n	23faf7e <_ZN5spark6VectorIPNS_10LogHandlerENS_16DefaultAllocatorEE6appendES2_+0x2a>
 23faf62:	1c6f      	adds	r7, r5, #1
        if (n > 0) {
 23faf64:	2f00      	cmp	r7, #0
            d = (T*)AllocatorT::realloc(data_, n * sizeof(T));
 23faf66:	6800      	ldr	r0, [r0, #0]
        if (n > 0) {
 23faf68:	dd04      	ble.n	23faf74 <_ZN5spark6VectorIPNS_10LogHandlerENS_16DefaultAllocatorEE6appendES2_+0x20>
    return ::realloc(ptr, size);
 23faf6a:	00b9      	lsls	r1, r7, #2
 23faf6c:	f7ff f8de 	bl	23fa12c <realloc>
            if (!d) {
 23faf70:	b918      	cbnz	r0, 23faf7a <_ZN5spark6VectorIPNS_10LogHandlerENS_16DefaultAllocatorEE6appendES2_+0x26>
}
 23faf72:	bdf8      	pop	{r3, r4, r5, r6, r7, pc}
    ::free(ptr);
 23faf74:	f7ff f8cc 	bl	23fa110 <free>
        T* d = nullptr;
 23faf78:	2000      	movs	r0, #0
        data_ = d;
 23faf7a:	6020      	str	r0, [r4, #0]
        capacity_ = n;
 23faf7c:	60a7      	str	r7, [r4, #8]
    T* const p = data_ + i;
 23faf7e:	6827      	ldr	r7, [r4, #0]
    move(p + 1, p, data_ + size_);
 23faf80:	6862      	ldr	r2, [r4, #4]
    T* const p = data_ + i;
 23faf82:	eb07 0185 	add.w	r1, r7, r5, lsl #2
    move(p + 1, p, data_ + size_);
 23faf86:	0092      	lsls	r2, r2, #2
        ::memmove(dest, p, (end - p) * sizeof(T));
 23faf88:	eba2 0285 	sub.w	r2, r2, r5, lsl #2
 23faf8c:	1d08      	adds	r0, r1, #4
 23faf8e:	f002 f806 	bl	23fcf9e <memmove>
    new(p) T(std::move(value));
 23faf92:	f847 6025 	str.w	r6, [r7, r5, lsl #2]
    ++size_;
 23faf96:	6863      	ldr	r3, [r4, #4]
    return true;
 23faf98:	2001      	movs	r0, #1
    ++size_;
 23faf9a:	3301      	adds	r3, #1
 23faf9c:	6063      	str	r3, [r4, #4]
    return true;
 23faf9e:	e7e8      	b.n	23faf72 <_ZN5spark6VectorIPNS_10LogHandlerENS_16DefaultAllocatorEE6appendES2_+0x1e>

023fafa0 <_ZN5spark10LogManager10addHandlerEPNS_10LogHandlerE>:
bool spark::LogManager::addHandler(LogHandler *handler) {
 23fafa0:	b537      	push	{r0, r1, r2, r4, r5, lr}
 23fafa2:	4604      	mov	r4, r0
    LOG_WITH_LOCK(mutex_) {
 23fafa4:	f100 0324 	add.w	r3, r0, #36	; 0x24
 23fafa8:	6a40      	ldr	r0, [r0, #36]	; 0x24
      explicit lock_guard(mutex_type& __m) : _M_device(__m)
 23fafaa:	9301      	str	r3, [sp, #4]
bool spark::LogManager::addHandler(LogHandler *handler) {
 23fafac:	460d      	mov	r5, r1
      { _M_device.lock(); }
 23fafae:	f7ff fcbc 	bl	23fa92a <_ZN14RecursiveMutex4lockEv.isra.0>
    return find(data_, data_ + size_, value);
 23fafb2:	e9d4 3200 	ldrd	r3, r2, [r4]
 23fafb6:	eb03 0282 	add.w	r2, r3, r2, lsl #2
        for (; p != end; ++p) {
 23fafba:	4293      	cmp	r3, r2
 23fafbc:	4619      	mov	r1, r3
 23fafbe:	d00a      	beq.n	23fafd6 <_ZN5spark10LogManager10addHandlerEPNS_10LogHandlerE+0x36>
            if (*p == value) {
 23fafc0:	6809      	ldr	r1, [r1, #0]
 23fafc2:	3304      	adds	r3, #4
 23fafc4:	42a9      	cmp	r1, r5
 23fafc6:	d1f8      	bne.n	23fafba <_ZN5spark10LogManager10addHandlerEPNS_10LogHandlerE+0x1a>
            return false;
 23fafc8:	a801      	add	r0, sp, #4
 23fafca:	f7ff ff0f 	bl	23fadec <_ZNSt10lock_guardI14RecursiveMutexED1Ev>
 23fafce:	2500      	movs	r5, #0
}
 23fafd0:	4628      	mov	r0, r5
 23fafd2:	b003      	add	sp, #12
 23fafd4:	bd30      	pop	{r4, r5, pc}
        if (activeHandlers_.contains(handler) || !activeHandlers_.append(handler)) {
 23fafd6:	4629      	mov	r1, r5
 23fafd8:	4620      	mov	r0, r4
 23fafda:	f7ff ffbb 	bl	23faf54 <_ZN5spark6VectorIPNS_10LogHandlerENS_16DefaultAllocatorEE6appendES2_>
 23fafde:	4605      	mov	r5, r0
 23fafe0:	2800      	cmp	r0, #0
 23fafe2:	d0f1      	beq.n	23fafc8 <_ZN5spark10LogManager10addHandlerEPNS_10LogHandlerE+0x28>
        if (activeHandlers_.size() == 1) {
 23fafe4:	6863      	ldr	r3, [r4, #4]
 23fafe6:	2b01      	cmp	r3, #1
 23fafe8:	d101      	bne.n	23fafee <_ZN5spark10LogManager10addHandlerEPNS_10LogHandlerE+0x4e>
            setSystemCallbacks();
 23fafea:	f7ff fdef 	bl	23fabcc <_ZN5spark10LogManager18setSystemCallbacksEv>
    LOG_WITH_LOCK(mutex_) {
 23fafee:	a801      	add	r0, sp, #4
 23faff0:	f7ff fefc 	bl	23fadec <_ZNSt10lock_guardI14RecursiveMutexED1Ev>
 23faff4:	e7ec      	b.n	23fafd0 <_ZN5spark10LogManager10addHandlerEPNS_10LogHandlerE+0x30>

023faff6 <_ZN5spark6VectorIPNS_10LogHandlerENS_16DefaultAllocatorEE9removeOneERKS2_>:
inline bool spark::Vector<T, AllocatorT>::removeOne(const T &value) {
 23faff6:	460b      	mov	r3, r1
 23faff8:	b570      	push	{r4, r5, r6, lr}
 23faffa:	4604      	mov	r4, r0
    T* const p = find(data_, data_ + size_, value);
 23faffc:	e9d0 0200 	ldrd	r0, r2, [r0]
 23fb000:	eb00 0282 	add.w	r2, r0, r2, lsl #2
        for (; p != end; ++p) {
 23fb004:	4282      	cmp	r2, r0
 23fb006:	d00f      	beq.n	23fb028 <_ZN5spark6VectorIPNS_10LogHandlerENS_16DefaultAllocatorEE9removeOneERKS2_+0x32>
    move(p, p + 1, data_ + size_);
 23fb008:	4601      	mov	r1, r0
            if (*p == value) {
 23fb00a:	681d      	ldr	r5, [r3, #0]
 23fb00c:	f851 6b04 	ldr.w	r6, [r1], #4
 23fb010:	42ae      	cmp	r6, r5
 23fb012:	d107      	bne.n	23fb024 <_ZN5spark6VectorIPNS_10LogHandlerENS_16DefaultAllocatorEE9removeOneERKS2_+0x2e>
        ::memmove(dest, p, (end - p) * sizeof(T));
 23fb014:	1a52      	subs	r2, r2, r1
 23fb016:	f001 ffc2 	bl	23fcf9e <memmove>
    return true;
 23fb01a:	2001      	movs	r0, #1
    --size_;
 23fb01c:	6863      	ldr	r3, [r4, #4]
 23fb01e:	3b01      	subs	r3, #1
 23fb020:	6063      	str	r3, [r4, #4]
}
 23fb022:	bd70      	pop	{r4, r5, r6, pc}
    move(p, p + 1, data_ + size_);
 23fb024:	4608      	mov	r0, r1
 23fb026:	e7ed      	b.n	23fb004 <_ZN5spark6VectorIPNS_10LogHandlerENS_16DefaultAllocatorEE9removeOneERKS2_+0xe>
        return false;
 23fb028:	2000      	movs	r0, #0
 23fb02a:	e7fa      	b.n	23fb022 <_ZN5spark6VectorIPNS_10LogHandlerENS_16DefaultAllocatorEE9removeOneERKS2_+0x2c>

023fb02c <_ZN5spark10LogManager13removeHandlerEPNS_10LogHandlerE>:
void spark::LogManager::removeHandler(LogHandler *handler) {
 23fb02c:	b51f      	push	{r0, r1, r2, r3, r4, lr}
 23fb02e:	4604      	mov	r4, r0
    LOG_WITH_LOCK(mutex_) {
 23fb030:	f100 0324 	add.w	r3, r0, #36	; 0x24
 23fb034:	6a40      	ldr	r0, [r0, #36]	; 0x24
void spark::LogManager::removeHandler(LogHandler *handler) {
 23fb036:	9101      	str	r1, [sp, #4]
      explicit lock_guard(mutex_type& __m) : _M_device(__m)
 23fb038:	9303      	str	r3, [sp, #12]
      { _M_device.lock(); }
 23fb03a:	f7ff fc76 	bl	23fa92a <_ZN14RecursiveMutex4lockEv.isra.0>
        if (activeHandlers_.removeOne(handler) && activeHandlers_.isEmpty()) {
 23fb03e:	4620      	mov	r0, r4
 23fb040:	a901      	add	r1, sp, #4
 23fb042:	f7ff ffd8 	bl	23faff6 <_ZN5spark6VectorIPNS_10LogHandlerENS_16DefaultAllocatorEE9removeOneERKS2_>
 23fb046:	b118      	cbz	r0, 23fb050 <_ZN5spark10LogManager13removeHandlerEPNS_10LogHandlerE+0x24>
 23fb048:	6863      	ldr	r3, [r4, #4]
 23fb04a:	b90b      	cbnz	r3, 23fb050 <_ZN5spark10LogManager13removeHandlerEPNS_10LogHandlerE+0x24>
            resetSystemCallbacks();
 23fb04c:	f7ff fdca 	bl	23fabe4 <_ZN5spark10LogManager20resetSystemCallbacksEv>
    LOG_WITH_LOCK(mutex_) {
 23fb050:	a803      	add	r0, sp, #12
 23fb052:	f7ff fecb 	bl	23fadec <_ZNSt10lock_guardI14RecursiveMutexED1Ev>
}
 23fb056:	b004      	add	sp, #16
 23fb058:	bd10      	pop	{r4, pc}

023fb05a <_ZN5spark10LogManager22destroyFactoryHandlersEv>:
    return data_ + size_;
 23fb05a:	2318      	movs	r3, #24
void spark::LogManager::destroyFactoryHandlers() {
 23fb05c:	b570      	push	{r4, r5, r6, lr}
 23fb05e:	4604      	mov	r4, r0
 23fb060:	e9d0 5604 	ldrd	r5, r6, [r0, #16]
 23fb064:	fb03 5606 	mla	r6, r3, r6, r5
    for (const FactoryHandler &h: factoryHandlers_) {
 23fb068:	42ae      	cmp	r6, r5
 23fb06a:	d015      	beq.n	23fb098 <_ZN5spark10LogManager22destroyFactoryHandlersEv+0x3e>
        activeHandlers_.removeOne(h.handler);
 23fb06c:	4620      	mov	r0, r4
 23fb06e:	f105 0110 	add.w	r1, r5, #16
 23fb072:	f7ff ffc0 	bl	23faff6 <_ZN5spark6VectorIPNS_10LogHandlerENS_16DefaultAllocatorEE9removeOneERKS2_>
        if (activeHandlers_.isEmpty()) {
 23fb076:	6863      	ldr	r3, [r4, #4]
 23fb078:	b90b      	cbnz	r3, 23fb07e <_ZN5spark10LogManager22destroyFactoryHandlersEv+0x24>
            resetSystemCallbacks();
 23fb07a:	f7ff fdb3 	bl	23fabe4 <_ZN5spark10LogManager20resetSystemCallbacksEv>
        handlerFactory_->destroyHandler(h.handler);
 23fb07e:	69e0      	ldr	r0, [r4, #28]
 23fb080:	6929      	ldr	r1, [r5, #16]
 23fb082:	6803      	ldr	r3, [r0, #0]
 23fb084:	68db      	ldr	r3, [r3, #12]
 23fb086:	4798      	blx	r3
        if (h.stream) {
 23fb088:	6969      	ldr	r1, [r5, #20]
 23fb08a:	b119      	cbz	r1, 23fb094 <_ZN5spark10LogManager22destroyFactoryHandlersEv+0x3a>
            streamFactory_->destroyStream(h.stream);
 23fb08c:	6a20      	ldr	r0, [r4, #32]
 23fb08e:	6803      	ldr	r3, [r0, #0]
 23fb090:	68db      	ldr	r3, [r3, #12]
 23fb092:	4798      	blx	r3
    for (const FactoryHandler &h: factoryHandlers_) {
 23fb094:	3518      	adds	r5, #24
 23fb096:	e7e7      	b.n	23fb068 <_ZN5spark10LogManager22destroyFactoryHandlersEv+0xe>
    destruct(data_, data_ + size_);
 23fb098:	2618      	movs	r6, #24
 23fb09a:	e9d4 5304 	ldrd	r5, r3, [r4, #16]
 23fb09e:	fb06 5603 	mla	r6, r6, r3, r5
        for (; p != end; ++p) {
 23fb0a2:	42ae      	cmp	r6, r5
 23fb0a4:	d004      	beq.n	23fb0b0 <_ZN5spark10LogManager22destroyFactoryHandlersEv+0x56>
struct spark::LogManager::FactoryHandler {
 23fb0a6:	4628      	mov	r0, r5
 23fb0a8:	f7ff fa3c 	bl	23fa524 <_ZN6StringD1Ev>
 23fb0ac:	3518      	adds	r5, #24
 23fb0ae:	e7f8      	b.n	23fb0a2 <_ZN5spark10LogManager22destroyFactoryHandlersEv+0x48>
    size_ = 0;
 23fb0b0:	2300      	movs	r3, #0
 23fb0b2:	6163      	str	r3, [r4, #20]
}
 23fb0b4:	bd70      	pop	{r4, r5, r6, pc}

023fb0b6 <_ZN5spark10LogManagerD1Ev>:
spark::LogManager::~LogManager() {
 23fb0b6:	b573      	push	{r0, r1, r4, r5, r6, lr}
 23fb0b8:	4604      	mov	r4, r0
    resetSystemCallbacks();
 23fb0ba:	f7ff fd93 	bl	23fabe4 <_ZN5spark10LogManager20resetSystemCallbacksEv>
    LOG_WITH_LOCK(mutex_) {
 23fb0be:	f104 0324 	add.w	r3, r4, #36	; 0x24
 23fb0c2:	6a60      	ldr	r0, [r4, #36]	; 0x24
      explicit lock_guard(mutex_type& __m) : _M_device(__m)
 23fb0c4:	9301      	str	r3, [sp, #4]
      { _M_device.lock(); }
 23fb0c6:	f7ff fc30 	bl	23fa92a <_ZN14RecursiveMutex4lockEv.isra.0>
         destroyFactoryHandlers();
 23fb0ca:	4620      	mov	r0, r4
 23fb0cc:	f7ff ffc5 	bl	23fb05a <_ZN5spark10LogManager22destroyFactoryHandlersEv>
    LOG_WITH_LOCK(mutex_) {
 23fb0d0:	a801      	add	r0, sp, #4
 23fb0d2:	f7ff fe8b 	bl	23fadec <_ZNSt10lock_guardI14RecursiveMutexED1Ev>
        if (handle_) {
 23fb0d6:	6a60      	ldr	r0, [r4, #36]	; 0x24
 23fb0d8:	b108      	cbz	r0, 23fb0de <_ZN5spark10LogManagerD1Ev+0x28>
            os_mutex_recursive_destroy(handle_);
 23fb0da:	f7fe fbe3 	bl	23f98a4 <os_mutex_recursive_destroy>
    destruct(data_, data_ + size_);
 23fb0de:	e9d4 5304 	ldrd	r5, r3, [r4, #16]
 23fb0e2:	2618      	movs	r6, #24
 23fb0e4:	fb06 5603 	mla	r6, r6, r3, r5
        for (; p != end; ++p) {
 23fb0e8:	42ae      	cmp	r6, r5
 23fb0ea:	d004      	beq.n	23fb0f6 <_ZN5spark10LogManagerD1Ev+0x40>
struct spark::LogManager::FactoryHandler {
 23fb0ec:	4628      	mov	r0, r5
 23fb0ee:	f7ff fa19 	bl	23fa524 <_ZN6StringD1Ev>
 23fb0f2:	3518      	adds	r5, #24
 23fb0f4:	e7f8      	b.n	23fb0e8 <_ZN5spark10LogManagerD1Ev+0x32>
    ::free(ptr);
 23fb0f6:	6920      	ldr	r0, [r4, #16]
 23fb0f8:	f7ff f80a 	bl	23fa110 <free>
 23fb0fc:	6820      	ldr	r0, [r4, #0]
 23fb0fe:	f7ff f807 	bl	23fa110 <free>
}
 23fb102:	4620      	mov	r0, r4
 23fb104:	b002      	add	sp, #8
 23fb106:	bd70      	pop	{r4, r5, r6, pc}

023fb108 <__tcf_2>:
    static LogManager mgr;
 23fb108:	4801      	ldr	r0, [pc, #4]	; (23fb110 <__tcf_2+0x8>)
 23fb10a:	f7ff bfd4 	b.w	23fb0b6 <_ZN5spark10LogManagerD1Ev>
 23fb10e:	bf00      	nop
 23fb110:	1007aeb8 	.word	0x1007aeb8

023fb114 <_ZN5spark6VectorINS_6detail9LogFilter4NodeENS_16DefaultAllocatorEE4moveIS3_Li0EEEvPS3_S7_S7_>:
        if (dest > p && dest < end) {
 23fb114:	4288      	cmp	r0, r1
    static void move(T* dest, T* p, T* end) {
 23fb116:	b5f8      	push	{r3, r4, r5, r6, r7, lr}
 23fb118:	4604      	mov	r4, r0
 23fb11a:	460d      	mov	r5, r1
 23fb11c:	4616      	mov	r6, r2
        if (dest > p && dest < end) {
 23fb11e:	d915      	bls.n	23fb14c <_ZN5spark6VectorINS_6detail9LogFilter4NodeENS_16DefaultAllocatorEE4moveIS3_Li0EEEvPS3_S7_S7_+0x38>
 23fb120:	4290      	cmp	r0, r2
 23fb122:	d214      	bcs.n	23fb14e <_ZN5spark6VectorINS_6detail9LogFilter4NodeENS_16DefaultAllocatorEE4moveIS3_Li0EEEvPS3_S7_S7_+0x3a>
            --end;
 23fb124:	f1a2 0614 	sub.w	r6, r2, #20
            dest += end - p - 1;
 23fb128:	1a75      	subs	r5, r6, r1
 23fb12a:	f1a1 0714 	sub.w	r7, r1, #20
 23fb12e:	442c      	add	r4, r5
            for (; end != p; --end, --dest) {
 23fb130:	42b7      	cmp	r7, r6
 23fb132:	d01a      	beq.n	23fb16a <_ZN5spark6VectorINS_6detail9LogFilter4NodeENS_16DefaultAllocatorEE4moveIS3_Li0EEEvPS3_S7_S7_+0x56>
                new(dest) T(std::move(*end));
 23fb134:	b11c      	cbz	r4, 23fb13e <_ZN5spark6VectorINS_6detail9LogFilter4NodeENS_16DefaultAllocatorEE4moveIS3_Li0EEEvPS3_S7_S7_+0x2a>
 23fb136:	4631      	mov	r1, r6
 23fb138:	4620      	mov	r0, r4
 23fb13a:	f7ff fe35 	bl	23fada8 <_ZN5spark6detail9LogFilter4NodeC1EOS2_>
struct spark::detail::LogFilter::Node {
 23fb13e:	f106 0008 	add.w	r0, r6, #8
 23fb142:	f7ff fde9 	bl	23fad18 <_ZN5spark6VectorINS_6detail9LogFilter4NodeENS_16DefaultAllocatorEED1Ev>
            for (; end != p; --end, --dest) {
 23fb146:	3e14      	subs	r6, #20
 23fb148:	3c14      	subs	r4, #20
 23fb14a:	e7f1      	b.n	23fb130 <_ZN5spark6VectorINS_6detail9LogFilter4NodeENS_16DefaultAllocatorEE4moveIS3_Li0EEEvPS3_S7_S7_+0x1c>
        } else if (dest != p) {
 23fb14c:	d00d      	beq.n	23fb16a <_ZN5spark6VectorINS_6detail9LogFilter4NodeENS_16DefaultAllocatorEE4moveIS3_Li0EEEvPS3_S7_S7_+0x56>
            for (; p != end; ++p, ++dest) {
 23fb14e:	42b5      	cmp	r5, r6
 23fb150:	d00b      	beq.n	23fb16a <_ZN5spark6VectorINS_6detail9LogFilter4NodeENS_16DefaultAllocatorEE4moveIS3_Li0EEEvPS3_S7_S7_+0x56>
                new(dest) T(std::move(*p));
 23fb152:	b11c      	cbz	r4, 23fb15c <_ZN5spark6VectorINS_6detail9LogFilter4NodeENS_16DefaultAllocatorEE4moveIS3_Li0EEEvPS3_S7_S7_+0x48>
 23fb154:	4629      	mov	r1, r5
 23fb156:	4620      	mov	r0, r4
 23fb158:	f7ff fe26 	bl	23fada8 <_ZN5spark6detail9LogFilter4NodeC1EOS2_>
 23fb15c:	f105 0008 	add.w	r0, r5, #8
 23fb160:	f7ff fdda 	bl	23fad18 <_ZN5spark6VectorINS_6detail9LogFilter4NodeENS_16DefaultAllocatorEED1Ev>
            for (; p != end; ++p, ++dest) {
 23fb164:	3514      	adds	r5, #20
 23fb166:	3414      	adds	r4, #20
 23fb168:	e7f1      	b.n	23fb14e <_ZN5spark6VectorINS_6detail9LogFilter4NodeENS_16DefaultAllocatorEE4moveIS3_Li0EEEvPS3_S7_S7_+0x3a>
    }
 23fb16a:	bdf8      	pop	{r3, r4, r5, r6, r7, pc}

023fb16c <_ZN5spark6detail9LogFilterC1E8LogLevelNS_6VectorINS_17LogCategoryFilterENS_16DefaultAllocatorEEE>:
spark::detail::LogFilter::LogFilter(LogLevel level, LogCategoryFilters filters) :
 23fb16c:	e92d 4ff0 	stmdb	sp!, {r4, r5, r6, r7, r8, r9, sl, fp, lr}
 23fb170:	4690      	mov	r8, r2
        capacity_(0) {
 23fb172:	2300      	movs	r3, #0
        level_(LOG_LEVEL_NONE) { // Fallback level that will be used in case of construction errors
 23fb174:	2246      	movs	r2, #70	; 0x46
spark::detail::LogFilter::LogFilter(LogLevel level, LogCategoryFilters filters) :
 23fb176:	b095      	sub	sp, #84	; 0x54
 23fb178:	9103      	str	r1, [sp, #12]
    return size_;
 23fb17a:	f8d8 1004 	ldr.w	r1, [r8, #4]
 23fb17e:	4604      	mov	r4, r0
    if (n > capacity_ && !realloc(n)) {
 23fb180:	4299      	cmp	r1, r3
        capacity_(0) {
 23fb182:	e9c0 3300 	strd	r3, r3, [r0]
 23fb186:	e9c0 3302 	strd	r3, r3, [r0, #8]
 23fb18a:	e9c0 3304 	strd	r3, r3, [r0, #16]
 23fb18e:	e9cd 3308 	strd	r3, r3, [sp, #32]
        level_(LOG_LEVEL_NONE) { // Fallback level that will be used in case of construction errors
 23fb192:	7602      	strb	r2, [r0, #24]
 23fb194:	930a      	str	r3, [sp, #40]	; 0x28
    if (n > capacity_ && !realloc(n)) {
 23fb196:	dc23      	bgt.n	23fb1e0 <_ZN5spark6detail9LogFilterC1E8LogLevelNS_6VectorINS_17LogCategoryFilterENS_16DefaultAllocatorEEE+0x74>
    return data_ + size_;
 23fb198:	e9d8 5700 	ldrd	r5, r7, [r8]
 23fb19c:	2314      	movs	r3, #20
 23fb19e:	fb03 5707 	mla	r7, r3, r7, r5
    for (LogCategoryFilter &filter: filters) {
 23fb1a2:	42af      	cmp	r7, r5
 23fb1a4:	d03b      	beq.n	23fb21e <_ZN5spark6detail9LogFilterC1E8LogLevelNS_6VectorINS_17LogCategoryFilterENS_16DefaultAllocatorEEE+0xb2>
        cats.append(std::move(filter.cat_));
 23fb1a6:	4629      	mov	r1, r5
 23fb1a8:	a80b      	add	r0, sp, #44	; 0x2c
 23fb1aa:	f7ff fa38 	bl	23fa61e <_ZN6StringC1EOS_>
    return insert(size_, std::move(value));
 23fb1ae:	a90b      	add	r1, sp, #44	; 0x2c
 23fb1b0:	a80f      	add	r0, sp, #60	; 0x3c
 23fb1b2:	9e09      	ldr	r6, [sp, #36]	; 0x24
 23fb1b4:	f7ff fa33 	bl	23fa61e <_ZN6StringC1EOS_>
    if (size_ + 1 > capacity_ && !realloc(size_ + 1)) {
 23fb1b8:	e9dd 1309 	ldrd	r1, r3, [sp, #36]	; 0x24
 23fb1bc:	4299      	cmp	r1, r3
 23fb1be:	da1b      	bge.n	23fb1f8 <_ZN5spark6detail9LogFilterC1E8LogLevelNS_6VectorINS_17LogCategoryFilterENS_16DefaultAllocatorEEE+0x8c>
    T* const p = data_ + i;
 23fb1c0:	9b08      	ldr	r3, [sp, #32]
    move(p + 1, p, data_ + size_);
 23fb1c2:	9a09      	ldr	r2, [sp, #36]	; 0x24
    T* const p = data_ + i;
 23fb1c4:	eb03 1606 	add.w	r6, r3, r6, lsl #4
    move(p + 1, p, data_ + size_);
 23fb1c8:	4631      	mov	r1, r6
 23fb1ca:	eb03 1202 	add.w	r2, r3, r2, lsl #4
 23fb1ce:	f106 0010 	add.w	r0, r6, #16
 23fb1d2:	f7ff f952 	bl	23fa47a <_ZN5spark6VectorI6StringNS_16DefaultAllocatorEE4moveIS1_Li0EEEvPS1_S5_S5_>
    new(p) T(std::move(value));
 23fb1d6:	b9ee      	cbnz	r6, 23fb214 <_ZN5spark6detail9LogFilterC1E8LogLevelNS_6VectorINS_17LogCategoryFilterENS_16DefaultAllocatorEEE+0xa8>
    ++size_;
 23fb1d8:	9b09      	ldr	r3, [sp, #36]	; 0x24
 23fb1da:	3301      	adds	r3, #1
 23fb1dc:	9309      	str	r3, [sp, #36]	; 0x24
    return true;
 23fb1de:	e011      	b.n	23fb204 <_ZN5spark6detail9LogFilterC1E8LogLevelNS_6VectorINS_17LogCategoryFilterENS_16DefaultAllocatorEEE+0x98>
    if (n > capacity_ && !realloc(n)) {
 23fb1e0:	a808      	add	r0, sp, #32
 23fb1e2:	f7ff f974 	bl	23fa4ce <_ZN5spark6VectorI6StringNS_16DefaultAllocatorEE7reallocIS1_Li0EEEbi>
 23fb1e6:	2800      	cmp	r0, #0
 23fb1e8:	d1d6      	bne.n	23fb198 <_ZN5spark6detail9LogFilterC1E8LogLevelNS_6VectorINS_17LogCategoryFilterENS_16DefaultAllocatorEEE+0x2c>
        return;
 23fb1ea:	a808      	add	r0, sp, #32
 23fb1ec:	f7ff f933 	bl	23fa456 <_ZN5spark6VectorI6StringNS_16DefaultAllocatorEED1Ev>
}
 23fb1f0:	4620      	mov	r0, r4
 23fb1f2:	b015      	add	sp, #84	; 0x54
 23fb1f4:	e8bd 8ff0 	ldmia.w	sp!, {r4, r5, r6, r7, r8, r9, sl, fp, pc}
    if (size_ + 1 > capacity_ && !realloc(size_ + 1)) {
 23fb1f8:	3101      	adds	r1, #1
 23fb1fa:	a808      	add	r0, sp, #32
 23fb1fc:	f7ff f967 	bl	23fa4ce <_ZN5spark6VectorI6StringNS_16DefaultAllocatorEE7reallocIS1_Li0EEEbi>
 23fb200:	2800      	cmp	r0, #0
 23fb202:	d1dd      	bne.n	23fb1c0 <_ZN5spark6detail9LogFilterC1E8LogLevelNS_6VectorINS_17LogCategoryFilterENS_16DefaultAllocatorEEE+0x54>
    return insert(size_, std::move(value));
 23fb204:	a80f      	add	r0, sp, #60	; 0x3c
 23fb206:	f7ff f98d 	bl	23fa524 <_ZN6StringD1Ev>
        cats.append(std::move(filter.cat_));
 23fb20a:	a80b      	add	r0, sp, #44	; 0x2c
 23fb20c:	f7ff f98a 	bl	23fa524 <_ZN6StringD1Ev>
    for (LogCategoryFilter &filter: filters) {
 23fb210:	3514      	adds	r5, #20
 23fb212:	e7c6      	b.n	23fb1a2 <_ZN5spark6detail9LogFilterC1E8LogLevelNS_6VectorINS_17LogCategoryFilterENS_16DefaultAllocatorEEE+0x36>
    new(p) T(std::move(value));
 23fb214:	4630      	mov	r0, r6
 23fb216:	a90f      	add	r1, sp, #60	; 0x3c
 23fb218:	f7ff fa01 	bl	23fa61e <_ZN6StringC1EOS_>
 23fb21c:	e7dc      	b.n	23fb1d8 <_ZN5spark6detail9LogFilterC1E8LogLevelNS_6VectorINS_17LogCategoryFilterENS_16DefaultAllocatorEEE+0x6c>
        capacity_(0) {
 23fb21e:	2600      	movs	r6, #0
 23fb220:	f04f 0914 	mov.w	r9, #20
 23fb224:	e9cd 660b 	strd	r6, r6, [sp, #44]	; 0x2c
 23fb228:	960d      	str	r6, [sp, #52]	; 0x34
    return data_[i];
 23fb22a:	e9dd 2308 	ldrd	r2, r3, [sp, #32]
    for (int i = 0; i < cats.size(); ++i) {
 23fb22e:	429e      	cmp	r6, r3
 23fb230:	da7c      	bge.n	23fb32c <_ZN5spark6detail9LogFilterC1E8LogLevelNS_6VectorINS_17LogCategoryFilterENS_16DefaultAllocatorEEE+0x1c0>
    char operator [] (unsigned int index) const;
    char& operator [] (unsigned int index);
    void getBytes(unsigned char *buf, unsigned int bufsize, unsigned int index=0) const;
    void toCharArray(char *buf, unsigned int bufsize, unsigned int index=0) const
        {getBytes((unsigned char *)buf, bufsize, index);}
    const char * c_str() const { return buffer; }
 23fb232:	0133      	lsls	r3, r6, #4
 23fb234:	58d3      	ldr	r3, [r2, r3]
        const char *category = cats.at(i).c_str();
 23fb236:	9306      	str	r3, [sp, #24]
        if (!category) {
 23fb238:	b90b      	cbnz	r3, 23fb23e <_ZN5spark6detail9LogFilterC1E8LogLevelNS_6VectorINS_17LogCategoryFilterENS_16DefaultAllocatorEEE+0xd2>
    for (int i = 0; i < cats.size(); ++i) {
 23fb23a:	3601      	adds	r6, #1
 23fb23c:	e7f5      	b.n	23fb22a <_ZN5spark6detail9LogFilterC1E8LogLevelNS_6VectorINS_17LogCategoryFilterENS_16DefaultAllocatorEEE+0xbe>
        size_t size = 0; // Name length
 23fb23e:	2300      	movs	r3, #0
 23fb240:	9307      	str	r3, [sp, #28]
 23fb242:	fb09 f306 	mul.w	r3, r9, r6
        Vector<Node> *pNodes = &nodes; // Root nodes
 23fb246:	ad0b      	add	r5, sp, #44	; 0x2c
 23fb248:	9302      	str	r3, [sp, #8]
        while ((name = nextSubcategoryName(category, size))) {
 23fb24a:	a907      	add	r1, sp, #28
 23fb24c:	a806      	add	r0, sp, #24
 23fb24e:	f7ff fb4c 	bl	23fa8ea <_ZN12_GLOBAL__N_119nextSubcategoryNameERPKcRj>
 23fb252:	4682      	mov	sl, r0
 23fb254:	2800      	cmp	r0, #0
 23fb256:	d0f0      	beq.n	23fb23a <_ZN5spark6detail9LogFilterC1E8LogLevelNS_6VectorINS_17LogCategoryFilterENS_16DefaultAllocatorEEE+0xce>
            bool found = false;
 23fb258:	f04f 0300 	mov.w	r3, #0
            const int index = nodeIndex(*pNodes, name, size, found);
 23fb25c:	4601      	mov	r1, r0
            bool found = false;
 23fb25e:	f88d 3017 	strb.w	r3, [sp, #23]
            const int index = nodeIndex(*pNodes, name, size, found);
 23fb262:	4628      	mov	r0, r5
 23fb264:	9a07      	ldr	r2, [sp, #28]
 23fb266:	f10d 0317 	add.w	r3, sp, #23
 23fb26a:	f7ff fbaf 	bl	23fa9cc <_ZN5spark6detail9LogFilter9nodeIndexERKNS_6VectorINS1_4NodeENS_16DefaultAllocatorEEEPKcjRb>
            if (!found && !pNodes->insert(index, Node(name, size))) { // Add node
 23fb26e:	f89d 7017 	ldrb.w	r7, [sp, #23]
            const int index = nodeIndex(*pNodes, name, size, found);
 23fb272:	9001      	str	r0, [sp, #4]
            if (!found && !pNodes->insert(index, Node(name, size))) { // Add node
 23fb274:	2f00      	cmp	r7, #0
 23fb276:	d14a      	bne.n	23fb30e <_ZN5spark6detail9LogFilterC1E8LogLevelNS_6VectorINS_17LogCategoryFilterENS_16DefaultAllocatorEEE+0x1a2>
 23fb278:	f8bd 301c 	ldrh.w	r3, [sp, #28]
        capacity_(0) {
 23fb27c:	e9cd 7711 	strd	r7, r7, [sp, #68]	; 0x44
            level(-1) {
 23fb280:	f8ad 3040 	strh.w	r3, [sp, #64]	; 0x40
 23fb284:	f64f 73ff 	movw	r3, #65535	; 0xffff
 23fb288:	f8cd a03c 	str.w	sl, [sp, #60]	; 0x3c
 23fb28c:	f8ad 3042 	strh.w	r3, [sp, #66]	; 0x42
 23fb290:	9713      	str	r7, [sp, #76]	; 0x4c
    if (size_ + 1 > capacity_ && !realloc(size_ + 1)) {
 23fb292:	e9d5 3201 	ldrd	r3, r2, [r5, #4]
 23fb296:	4293      	cmp	r3, r2
 23fb298:	db17      	blt.n	23fb2ca <_ZN5spark6detail9LogFilterC1E8LogLevelNS_6VectorINS_17LogCategoryFilterENS_16DefaultAllocatorEEE+0x15e>
 23fb29a:	f103 0a01 	add.w	sl, r3, #1
        if (n > 0) {
 23fb29e:	f1ba 0f00 	cmp.w	sl, #0
 23fb2a2:	dd30      	ble.n	23fb306 <_ZN5spark6detail9LogFilterC1E8LogLevelNS_6VectorINS_17LogCategoryFilterENS_16DefaultAllocatorEEE+0x19a>
    return ::malloc(size);
 23fb2a4:	fb09 f00a 	mul.w	r0, r9, sl
 23fb2a8:	f7fe ff24 	bl	23fa0f4 <malloc>
            if (!d) {
 23fb2ac:	4683      	mov	fp, r0
 23fb2ae:	b360      	cbz	r0, 23fb30a <_ZN5spark6detail9LogFilterC1E8LogLevelNS_6VectorINS_17LogCategoryFilterENS_16DefaultAllocatorEEE+0x19e>
            move(d, data_, data_ + size_);
 23fb2b0:	e9d5 1200 	ldrd	r1, r2, [r5]
 23fb2b4:	fb09 1202 	mla	r2, r9, r2, r1
 23fb2b8:	f7ff ff2c 	bl	23fb114 <_ZN5spark6VectorINS_6detail9LogFilter4NodeENS_16DefaultAllocatorEE4moveIS3_Li0EEEvPS3_S7_S7_>
    ::free(ptr);
 23fb2bc:	6828      	ldr	r0, [r5, #0]
 23fb2be:	f7fe ff27 	bl	23fa110 <free>
        data_ = d;
 23fb2c2:	f8c5 b000 	str.w	fp, [r5]
        capacity_ = n;
 23fb2c6:	f8c5 a008 	str.w	sl, [r5, #8]
    T* const p = data_ + i;
 23fb2ca:	682b      	ldr	r3, [r5, #0]
 23fb2cc:	9a01      	ldr	r2, [sp, #4]
 23fb2ce:	fb09 3a02 	mla	sl, r9, r2, r3
    move(p + 1, p, data_ + size_);
 23fb2d2:	686a      	ldr	r2, [r5, #4]
 23fb2d4:	4651      	mov	r1, sl
 23fb2d6:	fb09 3202 	mla	r2, r9, r2, r3
 23fb2da:	f10a 0014 	add.w	r0, sl, #20
 23fb2de:	f7ff ff19 	bl	23fb114 <_ZN5spark6VectorINS_6detail9LogFilter4NodeENS_16DefaultAllocatorEE4moveIS3_Li0EEEvPS3_S7_S7_>
    new(p) T(std::move(value));
 23fb2e2:	f1ba 0f00 	cmp.w	sl, #0
 23fb2e6:	d003      	beq.n	23fb2f0 <_ZN5spark6detail9LogFilterC1E8LogLevelNS_6VectorINS_17LogCategoryFilterENS_16DefaultAllocatorEEE+0x184>
 23fb2e8:	4650      	mov	r0, sl
 23fb2ea:	a90f      	add	r1, sp, #60	; 0x3c
 23fb2ec:	f7ff fd5c 	bl	23fada8 <_ZN5spark6detail9LogFilter4NodeC1EOS2_>
    ++size_;
 23fb2f0:	686b      	ldr	r3, [r5, #4]
 23fb2f2:	3301      	adds	r3, #1
 23fb2f4:	606b      	str	r3, [r5, #4]
struct spark::detail::LogFilter::Node {
 23fb2f6:	a811      	add	r0, sp, #68	; 0x44
 23fb2f8:	f7ff fd0e 	bl	23fad18 <_ZN5spark6VectorINS_6detail9LogFilter4NodeENS_16DefaultAllocatorEED1Ev>
            if (!found && !pNodes->insert(index, Node(name, size))) { // Add node
 23fb2fc:	b13f      	cbz	r7, 23fb30e <_ZN5spark6detail9LogFilterC1E8LogLevelNS_6VectorINS_17LogCategoryFilterENS_16DefaultAllocatorEEE+0x1a2>
    Vector<Node> nodes;
 23fb2fe:	a80b      	add	r0, sp, #44	; 0x2c
 23fb300:	f7ff fd0a 	bl	23fad18 <_ZN5spark6VectorINS_6detail9LogFilter4NodeENS_16DefaultAllocatorEED1Ev>
 23fb304:	e771      	b.n	23fb1ea <_ZN5spark6detail9LogFilterC1E8LogLevelNS_6VectorINS_17LogCategoryFilterENS_16DefaultAllocatorEEE+0x7e>
        T* d = nullptr;
 23fb306:	46bb      	mov	fp, r7
 23fb308:	e7d8      	b.n	23fb2bc <_ZN5spark6detail9LogFilterC1E8LogLevelNS_6VectorINS_17LogCategoryFilterENS_16DefaultAllocatorEEE+0x150>
            if (!found && !pNodes->insert(index, Node(name, size))) { // Add node
 23fb30a:	2701      	movs	r7, #1
 23fb30c:	e7f3      	b.n	23fb2f6 <_ZN5spark6detail9LogFilterC1E8LogLevelNS_6VectorINS_17LogCategoryFilterENS_16DefaultAllocatorEEE+0x18a>
    return data_[i];
 23fb30e:	9b01      	ldr	r3, [sp, #4]
 23fb310:	682d      	ldr	r5, [r5, #0]
 23fb312:	fb09 5503 	mla	r5, r9, r3, r5
            if (!*category) { // Check if it's last subcategory
 23fb316:	9b06      	ldr	r3, [sp, #24]
 23fb318:	781b      	ldrb	r3, [r3, #0]
 23fb31a:	b92b      	cbnz	r3, 23fb328 <_ZN5spark6detail9LogFilterC1E8LogLevelNS_6VectorINS_17LogCategoryFilterENS_16DefaultAllocatorEEE+0x1bc>
                node.level = filters.at(i).level_;
 23fb31c:	f8d8 3000 	ldr.w	r3, [r8]
 23fb320:	9a02      	ldr	r2, [sp, #8]
 23fb322:	4413      	add	r3, r2
 23fb324:	7c1b      	ldrb	r3, [r3, #16]
 23fb326:	80eb      	strh	r3, [r5, #6]
            pNodes = &node.nodes;
 23fb328:	3508      	adds	r5, #8
        while ((name = nextSubcategoryName(category, size))) {
 23fb32a:	e78e      	b.n	23fb24a <_ZN5spark6detail9LogFilterC1E8LogLevelNS_6VectorINS_17LogCategoryFilterENS_16DefaultAllocatorEEE+0xde>
      _Tp __tmp = _GLIBCXX_MOVE(__a);
 23fb32c:	6821      	ldr	r1, [r4, #0]
      __a = _GLIBCXX_MOVE(__b);
 23fb32e:	6022      	str	r2, [r4, #0]
      _Tp __tmp = _GLIBCXX_MOVE(__a);
 23fb330:	6862      	ldr	r2, [r4, #4]
      __a = _GLIBCXX_MOVE(__b);
 23fb332:	6063      	str	r3, [r4, #4]
      _Tp __tmp = _GLIBCXX_MOVE(__a);
 23fb334:	68a3      	ldr	r3, [r4, #8]
      __b = _GLIBCXX_MOVE(__tmp);
 23fb336:	9209      	str	r2, [sp, #36]	; 0x24
      __a = _GLIBCXX_MOVE(__b);
 23fb338:	9a0a      	ldr	r2, [sp, #40]	; 0x28
      __b = _GLIBCXX_MOVE(__tmp);
 23fb33a:	930a      	str	r3, [sp, #40]	; 0x28
      _Tp __tmp = _GLIBCXX_MOVE(__a);
 23fb33c:	68e3      	ldr	r3, [r4, #12]
      __a = _GLIBCXX_MOVE(__b);
 23fb33e:	60a2      	str	r2, [r4, #8]
 23fb340:	9a0b      	ldr	r2, [sp, #44]	; 0x2c
      __b = _GLIBCXX_MOVE(__tmp);
 23fb342:	930b      	str	r3, [sp, #44]	; 0x2c
      _Tp __tmp = _GLIBCXX_MOVE(__a);
 23fb344:	6923      	ldr	r3, [r4, #16]
      __a = _GLIBCXX_MOVE(__b);
 23fb346:	60e2      	str	r2, [r4, #12]
 23fb348:	9a0c      	ldr	r2, [sp, #48]	; 0x30
      __b = _GLIBCXX_MOVE(__tmp);
 23fb34a:	930c      	str	r3, [sp, #48]	; 0x30
      _Tp __tmp = _GLIBCXX_MOVE(__a);
 23fb34c:	6963      	ldr	r3, [r4, #20]
      __a = _GLIBCXX_MOVE(__b);
 23fb34e:	6122      	str	r2, [r4, #16]
 23fb350:	9a0d      	ldr	r2, [sp, #52]	; 0x34
      __b = _GLIBCXX_MOVE(__tmp);
 23fb352:	930d      	str	r3, [sp, #52]	; 0x34
    level_ = level;
 23fb354:	9b03      	ldr	r3, [sp, #12]
 23fb356:	9108      	str	r1, [sp, #32]
      __a = _GLIBCXX_MOVE(__b);
 23fb358:	6162      	str	r2, [r4, #20]
 23fb35a:	7623      	strb	r3, [r4, #24]
 23fb35c:	e7cf      	b.n	23fb2fe <_ZN5spark6detail9LogFilterC1E8LogLevelNS_6VectorINS_17LogCategoryFilterENS_16DefaultAllocatorEEE+0x192>
	...

023fb360 <_ZN5spark16StreamLogHandlerC1ER5Print8LogLevelNS_6VectorINS_17LogCategoryFilterENS_16DefaultAllocatorEEE>:
inline spark::StreamLogHandler::StreamLogHandler(Print &stream, LogLevel level, LogCategoryFilters filters) :
 23fb360:	b5f0      	push	{r4, r5, r6, r7, lr}
 23fb362:	4604      	mov	r4, r0
        filter_(level, filters) {
 23fb364:	4626      	mov	r6, r4
inline spark::StreamLogHandler::StreamLogHandler(Print &stream, LogLevel level, LogCategoryFilters filters) :
 23fb366:	4617      	mov	r7, r2
 23fb368:	b087      	sub	sp, #28
 23fb36a:	460d      	mov	r5, r1
        stream_(&stream) {
 23fb36c:	4668      	mov	r0, sp
 23fb36e:	4619      	mov	r1, r3
 23fb370:	f7fd fbc4 	bl	23f8afc <_ZN5spark6VectorINS_17LogCategoryFilterENS_16DefaultAllocatorEEC1ERKS3_>
        filter_(level, filters) {
 23fb374:	4b0b      	ldr	r3, [pc, #44]	; (23fb3a4 <_ZN5spark16StreamLogHandlerC1ER5Print8LogLevelNS_6VectorINS_17LogCategoryFilterENS_16DefaultAllocatorEEE+0x44>)
 23fb376:	4669      	mov	r1, sp
 23fb378:	f846 3b04 	str.w	r3, [r6], #4
 23fb37c:	a803      	add	r0, sp, #12
 23fb37e:	f7fd fbbd 	bl	23f8afc <_ZN5spark6VectorINS_17LogCategoryFilterENS_16DefaultAllocatorEEC1ERKS3_>
 23fb382:	4639      	mov	r1, r7
 23fb384:	aa03      	add	r2, sp, #12
 23fb386:	4630      	mov	r0, r6
 23fb388:	f7ff fef0 	bl	23fb16c <_ZN5spark6detail9LogFilterC1E8LogLevelNS_6VectorINS_17LogCategoryFilterENS_16DefaultAllocatorEEE>
 23fb38c:	a803      	add	r0, sp, #12
 23fb38e:	f7fc fff7 	bl	23f8380 <_ZN5spark6VectorINS_17LogCategoryFilterENS_16DefaultAllocatorEED1Ev>
        stream_(&stream) {
 23fb392:	4668      	mov	r0, sp
 23fb394:	f7fc fff4 	bl	23f8380 <_ZN5spark6VectorINS_17LogCategoryFilterENS_16DefaultAllocatorEED1Ev>
}
 23fb398:	4620      	mov	r0, r4
        stream_(&stream) {
 23fb39a:	4b03      	ldr	r3, [pc, #12]	; (23fb3a8 <_ZN5spark16StreamLogHandlerC1ER5Print8LogLevelNS_6VectorINS_17LogCategoryFilterENS_16DefaultAllocatorEEE+0x48>)
 23fb39c:	6225      	str	r5, [r4, #32]
 23fb39e:	6023      	str	r3, [r4, #0]
}
 23fb3a0:	b007      	add	sp, #28
 23fb3a2:	bdf0      	pop	{r4, r5, r6, r7, pc}
 23fb3a4:	023ff840 	.word	0x023ff840
 23fb3a8:	023ff9b0 	.word	0x023ff9b0

023fb3ac <_ZN5spark24DefaultLogHandlerFactory13createHandlerEPKc8LogLevelNS_6VectorINS_17LogCategoryFilterENS_16DefaultAllocatorEEEP5PrintRKNS_9JSONValueE>:
            Print *stream, const JSONValue &params) {
 23fb3ac:	b5f0      	push	{r4, r5, r6, r7, lr}
 23fb3ae:	460f      	mov	r7, r1
 23fb3b0:	b085      	sub	sp, #20
    if (strcmp(type, "JSONStreamLogHandler") == 0) {
 23fb3b2:	4638      	mov	r0, r7
 23fb3b4:	491c      	ldr	r1, [pc, #112]	; (23fb428 <_ZN5spark24DefaultLogHandlerFactory13createHandlerEPKc8LogLevelNS_6VectorINS_17LogCategoryFilterENS_16DefaultAllocatorEEEP5PrintRKNS_9JSONValueE+0x7c>)
            Print *stream, const JSONValue &params) {
 23fb3b6:	4616      	mov	r6, r2
 23fb3b8:	461d      	mov	r5, r3
 23fb3ba:	9c0a      	ldr	r4, [sp, #40]	; 0x28
    if (strcmp(type, "JSONStreamLogHandler") == 0) {
 23fb3bc:	f7fb fa64 	bl	23f6888 <strcmp>
 23fb3c0:	b9c0      	cbnz	r0, 23fb3f4 <_ZN5spark24DefaultLogHandlerFactory13createHandlerEPKc8LogLevelNS_6VectorINS_17LogCategoryFilterENS_16DefaultAllocatorEEEP5PrintRKNS_9JSONValueE+0x48>
        if (!stream) {
 23fb3c2:	b1a4      	cbz	r4, 23fb3ee <_ZN5spark24DefaultLogHandlerFactory13createHandlerEPKc8LogLevelNS_6VectorINS_17LogCategoryFilterENS_16DefaultAllocatorEEEP5PrintRKNS_9JSONValueE+0x42>
        return new(std::nothrow) JSONStreamLogHandler(*stream, level, std::move(filters));
 23fb3c4:	4629      	mov	r1, r5
 23fb3c6:	a801      	add	r0, sp, #4
 23fb3c8:	f7ff fd01 	bl	23fadce <_ZN5spark6VectorINS_17LogCategoryFilterENS_16DefaultAllocatorEEC1EOS3_>
 23fb3cc:	2024      	movs	r0, #36	; 0x24
 23fb3ce:	4917      	ldr	r1, [pc, #92]	; (23fb42c <_ZN5spark24DefaultLogHandlerFactory13createHandlerEPKc8LogLevelNS_6VectorINS_17LogCategoryFilterENS_16DefaultAllocatorEEEP5PrintRKNS_9JSONValueE+0x80>)
 23fb3d0:	f001 fd82 	bl	23fced8 <_ZnwjRKSt9nothrow_t>
 23fb3d4:	4605      	mov	r5, r0
 23fb3d6:	b130      	cbz	r0, 23fb3e6 <_ZN5spark24DefaultLogHandlerFactory13createHandlerEPKc8LogLevelNS_6VectorINS_17LogCategoryFilterENS_16DefaultAllocatorEEEP5PrintRKNS_9JSONValueE+0x3a>
    using StreamLogHandler::StreamLogHandler;
 23fb3d8:	ab01      	add	r3, sp, #4
 23fb3da:	4632      	mov	r2, r6
 23fb3dc:	4621      	mov	r1, r4
 23fb3de:	f7ff ffbf 	bl	23fb360 <_ZN5spark16StreamLogHandlerC1ER5Print8LogLevelNS_6VectorINS_17LogCategoryFilterENS_16DefaultAllocatorEEE>
 23fb3e2:	4b13      	ldr	r3, [pc, #76]	; (23fb430 <_ZN5spark24DefaultLogHandlerFactory13createHandlerEPKc8LogLevelNS_6VectorINS_17LogCategoryFilterENS_16DefaultAllocatorEEEP5PrintRKNS_9JSONValueE+0x84>)
 23fb3e4:	602b      	str	r3, [r5, #0]
        return new(std::nothrow) StreamLogHandler(*stream, level, std::move(filters));
 23fb3e6:	a801      	add	r0, sp, #4
 23fb3e8:	f7fc ffca 	bl	23f8380 <_ZN5spark6VectorINS_17LogCategoryFilterENS_16DefaultAllocatorEED1Ev>
 23fb3ec:	462c      	mov	r4, r5
}
 23fb3ee:	4620      	mov	r0, r4
 23fb3f0:	b005      	add	sp, #20
 23fb3f2:	bdf0      	pop	{r4, r5, r6, r7, pc}
    } else if (strcmp(type, "StreamLogHandler") == 0) {
 23fb3f4:	4638      	mov	r0, r7
 23fb3f6:	490f      	ldr	r1, [pc, #60]	; (23fb434 <_ZN5spark24DefaultLogHandlerFactory13createHandlerEPKc8LogLevelNS_6VectorINS_17LogCategoryFilterENS_16DefaultAllocatorEEEP5PrintRKNS_9JSONValueE+0x88>)
 23fb3f8:	f7fb fa46 	bl	23f6888 <strcmp>
 23fb3fc:	b990      	cbnz	r0, 23fb424 <_ZN5spark24DefaultLogHandlerFactory13createHandlerEPKc8LogLevelNS_6VectorINS_17LogCategoryFilterENS_16DefaultAllocatorEEEP5PrintRKNS_9JSONValueE+0x78>
        if (!stream) {
 23fb3fe:	2c00      	cmp	r4, #0
 23fb400:	d0f5      	beq.n	23fb3ee <_ZN5spark24DefaultLogHandlerFactory13createHandlerEPKc8LogLevelNS_6VectorINS_17LogCategoryFilterENS_16DefaultAllocatorEEEP5PrintRKNS_9JSONValueE+0x42>
        return new(std::nothrow) StreamLogHandler(*stream, level, std::move(filters));
 23fb402:	4629      	mov	r1, r5
 23fb404:	a801      	add	r0, sp, #4
 23fb406:	f7ff fce2 	bl	23fadce <_ZN5spark6VectorINS_17LogCategoryFilterENS_16DefaultAllocatorEEC1EOS3_>
 23fb40a:	2024      	movs	r0, #36	; 0x24
 23fb40c:	4907      	ldr	r1, [pc, #28]	; (23fb42c <_ZN5spark24DefaultLogHandlerFactory13createHandlerEPKc8LogLevelNS_6VectorINS_17LogCategoryFilterENS_16DefaultAllocatorEEEP5PrintRKNS_9JSONValueE+0x80>)
 23fb40e:	f001 fd63 	bl	23fced8 <_ZnwjRKSt9nothrow_t>
 23fb412:	4605      	mov	r5, r0
 23fb414:	2800      	cmp	r0, #0
 23fb416:	d0e6      	beq.n	23fb3e6 <_ZN5spark24DefaultLogHandlerFactory13createHandlerEPKc8LogLevelNS_6VectorINS_17LogCategoryFilterENS_16DefaultAllocatorEEEP5PrintRKNS_9JSONValueE+0x3a>
 23fb418:	4632      	mov	r2, r6
 23fb41a:	4621      	mov	r1, r4
 23fb41c:	ab01      	add	r3, sp, #4
 23fb41e:	f7ff ff9f 	bl	23fb360 <_ZN5spark16StreamLogHandlerC1ER5Print8LogLevelNS_6VectorINS_17LogCategoryFilterENS_16DefaultAllocatorEEE>
 23fb422:	e7e0      	b.n	23fb3e6 <_ZN5spark24DefaultLogHandlerFactory13createHandlerEPKc8LogLevelNS_6VectorINS_17LogCategoryFilterENS_16DefaultAllocatorEEEP5PrintRKNS_9JSONValueE+0x3a>
            return nullptr; // Output stream is not specified
 23fb424:	2400      	movs	r4, #0
 23fb426:	e7e2      	b.n	23fb3ee <_ZN5spark24DefaultLogHandlerFactory13createHandlerEPKc8LogLevelNS_6VectorINS_17LogCategoryFilterENS_16DefaultAllocatorEEEP5PrintRKNS_9JSONValueE+0x42>
 23fb428:	023ff94c 	.word	0x023ff94c
 23fb42c:	023ffba8 	.word	0x023ffba8
 23fb430:	023ff9c8 	.word	0x023ff9c8
 23fb434:	023ff950 	.word	0x023ff950

023fb438 <_GLOBAL__sub_I__ZN5spark3LogE>:
        name_(name) {
 23fb438:	4b01      	ldr	r3, [pc, #4]	; (23fb440 <_GLOBAL__sub_I__ZN5spark3LogE+0x8>)
 23fb43a:	4a02      	ldr	r2, [pc, #8]	; (23fb444 <_GLOBAL__sub_I__ZN5spark3LogE+0xc>)
 23fb43c:	601a      	str	r2, [r3, #0]
#if Wiring_LogConfig

// spark::
void spark::logProcessControlRequest(ctrl_request* req) {
    JSONRequestHandler::process(req);
}
 23fb43e:	4770      	bx	lr
 23fb440:	1007aeb4 	.word	0x1007aeb4
 23fb444:	023ff961 	.word	0x023ff961

023fb448 <_ZN5spark16StreamLogHandler10logMessageEPKc8LogLevelS2_RK13LogAttributes>:
void spark::StreamLogHandler::logMessage(const char *msg, LogLevel level, const char *category, const LogAttributes &attr) {
 23fb448:	e92d 47f0 	stmdb	sp!, {r4, r5, r6, r7, r8, r9, sl, lr}
 23fb44c:	9d08      	ldr	r5, [sp, #32]
    if (stream_ == &Serial) {
 23fb44e:	f8d0 9020 	ldr.w	r9, [r0, #32]
void spark::StreamLogHandler::logMessage(const char *msg, LogLevel level, const char *category, const LogAttributes &attr) {
 23fb452:	4604      	mov	r4, r0
 23fb454:	460e      	mov	r6, r1
 23fb456:	4617      	mov	r7, r2
 23fb458:	4698      	mov	r8, r3
    if (stream_ == &Serial) {
 23fb45a:	f000 fee5 	bl	23fc228 <_Z16_fetch_usbserialv>
 23fb45e:	4581      	cmp	r9, r0
 23fb460:	d04d      	beq.n	23fb4fe <_ZN5spark16StreamLogHandler10logMessageEPKc8LogLevelS2_RK13LogAttributes+0xb6>
    if (attr.has_time) {
 23fb462:	792b      	ldrb	r3, [r5, #4]
 23fb464:	0719      	lsls	r1, r3, #28
 23fb466:	d504      	bpl.n	23fb472 <_ZN5spark16StreamLogHandler10logMessageEPKc8LogLevelS2_RK13LogAttributes+0x2a>
        printf("%010u ", (unsigned)attr.time);
 23fb468:	4620      	mov	r0, r4
 23fb46a:	696a      	ldr	r2, [r5, #20]
 23fb46c:	4954      	ldr	r1, [pc, #336]	; (23fb5c0 <_ZN5spark16StreamLogHandler10logMessageEPKc8LogLevelS2_RK13LogAttributes+0x178>)
 23fb46e:	f7ff fb12 	bl	23faa96 <_ZN5spark16StreamLogHandler6printfEPKcz>
    if (category) {
 23fb472:	f1b8 0f00 	cmp.w	r8, #0
 23fb476:	d00d      	beq.n	23fb494 <_ZN5spark16StreamLogHandler10logMessageEPKc8LogLevelS2_RK13LogAttributes+0x4c>
        write('[');
 23fb478:	215b      	movs	r1, #91	; 0x5b
 23fb47a:	4620      	mov	r0, r4
 23fb47c:	f7ff fa9a 	bl	23fa9b4 <_ZN5spark16StreamLogHandler5writeEc>
        write(category);
 23fb480:	4641      	mov	r1, r8
 23fb482:	4620      	mov	r0, r4
 23fb484:	f7ff fa87 	bl	23fa996 <_ZN5spark16StreamLogHandler5writeEPKc>
        write("] ", 2);
 23fb488:	6823      	ldr	r3, [r4, #0]
 23fb48a:	2202      	movs	r2, #2
 23fb48c:	4620      	mov	r0, r4
 23fb48e:	68db      	ldr	r3, [r3, #12]
 23fb490:	494c      	ldr	r1, [pc, #304]	; (23fb5c4 <_ZN5spark16StreamLogHandler10logMessageEPKc8LogLevelS2_RK13LogAttributes+0x17c>)
 23fb492:	4798      	blx	r3
    if (attr.has_file) {
 23fb494:	792b      	ldrb	r3, [r5, #4]
 23fb496:	07da      	lsls	r2, r3, #31
 23fb498:	d524      	bpl.n	23fb4e4 <_ZN5spark16StreamLogHandler10logMessageEPKc8LogLevelS2_RK13LogAttributes+0x9c>
        s = extractFileName(attr.file); // Strip directory path
 23fb49a:	f8d5 8008 	ldr.w	r8, [r5, #8]
    const char *s1 = strrchr(s, '/');
 23fb49e:	212f      	movs	r1, #47	; 0x2f
 23fb4a0:	4640      	mov	r0, r8
 23fb4a2:	f001 fe1e 	bl	23fd0e2 <strrchr>
    if (s1) {
 23fb4a6:	b108      	cbz	r0, 23fb4ac <_ZN5spark16StreamLogHandler10logMessageEPKc8LogLevelS2_RK13LogAttributes+0x64>
        return s1 + 1;
 23fb4a8:	f100 0801 	add.w	r8, r0, #1
        write(s); // File name
 23fb4ac:	4641      	mov	r1, r8
 23fb4ae:	4620      	mov	r0, r4
 23fb4b0:	f7ff fa71 	bl	23fa996 <_ZN5spark16StreamLogHandler5writeEPKc>
        if (attr.has_line) {
 23fb4b4:	792b      	ldrb	r3, [r5, #4]
 23fb4b6:	079b      	lsls	r3, r3, #30
 23fb4b8:	d508      	bpl.n	23fb4cc <_ZN5spark16StreamLogHandler10logMessageEPKc8LogLevelS2_RK13LogAttributes+0x84>
            write(':');
 23fb4ba:	213a      	movs	r1, #58	; 0x3a
 23fb4bc:	4620      	mov	r0, r4
 23fb4be:	f7ff fa79 	bl	23fa9b4 <_ZN5spark16StreamLogHandler5writeEc>
            printf("%d", (int)attr.line); // Line number
 23fb4c2:	4620      	mov	r0, r4
 23fb4c4:	68ea      	ldr	r2, [r5, #12]
 23fb4c6:	4940      	ldr	r1, [pc, #256]	; (23fb5c8 <_ZN5spark16StreamLogHandler10logMessageEPKc8LogLevelS2_RK13LogAttributes+0x180>)
 23fb4c8:	f7ff fae5 	bl	23faa96 <_ZN5spark16StreamLogHandler6printfEPKcz>
        if (attr.has_function) {
 23fb4cc:	792a      	ldrb	r2, [r5, #4]
            write(", ", 2);
 23fb4ce:	6823      	ldr	r3, [r4, #0]
        if (attr.has_function) {
 23fb4d0:	f012 0f04 	tst.w	r2, #4
            write(": ", 2);
 23fb4d4:	4620      	mov	r0, r4
            write(", ", 2);
 23fb4d6:	f04f 0202 	mov.w	r2, #2
 23fb4da:	68db      	ldr	r3, [r3, #12]
 23fb4dc:	bf14      	ite	ne
 23fb4de:	493b      	ldrne	r1, [pc, #236]	; (23fb5cc <_ZN5spark16StreamLogHandler10logMessageEPKc8LogLevelS2_RK13LogAttributes+0x184>)
            write(": ", 2);
 23fb4e0:	493b      	ldreq	r1, [pc, #236]	; (23fb5d0 <_ZN5spark16StreamLogHandler10logMessageEPKc8LogLevelS2_RK13LogAttributes+0x188>)
 23fb4e2:	4798      	blx	r3
    if (attr.has_function) {
 23fb4e4:	792b      	ldrb	r3, [r5, #4]
 23fb4e6:	0758      	lsls	r0, r3, #29
 23fb4e8:	d51d      	bpl.n	23fb526 <_ZN5spark16StreamLogHandler10logMessageEPKc8LogLevelS2_RK13LogAttributes+0xde>
        s = extractFuncName(attr.function, &n); // Strip argument and return types
 23fb4ea:	6929      	ldr	r1, [r5, #16]
const char* extractFuncName(const char *s, size_t *size) {
 23fb4ec:	460b      	mov	r3, r1
 23fb4ee:	461a      	mov	r2, r3
    for (; *s; ++s) {
 23fb4f0:	f813 0b01 	ldrb.w	r0, [r3], #1
 23fb4f4:	b160      	cbz	r0, 23fb510 <_ZN5spark16StreamLogHandler10logMessageEPKc8LogLevelS2_RK13LogAttributes+0xc8>
        if (*s == ' ') {
 23fb4f6:	2820      	cmp	r0, #32
 23fb4f8:	d108      	bne.n	23fb50c <_ZN5spark16StreamLogHandler10logMessageEPKc8LogLevelS2_RK13LogAttributes+0xc4>
            s1 = s + 1; // Skip return type
 23fb4fa:	4619      	mov	r1, r3
 23fb4fc:	e7f7      	b.n	23fb4ee <_ZN5spark16StreamLogHandler10logMessageEPKc8LogLevelS2_RK13LogAttributes+0xa6>
        if (Network.listening()) {
 23fb4fe:	4835      	ldr	r0, [pc, #212]	; (23fb5d4 <_ZN5spark16StreamLogHandler10logMessageEPKc8LogLevelS2_RK13LogAttributes+0x18c>)
 23fb500:	f001 fa7d 	bl	23fc9fe <_ZN5spark12NetworkClass9listeningEv>
 23fb504:	2800      	cmp	r0, #0
 23fb506:	d0ac      	beq.n	23fb462 <_ZN5spark16StreamLogHandler10logMessageEPKc8LogLevelS2_RK13LogAttributes+0x1a>
}
 23fb508:	e8bd 87f0 	ldmia.w	sp!, {r4, r5, r6, r7, r8, r9, sl, pc}
        } else if (*s == '(') {
 23fb50c:	2828      	cmp	r0, #40	; 0x28
 23fb50e:	d1ee      	bne.n	23fb4ee <_ZN5spark16StreamLogHandler10logMessageEPKc8LogLevelS2_RK13LogAttributes+0xa6>
        write(s, n);
 23fb510:	6823      	ldr	r3, [r4, #0]
 23fb512:	1a52      	subs	r2, r2, r1
 23fb514:	4620      	mov	r0, r4
 23fb516:	68db      	ldr	r3, [r3, #12]
 23fb518:	4798      	blx	r3
        write("(): ", 4);
 23fb51a:	6823      	ldr	r3, [r4, #0]
 23fb51c:	2204      	movs	r2, #4
 23fb51e:	4620      	mov	r0, r4
 23fb520:	68db      	ldr	r3, [r3, #12]
 23fb522:	492d      	ldr	r1, [pc, #180]	; (23fb5d8 <_ZN5spark16StreamLogHandler10logMessageEPKc8LogLevelS2_RK13LogAttributes+0x190>)
 23fb524:	4798      	blx	r3
    return log_level_name(level, nullptr);
 23fb526:	2100      	movs	r1, #0
 23fb528:	4638      	mov	r0, r7
 23fb52a:	f7fe fbc1 	bl	23f9cb0 <log_level_name>
 23fb52e:	4601      	mov	r1, r0
    write(s);
 23fb530:	4620      	mov	r0, r4
 23fb532:	f7ff fa30 	bl	23fa996 <_ZN5spark16StreamLogHandler5writeEPKc>
    write(": ", 2);
 23fb536:	6823      	ldr	r3, [r4, #0]
 23fb538:	2202      	movs	r2, #2
 23fb53a:	4620      	mov	r0, r4
 23fb53c:	68db      	ldr	r3, [r3, #12]
 23fb53e:	4924      	ldr	r1, [pc, #144]	; (23fb5d0 <_ZN5spark16StreamLogHandler10logMessageEPKc8LogLevelS2_RK13LogAttributes+0x188>)
 23fb540:	4798      	blx	r3
    if (msg) {
 23fb542:	b11e      	cbz	r6, 23fb54c <_ZN5spark16StreamLogHandler10logMessageEPKc8LogLevelS2_RK13LogAttributes+0x104>
        write(msg);
 23fb544:	4631      	mov	r1, r6
 23fb546:	4620      	mov	r0, r4
 23fb548:	f7ff fa25 	bl	23fa996 <_ZN5spark16StreamLogHandler5writeEPKc>
    if (attr.has_code || attr.has_details) {
 23fb54c:	792b      	ldrb	r3, [r5, #4]
 23fb54e:	f013 0f30 	tst.w	r3, #48	; 0x30
 23fb552:	d02c      	beq.n	23fb5ae <_ZN5spark16StreamLogHandler10logMessageEPKc8LogLevelS2_RK13LogAttributes+0x166>
        write(" [", 2);
 23fb554:	6823      	ldr	r3, [r4, #0]
 23fb556:	4921      	ldr	r1, [pc, #132]	; (23fb5dc <_ZN5spark16StreamLogHandler10logMessageEPKc8LogLevelS2_RK13LogAttributes+0x194>)
 23fb558:	68db      	ldr	r3, [r3, #12]
 23fb55a:	2202      	movs	r2, #2
 23fb55c:	4620      	mov	r0, r4
 23fb55e:	4798      	blx	r3
        if (attr.has_code) {
 23fb560:	792b      	ldrb	r3, [r5, #4]
 23fb562:	06d9      	lsls	r1, r3, #27
 23fb564:	d50a      	bpl.n	23fb57c <_ZN5spark16StreamLogHandler10logMessageEPKc8LogLevelS2_RK13LogAttributes+0x134>
            write("code = ", 7);
 23fb566:	6823      	ldr	r3, [r4, #0]
 23fb568:	2207      	movs	r2, #7
 23fb56a:	4620      	mov	r0, r4
 23fb56c:	491c      	ldr	r1, [pc, #112]	; (23fb5e0 <_ZN5spark16StreamLogHandler10logMessageEPKc8LogLevelS2_RK13LogAttributes+0x198>)
 23fb56e:	68db      	ldr	r3, [r3, #12]
 23fb570:	4798      	blx	r3
            printf("%" PRIiPTR, (intptr_t)attr.code);
 23fb572:	4620      	mov	r0, r4
 23fb574:	69aa      	ldr	r2, [r5, #24]
 23fb576:	491b      	ldr	r1, [pc, #108]	; (23fb5e4 <_ZN5spark16StreamLogHandler10logMessageEPKc8LogLevelS2_RK13LogAttributes+0x19c>)
 23fb578:	f7ff fa8d 	bl	23faa96 <_ZN5spark16StreamLogHandler6printfEPKcz>
        if (attr.has_details) {
 23fb57c:	792b      	ldrb	r3, [r5, #4]
 23fb57e:	069a      	lsls	r2, r3, #26
 23fb580:	d511      	bpl.n	23fb5a6 <_ZN5spark16StreamLogHandler10logMessageEPKc8LogLevelS2_RK13LogAttributes+0x15e>
            if (attr.has_code) {
 23fb582:	06db      	lsls	r3, r3, #27
 23fb584:	d505      	bpl.n	23fb592 <_ZN5spark16StreamLogHandler10logMessageEPKc8LogLevelS2_RK13LogAttributes+0x14a>
                write(", ", 2);
 23fb586:	6823      	ldr	r3, [r4, #0]
 23fb588:	2202      	movs	r2, #2
 23fb58a:	4620      	mov	r0, r4
 23fb58c:	68db      	ldr	r3, [r3, #12]
 23fb58e:	490f      	ldr	r1, [pc, #60]	; (23fb5cc <_ZN5spark16StreamLogHandler10logMessageEPKc8LogLevelS2_RK13LogAttributes+0x184>)
 23fb590:	4798      	blx	r3
            write("details = ", 10);
 23fb592:	6823      	ldr	r3, [r4, #0]
 23fb594:	4620      	mov	r0, r4
 23fb596:	4914      	ldr	r1, [pc, #80]	; (23fb5e8 <_ZN5spark16StreamLogHandler10logMessageEPKc8LogLevelS2_RK13LogAttributes+0x1a0>)
 23fb598:	220a      	movs	r2, #10
 23fb59a:	68db      	ldr	r3, [r3, #12]
 23fb59c:	4798      	blx	r3
            write(attr.details);
 23fb59e:	4620      	mov	r0, r4
 23fb5a0:	69e9      	ldr	r1, [r5, #28]
 23fb5a2:	f7ff f9f8 	bl	23fa996 <_ZN5spark16StreamLogHandler5writeEPKc>
        write(']');
 23fb5a6:	215d      	movs	r1, #93	; 0x5d
 23fb5a8:	4620      	mov	r0, r4
 23fb5aa:	f7ff fa03 	bl	23fa9b4 <_ZN5spark16StreamLogHandler5writeEc>
    write("\r\n", 2);
 23fb5ae:	6823      	ldr	r3, [r4, #0]
 23fb5b0:	4620      	mov	r0, r4
}
 23fb5b2:	e8bd 47f0 	ldmia.w	sp!, {r4, r5, r6, r7, r8, r9, sl, lr}
    write("\r\n", 2);
 23fb5b6:	2202      	movs	r2, #2
 23fb5b8:	68db      	ldr	r3, [r3, #12]
 23fb5ba:	490c      	ldr	r1, [pc, #48]	; (23fb5ec <_ZN5spark16StreamLogHandler10logMessageEPKc8LogLevelS2_RK13LogAttributes+0x1a4>)
 23fb5bc:	4718      	bx	r3
 23fb5be:	bf00      	nop
 23fb5c0:	023ff965 	.word	0x023ff965
 23fb5c4:	023ff96c 	.word	0x023ff96c
 23fb5c8:	023ff378 	.word	0x023ff378
 23fb5cc:	023ff96f 	.word	0x023ff96f
 23fb5d0:	023ff974 	.word	0x023ff974
 23fb5d4:	1007af74 	.word	0x1007af74
 23fb5d8:	023ff972 	.word	0x023ff972
 23fb5dc:	023ff977 	.word	0x023ff977
 23fb5e0:	023ff97a 	.word	0x023ff97a
 23fb5e4:	023ff982 	.word	0x023ff982
 23fb5e8:	023ff985 	.word	0x023ff985
 23fb5ec:	023ff990 	.word	0x023ff990

023fb5f0 <_ZN5spark16StreamLogHandler5writeEPKcj>:
void spark::StreamLogHandler::write(const char *data, size_t size) {
 23fb5f0:	e92d 41f0 	stmdb	sp!, {r4, r5, r6, r7, r8, lr}
 23fb5f4:	4604      	mov	r4, r0
    if (stream_ == &Serial && Network.listening()) {
 23fb5f6:	6a07      	ldr	r7, [r0, #32]
void spark::StreamLogHandler::write(const char *data, size_t size) {
 23fb5f8:	460d      	mov	r5, r1
 23fb5fa:	4616      	mov	r6, r2
    if (stream_ == &Serial && Network.listening()) {
 23fb5fc:	f000 fe14 	bl	23fc228 <_Z16_fetch_usbserialv>
 23fb600:	4287      	cmp	r7, r0
 23fb602:	d007      	beq.n	23fb614 <_ZN5spark16StreamLogHandler5writeEPKcj+0x24>
    stream_->write((const uint8_t*)data, size);
 23fb604:	6a20      	ldr	r0, [r4, #32]
 23fb606:	4632      	mov	r2, r6
 23fb608:	6803      	ldr	r3, [r0, #0]
 23fb60a:	4629      	mov	r1, r5
}
 23fb60c:	e8bd 41f0 	ldmia.w	sp!, {r4, r5, r6, r7, r8, lr}
    stream_->write((const uint8_t*)data, size);
 23fb610:	68db      	ldr	r3, [r3, #12]
 23fb612:	4718      	bx	r3
    if (stream_ == &Serial && Network.listening()) {
 23fb614:	4803      	ldr	r0, [pc, #12]	; (23fb624 <_ZN5spark16StreamLogHandler5writeEPKcj+0x34>)
 23fb616:	f001 f9f2 	bl	23fc9fe <_ZN5spark12NetworkClass9listeningEv>
 23fb61a:	2800      	cmp	r0, #0
 23fb61c:	d0f2      	beq.n	23fb604 <_ZN5spark16StreamLogHandler5writeEPKcj+0x14>
}
 23fb61e:	e8bd 81f0 	ldmia.w	sp!, {r4, r5, r6, r7, r8, pc}
 23fb622:	bf00      	nop
 23fb624:	1007af74 	.word	0x1007af74

023fb628 <_ZN5spark20JSONStreamLogHandler10logMessageEPKc8LogLevelS2_RK13LogAttributes>:
void spark::JSONStreamLogHandler::logMessage(const char *msg, LogLevel level, const char *category, const LogAttributes &attr) {
 23fb628:	e92d 43f0 	stmdb	sp!, {r4, r5, r6, r7, r8, r9, lr}
 23fb62c:	b085      	sub	sp, #20
    return stream_;
 23fb62e:	f8d0 9020 	ldr.w	r9, [r0, #32]
 23fb632:	4605      	mov	r5, r0
 23fb634:	460f      	mov	r7, r1
 23fb636:	4690      	mov	r8, r2
 23fb638:	461e      	mov	r6, r3
 23fb63a:	9c0c      	ldr	r4, [sp, #48]	; 0x30
    if (this->stream() == &Serial && Network.listening()) {
 23fb63c:	f000 fdf4 	bl	23fc228 <_Z16_fetch_usbserialv>
 23fb640:	4581      	cmp	r9, r0
 23fb642:	d105      	bne.n	23fb650 <_ZN5spark20JSONStreamLogHandler10logMessageEPKc8LogLevelS2_RK13LogAttributes+0x28>
 23fb644:	4849      	ldr	r0, [pc, #292]	; (23fb76c <_ZN5spark20JSONStreamLogHandler10logMessageEPKc8LogLevelS2_RK13LogAttributes+0x144>)
 23fb646:	f001 f9da 	bl	23fc9fe <_ZN5spark12NetworkClass9listeningEv>
 23fb64a:	2800      	cmp	r0, #0
 23fb64c:	f040 808a 	bne.w	23fb764 <_ZN5spark20JSONStreamLogHandler10logMessageEPKc8LogLevelS2_RK13LogAttributes+0x13c>
        state_(BEGIN) {
 23fb650:	f04f 0900 	mov.w	r9, #0
 23fb654:	6a2b      	ldr	r3, [r5, #32]
        bytesWritten_(0) {
 23fb656:	4a46      	ldr	r2, [pc, #280]	; (23fb770 <_ZN5spark20JSONStreamLogHandler10logMessageEPKc8LogLevelS2_RK13LogAttributes+0x148>)
    json.beginObject();
 23fb658:	4668      	mov	r0, sp
 23fb65a:	e9cd 3902 	strd	r3, r9, [sp, #8]
 23fb65e:	9200      	str	r2, [sp, #0]
        state_(BEGIN) {
 23fb660:	f88d 9004 	strb.w	r9, [sp, #4]
 23fb664:	f000 ff2d 	bl	23fc4c2 <_ZN5spark10JSONWriter11beginObjectEv>
    return log_level_name(level, nullptr);
 23fb668:	4649      	mov	r1, r9
 23fb66a:	4640      	mov	r0, r8
 23fb66c:	f7fe fb20 	bl	23f9cb0 <log_level_name>
 23fb670:	4680      	mov	r8, r0
    json.name("l", 1).value(s);
 23fb672:	4940      	ldr	r1, [pc, #256]	; (23fb774 <_ZN5spark20JSONStreamLogHandler10logMessageEPKc8LogLevelS2_RK13LogAttributes+0x14c>)
 23fb674:	2201      	movs	r2, #1
 23fb676:	4668      	mov	r0, sp
 23fb678:	f000 ffb2 	bl	23fc5e0 <_ZN5spark10JSONWriter4nameEPKcj>
 23fb67c:	4641      	mov	r1, r8
 23fb67e:	f7ff f97c 	bl	23fa97a <_ZN5spark10JSONWriter5valueEPKc>
    if (msg) {
 23fb682:	b13f      	cbz	r7, 23fb694 <_ZN5spark20JSONStreamLogHandler10logMessageEPKc8LogLevelS2_RK13LogAttributes+0x6c>
        json.name("m", 1).value(msg);
 23fb684:	493c      	ldr	r1, [pc, #240]	; (23fb778 <_ZN5spark20JSONStreamLogHandler10logMessageEPKc8LogLevelS2_RK13LogAttributes+0x150>)
 23fb686:	2201      	movs	r2, #1
 23fb688:	4668      	mov	r0, sp
 23fb68a:	f000 ffa9 	bl	23fc5e0 <_ZN5spark10JSONWriter4nameEPKcj>
 23fb68e:	4639      	mov	r1, r7
 23fb690:	f7ff f973 	bl	23fa97a <_ZN5spark10JSONWriter5valueEPKc>
    if (category) {
 23fb694:	b13e      	cbz	r6, 23fb6a6 <_ZN5spark20JSONStreamLogHandler10logMessageEPKc8LogLevelS2_RK13LogAttributes+0x7e>
        json.name("c", 1).value(category);
 23fb696:	4939      	ldr	r1, [pc, #228]	; (23fb77c <_ZN5spark20JSONStreamLogHandler10logMessageEPKc8LogLevelS2_RK13LogAttributes+0x154>)
 23fb698:	2201      	movs	r2, #1
 23fb69a:	4668      	mov	r0, sp
 23fb69c:	f000 ffa0 	bl	23fc5e0 <_ZN5spark10JSONWriter4nameEPKcj>
 23fb6a0:	4631      	mov	r1, r6
 23fb6a2:	f7ff f96a 	bl	23fa97a <_ZN5spark10JSONWriter5valueEPKc>
    if (attr.has_file) {
 23fb6a6:	7923      	ldrb	r3, [r4, #4]
 23fb6a8:	07df      	lsls	r7, r3, #31
 23fb6aa:	d50e      	bpl.n	23fb6ca <_ZN5spark20JSONStreamLogHandler10logMessageEPKc8LogLevelS2_RK13LogAttributes+0xa2>
        s = extractFileName(attr.file); // Strip directory path
 23fb6ac:	68a6      	ldr	r6, [r4, #8]
    const char *s1 = strrchr(s, '/');
 23fb6ae:	212f      	movs	r1, #47	; 0x2f
 23fb6b0:	4630      	mov	r0, r6
 23fb6b2:	f001 fd16 	bl	23fd0e2 <strrchr>
    if (s1) {
 23fb6b6:	b100      	cbz	r0, 23fb6ba <_ZN5spark20JSONStreamLogHandler10logMessageEPKc8LogLevelS2_RK13LogAttributes+0x92>
        return s1 + 1;
 23fb6b8:	1c46      	adds	r6, r0, #1
        json.name("f", 1).value(s);
 23fb6ba:	4931      	ldr	r1, [pc, #196]	; (23fb780 <_ZN5spark20JSONStreamLogHandler10logMessageEPKc8LogLevelS2_RK13LogAttributes+0x158>)
 23fb6bc:	2201      	movs	r2, #1
 23fb6be:	4668      	mov	r0, sp
 23fb6c0:	f000 ff8e 	bl	23fc5e0 <_ZN5spark10JSONWriter4nameEPKcj>
 23fb6c4:	4631      	mov	r1, r6
 23fb6c6:	f7ff f958 	bl	23fa97a <_ZN5spark10JSONWriter5valueEPKc>
    if (attr.has_line) {
 23fb6ca:	7923      	ldrb	r3, [r4, #4]
 23fb6cc:	079e      	lsls	r6, r3, #30
 23fb6ce:	d507      	bpl.n	23fb6e0 <_ZN5spark20JSONStreamLogHandler10logMessageEPKc8LogLevelS2_RK13LogAttributes+0xb8>
        json.name("ln", 2).value(attr.line);
 23fb6d0:	492c      	ldr	r1, [pc, #176]	; (23fb784 <_ZN5spark20JSONStreamLogHandler10logMessageEPKc8LogLevelS2_RK13LogAttributes+0x15c>)
 23fb6d2:	2202      	movs	r2, #2
 23fb6d4:	4668      	mov	r0, sp
 23fb6d6:	f000 ff83 	bl	23fc5e0 <_ZN5spark10JSONWriter4nameEPKcj>
 23fb6da:	68e1      	ldr	r1, [r4, #12]
 23fb6dc:	f000 fefe 	bl	23fc4dc <_ZN5spark10JSONWriter5valueEi>
    if (attr.has_function) {
 23fb6e0:	7923      	ldrb	r3, [r4, #4]
 23fb6e2:	0758      	lsls	r0, r3, #29
 23fb6e4:	d514      	bpl.n	23fb710 <_ZN5spark20JSONStreamLogHandler10logMessageEPKc8LogLevelS2_RK13LogAttributes+0xe8>
        s = extractFuncName(attr.function, &n); // Strip argument and return types
 23fb6e6:	6926      	ldr	r6, [r4, #16]
const char* extractFuncName(const char *s, size_t *size) {
 23fb6e8:	4633      	mov	r3, r6
 23fb6ea:	461f      	mov	r7, r3
    for (; *s; ++s) {
 23fb6ec:	f813 2b01 	ldrb.w	r2, [r3], #1
 23fb6f0:	b12a      	cbz	r2, 23fb6fe <_ZN5spark20JSONStreamLogHandler10logMessageEPKc8LogLevelS2_RK13LogAttributes+0xd6>
        if (*s == ' ') {
 23fb6f2:	2a20      	cmp	r2, #32
 23fb6f4:	d101      	bne.n	23fb6fa <_ZN5spark20JSONStreamLogHandler10logMessageEPKc8LogLevelS2_RK13LogAttributes+0xd2>
            s1 = s + 1; // Skip return type
 23fb6f6:	461e      	mov	r6, r3
 23fb6f8:	e7f7      	b.n	23fb6ea <_ZN5spark20JSONStreamLogHandler10logMessageEPKc8LogLevelS2_RK13LogAttributes+0xc2>
        } else if (*s == '(') {
 23fb6fa:	2a28      	cmp	r2, #40	; 0x28
 23fb6fc:	d1f5      	bne.n	23fb6ea <_ZN5spark20JSONStreamLogHandler10logMessageEPKc8LogLevelS2_RK13LogAttributes+0xc2>
        json.name("fn", 2).value(s, n);
 23fb6fe:	2202      	movs	r2, #2
 23fb700:	4921      	ldr	r1, [pc, #132]	; (23fb788 <_ZN5spark20JSONStreamLogHandler10logMessageEPKc8LogLevelS2_RK13LogAttributes+0x160>)
 23fb702:	4668      	mov	r0, sp
 23fb704:	f000 ff6c 	bl	23fc5e0 <_ZN5spark10JSONWriter4nameEPKcj>
 23fb708:	4631      	mov	r1, r6
 23fb70a:	1bba      	subs	r2, r7, r6
 23fb70c:	f000 ff78 	bl	23fc600 <_ZN5spark10JSONWriter5valueEPKcj>
    if (attr.has_time) {
 23fb710:	7923      	ldrb	r3, [r4, #4]
 23fb712:	0719      	lsls	r1, r3, #28
 23fb714:	d507      	bpl.n	23fb726 <_ZN5spark20JSONStreamLogHandler10logMessageEPKc8LogLevelS2_RK13LogAttributes+0xfe>
        json.name("t", 1).value((unsigned)attr.time);
 23fb716:	491d      	ldr	r1, [pc, #116]	; (23fb78c <_ZN5spark20JSONStreamLogHandler10logMessageEPKc8LogLevelS2_RK13LogAttributes+0x164>)
 23fb718:	2201      	movs	r2, #1
 23fb71a:	4668      	mov	r0, sp
 23fb71c:	f000 ff60 	bl	23fc5e0 <_ZN5spark10JSONWriter4nameEPKcj>
 23fb720:	6961      	ldr	r1, [r4, #20]
 23fb722:	f000 feed 	bl	23fc500 <_ZN5spark10JSONWriter5valueEj>
    if (attr.has_code) {
 23fb726:	7923      	ldrb	r3, [r4, #4]
 23fb728:	06da      	lsls	r2, r3, #27
 23fb72a:	d507      	bpl.n	23fb73c <_ZN5spark20JSONStreamLogHandler10logMessageEPKc8LogLevelS2_RK13LogAttributes+0x114>
        json.name("code", 4).value((int)attr.code);
 23fb72c:	4918      	ldr	r1, [pc, #96]	; (23fb790 <_ZN5spark20JSONStreamLogHandler10logMessageEPKc8LogLevelS2_RK13LogAttributes+0x168>)
 23fb72e:	2204      	movs	r2, #4
 23fb730:	4668      	mov	r0, sp
 23fb732:	f000 ff55 	bl	23fc5e0 <_ZN5spark10JSONWriter4nameEPKcj>
 23fb736:	69a1      	ldr	r1, [r4, #24]
 23fb738:	f000 fed0 	bl	23fc4dc <_ZN5spark10JSONWriter5valueEi>
    if (attr.has_details) {
 23fb73c:	7923      	ldrb	r3, [r4, #4]
 23fb73e:	069b      	lsls	r3, r3, #26
 23fb740:	d507      	bpl.n	23fb752 <_ZN5spark20JSONStreamLogHandler10logMessageEPKc8LogLevelS2_RK13LogAttributes+0x12a>
        json.name("detail", 6).value(attr.details);
 23fb742:	4914      	ldr	r1, [pc, #80]	; (23fb794 <_ZN5spark20JSONStreamLogHandler10logMessageEPKc8LogLevelS2_RK13LogAttributes+0x16c>)
 23fb744:	2206      	movs	r2, #6
 23fb746:	4668      	mov	r0, sp
 23fb748:	f000 ff4a 	bl	23fc5e0 <_ZN5spark10JSONWriter4nameEPKcj>
 23fb74c:	69e1      	ldr	r1, [r4, #28]
 23fb74e:	f7ff f914 	bl	23fa97a <_ZN5spark10JSONWriter5valueEPKc>
    json.endObject();
 23fb752:	4668      	mov	r0, sp
 23fb754:	f000 fe9f 	bl	23fc496 <_ZN5spark10JSONWriter9endObjectEv>
    return stream_;
 23fb758:	6a28      	ldr	r0, [r5, #32]
    this->stream()->write((const uint8_t*)"\r\n", 2);
 23fb75a:	2202      	movs	r2, #2
 23fb75c:	6803      	ldr	r3, [r0, #0]
 23fb75e:	490e      	ldr	r1, [pc, #56]	; (23fb798 <_ZN5spark20JSONStreamLogHandler10logMessageEPKc8LogLevelS2_RK13LogAttributes+0x170>)
 23fb760:	68db      	ldr	r3, [r3, #12]
 23fb762:	4798      	blx	r3
}
 23fb764:	b005      	add	sp, #20
 23fb766:	e8bd 83f0 	ldmia.w	sp!, {r4, r5, r6, r7, r8, r9, pc}
 23fb76a:	bf00      	nop
 23fb76c:	1007af74 	.word	0x1007af74
 23fb770:	023ff928 	.word	0x023ff928
 23fb774:	023ff664 	.word	0x023ff664
 23fb778:	023ff7eb 	.word	0x023ff7eb
 23fb77c:	023ffec8 	.word	0x023ffec8
 23fb780:	023ff889 	.word	0x023ff889
 23fb784:	023ff993 	.word	0x023ff993
 23fb788:	023ff996 	.word	0x023ff996
 23fb78c:	023ff0c6 	.word	0x023ff0c6
 23fb790:	023ff999 	.word	0x023ff999
 23fb794:	023ff99e 	.word	0x023ff99e
 23fb798:	023ff990 	.word	0x023ff990

023fb79c <_ZL22Refresh_UnixTime_Cachex>:
	return calendar_time;
}

/* Refresh Unix/RTC time cache */
static void Refresh_UnixTime_Cache(time_t unix_time)
{
 23fb79c:	e92d 41f0 	stmdb	sp!, {r4, r5, r6, r7, r8, lr}
    unix_time += time_zone_cache;
 23fb7a0:	4a15      	ldr	r2, [pc, #84]	; (23fb7f8 <_ZL22Refresh_UnixTime_Cachex+0x5c>)
    unix_time += dst_current_cache;
    if(unix_time != unix_time_cache)
 23fb7a2:	f8df 8060 	ldr.w	r8, [pc, #96]	; 23fb804 <_ZL22Refresh_UnixTime_Cachex+0x68>
    unix_time += time_zone_cache;
 23fb7a6:	e9d2 6300 	ldrd	r6, r3, [r2]
 23fb7aa:	1980      	adds	r0, r0, r6
 23fb7ac:	eb43 0101 	adc.w	r1, r3, r1
    unix_time += dst_current_cache;
 23fb7b0:	4b12      	ldr	r3, [pc, #72]	; (23fb7fc <_ZL22Refresh_UnixTime_Cachex+0x60>)
{
 23fb7b2:	b08c      	sub	sp, #48	; 0x30
    unix_time += dst_current_cache;
 23fb7b4:	e9d3 6700 	ldrd	r6, r7, [r3]
 23fb7b8:	1986      	adds	r6, r0, r6
 23fb7ba:	eb41 0707 	adc.w	r7, r1, r7
    if(unix_time != unix_time_cache)
 23fb7be:	e9d8 2300 	ldrd	r2, r3, [r8]
 23fb7c2:	42bb      	cmp	r3, r7
 23fb7c4:	bf08      	it	eq
 23fb7c6:	42b2      	cmpeq	r2, r6
 23fb7c8:	d013      	beq.n	23fb7f2 <_ZL22Refresh_UnixTime_Cachex+0x56>
	localtime_r(&unix_time, &calendar_time);
 23fb7ca:	a903      	add	r1, sp, #12
 23fb7cc:	4668      	mov	r0, sp
 23fb7ce:	e9cd 6700 	strd	r6, r7, [sp]
 23fb7d2:	f7fe fd1b 	bl	23fa20c <localtime_r>
	calendar_time.tm_year += 1900;
 23fb7d6:	9b08      	ldr	r3, [sp, #32]
    {
            calendar_time_cache = Convert_UnixTime_To_CalendarTime(unix_time);
 23fb7d8:	4d09      	ldr	r5, [pc, #36]	; (23fb800 <_ZL22Refresh_UnixTime_Cachex+0x64>)
	calendar_time.tm_year += 1900;
 23fb7da:	f203 736c 	addw	r3, r3, #1900	; 0x76c
            calendar_time_cache = Convert_UnixTime_To_CalendarTime(unix_time);
 23fb7de:	ac03      	add	r4, sp, #12
	calendar_time.tm_year += 1900;
 23fb7e0:	9308      	str	r3, [sp, #32]
            calendar_time_cache = Convert_UnixTime_To_CalendarTime(unix_time);
 23fb7e2:	cc0f      	ldmia	r4!, {r0, r1, r2, r3}
 23fb7e4:	c50f      	stmia	r5!, {r0, r1, r2, r3}
 23fb7e6:	cc0f      	ldmia	r4!, {r0, r1, r2, r3}
 23fb7e8:	c50f      	stmia	r5!, {r0, r1, r2, r3}
            unix_time_cache = unix_time;
 23fb7ea:	e9c8 6700 	strd	r6, r7, [r8]
            calendar_time_cache = Convert_UnixTime_To_CalendarTime(unix_time);
 23fb7ee:	6823      	ldr	r3, [r4, #0]
 23fb7f0:	602b      	str	r3, [r5, #0]
    }
}
 23fb7f2:	b00c      	add	sp, #48	; 0x30
 23fb7f4:	e8bd 81f0 	ldmia.w	sp!, {r4, r5, r6, r7, r8, pc}
 23fb7f8:	1007af18 	.word	0x1007af18
 23fb7fc:	1007af10 	.word	0x1007af10
 23fb800:	1007aeec 	.word	0x1007aeec
 23fb804:	1007af20 	.word	0x1007af20

023fb808 <_ZN10CloudClass12syncTimeDoneEv.isra.0>:
    bool syncTimePending(void)
    {
        return connected() && spark_sync_time_pending(nullptr);
    }

    bool syncTimeDone(void)
 23fb808:	b508      	push	{r3, lr}
    {
        return !spark_sync_time_pending(nullptr) || disconnected();
 23fb80a:	2000      	movs	r0, #0
 23fb80c:	f7fe fc48 	bl	23fa0a0 <spark_sync_time_pending>
 23fb810:	b128      	cbz	r0, 23fb81e <_ZN10CloudClass12syncTimeDoneEv.isra.0+0x16>
    static void sleep(Spark_Sleep_TypeDef sleepMode, long seconds=0) __attribute__ ((deprecated("Please use System.sleep() instead.")))
    { SystemClass::sleep(sleepMode, seconds); }
    static void sleep(uint16_t wakeUpPin, InterruptMode edgeTriggerMode, long seconds=0) __attribute__ ((deprecated("Please use System.sleep() instead.")))
    { SystemClass::sleep(wakeUpPin, edgeTriggerMode, seconds); }

    static bool connected(void) { return spark_cloud_flag_connected(); }
 23fb812:	f7fe fc29 	bl	23fa068 <spark_cloud_flag_connected>
        return !spark_sync_time_pending(nullptr) || disconnected();
 23fb816:	f080 0001 	eor.w	r0, r0, #1
 23fb81a:	b2c0      	uxtb	r0, r0
    }
 23fb81c:	bd08      	pop	{r3, pc}
        return !spark_sync_time_pending(nullptr) || disconnected();
 23fb81e:	2001      	movs	r0, #1
 23fb820:	e7fc      	b.n	23fb81c <_ZN10CloudClass12syncTimeDoneEv.isra.0+0x14>
	...

023fb824 <_ZN9TimeClass4hourEx>:
	return hour(now());
}

/* the hour for the given time */
int TimeClass::hour(time_t t)
{
 23fb824:	b508      	push	{r3, lr}
	Refresh_UnixTime_Cache(t);
 23fb826:	4610      	mov	r0, r2
 23fb828:	4619      	mov	r1, r3
 23fb82a:	f7ff ffb7 	bl	23fb79c <_ZL22Refresh_UnixTime_Cachex>
	return calendar_time_cache.tm_hour;
}
 23fb82e:	4b01      	ldr	r3, [pc, #4]	; (23fb834 <_ZN9TimeClass4hourEx+0x10>)
 23fb830:	6898      	ldr	r0, [r3, #8]
 23fb832:	bd08      	pop	{r3, pc}
 23fb834:	1007aeec 	.word	0x1007aeec

023fb838 <_ZN9TimeClass3dayEx>:
	return day(now());
}

/* the day for the given time */
int TimeClass::day(time_t t)
{
 23fb838:	b508      	push	{r3, lr}
	Refresh_UnixTime_Cache(t);
 23fb83a:	4610      	mov	r0, r2
 23fb83c:	4619      	mov	r1, r3
 23fb83e:	f7ff ffad 	bl	23fb79c <_ZL22Refresh_UnixTime_Cachex>
	return calendar_time_cache.tm_mday;
}
 23fb842:	4b01      	ldr	r3, [pc, #4]	; (23fb848 <_ZN9TimeClass3dayEx+0x10>)
 23fb844:	68d8      	ldr	r0, [r3, #12]
 23fb846:	bd08      	pop	{r3, pc}
 23fb848:	1007aeec 	.word	0x1007aeec

023fb84c <_ZN9TimeClass4zoneEf>:
}

/* set the time zone (+/-) offset from GMT */
void TimeClass::zone(float GMT_Offset)
{
	if(GMT_Offset < -12 || GMT_Offset > 14)
 23fb84c:	eefa 7a08 	vmov.f32	s15, #168	; 0xc1400000 -12.0
 23fb850:	eeb4 0ae7 	vcmpe.f32	s0, s15
 23fb854:	eef1 fa10 	vmrs	APSR_nzcv, fpscr
{
 23fb858:	b508      	push	{r3, lr}
	if(GMT_Offset < -12 || GMT_Offset > 14)
 23fb85a:	d411      	bmi.n	23fb880 <_ZN9TimeClass4zoneEf+0x34>
 23fb85c:	eef2 7a0c 	vmov.f32	s15, #44	; 0x41600000  14.0
 23fb860:	eeb4 0ae7 	vcmpe.f32	s0, s15
 23fb864:	eef1 fa10 	vmrs	APSR_nzcv, fpscr
 23fb868:	dc0a      	bgt.n	23fb880 <_ZN9TimeClass4zoneEf+0x34>
	{
		return;
	}
	time_zone_cache = GMT_Offset * 3600;
 23fb86a:	eddf 7a06 	vldr	s15, [pc, #24]	; 23fb884 <_ZN9TimeClass4zoneEf+0x38>
 23fb86e:	ee60 7a27 	vmul.f32	s15, s0, s15
 23fb872:	ee17 0a90 	vmov	r0, s15
 23fb876:	f7fa fe1d 	bl	23f64b4 <__aeabi_f2lz>
 23fb87a:	4b03      	ldr	r3, [pc, #12]	; (23fb888 <_ZN9TimeClass4zoneEf+0x3c>)
 23fb87c:	e9c3 0100 	strd	r0, r1, [r3]
}
 23fb880:	bd08      	pop	{r3, pc}
 23fb882:	bf00      	nop
 23fb884:	45610000 	.word	0x45610000
 23fb888:	1007af18 	.word	0x1007af18

023fb88c <_ZNK9TimeClass7isValidEv>:
    return String(buf);
}

bool TimeClass::isValid() const
{
    hal_rtc_option_t opt = {};
 23fb88c:	2300      	movs	r3, #0
{
 23fb88e:	b513      	push	{r0, r1, r4, lr}
    hal_rtc_option_t opt = {};
 23fb890:	e9cd 3300 	strd	r3, r3, [sp]
    opt.size = sizeof(opt);
 23fb894:	2308      	movs	r3, #8
 23fb896:	f8ad 3000 	strh.w	r3, [sp]
    opt.source = static_cast<hal_rtc_source_t>(source_);
 23fb89a:	7803      	ldrb	r3, [r0, #0]
    bool rtcstate = hal_rtc_time_is_valid(&opt);
 23fb89c:	4668      	mov	r0, sp
    opt.source = static_cast<hal_rtc_source_t>(source_);
 23fb89e:	f88d 3004 	strb.w	r3, [sp, #4]
    bool rtcstate = hal_rtc_time_is_valid(&opt);
 23fb8a2:	f7fd ff11 	bl	23f96c8 <hal_rtc_time_is_valid>
    if (rtcstate)
 23fb8a6:	4604      	mov	r4, r0
 23fb8a8:	b998      	cbnz	r0, 23fb8d2 <_ZNK9TimeClass7isValidEv+0x46>
    }

    static System_Mode_TypeDef mode(void) {
        return system_mode();
 23fb8aa:	f7fe fa2b 	bl	23f9d04 <system_mode>
        return rtcstate;
    if (System.mode() == AUTOMATIC && system_thread_get_state(nullptr) == spark::feature::DISABLED)
 23fb8ae:	2801      	cmp	r0, #1
 23fb8b0:	d10f      	bne.n	23fb8d2 <_ZNK9TimeClass7isValidEv+0x46>
 23fb8b2:	4620      	mov	r0, r4
 23fb8b4:	f7fe fa7a 	bl	23f9dac <system_thread_get_state>
 23fb8b8:	b958      	cbnz	r0, 23fb8d2 <_ZNK9TimeClass7isValidEv+0x46>
    {
        waitUntil(Particle.syncTimeDone);
 23fb8ba:	f7ff ffa5 	bl	23fb808 <_ZN10CloudClass12syncTimeDoneEv.isra.0>

    static uint32_t freeMemory();

    template<typename Condition, typename While>
    static bool waitConditionWhile(Condition _condition, While _while) {
        while (_while() && !_condition()) {
 23fb8be:	b910      	cbnz	r0, 23fb8c6 <_ZNK9TimeClass7isValidEv+0x3a>
            spark_process();
 23fb8c0:	f7fe fbb6 	bl	23fa030 <spark_process>
        while (_while() && !_condition()) {
 23fb8c4:	e7f9      	b.n	23fb8ba <_ZNK9TimeClass7isValidEv+0x2e>
 23fb8c6:	f7ff ff9f 	bl	23fb808 <_ZN10CloudClass12syncTimeDoneEv.isra.0>
        return hal_rtc_time_is_valid(&opt);
 23fb8ca:	4668      	mov	r0, sp
 23fb8cc:	f7fd fefc 	bl	23f96c8 <hal_rtc_time_is_valid>
 23fb8d0:	4604      	mov	r4, r0
    }
    return rtcstate;
}
 23fb8d2:	4620      	mov	r0, r4
 23fb8d4:	b002      	add	sp, #8
 23fb8d6:	bd10      	pop	{r4, pc}

023fb8d8 <_ZN9TimeClass3nowEv>:
{
 23fb8d8:	b510      	push	{r4, lr}
 23fb8da:	b086      	sub	sp, #24
 23fb8dc:	4604      	mov	r4, r0
    (void)isValid();
 23fb8de:	f7ff ffd5 	bl	23fb88c <_ZNK9TimeClass7isValidEv>
    struct timeval tv = {};
 23fb8e2:	2210      	movs	r2, #16
 23fb8e4:	2100      	movs	r1, #0
 23fb8e6:	a802      	add	r0, sp, #8
 23fb8e8:	f001 fb73 	bl	23fcfd2 <memset>
    hal_rtc_option_t opt = {};
 23fb8ec:	2300      	movs	r3, #0
 23fb8ee:	e9cd 3300 	strd	r3, r3, [sp]
    opt.size = sizeof(opt);
 23fb8f2:	2308      	movs	r3, #8
 23fb8f4:	f8ad 3000 	strh.w	r3, [sp]
    opt.source = static_cast<hal_rtc_source_t>(source_);
 23fb8f8:	7823      	ldrb	r3, [r4, #0]
    hal_rtc_get_time(&tv, &opt);
 23fb8fa:	4669      	mov	r1, sp
 23fb8fc:	a802      	add	r0, sp, #8
    opt.source = static_cast<hal_rtc_source_t>(source_);
 23fb8fe:	f88d 3004 	strb.w	r3, [sp, #4]
    hal_rtc_get_time(&tv, &opt);
 23fb902:	f7fd fefd 	bl	23f9700 <hal_rtc_get_time>
}
 23fb906:	9802      	ldr	r0, [sp, #8]
 23fb908:	b006      	add	sp, #24
 23fb90a:	bd10      	pop	{r4, pc}

023fb90c <_Z19__fetch_global_Timev>:
TimeClass::operator bool() const
{
  return isValid();
}

TimeClass& __fetch_global_Time() {
 23fb90c:	b538      	push	{r3, r4, r5, lr}
    static TimeClass t; // TimeSource::DEFAULT
 23fb90e:	4d0a      	ldr	r5, [pc, #40]	; (23fb938 <_Z19__fetch_global_Timev+0x2c>)
 23fb910:	e8d5 3f8f 	ldab	r3, [r5]
 23fb914:	f013 0401 	ands.w	r4, r3, #1
 23fb918:	d10b      	bne.n	23fb932 <_Z19__fetch_global_Timev+0x26>
 23fb91a:	4628      	mov	r0, r5
 23fb91c:	f7fe fc84 	bl	23fa228 <__cxa_guard_acquire>
 23fb920:	b138      	cbz	r0, 23fb932 <_Z19__fetch_global_Timev+0x26>
          format_spec(TIME_FORMAT_DEFAULT) {
 23fb922:	4a06      	ldr	r2, [pc, #24]	; (23fb93c <_Z19__fetch_global_Timev+0x30>)
 23fb924:	4b06      	ldr	r3, [pc, #24]	; (23fb940 <_Z19__fetch_global_Timev+0x34>)
 23fb926:	6812      	ldr	r2, [r2, #0]
    static TimeClass t; // TimeSource::DEFAULT
 23fb928:	4628      	mov	r0, r5
          format_spec(TIME_FORMAT_DEFAULT) {
 23fb92a:	701c      	strb	r4, [r3, #0]
 23fb92c:	605a      	str	r2, [r3, #4]
    static TimeClass t; // TimeSource::DEFAULT
 23fb92e:	f7fe fc89 	bl	23fa244 <__cxa_guard_release>
    return t;
}
 23fb932:	4803      	ldr	r0, [pc, #12]	; (23fb940 <_Z19__fetch_global_Timev+0x34>)
 23fb934:	bd38      	pop	{r3, r4, r5, pc}
 23fb936:	bf00      	nop
 23fb938:	1007aee0 	.word	0x1007aee0
 23fb93c:	10072d34 	.word	0x10072d34
 23fb940:	1007aee4 	.word	0x1007aee4

023fb944 <delay>:
    return (value - fromStart) * (toEnd - toStart) / (fromEnd - fromStart) + toStart;
}

void delay(unsigned long ms)
{
    system_delay_ms(ms, false);
 23fb944:	2100      	movs	r1, #0
 23fb946:	f7fe b9f9 	b.w	23f9d3c <system_delay_ms>
	...

023fb94c <_GLOBAL__sub_I_RGB>:
    _Function_base() : _M_manager(nullptr) { }
 23fb94c:	2200      	movs	r2, #0
 23fb94e:	4b01      	ldr	r3, [pc, #4]	; (23fb954 <_GLOBAL__sub_I_RGB+0x8>)
 23fb950:	609a      	str	r2, [r3, #8]
{
    RGBClass* const d = static_cast<RGBClass*>(data);
    if (d->changeHandler_) {
        d->changeHandler_(r, g, b);
    }
}
 23fb952:	4770      	bx	lr
 23fb954:	1007af28 	.word	0x1007af28

023fb958 <_ZZ21module_user_init_hookENUlP6_reentjmPvE_4_FUNES0_jmS1_>:

void module_user_init_hook()
{
#if HAL_PLATFORM_NEWLIB
    newlib_impure_ptr_callback([](struct _reent* r, size_t size, uint32_t version, void* ctx) -> void {
        _impure_ptr = r;
 23fb958:	4b01      	ldr	r3, [pc, #4]	; (23fb960 <_ZZ21module_user_init_hookENUlP6_reentjmPvE_4_FUNES0_jmS1_+0x8>)
 23fb95a:	6018      	str	r0, [r3, #0]
    }, nullptr);
 23fb95c:	4770      	bx	lr
 23fb95e:	bf00      	nop
 23fb960:	10072d3c 	.word	0x10072d3c

023fb964 <PRE_STARTUP>:
}
 23fb964:	4770      	bx	lr
	...

023fb968 <serialEventRun>:
{
 23fb968:	b508      	push	{r3, lr}
    if (serialEvent && Serial.available()>0)
 23fb96a:	4b0f      	ldr	r3, [pc, #60]	; (23fb9a8 <serialEventRun+0x40>)
 23fb96c:	b143      	cbz	r3, 23fb980 <serialEventRun+0x18>
 23fb96e:	f000 fc5b 	bl	23fc228 <_Z16_fetch_usbserialv>
 23fb972:	6803      	ldr	r3, [r0, #0]
 23fb974:	691b      	ldr	r3, [r3, #16]
 23fb976:	4798      	blx	r3
 23fb978:	2800      	cmp	r0, #0
 23fb97a:	dd01      	ble.n	23fb980 <serialEventRun+0x18>
        serialEvent();
 23fb97c:	e000      	b.n	23fb980 <serialEventRun+0x18>
 23fb97e:	bf00      	nop
    if (serialEvent1 && Serial1.available()>0)
 23fb980:	4b0a      	ldr	r3, [pc, #40]	; (23fb9ac <serialEventRun+0x44>)
 23fb982:	b143      	cbz	r3, 23fb996 <serialEventRun+0x2e>
 23fb984:	f001 f9c2 	bl	23fcd0c <_Z22__fetch_global_Serial1v>
 23fb988:	6803      	ldr	r3, [r0, #0]
 23fb98a:	691b      	ldr	r3, [r3, #16]
 23fb98c:	4798      	blx	r3
 23fb98e:	2800      	cmp	r0, #0
 23fb990:	dd01      	ble.n	23fb996 <serialEventRun+0x2e>
        serialEvent1();
 23fb992:	e000      	b.n	23fb996 <serialEventRun+0x2e>
 23fb994:	bf00      	nop
    if (serialEvent2) serialEventRun2();
 23fb996:	4b06      	ldr	r3, [pc, #24]	; (23fb9b0 <serialEventRun+0x48>)
 23fb998:	b10b      	cbz	r3, 23fb99e <serialEventRun+0x36>
 23fb99a:	f001 f9fd 	bl	23fcd98 <_Z15serialEventRun2v>
    if (serialEvent3) serialEventRun3();
 23fb99e:	4b05      	ldr	r3, [pc, #20]	; (23fb9b4 <serialEventRun+0x4c>)
 23fb9a0:	b10b      	cbz	r3, 23fb9a6 <serialEventRun+0x3e>
 23fb9a2:	f001 fa2f 	bl	23fce04 <_Z15serialEventRun3v>
}
 23fb9a6:	bd08      	pop	{r3, pc}
	...

023fb9b8 <_post_loop>:
{
 23fb9b8:	b508      	push	{r3, lr}
	serialEventRun();
 23fb9ba:	f7ff ffd5 	bl	23fb968 <serialEventRun>
		return !thread || !thread->isRunning();
	}

	static inline system_tick_t current_time()
	{
		return HAL_Timer_Get_Milli_Seconds();
 23fb9be:	f7fd fe4b 	bl	23f9658 <HAL_Timer_Get_Milli_Seconds>
	/**
	 * Lifesign that the application is still working normally.
	 */
	static void checkin()
	{
		last_checkin = current_time();
 23fb9c2:	4b01      	ldr	r3, [pc, #4]	; (23fb9c8 <_post_loop+0x10>)
 23fb9c4:	6018      	str	r0, [r3, #0]
}
 23fb9c6:	bd08      	pop	{r3, pc}
 23fb9c8:	1007afd0 	.word	0x1007afd0

023fb9cc <_Z33system_initialize_user_backup_ramv>:
    memcpy(&link_global_retained_start, &link_global_retained_initial_values, len);
 23fb9cc:	4805      	ldr	r0, [pc, #20]	; (23fb9e4 <_Z33system_initialize_user_backup_ramv+0x18>)
 23fb9ce:	4a06      	ldr	r2, [pc, #24]	; (23fb9e8 <_Z33system_initialize_user_backup_ramv+0x1c>)
{
 23fb9d0:	b508      	push	{r3, lr}
    memcpy(&link_global_retained_start, &link_global_retained_initial_values, len);
 23fb9d2:	1a12      	subs	r2, r2, r0
 23fb9d4:	4905      	ldr	r1, [pc, #20]	; (23fb9ec <_Z33system_initialize_user_backup_ramv+0x20>)
 23fb9d6:	f001 fad5 	bl	23fcf84 <memcpy>
    __backup_sram_signature = signature;
 23fb9da:	4b05      	ldr	r3, [pc, #20]	; (23fb9f0 <_Z33system_initialize_user_backup_ramv+0x24>)
 23fb9dc:	4a05      	ldr	r2, [pc, #20]	; (23fb9f4 <_Z33system_initialize_user_backup_ramv+0x28>)
 23fb9de:	601a      	str	r2, [r3, #0]
}
 23fb9e0:	bd08      	pop	{r3, pc}
 23fb9e2:	bf00      	nop
 23fb9e4:	1007b400 	.word	0x1007b400
 23fb9e8:	1007b4a8 	.word	0x1007b4a8
 23fb9ec:	085ff75c 	.word	0x085ff75c
 23fb9f0:	1007b4a4 	.word	0x1007b4a4
 23fb9f4:	9a271c1e 	.word	0x9a271c1e

023fb9f8 <_Z27ctrl_request_custom_handlerP12ctrl_request>:
    system_ctrl_set_result(req, SYSTEM_ERROR_NOT_SUPPORTED, nullptr, nullptr, nullptr);
 23fb9f8:	2300      	movs	r3, #0
void __attribute((weak)) ctrl_request_custom_handler(ctrl_request* req) {
 23fb9fa:	b507      	push	{r0, r1, r2, lr}
    system_ctrl_set_result(req, SYSTEM_ERROR_NOT_SUPPORTED, nullptr, nullptr, nullptr);
 23fb9fc:	461a      	mov	r2, r3
 23fb9fe:	f06f 0177 	mvn.w	r1, #119	; 0x77
 23fba02:	9300      	str	r3, [sp, #0]
 23fba04:	f7fe f9ee 	bl	23f9de4 <system_ctrl_set_result>
}
 23fba08:	b003      	add	sp, #12
 23fba0a:	f85d fb04 	ldr.w	pc, [sp], #4
	...

023fba10 <_ZL20ctrl_request_handlerP12ctrl_request>:
static void ctrl_request_handler(ctrl_request* req) {
 23fba10:	b507      	push	{r0, r1, r2, lr}
    switch (req->type) {
 23fba12:	8843      	ldrh	r3, [r0, #2]
 23fba14:	2b0a      	cmp	r3, #10
 23fba16:	d008      	beq.n	23fba2a <_ZL20ctrl_request_handlerP12ctrl_request+0x1a>
 23fba18:	2b50      	cmp	r3, #80	; 0x50
 23fba1a:	d10b      	bne.n	23fba34 <_ZL20ctrl_request_handlerP12ctrl_request+0x24>
        if (log_process_ctrl_request_callback) {
 23fba1c:	4b09      	ldr	r3, [pc, #36]	; (23fba44 <_ZL20ctrl_request_handlerP12ctrl_request+0x34>)
 23fba1e:	681b      	ldr	r3, [r3, #0]
 23fba20:	b14b      	cbz	r3, 23fba36 <_ZL20ctrl_request_handlerP12ctrl_request+0x26>
}
 23fba22:	b003      	add	sp, #12
 23fba24:	f85d eb04 	ldr.w	lr, [sp], #4
            log_process_ctrl_request_callback(req);
 23fba28:	4718      	bx	r3
        ctrl_request_custom_handler(req);
 23fba2a:	f7ff ffe5 	bl	23fb9f8 <_Z27ctrl_request_custom_handlerP12ctrl_request>
}
 23fba2e:	b003      	add	sp, #12
 23fba30:	f85d fb04 	ldr.w	pc, [sp], #4
        system_ctrl_set_result(req, SYSTEM_ERROR_NOT_SUPPORTED, nullptr, nullptr, nullptr);
 23fba34:	2300      	movs	r3, #0
 23fba36:	461a      	mov	r2, r3
 23fba38:	f06f 0177 	mvn.w	r1, #119	; 0x77
 23fba3c:	9300      	str	r3, [sp, #0]
 23fba3e:	f7fe f9d1 	bl	23f9de4 <system_ctrl_set_result>
}
 23fba42:	e7f4      	b.n	23fba2e <_ZL20ctrl_request_handlerP12ctrl_request+0x1e>
 23fba44:	1007af3c 	.word	0x1007af3c

023fba48 <module_user_init_hook>:
    newlib_impure_ptr_callback([](struct _reent* r, size_t size, uint32_t version, void* ctx) -> void {
 23fba48:	2100      	movs	r1, #0
{
 23fba4a:	b510      	push	{r4, lr}
    newlib_impure_ptr_callback([](struct _reent* r, size_t size, uint32_t version, void* ctx) -> void {
 23fba4c:	4811      	ldr	r0, [pc, #68]	; (23fba94 <module_user_init_hook+0x4c>)
 23fba4e:	f7fe fbcf 	bl	23fa1f0 <newlib_impure_ptr_callback>
#endif // HAL_PLATFORM_NEWLIB

#if HAL_PLATFORM_BACKUP_RAM
    backup_ram_was_valid_ = __backup_sram_signature == signature;
 23fba52:	4b11      	ldr	r3, [pc, #68]	; (23fba98 <module_user_init_hook+0x50>)
 23fba54:	681a      	ldr	r2, [r3, #0]
 23fba56:	4b11      	ldr	r3, [pc, #68]	; (23fba9c <module_user_init_hook+0x54>)
 23fba58:	429a      	cmp	r2, r3
 23fba5a:	bf0c      	ite	eq
 23fba5c:	2201      	moveq	r2, #1
 23fba5e:	2200      	movne	r2, #0
 23fba60:	4b0f      	ldr	r3, [pc, #60]	; (23fbaa0 <module_user_init_hook+0x58>)
 23fba62:	701a      	strb	r2, [r3, #0]
    if (!backup_ram_was_valid_) {
 23fba64:	d001      	beq.n	23fba6a <module_user_init_hook+0x22>
        system_initialize_user_backup_ram();
 23fba66:	f7ff ffb1 	bl	23fb9cc <_Z33system_initialize_user_backup_ramv>
    }
#endif

#if HAL_PLATFORM_RNG
    // Initialize the default stdlib PRNG using hardware RNG as a seed
    const uint32_t seed = HAL_RNG_GetRandomNumber();
 23fba6a:	f7fd fde7 	bl	23f963c <HAL_RNG_GetRandomNumber>
 23fba6e:	4604      	mov	r4, r0
    srand(seed);
 23fba70:	f001 fab8 	bl	23fcfe4 <srand>

    // If the user defines random_seed_from_cloud, call it with a seed value
    // generated by a hardware RNG as well.
    if (random_seed_from_cloud) {
 23fba74:	4b0b      	ldr	r3, [pc, #44]	; (23fbaa4 <module_user_init_hook+0x5c>)
 23fba76:	b113      	cbz	r3, 23fba7e <module_user_init_hook+0x36>
        random_seed_from_cloud(seed);
 23fba78:	4620      	mov	r0, r4
 23fba7a:	e000      	b.n	23fba7e <module_user_init_hook+0x36>
 23fba7c:	bf00      	nop
    }
#endif
    // Register the random_seed_from_cloud handler
    spark_set_random_seed_from_cloud_handler(&random_seed_from_cloud, nullptr);
 23fba7e:	2100      	movs	r1, #0
 23fba80:	4808      	ldr	r0, [pc, #32]	; (23fbaa4 <module_user_init_hook+0x5c>)
 23fba82:	f7fe fb1b 	bl	23fa0bc <spark_set_random_seed_from_cloud_handler>

    // Register application handler for the control requests
    system_ctrl_set_app_request_handler(ctrl_request_handler, nullptr);
}
 23fba86:	e8bd 4010 	ldmia.w	sp!, {r4, lr}
    system_ctrl_set_app_request_handler(ctrl_request_handler, nullptr);
 23fba8a:	2100      	movs	r1, #0
 23fba8c:	4806      	ldr	r0, [pc, #24]	; (23fbaa8 <module_user_init_hook+0x60>)
 23fba8e:	f7fe b99b 	b.w	23f9dc8 <system_ctrl_set_app_request_handler>
 23fba92:	bf00      	nop
 23fba94:	023fb959 	.word	0x023fb959
 23fba98:	1007b4a4 	.word	0x1007b4a4
 23fba9c:	9a271c1e 	.word	0x9a271c1e
 23fbaa0:	1007af38 	.word	0x1007af38
 23fbaa4:	00000000 	.word	0x00000000
 23fbaa8:	023fba11 	.word	0x023fba11

023fbaac <_ZNSt15_Sp_counted_ptrIPN8particle6detail10FutureImplIbNS1_13FutureContextEEELN9__gnu_cxx12_Lock_policyE0EED1Ev>:
    class _Sp_counted_ptr final : public _Sp_counted_base<_Lp>
 23fbaac:	4770      	bx	lr

023fbaae <_ZNSt15_Sp_counted_ptrIPN8particle6detail10FutureImplIbNS1_13FutureContextEEELN9__gnu_cxx12_Lock_policyE0EE14_M_get_deleterERKSt9type_info>:
      { return nullptr; }
 23fbaae:	2000      	movs	r0, #0
 23fbab0:	4770      	bx	lr

023fbab2 <_ZNSt15_Sp_counted_ptrIPN8particle6detail10FutureImplIbNS1_13FutureContextEEELN9__gnu_cxx12_Lock_policyE0EED0Ev>:
    class _Sp_counted_ptr final : public _Sp_counted_base<_Lp>
 23fbab2:	b510      	push	{r4, lr}
 23fbab4:	4604      	mov	r4, r0
 23fbab6:	2110      	movs	r1, #16
 23fbab8:	f7fa ff33 	bl	23f6922 <_ZdlPvj>
 23fbabc:	4620      	mov	r0, r4
 23fbabe:	bd10      	pop	{r4, pc}

023fbac0 <_ZNSt15_Sp_counted_ptrIPN8particle6detail10FutureImplIbNS1_13FutureContextEEELN9__gnu_cxx12_Lock_policyE0EE10_M_destroyEv>:
      _M_destroy() noexcept
 23fbac0:	b508      	push	{r3, lr}
      { delete this; }
 23fbac2:	f7ff fff6 	bl	23fbab2 <_ZNSt15_Sp_counted_ptrIPN8particle6detail10FutureImplIbNS1_13FutureContextEEELN9__gnu_cxx12_Lock_policyE0EED0Ev>
 23fbac6:	bd08      	pop	{r3, pc}

023fbac8 <_ZN8particle5ErrorC1EOS0_>:

} // namespace particle

inline particle::Error::Error(Type type) :
        msg_(nullptr),
        type_(type) {
 23fbac8:	2200      	movs	r2, #0

inline particle::Error::Error(const Error& error) :
        Error(error.type_, error.msg_) {
}

inline particle::Error::Error(Error&& error) :
 23fbaca:	b530      	push	{r4, r5, lr}
        type_(type) {
 23fbacc:	f64f 749c 	movw	r4, #65436	; 0xff9c
 23fbad0:	6002      	str	r2, [r0, #0]
 23fbad2:	8084      	strh	r4, [r0, #4]
 23fbad4:	888d      	ldrh	r5, [r1, #4]
      __b = _GLIBCXX_MOVE(__tmp);
 23fbad6:	808c      	strh	r4, [r1, #4]
      __a = _GLIBCXX_MOVE(__b);
 23fbad8:	680c      	ldr	r4, [r1, #0]
 23fbada:	8085      	strh	r5, [r0, #4]
 23fbadc:	6004      	str	r4, [r0, #0]
      __b = _GLIBCXX_MOVE(__tmp);
 23fbade:	600a      	str	r2, [r1, #0]
        Error() {
    swap(*this, error);
}
 23fbae0:	bd30      	pop	{r4, r5, pc}

023fbae2 <_ZN8particle5ErrorD1Ev>:

inline particle::Error::~Error() {
 23fbae2:	b510      	push	{r4, lr}
 23fbae4:	4604      	mov	r4, r0
    free((void*)msg_);
 23fbae6:	6800      	ldr	r0, [r0, #0]
 23fbae8:	f7fe fb12 	bl	23fa110 <free>
}
 23fbaec:	4620      	mov	r0, r4
 23fbaee:	bd10      	pop	{r4, pc}

023fbaf0 <_ZNSt15_Sp_counted_ptrIPN8particle6detail10FutureImplIbNS1_13FutureContextEEELN9__gnu_cxx12_Lock_policyE0EE10_M_disposeEv>:
      _M_dispose() noexcept
 23fbaf0:	b538      	push	{r3, r4, r5, lr}
      { delete _M_ptr; }
 23fbaf2:	68c4      	ldr	r4, [r0, #12]
 23fbaf4:	b314      	cbz	r4, 23fbb3c <_ZNSt15_Sp_counted_ptrIPN8particle6detail10FutureImplIbNS1_13FutureContextEEELN9__gnu_cxx12_Lock_policyE0EE10_M_disposeEv+0x4c>
      _Tp
      load(memory_order __m = memory_order_seq_cst) const noexcept
      {
	alignas(_Tp) unsigned char __buf[sizeof(_Tp)];
	_Tp* __ptr = reinterpret_cast<_Tp*>(__buf);
	__atomic_load(std::__addressof(_M_i), __ptr, int(__m));
 23fbaf6:	7823      	ldrb	r3, [r4, #0]
 23fbaf8:	b2db      	uxtb	r3, r3
    ~FutureImpl() {
        // Call destructor of the appropriate unnamed enum's field
        const State s = this->state();
        if (s == State::SUCCEEDED) {
            result_.~ResultT();
        } else if (s == State::FAILED) {
 23fbafa:	2b02      	cmp	r3, #2
 23fbafc:	d103      	bne.n	23fbb06 <_ZNSt15_Sp_counted_ptrIPN8particle6detail10FutureImplIbNS1_13FutureContextEEELN9__gnu_cxx12_Lock_policyE0EE10_M_disposeEv+0x16>
            error_.~Error();
 23fbafe:	f104 000c 	add.w	r0, r4, #12
 23fbb02:	f7ff ffee 	bl	23fbae2 <_ZN8particle5ErrorD1Ev>
      {
	memory_order __b = __m & __memory_order_mask;
	__glibcxx_assert(__b != memory_order_release);
	__glibcxx_assert(__b != memory_order_acq_rel);

	return __atomic_load_n(&_M_p, int(__m));
 23fbb06:	1d23      	adds	r3, r4, #4
 23fbb08:	681d      	ldr	r5, [r3, #0]
        delete onSuccess_.load(std::memory_order_relaxed);
 23fbb0a:	b135      	cbz	r5, 23fbb1a <_ZNSt15_Sp_counted_ptrIPN8particle6detail10FutureImplIbNS1_13FutureContextEEELN9__gnu_cxx12_Lock_policyE0EE10_M_disposeEv+0x2a>
    class function<_Res(_ArgTypes...)>
 23fbb0c:	4628      	mov	r0, r5
 23fbb0e:	f7fb f835 	bl	23f6b7c <_ZNSt14_Function_baseD1Ev>
 23fbb12:	2110      	movs	r1, #16
 23fbb14:	4628      	mov	r0, r5
 23fbb16:	f7fa ff04 	bl	23f6922 <_ZdlPvj>
 23fbb1a:	f104 0308 	add.w	r3, r4, #8
 23fbb1e:	681d      	ldr	r5, [r3, #0]
        delete onError_.load(std::memory_order_relaxed);
 23fbb20:	b135      	cbz	r5, 23fbb30 <_ZNSt15_Sp_counted_ptrIPN8particle6detail10FutureImplIbNS1_13FutureContextEEELN9__gnu_cxx12_Lock_policyE0EE10_M_disposeEv+0x40>
 23fbb22:	4628      	mov	r0, r5
 23fbb24:	f7fb f82a 	bl	23f6b7c <_ZNSt14_Function_baseD1Ev>
 23fbb28:	2110      	movs	r1, #16
 23fbb2a:	4628      	mov	r0, r5
 23fbb2c:	f7fa fef9 	bl	23f6922 <_ZdlPvj>
 23fbb30:	4620      	mov	r0, r4
 23fbb32:	e8bd 4038 	ldmia.w	sp!, {r3, r4, r5, lr}
 23fbb36:	2114      	movs	r1, #20
 23fbb38:	f7fa bef3 	b.w	23f6922 <_ZdlPvj>
 23fbb3c:	bd38      	pop	{r3, r4, r5, pc}

023fbb3e <_ZNK22CloudDisconnectOptions15toSystemOptionsEv>:

} // namespace

spark_cloud_disconnect_options CloudDisconnectOptions::toSystemOptions() const
{
    spark_cloud_disconnect_options opts = {};
 23fbb3e:	2200      	movs	r2, #0
 23fbb40:	8142      	strh	r2, [r0, #10]
    opts.size = sizeof(opts);
 23fbb42:	220c      	movs	r2, #12
 23fbb44:	8002      	strh	r2, [r0, #0]
    opts.flags = flags_;
 23fbb46:	680a      	ldr	r2, [r1, #0]
 23fbb48:	7082      	strb	r2, [r0, #2]
    opts.graceful = graceful_;
 23fbb4a:	7a0a      	ldrb	r2, [r1, #8]
 23fbb4c:	70c2      	strb	r2, [r0, #3]
    opts.timeout = timeout_;
 23fbb4e:	684a      	ldr	r2, [r1, #4]
 23fbb50:	6042      	str	r2, [r0, #4]
    opts.clear_session = clearSession_;
 23fbb52:	7a4a      	ldrb	r2, [r1, #9]
 23fbb54:	7202      	strb	r2, [r0, #8]
    opts.reconnect_immediately = reconnect_;
 23fbb56:	7a8a      	ldrb	r2, [r1, #10]
 23fbb58:	7242      	strb	r2, [r0, #9]
    return opts;
}
 23fbb5a:	4770      	bx	lr

023fbb5c <_ZN10CloudClass22call_raw_user_functionEPvPKcS0_>:
    }
    return CloudDisconnectOptions(options->flags, options->timeout, options->graceful, clearSession, options->reconnect_immediately);
}

int CloudClass::call_raw_user_function(void* data, const char* param, void* reserved)
{
 23fbb5c:	b510      	push	{r4, lr}
 23fbb5e:	b088      	sub	sp, #32
 23fbb60:	4604      	mov	r4, r0
    user_function_int_str_t* fn = (user_function_int_str_t*)(data);
    String p(param);
 23fbb62:	4668      	mov	r0, sp
 23fbb64:	f7fe fd29 	bl	23fa5ba <_ZN6StringC1EPK19__FlashStringHelper>
    return (*fn)(p);
 23fbb68:	4669      	mov	r1, sp
 23fbb6a:	a804      	add	r0, sp, #16
 23fbb6c:	f7fe fd71 	bl	23fa652 <_ZN6StringC1ERKS_>
 23fbb70:	a804      	add	r0, sp, #16
 23fbb72:	47a0      	blx	r4
 23fbb74:	4604      	mov	r4, r0
 23fbb76:	a804      	add	r0, sp, #16
 23fbb78:	f7fe fcd4 	bl	23fa524 <_ZN6StringD1Ev>
    String p(param);
 23fbb7c:	4668      	mov	r0, sp
 23fbb7e:	f7fe fcd1 	bl	23fa524 <_ZN6StringD1Ev>
}
 23fbb82:	4620      	mov	r0, r4
 23fbb84:	b008      	add	sp, #32
 23fbb86:	bd10      	pop	{r4, pc}

023fbb88 <_ZN10CloudClass17register_functionEPFiPvPKcS0_ES0_S2_>:
    wiring_event_handler_t* fn = (wiring_event_handler_t*)(handler_data);
    (*fn)(event_name, data);
}

bool CloudClass::register_function(cloud_function_t fn, void* data, const char* funcKey)
{
 23fbb88:	b51f      	push	{r0, r1, r2, r3, r4, lr}
    const char *funcKey;
    cloud_function_t fn;
    void* data;

     cloud_function_descriptor() {
         memset(this, 0, sizeof(*this));
 23fbb8a:	2300      	movs	r3, #0
         size = sizeof(*this);
 23fbb8c:	2410      	movs	r4, #16
    cloud_function_descriptor desc = {};
    desc.size = sizeof(desc);
    desc.fn = fn;
    desc.data = (void*)data;
 23fbb8e:	e9cd 0102 	strd	r0, r1, [sp, #8]
    desc.funcKey = funcKey;
 23fbb92:	9201      	str	r2, [sp, #4]
    return spark_function(NULL, (user_function_int_str_t*)&desc, NULL);
 23fbb94:	4669      	mov	r1, sp
 23fbb96:	461a      	mov	r2, r3
 23fbb98:	4618      	mov	r0, r3
         memset(this, 0, sizeof(*this));
 23fbb9a:	f8ad 3002 	strh.w	r3, [sp, #2]
         size = sizeof(*this);
 23fbb9e:	f8ad 4000 	strh.w	r4, [sp]
 23fbba2:	f7fe fa37 	bl	23fa014 <spark_function>
}
 23fbba6:	b004      	add	sp, #16
 23fbba8:	bd10      	pop	{r4, pc}

023fbbaa <_ZN10CloudClass10disconnectERK22CloudDisconnectOptions>:

int CloudClass::publishVitals(system_tick_t period_s_) {
    return spark_publish_vitals(period_s_, nullptr);
}

void CloudClass::disconnect(const CloudDisconnectOptions& options) {
 23fbbaa:	b51f      	push	{r0, r1, r2, r3, r4, lr}
 23fbbac:	4601      	mov	r1, r0
    const auto opts = options.toSystemOptions();
 23fbbae:	a801      	add	r0, sp, #4
 23fbbb0:	f7ff ffc5 	bl	23fbb3e <_ZNK22CloudDisconnectOptions15toSystemOptionsEv>
    spark_cloud_disconnect(&opts, nullptr /* reserved */);
 23fbbb4:	2100      	movs	r1, #0
 23fbbb6:	f7fe fa8f 	bl	23fa0d8 <spark_cloud_disconnect>
}
 23fbbba:	b005      	add	sp, #20
 23fbbbc:	f85d fb04 	ldr.w	pc, [sp], #4

023fbbc0 <_ZNSt12__shared_ptrIN8particle6detail10FutureImplIbNS1_13FutureContextEEELN9__gnu_cxx12_Lock_policyE0EEC1ERKS7_>:
      __shared_ptr(const __shared_ptr&) noexcept = default;
 23fbbc0:	680b      	ldr	r3, [r1, #0]
 23fbbc2:	6003      	str	r3, [r0, #0]
      : _M_pi(__r._M_pi)
 23fbbc4:	684b      	ldr	r3, [r1, #4]
 23fbbc6:	6043      	str	r3, [r0, #4]
	if (_M_pi != 0)
 23fbbc8:	b113      	cbz	r3, 23fbbd0 <_ZNSt12__shared_ptrIN8particle6detail10FutureImplIbNS1_13FutureContextEEELN9__gnu_cxx12_Lock_policyE0EEC1ERKS7_+0x10>
    { ++_M_use_count; }
 23fbbca:	685a      	ldr	r2, [r3, #4]
 23fbbcc:	3201      	adds	r2, #1
 23fbbce:	605a      	str	r2, [r3, #4]
      __shared_ptr(const __shared_ptr&) noexcept = default;
 23fbbd0:	4770      	bx	lr

023fbbd2 <_ZN8particle11PromiseBaseIbNS_6detail13FutureContextEE11fromDataPtrEPv>:
        // TODO: Use custom reference counting object to avoid unnecessary memory allocation
        return new detail::FutureImplPtr<ResultT, ContextT>(p_);
    }

    // Unwraps promise from an object pointer created via dataPtr() method
    static Promise<ResultT, ContextT> fromDataPtr(void* data) {
 23fbbd2:	b537      	push	{r0, r1, r2, r4, r5, lr}
 23fbbd4:	4604      	mov	r4, r0
 23fbbd6:	4668      	mov	r0, sp
 23fbbd8:	460d      	mov	r5, r1
 23fbbda:	f7ff fff1 	bl	23fbbc0 <_ZNSt12__shared_ptrIN8particle6detail10FutureImplIbNS1_13FutureContextEEELN9__gnu_cxx12_Lock_policyE0EEC1ERKS7_>
	__shared_ptr(const __shared_ptr<_Yp, _Lp>& __r) noexcept
	: _M_ptr(__r._M_ptr), _M_refcount(__r._M_refcount)
	{ }

      __shared_ptr(__shared_ptr&& __r) noexcept
      : _M_ptr(__r._M_ptr), _M_refcount()
 23fbbde:	9b00      	ldr	r3, [sp, #0]
	_Sp_counted_base<_Lp>* __tmp = __r._M_pi;
 23fbbe0:	9a01      	ldr	r2, [sp, #4]
      : _M_ptr(__r._M_ptr), _M_refcount()
 23fbbe2:	6023      	str	r3, [r4, #0]
	__r._M_pi = _M_pi;
 23fbbe4:	2300      	movs	r3, #0
	_M_pi = __tmp;
 23fbbe6:	6062      	str	r2, [r4, #4]
      ~__shared_ptr() = default;
 23fbbe8:	a801      	add	r0, sp, #4
	__r._M_pi = _M_pi;
 23fbbea:	9301      	str	r3, [sp, #4]
      {
	_M_refcount._M_swap(__r._M_refcount);
	__r._M_ptr = 0;
 23fbbec:	9300      	str	r3, [sp, #0]
      ~__shared_ptr() = default;
 23fbbee:	f7fc fbb1 	bl	23f8354 <_ZNSt14__shared_countILN9__gnu_cxx12_Lock_policyE0EED1Ev>
        auto d = static_cast<detail::FutureImplPtr<ResultT, ContextT>*>(data);
        const Promise<ResultT, ContextT> p(*d);
        delete d;
 23fbbf2:	b135      	cbz	r5, 23fbc02 <_ZN8particle11PromiseBaseIbNS_6detail13FutureContextEE11fromDataPtrEPv+0x30>
 23fbbf4:	1d28      	adds	r0, r5, #4
 23fbbf6:	f7fc fbad 	bl	23f8354 <_ZNSt14__shared_countILN9__gnu_cxx12_Lock_policyE0EED1Ev>
 23fbbfa:	2108      	movs	r1, #8
 23fbbfc:	4628      	mov	r0, r5
 23fbbfe:	f7fa fe90 	bl	23f6922 <_ZdlPvj>
        return p;
    }
 23fbc02:	4620      	mov	r0, r4
 23fbc04:	b003      	add	sp, #12
 23fbc06:	bd30      	pop	{r4, r5, pc}

023fbc08 <_ZNKSt8functionIFvRKN8particle5ErrorEEEclES3_>:
      if (_M_empty())
 23fbc08:	6882      	ldr	r2, [r0, #8]
    function<_Res(_ArgTypes...)>::
 23fbc0a:	b510      	push	{r4, lr}
      if (_M_empty())
 23fbc0c:	b90a      	cbnz	r2, 23fbc12 <_ZNKSt8functionIFvRKN8particle5ErrorEEEclES3_+0xa>
	__throw_bad_function_call();
 23fbc0e:	f001 f967 	bl	23fcee0 <_ZSt25__throw_bad_function_callv>
      return _M_invoker(_M_functor, std::forward<_ArgTypes>(__args)...);
 23fbc12:	68c3      	ldr	r3, [r0, #12]
    }
 23fbc14:	e8bd 4010 	ldmia.w	sp!, {r4, lr}
      return _M_invoker(_M_functor, std::forward<_ArgTypes>(__args)...);
 23fbc18:	4718      	bx	r3

023fbc1a <_ZNSt17_Function_handlerIFvvESt5_BindIFSt8functionIFvRKN8particle5ErrorEEES4_EEE9_M_invokeERKSt9_Any_data>:
      _M_invoke(const _Any_data& __functor, _ArgTypes&&... __args)
 23fbc1a:	b508      	push	{r3, lr}
	    return __source._M_access<_Functor*>();
 23fbc1c:	6800      	ldr	r0, [r0, #0]
 23fbc1e:	f100 0110 	add.w	r1, r0, #16
 23fbc22:	f7ff fff1 	bl	23fbc08 <_ZNKSt8functionIFvRKN8particle5ErrorEEEclES3_>
      }
 23fbc26:	bd08      	pop	{r3, pc}

023fbc28 <_ZNKSt8functionIFvRKbEEclES1_>:
      if (_M_empty())
 23fbc28:	6882      	ldr	r2, [r0, #8]
    function<_Res(_ArgTypes...)>::
 23fbc2a:	b510      	push	{r4, lr}
      if (_M_empty())
 23fbc2c:	b90a      	cbnz	r2, 23fbc32 <_ZNKSt8functionIFvRKbEEclES1_+0xa>
	__throw_bad_function_call();
 23fbc2e:	f001 f957 	bl	23fcee0 <_ZSt25__throw_bad_function_callv>
      return _M_invoker(_M_functor, std::forward<_ArgTypes>(__args)...);
 23fbc32:	68c3      	ldr	r3, [r0, #12]
    }
 23fbc34:	e8bd 4010 	ldmia.w	sp!, {r4, lr}
      return _M_invoker(_M_functor, std::forward<_ArgTypes>(__args)...);
 23fbc38:	4718      	bx	r3

023fbc3a <_ZNSt17_Function_handlerIFvvESt5_BindIFSt8functionIFvRKbEEbEEE9_M_invokeERKSt9_Any_data>:
      _M_invoke(const _Any_data& __functor, _ArgTypes&&... __args)
 23fbc3a:	b508      	push	{r3, lr}
	    return __source._M_access<_Functor*>();
 23fbc3c:	6800      	ldr	r0, [r0, #0]
 23fbc3e:	f100 0110 	add.w	r1, r0, #16
 23fbc42:	f7ff fff1 	bl	23fbc28 <_ZNKSt8functionIFvRKbEEclES1_>
      }
 23fbc46:	bd08      	pop	{r3, pc}

023fbc48 <_ZNSt14__shared_countILN9__gnu_cxx12_Lock_policyE0EEC1IPN8particle6detail10FutureImplIbNS5_13FutureContextEEEEET_>:
	__shared_count(_Ptr __p) : _M_pi(0)
 23fbc48:	b538      	push	{r3, r4, r5, lr}
 23fbc4a:	2300      	movs	r3, #0
 23fbc4c:	4604      	mov	r4, r0
 23fbc4e:	6003      	str	r3, [r0, #0]
	      _M_pi = new _Sp_counted_ptr<_Ptr, _Lp>(__p);
 23fbc50:	2010      	movs	r0, #16
	__shared_count(_Ptr __p) : _M_pi(0)
 23fbc52:	460d      	mov	r5, r1
	      _M_pi = new _Sp_counted_ptr<_Ptr, _Lp>(__p);
 23fbc54:	f7fa fe61 	bl	23f691a <_Znwj>
 23fbc58:	b128      	cbz	r0, 23fbc66 <_ZNSt14__shared_countILN9__gnu_cxx12_Lock_policyE0EEC1IPN8particle6detail10FutureImplIbNS5_13FutureContextEEEEET_+0x1e>
      : _M_use_count(1), _M_weak_count(1) { }
 23fbc5a:	2301      	movs	r3, #1
 23fbc5c:	e9c0 3301 	strd	r3, r3, [r0, #4]
      : _M_ptr(__p) { }
 23fbc60:	4b02      	ldr	r3, [pc, #8]	; (23fbc6c <_ZNSt14__shared_countILN9__gnu_cxx12_Lock_policyE0EEC1IPN8particle6detail10FutureImplIbNS5_13FutureContextEEEEET_+0x24>)
 23fbc62:	60c5      	str	r5, [r0, #12]
 23fbc64:	6003      	str	r3, [r0, #0]
	      _M_pi = new _Sp_counted_ptr<_Ptr, _Lp>(__p);
 23fbc66:	6020      	str	r0, [r4, #0]
	}
 23fbc68:	4620      	mov	r0, r4
 23fbc6a:	bd38      	pop	{r3, r4, r5, pc}
 23fbc6c:	023ffa2c 	.word	0x023ffa2c

023fbc70 <_ZN8particle10FutureBaseIbNS_6detail13FutureContextEEC1ENS_5Error4TypeE>:
    // Construct failed future
    explicit FutureBase(Error error) :
            p_(new detail::FutureImpl<ResultT, ContextT>(std::move(error))) {
    }

    explicit FutureBase(Error::Type error) :
 23fbc70:	b57f      	push	{r0, r1, r2, r3, r4, r5, r6, lr}
        type_(type) {
 23fbc72:	2600      	movs	r6, #0
 23fbc74:	f8ad 1004 	strh.w	r1, [sp, #4]
 23fbc78:	4605      	mov	r5, r0
            p_(new detail::FutureImpl<ResultT, ContextT>(std::move(error))) {
 23fbc7a:	4669      	mov	r1, sp
 23fbc7c:	a802      	add	r0, sp, #8
 23fbc7e:	9600      	str	r6, [sp, #0]
 23fbc80:	f7ff ff22 	bl	23fbac8 <_ZN8particle5ErrorC1EOS0_>
 23fbc84:	2014      	movs	r0, #20
 23fbc86:	f7fa fe48 	bl	23f691a <_Znwj>
 23fbc8a:	4604      	mov	r4, r0
 23fbc8c:	b148      	cbz	r0, 23fbca2 <_ZN8particle10FutureBaseIbNS_6detail13FutureContextEEC1ENS_5Error4TypeE+0x32>
      constexpr atomic(_Tp __i) noexcept : _M_i(__i) { }
 23fbc8e:	2302      	movs	r3, #2
 23fbc90:	7003      	strb	r3, [r0, #0]
      constexpr __atomic_base(__int_type __i) noexcept : _M_i (__i) { }
 23fbc92:	2301      	movs	r3, #1
      constexpr __atomic_base(__pointer_type __p) noexcept : _M_p (__p) { }
 23fbc94:	e9c0 6601 	strd	r6, r6, [r0, #4]
      constexpr __atomic_base(__int_type __i) noexcept : _M_i (__i) { }
 23fbc98:	7043      	strb	r3, [r0, #1]
            error_(std::move(error)) {
 23fbc9a:	a902      	add	r1, sp, #8
 23fbc9c:	300c      	adds	r0, #12
 23fbc9e:	f7ff ff13 	bl	23fbac8 <_ZN8particle5ErrorC1EOS0_>
	: _M_ptr(__p), _M_refcount(__p, typename is_array<_Tp>::type())
 23fbca2:	4628      	mov	r0, r5
	: __shared_count(__p)
 23fbca4:	4621      	mov	r1, r4
	: _M_ptr(__p), _M_refcount(__p, typename is_array<_Tp>::type())
 23fbca6:	f840 4b04 	str.w	r4, [r0], #4
	: __shared_count(__p)
 23fbcaa:	f7ff ffcd 	bl	23fbc48 <_ZNSt14__shared_countILN9__gnu_cxx12_Lock_policyE0EEC1IPN8particle6detail10FutureImplIbNS5_13FutureContextEEEEET_>
            p_(new detail::FutureImpl<ResultT, ContextT>(std::move(error))) {
 23fbcae:	a802      	add	r0, sp, #8
 23fbcb0:	f7ff ff17 	bl	23fbae2 <_ZN8particle5ErrorD1Ev>
            FutureBase(Error(error)) {
 23fbcb4:	4668      	mov	r0, sp
 23fbcb6:	f7ff ff14 	bl	23fbae2 <_ZN8particle5ErrorD1Ev>
    }
 23fbcba:	4628      	mov	r0, r5
 23fbcbc:	b004      	add	sp, #16
 23fbcbe:	bd70      	pop	{r4, r5, r6, pc}

023fbcc0 <_ZNSt8functionIFvRKN8particle5ErrorEEEC1ERKS5_>:
    function<_Res(_ArgTypes...)>::
 23fbcc0:	b538      	push	{r3, r4, r5, lr}
    _Function_base() : _M_manager(nullptr) { }
 23fbcc2:	2300      	movs	r3, #0
 23fbcc4:	6083      	str	r3, [r0, #8]
    bool _M_empty() const { return !_M_manager; }
 23fbcc6:	688b      	ldr	r3, [r1, #8]
    function<_Res(_ArgTypes...)>::
 23fbcc8:	4604      	mov	r4, r0
 23fbcca:	460d      	mov	r5, r1
      if (static_cast<bool>(__x))
 23fbccc:	b12b      	cbz	r3, 23fbcda <_ZNSt8functionIFvRKN8particle5ErrorEEEC1ERKS5_+0x1a>
	  __x._M_manager(_M_functor, __x._M_functor, __clone_functor);
 23fbcce:	2202      	movs	r2, #2
 23fbcd0:	4798      	blx	r3
	  _M_invoker = __x._M_invoker;
 23fbcd2:	68eb      	ldr	r3, [r5, #12]
 23fbcd4:	60e3      	str	r3, [r4, #12]
	  _M_manager = __x._M_manager;
 23fbcd6:	68ab      	ldr	r3, [r5, #8]
 23fbcd8:	60a3      	str	r3, [r4, #8]
    }
 23fbcda:	4620      	mov	r0, r4
 23fbcdc:	bd38      	pop	{r3, r4, r5, pc}
	...

023fbce0 <_ZN8particle11PromiseBaseIbNS_6detail13FutureContextEE8setErrorENS_5ErrorE>:
    void setError(Error error) {
 23fbce0:	b5f0      	push	{r4, r5, r6, r7, lr}
 23fbce2:	b089      	sub	sp, #36	; 0x24
        { __shared_ptr(__p, std::move(__d), std::move(__a)).swap(*this); }

      /// Return the stored pointer.
      element_type*
      get() const noexcept
      { return _M_ptr; }
 23fbce4:	6804      	ldr	r4, [r0, #0]
        p_->setError(std::move(error));
 23fbce6:	4668      	mov	r0, sp
 23fbce8:	f7ff feee 	bl	23fbac8 <_ZN8particle5ErrorC1EOS0_>

      bool
      compare_exchange_strong(_Tp& __e, _Tp __i, memory_order __s,
			      memory_order __f) noexcept
      {
	return __atomic_compare_exchange(std::__addressof(_M_i),
 23fbcec:	f04f 0302 	mov.w	r3, #2
 23fbcf0:	e8d4 2f4f 	ldrexb	r2, [r4]
 23fbcf4:	2a00      	cmp	r2, #0
 23fbcf6:	d103      	bne.n	23fbd00 <_ZN8particle11PromiseBaseIbNS_6detail13FutureContextEE8setErrorENS_5ErrorE+0x20>
 23fbcf8:	e8c4 3f41 	strexb	r1, r3, [r4]
 23fbcfc:	2900      	cmp	r1, #0
 23fbcfe:	d1f7      	bne.n	23fbcf0 <_ZN8particle11PromiseBaseIbNS_6detail13FutureContextEE8setErrorENS_5ErrorE+0x10>
        if (this->changeState(State::FAILED)) {
 23fbd00:	d121      	bne.n	23fbd46 <_ZN8particle11PromiseBaseIbNS_6detail13FutureContextEE8setErrorENS_5ErrorE+0x66>
            new(&error_) Error(std::move(error));
 23fbd02:	f104 050c 	add.w	r5, r4, #12
 23fbd06:	4669      	mov	r1, sp
 23fbd08:	4628      	mov	r0, r5
 23fbd0a:	f7ff fedd 	bl	23fbac8 <_ZN8particle5ErrorC1EOS0_>
	__atomic_store_n(&_M_i, __i, int(__m));
 23fbd0e:	2201      	movs	r2, #1
 23fbd10:	1c63      	adds	r3, r4, #1
 23fbd12:	e8c3 2f8f 	stlb	r2, [r3]

      _GLIBCXX_ALWAYS_INLINE __pointer_type
      exchange(__pointer_type __p,
	       memory_order __m = memory_order_seq_cst) noexcept
      {
	return __atomic_exchange_n(&_M_p, __p, int(__m));
 23fbd16:	2000      	movs	r0, #0
 23fbd18:	f104 0308 	add.w	r3, r4, #8
 23fbd1c:	e8d3 6fef 	ldaex	r6, [r3]
 23fbd20:	e8c3 0fe2 	stlex	r2, r0, [r3]
 23fbd24:	2a00      	cmp	r2, #0
 23fbd26:	d1f9      	bne.n	23fbd1c <_ZN8particle11PromiseBaseIbNS_6detail13FutureContextEE8setErrorENS_5ErrorE+0x3c>
        if (callbackPtr) {
 23fbd28:	b16e      	cbz	r6, 23fbd46 <_ZN8particle11PromiseBaseIbNS_6detail13FutureContextEE8setErrorENS_5ErrorE+0x66>
        return (application_thread_current(nullptr) != 0);
 23fbd2a:	f7fe f823 	bl	23f9d74 <application_thread_current>
        if (ContextT::isApplicationThreadCurrent()) {
 23fbd2e:	b178      	cbz	r0, 23fbd50 <_ZN8particle11PromiseBaseIbNS_6detail13FutureContextEE8setErrorENS_5ErrorE+0x70>
            callback(std::forward<ArgsT>(args)...); // Synchronous call
 23fbd30:	4629      	mov	r1, r5
 23fbd32:	4630      	mov	r0, r6
 23fbd34:	f7ff ff68 	bl	23fbc08 <_ZNKSt8functionIFvRKN8particle5ErrorEEEclES3_>
    class function<_Res(_ArgTypes...)>
 23fbd38:	4630      	mov	r0, r6
 23fbd3a:	f7fa ff1f 	bl	23f6b7c <_ZNSt14_Function_baseD1Ev>
            delete callbackPtr;
 23fbd3e:	2110      	movs	r1, #16
 23fbd40:	4630      	mov	r0, r6
 23fbd42:	f7fa fdee 	bl	23f6922 <_ZdlPvj>
        p_->setError(std::move(error));
 23fbd46:	4668      	mov	r0, sp
 23fbd48:	f7ff fecb 	bl	23fbae2 <_ZN8particle5ErrorD1Ev>
    }
 23fbd4c:	b009      	add	sp, #36	; 0x24
 23fbd4e:	bdf0      	pop	{r4, r5, r6, r7, pc}

     public:
      template<typename... _Args>
	explicit _GLIBCXX20_CONSTEXPR
	_Bind(const _Functor& __f, _Args&&... __args)
	: _M_f(__f), _M_bound_args(std::forward<_Args>(__args)...)
 23fbd50:	4631      	mov	r1, r6
 23fbd52:	a802      	add	r0, sp, #8
 23fbd54:	f7ff ffb4 	bl	23fbcc0 <_ZNSt8functionIFvRKN8particle5ErrorEEEC1ERKS5_>
        Error(error.type_, error.msg_) {
 23fbd58:	68e0      	ldr	r0, [r4, #12]
 23fbd5a:	f9b4 5010 	ldrsh.w	r5, [r4, #16]
        msg_(msg ? (const char*)strdup(msg) : nullptr),
 23fbd5e:	b108      	cbz	r0, 23fbd64 <_ZN8particle11PromiseBaseIbNS_6detail13FutureContextEE8setErrorENS_5ErrorE+0x84>
 23fbd60:	f001 f98e 	bl	23fd080 <strdup>
        type_(type) {
 23fbd64:	9006      	str	r0, [sp, #24]
            auto callbackPtr = new std::function<void()>(std::bind(callback, std::forward<ArgsT>(args)...));
 23fbd66:	2010      	movs	r0, #16
 23fbd68:	f8ad 501c 	strh.w	r5, [sp, #28]
 23fbd6c:	f7fa fdd5 	bl	23f691a <_Znwj>
 23fbd70:	4605      	mov	r5, r0
 23fbd72:	b1e8      	cbz	r0, 23fbdb0 <_ZN8particle11PromiseBaseIbNS_6detail13FutureContextEE8setErrorENS_5ErrorE+0xd0>
    _Function_base() : _M_manager(nullptr) { }
 23fbd74:	2700      	movs	r7, #0
 23fbd76:	6087      	str	r7, [r0, #8]
	{ __functor._M_access<_Functor*>() = new _Functor(std::move(__f)); }
 23fbd78:	2018      	movs	r0, #24
 23fbd7a:	f7fa fdce 	bl	23f691a <_Znwj>
 23fbd7e:	4604      	mov	r4, r0
 23fbd80:	b188      	cbz	r0, 23fbda6 <_ZN8particle11PromiseBaseIbNS_6detail13FutureContextEE8setErrorENS_5ErrorE+0xc6>
	std::swap(_M_functor, __x._M_functor);
 23fbd82:	4601      	mov	r1, r0
    _Function_base() : _M_manager(nullptr) { }
 23fbd84:	6087      	str	r7, [r0, #8]
	std::swap(_M_functor, __x._M_functor);
 23fbd86:	a802      	add	r0, sp, #8
 23fbd88:	f7fe fd06 	bl	23fa798 <_ZSt4swapISt9_Any_dataENSt9enable_ifIXsrSt6__and_IJSt6__not_ISt15__is_tuple_likeIT_EESt21is_move_constructibleIS5_ESt18is_move_assignableIS5_EEE5valueEvE4typeERS5_SF_>
      _Tp __tmp = _GLIBCXX_MOVE(__a);
 23fbd8c:	9b04      	ldr	r3, [sp, #16]
      __a = _GLIBCXX_MOVE(__b);
 23fbd8e:	68a2      	ldr	r2, [r4, #8]
      __b = _GLIBCXX_MOVE(__tmp);
 23fbd90:	60a3      	str	r3, [r4, #8]
      _Tp __tmp = _GLIBCXX_MOVE(__a);
 23fbd92:	9b05      	ldr	r3, [sp, #20]
      __a = _GLIBCXX_MOVE(__b);
 23fbd94:	9204      	str	r2, [sp, #16]
 23fbd96:	68e2      	ldr	r2, [r4, #12]
      constexpr _Head_base(const _Head_base&) = default;
      constexpr _Head_base(_Head_base&&) = default;

      template<typename _UHead>
        constexpr _Head_base(_UHead&& __h)
	: _M_head_impl(std::forward<_UHead>(__h)) { }
 23fbd98:	a906      	add	r1, sp, #24
      __b = _GLIBCXX_MOVE(__tmp);
 23fbd9a:	60e3      	str	r3, [r4, #12]
 23fbd9c:	f104 0010 	add.w	r0, r4, #16
      __a = _GLIBCXX_MOVE(__b);
 23fbda0:	9205      	str	r2, [sp, #20]
 23fbda2:	f7ff fe91 	bl	23fbac8 <_ZN8particle5ErrorC1EOS0_>
	    _M_invoker = &_My_handler::_M_invoke;
 23fbda6:	4b08      	ldr	r3, [pc, #32]	; (23fbdc8 <_ZN8particle11PromiseBaseIbNS_6detail13FutureContextEE8setErrorENS_5ErrorE+0xe8>)
	{ __functor._M_access<_Functor*>() = new _Functor(std::move(__f)); }
 23fbda8:	602c      	str	r4, [r5, #0]
	    _M_invoker = &_My_handler::_M_invoke;
 23fbdaa:	60eb      	str	r3, [r5, #12]
	    _M_manager = &_My_handler::_M_manager;
 23fbdac:	4b07      	ldr	r3, [pc, #28]	; (23fbdcc <_ZN8particle11PromiseBaseIbNS_6detail13FutureContextEE8setErrorENS_5ErrorE+0xec>)
 23fbdae:	60ab      	str	r3, [r5, #8]
    struct _Head_base<_Idx, _Head, false>
 23fbdb0:	a806      	add	r0, sp, #24
 23fbdb2:	f7ff fe96 	bl	23fbae2 <_ZN8particle5ErrorD1Ev>
    class function<_Res(_ArgTypes...)>
 23fbdb6:	a802      	add	r0, sp, #8
 23fbdb8:	f7fa fee0 	bl	23f6b7c <_ZNSt14_Function_baseD1Ev>
        return (application_thread_invoke(callback, data, nullptr) == 0);
 23fbdbc:	2200      	movs	r2, #0
 23fbdbe:	4629      	mov	r1, r5
 23fbdc0:	4803      	ldr	r0, [pc, #12]	; (23fbdd0 <_ZN8particle11PromiseBaseIbNS_6detail13FutureContextEE8setErrorENS_5ErrorE+0xf0>)
 23fbdc2:	f7fd ffe5 	bl	23f9d90 <application_thread_invoke>
 23fbdc6:	e7b7      	b.n	23fbd38 <_ZN8particle11PromiseBaseIbNS_6detail13FutureContextEE8setErrorENS_5ErrorE+0x58>
 23fbdc8:	023fbc1b 	.word	0x023fbc1b
 23fbdcc:	023fbead 	.word	0x023fbead
 23fbdd0:	023fc6e5 	.word	0x023fc6e5

023fbdd4 <_ZN10CloudClass13publish_eventEPKcS1_jiiN8particle5FlagsI15PublishFlagTypehEE>:
        PublishFlags flags) {
 23fbdd4:	e92d 43f0 	stmdb	sp!, {r4, r5, r6, r7, r8, r9, lr}
 23fbdd8:	b08d      	sub	sp, #52	; 0x34
 23fbdda:	4604      	mov	r4, r0
 23fbddc:	460e      	mov	r6, r1
 23fbdde:	4617      	mov	r7, r2
 23fbde0:	4699      	mov	r9, r3
 23fbde2:	f89d 8058 	ldrb.w	r8, [sp, #88]	; 0x58
    static bool connected(void) { return spark_cloud_flag_connected(); }
 23fbde6:	f7fe f93f 	bl	23fa068 <spark_cloud_flag_connected>
    if (!connected()) {
 23fbdea:	b940      	cbnz	r0, 23fbdfe <_ZN10CloudClass13publish_eventEPKcS1_jiiN8particle5FlagsI15PublishFlagTypehEE+0x2a>
};

template<typename ResultT, typename ContextT = detail::FutureContext>
class Future: public FutureBase<ResultT, ContextT> {
public:
    using FutureBase<ResultT, ContextT>::FutureBase;
 23fbdec:	f06f 01d1 	mvn.w	r1, #209	; 0xd1
 23fbdf0:	4620      	mov	r0, r4
 23fbdf2:	f7ff ff3d 	bl	23fbc70 <_ZN8particle10FutureBaseIbNS_6detail13FutureContextEEC1ENS_5Error4TypeE>
}
 23fbdf6:	4620      	mov	r0, r4
 23fbdf8:	b00d      	add	sp, #52	; 0x34
 23fbdfa:	e8bd 83f0 	ldmia.w	sp!, {r4, r5, r6, r7, r8, r9, pc}
    d.size = sizeof(spark_send_event_data);
 23fbdfe:	2014      	movs	r0, #20
    spark_send_event_data d = {};
 23fbe00:	2500      	movs	r5, #0
    d.content_type = static_cast<int>(type);
 23fbe02:	9b14      	ldr	r3, [sp, #80]	; 0x50
    spark_send_event_data d = {};
 23fbe04:	e9cd 5508 	strd	r5, r5, [sp, #32]
    d.size = sizeof(spark_send_event_data);
 23fbe08:	9007      	str	r0, [sp, #28]
    d.data_size = size;
 23fbe0a:	f8cd 9028 	str.w	r9, [sp, #40]	; 0x28
    d.content_type = static_cast<int>(type);
 23fbe0e:	930b      	str	r3, [sp, #44]	; 0x2c
            p_(new detail::FutureImpl<ResultT, ContextT>(State::RUNNING)) {
 23fbe10:	f7fa fd83 	bl	23f691a <_Znwj>
 23fbe14:	4601      	mov	r1, r0
 23fbe16:	b118      	cbz	r0, 23fbe20 <_ZN10CloudClass13publish_eventEPKcS1_jiiN8particle5FlagsI15PublishFlagTypehEE+0x4c>
      constexpr __atomic_base(__pointer_type __p) noexcept : _M_p (__p) { }
 23fbe18:	e9c0 5501 	strd	r5, r5, [r0, #4]
      constexpr atomic(_Tp __i) noexcept : _M_i(__i) { }
 23fbe1c:	7005      	strb	r5, [r0, #0]
      constexpr __atomic_base(__int_type __i) noexcept : _M_i (__i) { }
 23fbe1e:	7045      	strb	r5, [r0, #1]
	: __shared_count(__p)
 23fbe20:	a804      	add	r0, sp, #16
	: _M_ptr(__p), _M_refcount(__p, typename is_array<_Tp>::type())
 23fbe22:	9103      	str	r1, [sp, #12]
	: __shared_count(__p)
 23fbe24:	f7ff ff10 	bl	23fbc48 <_ZNSt14__shared_countILN9__gnu_cxx12_Lock_policyE0EEC1IPN8particle6detail10FutureImplIbNS5_13FutureContextEEEEET_>
    d.handler_callback = publishCompletionCallback;
 23fbe28:	4b1f      	ldr	r3, [pc, #124]	; (23fbea8 <_ZN10CloudClass13publish_eventEPKcS1_jiiN8particle5FlagsI15PublishFlagTypehEE+0xd4>)
        return new detail::FutureImplPtr<ResultT, ContextT>(p_);
 23fbe2a:	2008      	movs	r0, #8
 23fbe2c:	9308      	str	r3, [sp, #32]
 23fbe2e:	f7fa fd74 	bl	23f691a <_Znwj>
 23fbe32:	4605      	mov	r5, r0
 23fbe34:	b110      	cbz	r0, 23fbe3c <_ZN10CloudClass13publish_eventEPKcS1_jiiN8particle5FlagsI15PublishFlagTypehEE+0x68>
 23fbe36:	a903      	add	r1, sp, #12
 23fbe38:	f7ff fec2 	bl	23fbbc0 <_ZNSt12__shared_ptrIN8particle6detail10FutureImplIbNS1_13FutureContextEEELN9__gnu_cxx12_Lock_policyE0EEC1ERKS7_>
    if (!spark_send_event(name, data, ttl, flags.value(), &d) && !p.isDone()) {
 23fbe3c:	ab07      	add	r3, sp, #28
 23fbe3e:	9300      	str	r3, [sp, #0]
 23fbe40:	4639      	mov	r1, r7
 23fbe42:	4630      	mov	r0, r6
 23fbe44:	9a15      	ldr	r2, [sp, #84]	; 0x54
 23fbe46:	fa5f f388 	uxtb.w	r3, r8
    d.handler_data = p.dataPtr();
 23fbe4a:	9509      	str	r5, [sp, #36]	; 0x24
    if (!spark_send_event(name, data, ttl, flags.value(), &d) && !p.isDone()) {
 23fbe4c:	f7fe f91a 	bl	23fa084 <spark_send_event>
 23fbe50:	b9b8      	cbnz	r0, 23fbe82 <_ZN10CloudClass13publish_eventEPKcS1_jiiN8particle5FlagsI15PublishFlagTypehEE+0xae>
	return __atomic_load_n(&_M_i, int(__m));
 23fbe52:	9b03      	ldr	r3, [sp, #12]
 23fbe54:	3301      	adds	r3, #1
 23fbe56:	781b      	ldrb	r3, [r3, #0]
 23fbe58:	b2db      	uxtb	r3, r3
 23fbe5a:	b993      	cbnz	r3, 23fbe82 <_ZN10CloudClass13publish_eventEPKcS1_jiiN8particle5FlagsI15PublishFlagTypehEE+0xae>
        type_(type) {
 23fbe5c:	9305      	str	r3, [sp, #20]
 23fbe5e:	f64f 739c 	movw	r3, #65436	; 0xff9c
        p.setError(Error::UNKNOWN);
 23fbe62:	a905      	add	r1, sp, #20
 23fbe64:	a803      	add	r0, sp, #12
 23fbe66:	f8ad 3018 	strh.w	r3, [sp, #24]
 23fbe6a:	f7ff ff39 	bl	23fbce0 <_ZN8particle11PromiseBaseIbNS_6detail13FutureContextEE8setErrorENS_5ErrorE>
 23fbe6e:	a805      	add	r0, sp, #20
 23fbe70:	f7ff fe37 	bl	23fbae2 <_ZN8particle5ErrorD1Ev>
        p.fromDataPtr(d.handler_data); // Free wrapper object
 23fbe74:	a805      	add	r0, sp, #20
 23fbe76:	9909      	ldr	r1, [sp, #36]	; 0x24
 23fbe78:	f7ff feab 	bl	23fbbd2 <_ZN8particle11PromiseBaseIbNS_6detail13FutureContextEE11fromDataPtrEPv>
      ~__shared_ptr() = default;
 23fbe7c:	a806      	add	r0, sp, #24
 23fbe7e:	f7fc fa69 	bl	23f8354 <_ZNSt14__shared_countILN9__gnu_cxx12_Lock_policyE0EED1Ev>
 23fbe82:	a903      	add	r1, sp, #12
 23fbe84:	a805      	add	r0, sp, #20
 23fbe86:	f7ff fe9b 	bl	23fbbc0 <_ZNSt12__shared_ptrIN8particle6detail10FutureImplIbNS1_13FutureContextEEELN9__gnu_cxx12_Lock_policyE0EEC1ERKS7_>
      : _M_ptr(__r._M_ptr), _M_refcount()
 23fbe8a:	9b05      	ldr	r3, [sp, #20]
	_Sp_counted_base<_Lp>* __tmp = __r._M_pi;
 23fbe8c:	9a06      	ldr	r2, [sp, #24]
      : _M_ptr(__r._M_ptr), _M_refcount()
 23fbe8e:	6023      	str	r3, [r4, #0]
	__r._M_pi = _M_pi;
 23fbe90:	2300      	movs	r3, #0
	_M_pi = __tmp;
 23fbe92:	6062      	str	r2, [r4, #4]
      ~__shared_ptr() = default;
 23fbe94:	a806      	add	r0, sp, #24
	__r._M_pi = _M_pi;
 23fbe96:	9306      	str	r3, [sp, #24]
	__r._M_ptr = 0;
 23fbe98:	9305      	str	r3, [sp, #20]
      ~__shared_ptr() = default;
 23fbe9a:	f7fc fa5b 	bl	23f8354 <_ZNSt14__shared_countILN9__gnu_cxx12_Lock_policyE0EED1Ev>
 23fbe9e:	a804      	add	r0, sp, #16
 23fbea0:	f7fc fa58 	bl	23f8354 <_ZNSt14__shared_countILN9__gnu_cxx12_Lock_policyE0EED1Ev>
class Promise: public PromiseBase<ResultT, ContextT> {
 23fbea4:	e7a7      	b.n	23fbdf6 <_ZN10CloudClass13publish_eventEPKcS1_jiiN8particle5FlagsI15PublishFlagTypehEE+0x22>
 23fbea6:	bf00      	nop
 23fbea8:	023fbf71 	.word	0x023fbf71

023fbeac <_ZNSt17_Function_handlerIFvvESt5_BindIFSt8functionIFvRKN8particle5ErrorEEES4_EEE10_M_managerERSt9_Any_dataRKSC_St18_Manager_operation>:
	switch (__op)
 23fbeac:	2a01      	cmp	r2, #1
      _M_manager(_Any_data& __dest, const _Any_data& __source,
 23fbeae:	b5f8      	push	{r3, r4, r5, r6, r7, lr}
 23fbeb0:	4605      	mov	r5, r0
	switch (__op)
 23fbeb2:	d103      	bne.n	23fbebc <_ZNSt17_Function_handlerIFvvESt5_BindIFSt8functionIFvRKN8particle5ErrorEEES4_EEE10_M_managerERSt9_Any_dataRKSC_St18_Manager_operation+0x10>
	    return __source._M_access<_Functor*>();
 23fbeb4:	680b      	ldr	r3, [r1, #0]
	    __dest._M_access<_Functor*>() = _Base::_M_get_pointer(__source);
 23fbeb6:	6003      	str	r3, [r0, #0]
      }
 23fbeb8:	2000      	movs	r0, #0
 23fbeba:	bdf8      	pop	{r3, r4, r5, r6, r7, pc}
	  switch (__op)
 23fbebc:	2a02      	cmp	r2, #2
 23fbebe:	d010      	beq.n	23fbee2 <_ZNSt17_Function_handlerIFvvESt5_BindIFSt8functionIFvRKN8particle5ErrorEEES4_EEE10_M_managerERSt9_Any_dataRKSC_St18_Manager_operation+0x36>
 23fbec0:	2a03      	cmp	r2, #3
 23fbec2:	d1f9      	bne.n	23fbeb8 <_ZNSt17_Function_handlerIFvvESt5_BindIFSt8functionIFvRKN8particle5ErrorEEES4_EEE10_M_managerERSt9_Any_dataRKSC_St18_Manager_operation+0xc>
	  delete __victim._M_access<_Functor*>();
 23fbec4:	6804      	ldr	r4, [r0, #0]
 23fbec6:	2c00      	cmp	r4, #0
 23fbec8:	d0f6      	beq.n	23fbeb8 <_ZNSt17_Function_handlerIFvvESt5_BindIFSt8functionIFvRKN8particle5ErrorEEES4_EEE10_M_managerERSt9_Any_dataRKSC_St18_Manager_operation+0xc>
 23fbeca:	f104 0010 	add.w	r0, r4, #16
 23fbece:	f7ff fe08 	bl	23fbae2 <_ZN8particle5ErrorD1Ev>
    class function<_Res(_ArgTypes...)>
 23fbed2:	4620      	mov	r0, r4
 23fbed4:	f7fa fe52 	bl	23f6b7c <_ZNSt14_Function_baseD1Ev>
	  delete __victim._M_access<_Functor*>();
 23fbed8:	2118      	movs	r1, #24
 23fbeda:	4620      	mov	r0, r4
 23fbedc:	f7fa fd21 	bl	23f6922 <_ZdlPvj>
 23fbee0:	e7ea      	b.n	23fbeb8 <_ZNSt17_Function_handlerIFvvESt5_BindIFSt8functionIFvRKN8particle5ErrorEEES4_EEE10_M_managerERSt9_Any_dataRKSC_St18_Manager_operation+0xc>
	    new _Functor(*__source._M_access<const _Functor*>());
 23fbee2:	2018      	movs	r0, #24
	  __dest._M_access<_Functor*>() =
 23fbee4:	680e      	ldr	r6, [r1, #0]
	    new _Functor(*__source._M_access<const _Functor*>());
 23fbee6:	f7fa fd18 	bl	23f691a <_Znwj>
 23fbeea:	4604      	mov	r4, r0
 23fbeec:	b150      	cbz	r0, 23fbf04 <_ZNSt17_Function_handlerIFvvESt5_BindIFSt8functionIFvRKN8particle5ErrorEEES4_EEE10_M_managerERSt9_Any_dataRKSC_St18_Manager_operation+0x58>
	explicit _GLIBCXX20_CONSTEXPR
	_Bind(_Functor&& __f, _Args&&... __args)
	: _M_f(std::move(__f)), _M_bound_args(std::forward<_Args>(__args)...)
	{ }

      _Bind(const _Bind&) = default;
 23fbeee:	4631      	mov	r1, r6
 23fbef0:	f7ff fee6 	bl	23fbcc0 <_ZNSt8functionIFvRKN8particle5ErrorEEEC1ERKS5_>
        Error(error.type_, error.msg_) {
 23fbef4:	6930      	ldr	r0, [r6, #16]
 23fbef6:	f9b6 7014 	ldrsh.w	r7, [r6, #20]
        msg_(msg ? (const char*)strdup(msg) : nullptr),
 23fbefa:	b108      	cbz	r0, 23fbf00 <_ZNSt17_Function_handlerIFvvESt5_BindIFSt8functionIFvRKN8particle5ErrorEEES4_EEE10_M_managerERSt9_Any_dataRKSC_St18_Manager_operation+0x54>
 23fbefc:	f001 f8c0 	bl	23fd080 <strdup>
        type_(type) {
 23fbf00:	6120      	str	r0, [r4, #16]
 23fbf02:	82a7      	strh	r7, [r4, #20]
	  __dest._M_access<_Functor*>() =
 23fbf04:	602c      	str	r4, [r5, #0]
	}
 23fbf06:	e7d7      	b.n	23fbeb8 <_ZNSt17_Function_handlerIFvvESt5_BindIFSt8functionIFvRKN8particle5ErrorEEES4_EEE10_M_managerERSt9_Any_dataRKSC_St18_Manager_operation+0xc>

023fbf08 <_ZNSt8functionIFvRKbEEC1ERKS3_>:
    function<_Res(_ArgTypes...)>::
 23fbf08:	b538      	push	{r3, r4, r5, lr}
    _Function_base() : _M_manager(nullptr) { }
 23fbf0a:	2300      	movs	r3, #0
 23fbf0c:	6083      	str	r3, [r0, #8]
    bool _M_empty() const { return !_M_manager; }
 23fbf0e:	688b      	ldr	r3, [r1, #8]
    function<_Res(_ArgTypes...)>::
 23fbf10:	4604      	mov	r4, r0
 23fbf12:	460d      	mov	r5, r1
      if (static_cast<bool>(__x))
 23fbf14:	b12b      	cbz	r3, 23fbf22 <_ZNSt8functionIFvRKbEEC1ERKS3_+0x1a>
	  __x._M_manager(_M_functor, __x._M_functor, __clone_functor);
 23fbf16:	2202      	movs	r2, #2
 23fbf18:	4798      	blx	r3
	  _M_invoker = __x._M_invoker;
 23fbf1a:	68eb      	ldr	r3, [r5, #12]
 23fbf1c:	60e3      	str	r3, [r4, #12]
	  _M_manager = __x._M_manager;
 23fbf1e:	68ab      	ldr	r3, [r5, #8]
 23fbf20:	60a3      	str	r3, [r4, #8]
    }
 23fbf22:	4620      	mov	r0, r4
 23fbf24:	bd38      	pop	{r3, r4, r5, pc}

023fbf26 <_ZNSt17_Function_handlerIFvvESt5_BindIFSt8functionIFvRKbEEbEEE10_M_managerERSt9_Any_dataRKSA_St18_Manager_operation>:
	switch (__op)
 23fbf26:	2a01      	cmp	r2, #1
      _M_manager(_Any_data& __dest, const _Any_data& __source,
 23fbf28:	b570      	push	{r4, r5, r6, lr}
 23fbf2a:	4604      	mov	r4, r0
	switch (__op)
 23fbf2c:	d103      	bne.n	23fbf36 <_ZNSt17_Function_handlerIFvvESt5_BindIFSt8functionIFvRKbEEbEEE10_M_managerERSt9_Any_dataRKSA_St18_Manager_operation+0x10>
	    return __source._M_access<_Functor*>();
 23fbf2e:	680b      	ldr	r3, [r1, #0]
	    __dest._M_access<_Functor*>() = _Base::_M_get_pointer(__source);
 23fbf30:	6003      	str	r3, [r0, #0]
      }
 23fbf32:	2000      	movs	r0, #0
 23fbf34:	bd70      	pop	{r4, r5, r6, pc}
	  switch (__op)
 23fbf36:	2a02      	cmp	r2, #2
 23fbf38:	d00c      	beq.n	23fbf54 <_ZNSt17_Function_handlerIFvvESt5_BindIFSt8functionIFvRKbEEbEEE10_M_managerERSt9_Any_dataRKSA_St18_Manager_operation+0x2e>
 23fbf3a:	2a03      	cmp	r2, #3
 23fbf3c:	d1f9      	bne.n	23fbf32 <_ZNSt17_Function_handlerIFvvESt5_BindIFSt8functionIFvRKbEEbEEE10_M_managerERSt9_Any_dataRKSA_St18_Manager_operation+0xc>
	  delete __victim._M_access<_Functor*>();
 23fbf3e:	6804      	ldr	r4, [r0, #0]
 23fbf40:	2c00      	cmp	r4, #0
 23fbf42:	d0f6      	beq.n	23fbf32 <_ZNSt17_Function_handlerIFvvESt5_BindIFSt8functionIFvRKbEEbEEE10_M_managerERSt9_Any_dataRKSA_St18_Manager_operation+0xc>
    class function<_Res(_ArgTypes...)>
 23fbf44:	4620      	mov	r0, r4
 23fbf46:	f7fa fe19 	bl	23f6b7c <_ZNSt14_Function_baseD1Ev>
	  delete __victim._M_access<_Functor*>();
 23fbf4a:	2114      	movs	r1, #20
 23fbf4c:	4620      	mov	r0, r4
 23fbf4e:	f7fa fce8 	bl	23f6922 <_ZdlPvj>
 23fbf52:	e7ee      	b.n	23fbf32 <_ZNSt17_Function_handlerIFvvESt5_BindIFSt8functionIFvRKbEEbEEE10_M_managerERSt9_Any_dataRKSA_St18_Manager_operation+0xc>
	    new _Functor(*__source._M_access<const _Functor*>());
 23fbf54:	2014      	movs	r0, #20
	  __dest._M_access<_Functor*>() =
 23fbf56:	680e      	ldr	r6, [r1, #0]
	    new _Functor(*__source._M_access<const _Functor*>());
 23fbf58:	f7fa fcdf 	bl	23f691a <_Znwj>
 23fbf5c:	4605      	mov	r5, r0
 23fbf5e:	b120      	cbz	r0, 23fbf6a <_ZNSt17_Function_handlerIFvvESt5_BindIFSt8functionIFvRKbEEbEEE10_M_managerERSt9_Any_dataRKSA_St18_Manager_operation+0x44>
 23fbf60:	4631      	mov	r1, r6
 23fbf62:	f7ff ffd1 	bl	23fbf08 <_ZNSt8functionIFvRKbEEC1ERKS3_>
 23fbf66:	7c33      	ldrb	r3, [r6, #16]
 23fbf68:	742b      	strb	r3, [r5, #16]
	  __dest._M_access<_Functor*>() =
 23fbf6a:	6025      	str	r5, [r4, #0]
	}
 23fbf6c:	e7e1      	b.n	23fbf32 <_ZNSt17_Function_handlerIFvvESt5_BindIFSt8functionIFvRKbEEbEEE10_M_managerERSt9_Any_dataRKSA_St18_Manager_operation+0xc>
	...

023fbf70 <_ZN12_GLOBAL__N_125publishCompletionCallbackEiPKvPvS2_>:
void publishCompletionCallback(int error, const void* data, void* callbackData, void* reserved) {
 23fbf70:	b5f0      	push	{r4, r5, r6, r7, lr}
 23fbf72:	4604      	mov	r4, r0
 23fbf74:	b089      	sub	sp, #36	; 0x24
 23fbf76:	460d      	mov	r5, r1
    auto p = Promise<bool>::fromDataPtr(callbackData);
 23fbf78:	a801      	add	r0, sp, #4
 23fbf7a:	4611      	mov	r1, r2
 23fbf7c:	f7ff fe29 	bl	23fbbd2 <_ZN8particle11PromiseBaseIbNS_6detail13FutureContextEE11fromDataPtrEPv>
    if (error != Error::NONE) {
 23fbf80:	b1a4      	cbz	r4, 23fbfac <_ZN12_GLOBAL__N_125publishCompletionCallbackEiPKvPvS2_+0x3c>
        p.setError(Error((Error::Type)error, (const char*)data));
 23fbf82:	b224      	sxth	r4, r4
        msg_(msg ? (const char*)strdup(msg) : nullptr),
 23fbf84:	b11d      	cbz	r5, 23fbf8e <_ZN12_GLOBAL__N_125publishCompletionCallbackEiPKvPvS2_+0x1e>
 23fbf86:	4628      	mov	r0, r5
 23fbf88:	f001 f87a 	bl	23fd080 <strdup>
 23fbf8c:	4605      	mov	r5, r0
 23fbf8e:	a801      	add	r0, sp, #4
 23fbf90:	a903      	add	r1, sp, #12
        type_(type) {
 23fbf92:	9503      	str	r5, [sp, #12]
 23fbf94:	f8ad 4010 	strh.w	r4, [sp, #16]
 23fbf98:	f7ff fea2 	bl	23fbce0 <_ZN8particle11PromiseBaseIbNS_6detail13FutureContextEE8setErrorENS_5ErrorE>
 23fbf9c:	a803      	add	r0, sp, #12
 23fbf9e:	f7ff fda0 	bl	23fbae2 <_ZN8particle5ErrorD1Ev>
 23fbfa2:	a802      	add	r0, sp, #8
 23fbfa4:	f7fc f9d6 	bl	23f8354 <_ZNSt14__shared_countILN9__gnu_cxx12_Lock_policyE0EED1Ev>
}
 23fbfa8:	b009      	add	sp, #36	; 0x24
 23fbfaa:	bdf0      	pop	{r4, r5, r6, r7, pc}
	return __atomic_compare_exchange(std::__addressof(_M_i),
 23fbfac:	2301      	movs	r3, #1
      { return _M_ptr; }
 23fbfae:	9d01      	ldr	r5, [sp, #4]
 23fbfb0:	e8d5 2f4f 	ldrexb	r2, [r5]
 23fbfb4:	2a00      	cmp	r2, #0
 23fbfb6:	d103      	bne.n	23fbfc0 <_ZN12_GLOBAL__N_125publishCompletionCallbackEiPKvPvS2_+0x50>
 23fbfb8:	e8c5 3f41 	strexb	r1, r3, [r5]
 23fbfbc:	2900      	cmp	r1, #0
 23fbfbe:	d1f7      	bne.n	23fbfb0 <_ZN12_GLOBAL__N_125publishCompletionCallbackEiPKvPvS2_+0x40>
        if (this->changeState(State::SUCCEEDED)) {
 23fbfc0:	d1ef      	bne.n	23fbfa2 <_ZN12_GLOBAL__N_125publishCompletionCallbackEiPKvPvS2_+0x32>
            new(&result_) ResultT(std::move(result));
 23fbfc2:	732b      	strb	r3, [r5, #12]
	__atomic_store_n(&_M_i, __i, int(__m));
 23fbfc4:	2201      	movs	r2, #1
 23fbfc6:	18eb      	adds	r3, r5, r3
 23fbfc8:	e8c3 2f8f 	stlb	r2, [r3]
	return __atomic_exchange_n(&_M_p, __p, int(__m));
 23fbfcc:	1d2b      	adds	r3, r5, #4
 23fbfce:	e8d3 6fef 	ldaex	r6, [r3]
 23fbfd2:	e8c3 4fe2 	stlex	r2, r4, [r3]
 23fbfd6:	2a00      	cmp	r2, #0
 23fbfd8:	d1f9      	bne.n	23fbfce <_ZN12_GLOBAL__N_125publishCompletionCallbackEiPKvPvS2_+0x5e>
        if (callbackPtr) {
 23fbfda:	2e00      	cmp	r6, #0
 23fbfdc:	d0e1      	beq.n	23fbfa2 <_ZN12_GLOBAL__N_125publishCompletionCallbackEiPKvPvS2_+0x32>
        return (application_thread_current(nullptr) != 0);
 23fbfde:	4620      	mov	r0, r4
 23fbfe0:	f7fd fec8 	bl	23f9d74 <application_thread_current>
        if (ContextT::isApplicationThreadCurrent()) {
 23fbfe4:	4607      	mov	r7, r0
 23fbfe6:	b160      	cbz	r0, 23fc002 <_ZN12_GLOBAL__N_125publishCompletionCallbackEiPKvPvS2_+0x92>
            callback(std::forward<ArgsT>(args)...); // Synchronous call
 23fbfe8:	4630      	mov	r0, r6
 23fbfea:	f105 010c 	add.w	r1, r5, #12
 23fbfee:	f7ff fe1b 	bl	23fbc28 <_ZNKSt8functionIFvRKbEEclES1_>
    class function<_Res(_ArgTypes...)>
 23fbff2:	4630      	mov	r0, r6
 23fbff4:	f7fa fdc2 	bl	23f6b7c <_ZNSt14_Function_baseD1Ev>
            delete callbackPtr;
 23fbff8:	2110      	movs	r1, #16
 23fbffa:	4630      	mov	r0, r6
 23fbffc:	f7fa fc91 	bl	23f6922 <_ZdlPvj>
 23fc000:	e7cf      	b.n	23fbfa2 <_ZN12_GLOBAL__N_125publishCompletionCallbackEiPKvPvS2_+0x32>
	: _M_f(__f), _M_bound_args(std::forward<_Args>(__args)...)
 23fc002:	4631      	mov	r1, r6
 23fc004:	a803      	add	r0, sp, #12
 23fc006:	f7ff ff7f 	bl	23fbf08 <_ZNSt8functionIFvRKbEEC1ERKS3_>
	: _M_head_impl(std::forward<_UHead>(__h)) { }
 23fc00a:	7b2b      	ldrb	r3, [r5, #12]
            auto callbackPtr = new std::function<void()>(std::bind(callback, std::forward<ArgsT>(args)...));
 23fc00c:	2010      	movs	r0, #16
 23fc00e:	f88d 301c 	strb.w	r3, [sp, #28]
 23fc012:	f7fa fc82 	bl	23f691a <_Znwj>
 23fc016:	4605      	mov	r5, r0
 23fc018:	b1d0      	cbz	r0, 23fc050 <_ZN12_GLOBAL__N_125publishCompletionCallbackEiPKvPvS2_+0xe0>
    _Function_base() : _M_manager(nullptr) { }
 23fc01a:	6087      	str	r7, [r0, #8]
	{ __functor._M_access<_Functor*>() = new _Functor(std::move(__f)); }
 23fc01c:	2014      	movs	r0, #20
 23fc01e:	f7fa fc7c 	bl	23f691a <_Znwj>
 23fc022:	4604      	mov	r4, r0
 23fc024:	b178      	cbz	r0, 23fc046 <_ZN12_GLOBAL__N_125publishCompletionCallbackEiPKvPvS2_+0xd6>
	std::swap(_M_functor, __x._M_functor);
 23fc026:	4601      	mov	r1, r0
    _Function_base() : _M_manager(nullptr) { }
 23fc028:	6087      	str	r7, [r0, #8]
	std::swap(_M_functor, __x._M_functor);
 23fc02a:	a803      	add	r0, sp, #12
 23fc02c:	f7fe fbb4 	bl	23fa798 <_ZSt4swapISt9_Any_dataENSt9enable_ifIXsrSt6__and_IJSt6__not_ISt15__is_tuple_likeIT_EESt21is_move_constructibleIS5_ESt18is_move_assignableIS5_EEE5valueEvE4typeERS5_SF_>
      _Tp __tmp = _GLIBCXX_MOVE(__a);
 23fc030:	9b05      	ldr	r3, [sp, #20]
      __a = _GLIBCXX_MOVE(__b);
 23fc032:	68a2      	ldr	r2, [r4, #8]
      __b = _GLIBCXX_MOVE(__tmp);
 23fc034:	60a3      	str	r3, [r4, #8]
      _Tp __tmp = _GLIBCXX_MOVE(__a);
 23fc036:	9b06      	ldr	r3, [sp, #24]
      __a = _GLIBCXX_MOVE(__b);
 23fc038:	9205      	str	r2, [sp, #20]
 23fc03a:	68e2      	ldr	r2, [r4, #12]
      __b = _GLIBCXX_MOVE(__tmp);
 23fc03c:	60e3      	str	r3, [r4, #12]
 23fc03e:	f89d 301c 	ldrb.w	r3, [sp, #28]
      __a = _GLIBCXX_MOVE(__b);
 23fc042:	9206      	str	r2, [sp, #24]
 23fc044:	7423      	strb	r3, [r4, #16]
	    _M_invoker = &_My_handler::_M_invoke;
 23fc046:	4b07      	ldr	r3, [pc, #28]	; (23fc064 <_ZN12_GLOBAL__N_125publishCompletionCallbackEiPKvPvS2_+0xf4>)
	{ __functor._M_access<_Functor*>() = new _Functor(std::move(__f)); }
 23fc048:	602c      	str	r4, [r5, #0]
	    _M_invoker = &_My_handler::_M_invoke;
 23fc04a:	60eb      	str	r3, [r5, #12]
	    _M_manager = &_My_handler::_M_manager;
 23fc04c:	4b06      	ldr	r3, [pc, #24]	; (23fc068 <_ZN12_GLOBAL__N_125publishCompletionCallbackEiPKvPvS2_+0xf8>)
 23fc04e:	60ab      	str	r3, [r5, #8]
    class function<_Res(_ArgTypes...)>
 23fc050:	a803      	add	r0, sp, #12
 23fc052:	f7fa fd93 	bl	23f6b7c <_ZNSt14_Function_baseD1Ev>
        return (application_thread_invoke(callback, data, nullptr) == 0);
 23fc056:	2200      	movs	r2, #0
 23fc058:	4629      	mov	r1, r5
 23fc05a:	4804      	ldr	r0, [pc, #16]	; (23fc06c <_ZN12_GLOBAL__N_125publishCompletionCallbackEiPKvPvS2_+0xfc>)
 23fc05c:	f7fd fe98 	bl	23f9d90 <application_thread_invoke>
 23fc060:	e7c7      	b.n	23fbff2 <_ZN12_GLOBAL__N_125publishCompletionCallbackEiPKvPvS2_+0x82>
 23fc062:	bf00      	nop
 23fc064:	023fbc3b 	.word	0x023fbc3b
 23fc068:	023fbf27 	.word	0x023fbf27
 23fc06c:	023fc6e5 	.word	0x023fc6e5

023fc070 <_ZN9IPAddressD1Ev>:
    IPAddress(uint32_t address);
    // 4 bytes defining the IP address in network order
    IPAddress(const uint8_t* address);
    IPAddress(const HAL_IPAddress& address);

    virtual ~IPAddress() {}
 23fc070:	4770      	bx	lr

023fc072 <_ZN9IPAddressD0Ev>:
 23fc072:	b510      	push	{r4, lr}
 23fc074:	4604      	mov	r4, r0
 23fc076:	2118      	movs	r1, #24
 23fc078:	f7fa fc53 	bl	23f6922 <_ZdlPvj>
 23fc07c:	4620      	mov	r0, r4
 23fc07e:	bd10      	pop	{r4, pc}

023fc080 <_ZNK9IPAddress7printToER5Print>:
#endif // Wiring_IPv6
	return address.ipv4==that.address.ipv4;
}

size_t IPAddress::printTo(Print& p) const
{
 23fc080:	b5f0      	push	{r4, r5, r6, r7, lr}
#if Wiring_IPv6
#if HAL_USE_INET_HAL_POSIX
	if (address.v==6) {
 23fc082:	7d03      	ldrb	r3, [r0, #20]
{
 23fc084:	460e      	mov	r6, r1
	if (address.v==6) {
 23fc086:	2b06      	cmp	r3, #6
 23fc088:	f04f 0400 	mov.w	r4, #0
{
 23fc08c:	b08d      	sub	sp, #52	; 0x34
		char buf[INET6_ADDRSTRLEN+1];
		buf[0] = 0;
		inet_inet_ntop(AF_INET6, address.ipv6, buf, sizeof(buf));
 23fc08e:	f100 0704 	add.w	r7, r0, #4
	if (address.v==6) {
 23fc092:	d012      	beq.n	23fc0ba <_ZNK9IPAddress7printToER5Print+0x3a>
 23fc094:	f100 0508 	add.w	r5, r0, #8
            val = n;
        }
#if __GNUC__ >= 9
#pragma GCC diagnostic pop
#endif // __GNUC__ >= 9
        return printNumber(val, base) + t;
 23fc098:	f815 1d01 	ldrb.w	r1, [r5, #-1]!
 23fc09c:	220a      	movs	r2, #10
 23fc09e:	4630      	mov	r0, r6
 23fc0a0:	f7fe fbd1 	bl	23fa846 <_ZN5Print11printNumberEmh>
#else
#pragma message "HAL_USE_INET_HAL_POSIX is required for IPv6 support in IPAddress::printTo()"
#endif // HAL_USE_INET_HAL_POSIX
#endif // Wiring_IPv6
    size_t n = 0;
    for (int i = 0; i < 4; i++)
 23fc0a4:	42af      	cmp	r7, r5
    {
        if (n)
            n += p.print('.');
        n += p.print((*this)[i], DEC);
 23fc0a6:	4404      	add	r4, r0
    for (int i = 0; i < 4; i++)
 23fc0a8:	d019      	beq.n	23fc0de <_ZNK9IPAddress7printToER5Print+0x5e>
        if (n)
 23fc0aa:	2c00      	cmp	r4, #0
 23fc0ac:	d0f4      	beq.n	23fc098 <_ZNK9IPAddress7printToER5Print+0x18>
            n += p.print('.');
 23fc0ae:	212e      	movs	r1, #46	; 0x2e
 23fc0b0:	4630      	mov	r0, r6
 23fc0b2:	f7fe fbc5 	bl	23fa840 <_ZN5Print5printEc>
 23fc0b6:	4404      	add	r4, r0
 23fc0b8:	e7ee      	b.n	23fc098 <_ZNK9IPAddress7printToER5Print+0x18>
		inet_inet_ntop(AF_INET6, address.ipv6, buf, sizeof(buf));
 23fc0ba:	232f      	movs	r3, #47	; 0x2f
 23fc0bc:	466a      	mov	r2, sp
 23fc0be:	4639      	mov	r1, r7
 23fc0c0:	200a      	movs	r0, #10
		buf[0] = 0;
 23fc0c2:	f88d 4000 	strb.w	r4, [sp]
		inet_inet_ntop(AF_INET6, address.ipv6, buf, sizeof(buf));
 23fc0c6:	f7fd fc25 	bl	23f9914 <inet_inet_ntop>
      return write((const uint8_t *)str, strlen(str));
 23fc0ca:	4668      	mov	r0, sp
 23fc0cc:	f7fa fbe6 	bl	23f689c <strlen>
 23fc0d0:	6833      	ldr	r3, [r6, #0]
 23fc0d2:	4602      	mov	r2, r0
 23fc0d4:	4669      	mov	r1, sp
 23fc0d6:	4630      	mov	r0, r6
 23fc0d8:	68db      	ldr	r3, [r3, #12]
 23fc0da:	4798      	blx	r3
 23fc0dc:	4604      	mov	r4, r0
    }
    return n;
}
 23fc0de:	4620      	mov	r0, r4
 23fc0e0:	b00d      	add	sp, #52	; 0x34
 23fc0e2:	bdf0      	pop	{r4, r5, r6, r7, pc}

023fc0e4 <_ZN9IPAddressC1Ev>:
IPAddress::IPAddress()
 23fc0e4:	b510      	push	{r4, lr}
 23fc0e6:	4604      	mov	r4, r0
 23fc0e8:	4b04      	ldr	r3, [pc, #16]	; (23fc0fc <_ZN9IPAddressC1Ev+0x18>)
        return address;
    }

    virtual size_t printTo(Print& p) const;

    void clear() { memset(&address, 0, sizeof (address)); }
 23fc0ea:	2211      	movs	r2, #17
 23fc0ec:	2100      	movs	r1, #0
 23fc0ee:	f840 3b04 	str.w	r3, [r0], #4
 23fc0f2:	f000 ff6e 	bl	23fcfd2 <memset>
}
 23fc0f6:	4620      	mov	r0, r4
 23fc0f8:	bd10      	pop	{r4, pc}
 23fc0fa:	bf00      	nop
 23fc0fc:	023ffa48 	.word	0x023ffa48

023fc100 <_ZN9IPAddressC1ERK16_HAL_IPAddress_t>:
IPAddress::IPAddress(const HAL_IPAddress& address)
 23fc100:	4603      	mov	r3, r0
 23fc102:	4a07      	ldr	r2, [pc, #28]	; (23fc120 <_ZN9IPAddressC1ERK16_HAL_IPAddress_t+0x20>)
 23fc104:	b510      	push	{r4, lr}
 23fc106:	f843 2b04 	str.w	r2, [r3], #4
    memcpy(&this->address, &address, sizeof(address));
 23fc10a:	f101 0210 	add.w	r2, r1, #16
 23fc10e:	f851 4b04 	ldr.w	r4, [r1], #4
 23fc112:	4291      	cmp	r1, r2
 23fc114:	f843 4b04 	str.w	r4, [r3], #4
 23fc118:	d1f9      	bne.n	23fc10e <_ZN9IPAddressC1ERK16_HAL_IPAddress_t+0xe>
 23fc11a:	780a      	ldrb	r2, [r1, #0]
 23fc11c:	701a      	strb	r2, [r3, #0]
}
 23fc11e:	bd10      	pop	{r4, pc}
 23fc120:	023ffa48 	.word	0x023ffa48

023fc124 <_ZN9IPAddress8set_ipv4Ehhhh>:
{
 23fc124:	b510      	push	{r4, lr}
    address.ipv4 = b0<<24 | b1 << 16 | b2 << 8 | b3;
 23fc126:	f89d 4008 	ldrb.w	r4, [sp, #8]
 23fc12a:	ea44 2303 	orr.w	r3, r4, r3, lsl #8
 23fc12e:	ea43 4202 	orr.w	r2, r3, r2, lsl #16
        address.v = version;
 23fc132:	2304      	movs	r3, #4
 23fc134:	ea42 6101 	orr.w	r1, r2, r1, lsl #24
 23fc138:	6041      	str	r1, [r0, #4]
 23fc13a:	7503      	strb	r3, [r0, #20]
}
 23fc13c:	bd10      	pop	{r4, pc}
	...

023fc140 <_ZN9IPAddressC1EPKh>:
IPAddress::IPAddress(const uint8_t* addr)
 23fc140:	b507      	push	{r0, r1, r2, lr}
 23fc142:	4b06      	ldr	r3, [pc, #24]	; (23fc15c <_ZN9IPAddressC1EPKh+0x1c>)
 23fc144:	6003      	str	r3, [r0, #0]
    set_ipv4(addr[0], addr[1], addr[2], addr[3]);
 23fc146:	78cb      	ldrb	r3, [r1, #3]
 23fc148:	9300      	str	r3, [sp, #0]
 23fc14a:	788b      	ldrb	r3, [r1, #2]
 23fc14c:	784a      	ldrb	r2, [r1, #1]
 23fc14e:	7809      	ldrb	r1, [r1, #0]
 23fc150:	f7ff ffe8 	bl	23fc124 <_ZN9IPAddress8set_ipv4Ehhhh>
}
 23fc154:	b003      	add	sp, #12
 23fc156:	f85d fb04 	ldr.w	pc, [sp], #4
 23fc15a:	bf00      	nop
 23fc15c:	023ffa48 	.word	0x023ffa48

023fc160 <_ZN9USBSerial14blockOnOverrunEb>:
  HAL_USB_USART_Flush_Data(_serial);
}

void USBSerial::blockOnOverrun(bool block)
{
  _blocking = block;
 23fc160:	7441      	strb	r1, [r0, #17]
}
 23fc162:	4770      	bx	lr

023fc164 <__tcf_0>:
}

USBSerial& _fetch_usbserial()
{
  HAL_USB_USART_Config conf = acquireSerialBuffer();
	static USBSerial _usbserial(HAL_USB_USART_SERIAL, conf);
 23fc164:	4770      	bx	lr

023fc166 <_ZN9USBSerialD1Ev>:
#include "usb_hal.h"
#include "system_task.h"
#include "spark_wiring_startup.h"
#include "concurrent_hal.h"

class USBSerial : public Stream
 23fc166:	4770      	bx	lr

023fc168 <_ZN9USBSerial4readEv>:
{
 23fc168:	b508      	push	{r3, lr}
	return std::max(-1, (int)HAL_USB_USART_Receive_Data(_serial, false));
 23fc16a:	2100      	movs	r1, #0
 23fc16c:	7c00      	ldrb	r0, [r0, #16]
 23fc16e:	f7fd fd3d 	bl	23f9bec <HAL_USB_USART_Receive_Data>
}
 23fc172:	ea40 70e0 	orr.w	r0, r0, r0, asr #31
 23fc176:	bd08      	pop	{r3, pc}

023fc178 <_ZN9USBSerial4peekEv>:
{
 23fc178:	b508      	push	{r3, lr}
	return std::max(-1, (int)HAL_USB_USART_Receive_Data(_serial, true));
 23fc17a:	2101      	movs	r1, #1
 23fc17c:	7c00      	ldrb	r0, [r0, #16]
 23fc17e:	f7fd fd35 	bl	23f9bec <HAL_USB_USART_Receive_Data>
}
 23fc182:	ea40 70e0 	orr.w	r0, r0, r0, asr #31
 23fc186:	bd08      	pop	{r3, pc}

023fc188 <_ZN9USBSerial17availableForWriteEv>:
{
 23fc188:	b508      	push	{r3, lr}
  return std::max(0, (int)HAL_USB_USART_Available_Data_For_Write(_serial));
 23fc18a:	7c00      	ldrb	r0, [r0, #16]
 23fc18c:	f7fd fd20 	bl	23f9bd0 <HAL_USB_USART_Available_Data_For_Write>
}
 23fc190:	ea20 70e0 	bic.w	r0, r0, r0, asr #31
 23fc194:	bd08      	pop	{r3, pc}

023fc196 <_ZN9USBSerial9availableEv>:
{
 23fc196:	b508      	push	{r3, lr}
	return std::max(0, (int)HAL_USB_USART_Available_Data(_serial));
 23fc198:	7c00      	ldrb	r0, [r0, #16]
 23fc19a:	f7fd fd0b 	bl	23f9bb4 <HAL_USB_USART_Available_Data>
}
 23fc19e:	ea20 70e0 	bic.w	r0, r0, r0, asr #31
 23fc1a2:	bd08      	pop	{r3, pc}

023fc1a4 <_ZN9USBSerial5writeEh>:
{
 23fc1a4:	b513      	push	{r0, r1, r4, lr}
 23fc1a6:	4604      	mov	r4, r0
  if (HAL_USB_USART_Available_Data_For_Write(_serial) > 0 || _blocking) {
 23fc1a8:	7c00      	ldrb	r0, [r0, #16]
{
 23fc1aa:	9101      	str	r1, [sp, #4]
  if (HAL_USB_USART_Available_Data_For_Write(_serial) > 0 || _blocking) {
 23fc1ac:	f7fd fd10 	bl	23f9bd0 <HAL_USB_USART_Available_Data_For_Write>
 23fc1b0:	2800      	cmp	r0, #0
 23fc1b2:	9901      	ldr	r1, [sp, #4]
 23fc1b4:	dc01      	bgt.n	23fc1ba <_ZN9USBSerial5writeEh+0x16>
 23fc1b6:	7c60      	ldrb	r0, [r4, #17]
 23fc1b8:	b120      	cbz	r0, 23fc1c4 <_ZN9USBSerial5writeEh+0x20>
    return std::max(0, (int)HAL_USB_USART_Send_Data(_serial, byte));
 23fc1ba:	7c20      	ldrb	r0, [r4, #16]
 23fc1bc:	f7fd fd24 	bl	23f9c08 <HAL_USB_USART_Send_Data>
 23fc1c0:	ea20 70e0 	bic.w	r0, r0, r0, asr #31
}
 23fc1c4:	b002      	add	sp, #8
 23fc1c6:	bd10      	pop	{r4, pc}

023fc1c8 <_ZN9USBSerial5flushEv>:
  HAL_USB_USART_Flush_Data(_serial);
 23fc1c8:	7c00      	ldrb	r0, [r0, #16]
 23fc1ca:	f7fd bd2b 	b.w	23f9c24 <HAL_USB_USART_Flush_Data>

023fc1ce <_ZN9USBSerialD0Ev>:
 23fc1ce:	b510      	push	{r4, lr}
 23fc1d0:	4604      	mov	r4, r0
 23fc1d2:	2114      	movs	r1, #20
 23fc1d4:	f7fa fba5 	bl	23f6922 <_ZdlPvj>
 23fc1d8:	4620      	mov	r0, r4
 23fc1da:	bd10      	pop	{r4, pc}

023fc1dc <_ZN9USBSerialC1E20HAL_USB_USART_SerialRK20HAL_USB_USART_Config>:
USBSerial::USBSerial(HAL_USB_USART_Serial serial, const HAL_USB_USART_Config& conf)
 23fc1dc:	b510      	push	{r4, lr}
    virtual int available() = 0;
    virtual int read() = 0;
    virtual int peek() = 0;
    virtual void flush() = 0;

    Stream() {_timeout=1000;}
 23fc1de:	f44f 737a 	mov.w	r3, #1000	; 0x3e8
 23fc1e2:	4604      	mov	r4, r0
 23fc1e4:	4608      	mov	r0, r1
 23fc1e6:	2100      	movs	r1, #0
 23fc1e8:	e9c4 1301 	strd	r1, r3, [r4, #4]
 23fc1ec:	4b04      	ldr	r3, [pc, #16]	; (23fc200 <_ZN9USBSerialC1E20HAL_USB_USART_SerialRK20HAL_USB_USART_Config+0x24>)
  _serial = serial;
 23fc1ee:	7420      	strb	r0, [r4, #16]
USBSerial::USBSerial(HAL_USB_USART_Serial serial, const HAL_USB_USART_Config& conf)
 23fc1f0:	6023      	str	r3, [r4, #0]
  _blocking = true;
 23fc1f2:	2301      	movs	r3, #1
  HAL_USB_USART_Init(_serial, &conf);
 23fc1f4:	4611      	mov	r1, r2
  _blocking = true;
 23fc1f6:	7463      	strb	r3, [r4, #17]
  HAL_USB_USART_Init(_serial, &conf);
 23fc1f8:	f7fd fcb2 	bl	23f9b60 <HAL_USB_USART_Init>
}
 23fc1fc:	4620      	mov	r0, r4
 23fc1fe:	bd10      	pop	{r4, pc}
 23fc200:	023ffa5c 	.word	0x023ffa5c

023fc204 <_ZN9USBSerial5beginEl>:
    HAL_USB_USART_Begin(_serial, speed, NULL);
 23fc204:	2200      	movs	r2, #0
 23fc206:	7c00      	ldrb	r0, [r0, #16]
 23fc208:	f7fd bcb8 	b.w	23f9b7c <HAL_USB_USART_Begin>

023fc20c <_ZN9USBSerial3endEv>:
    HAL_USB_USART_End(_serial);
 23fc20c:	7c00      	ldrb	r0, [r0, #16]
 23fc20e:	f7fd bcc3 	b.w	23f9b98 <HAL_USB_USART_End>

023fc212 <_ZN9USBSerial11isConnectedEv>:
  return HAL_USB_USART_Is_Connected(_serial);
 23fc212:	7c00      	ldrb	r0, [r0, #16]
 23fc214:	f7fd bd14 	b.w	23f9c40 <HAL_USB_USART_Is_Connected>

023fc218 <_Z19acquireSerialBufferv>:
{
 23fc218:	b510      	push	{r4, lr}
 23fc21a:	4604      	mov	r4, r0
  HAL_USB_USART_Config conf = {};
 23fc21c:	2214      	movs	r2, #20
 23fc21e:	2100      	movs	r1, #0
 23fc220:	f000 fed7 	bl	23fcfd2 <memset>
}
 23fc224:	4620      	mov	r0, r4
 23fc226:	bd10      	pop	{r4, pc}

023fc228 <_Z16_fetch_usbserialv>:
{
 23fc228:	b510      	push	{r4, lr}
 23fc22a:	b088      	sub	sp, #32
  HAL_USB_USART_Config conf = acquireSerialBuffer();
 23fc22c:	a803      	add	r0, sp, #12
 23fc22e:	f7ff fff3 	bl	23fc218 <_Z19acquireSerialBufferv>
	static USBSerial _usbserial(HAL_USB_USART_SERIAL, conf);
 23fc232:	4c0c      	ldr	r4, [pc, #48]	; (23fc264 <_Z16_fetch_usbserialv+0x3c>)
 23fc234:	e8d4 1f8f 	ldab	r1, [r4]
 23fc238:	f011 0101 	ands.w	r1, r1, #1
 23fc23c:	d10f      	bne.n	23fc25e <_Z16_fetch_usbserialv+0x36>
 23fc23e:	4620      	mov	r0, r4
 23fc240:	9101      	str	r1, [sp, #4]
 23fc242:	f7fd fff1 	bl	23fa228 <__cxa_guard_acquire>
 23fc246:	9901      	ldr	r1, [sp, #4]
 23fc248:	b148      	cbz	r0, 23fc25e <_Z16_fetch_usbserialv+0x36>
 23fc24a:	aa03      	add	r2, sp, #12
 23fc24c:	4806      	ldr	r0, [pc, #24]	; (23fc268 <_Z16_fetch_usbserialv+0x40>)
 23fc24e:	f7ff ffc5 	bl	23fc1dc <_ZN9USBSerialC1E20HAL_USB_USART_SerialRK20HAL_USB_USART_Config>
 23fc252:	4620      	mov	r0, r4
 23fc254:	f7fd fff6 	bl	23fa244 <__cxa_guard_release>
 23fc258:	4804      	ldr	r0, [pc, #16]	; (23fc26c <_Z16_fetch_usbserialv+0x44>)
 23fc25a:	f000 fe71 	bl	23fcf40 <atexit>
	return _usbserial;
}
 23fc25e:	4802      	ldr	r0, [pc, #8]	; (23fc268 <_Z16_fetch_usbserialv+0x40>)
 23fc260:	b008      	add	sp, #32
 23fc262:	bd10      	pop	{r4, pc}
 23fc264:	1007af40 	.word	0x1007af40
 23fc268:	1007af44 	.word	0x1007af44
 23fc26c:	023fc165 	.word	0x023fc165

023fc270 <_ZN12_GLOBAL__N_19skipTokenEPK9jsmntok_t>:

namespace {

// Skips token and all its children tokens if any
const jsmntok_t* skipToken(const jsmntok_t *t) {
    size_t n = 1;
 23fc270:	2201      	movs	r2, #1
 23fc272:	f100 0310 	add.w	r3, r0, #16
    do {
        if (t->type == JSMN_OBJECT) {
 23fc276:	f813 1c10 	ldrb.w	r1, [r3, #-16]
 23fc27a:	4618      	mov	r0, r3
 23fc27c:	2901      	cmp	r1, #1
 23fc27e:	d108      	bne.n	23fc292 <_ZN12_GLOBAL__N_19skipTokenEPK9jsmntok_t+0x22>
            n += t->size * 2; // Number of name and value tokens
 23fc280:	f853 1c04 	ldr.w	r1, [r3, #-4]
 23fc284:	eb02 0241 	add.w	r2, r2, r1, lsl #1
        } else if (t->type == JSMN_ARRAY) {
            n += t->size; // Number of value tokens
        }
        ++t;
        --n;
    } while (n);
 23fc288:	3a01      	subs	r2, #1
 23fc28a:	f103 0310 	add.w	r3, r3, #16
 23fc28e:	d1f2      	bne.n	23fc276 <_ZN12_GLOBAL__N_19skipTokenEPK9jsmntok_t+0x6>
    return t;
}
 23fc290:	4770      	bx	lr
        } else if (t->type == JSMN_ARRAY) {
 23fc292:	2902      	cmp	r1, #2
            n += t->size; // Number of value tokens
 23fc294:	bf04      	itt	eq
 23fc296:	f853 1c04 	ldreq.w	r1, [r3, #-4]
 23fc29a:	1852      	addeq	r2, r2, r1
 23fc29c:	e7f4      	b.n	23fc288 <_ZN12_GLOBAL__N_19skipTokenEPK9jsmntok_t+0x18>

023fc29e <_ZN5spark10JSONWriter6printfEPKcz>:
    write("null", 4);
    state_ = NEXT;
    return *this;
}

void spark::JSONWriter::printf(const char *fmt, ...) {
 23fc29e:	b40e      	push	{r1, r2, r3}
 23fc2a0:	b5f0      	push	{r4, r5, r6, r7, lr}
 23fc2a2:	b088      	sub	sp, #32
    char buf[16];
    va_list args;
    va_start(args, fmt);
    int n = vsnprintf(buf, sizeof(buf), fmt, args);
 23fc2a4:	2110      	movs	r1, #16
void spark::JSONWriter::printf(const char *fmt, ...) {
 23fc2a6:	af00      	add	r7, sp, #0
 23fc2a8:	f107 0534 	add.w	r5, r7, #52	; 0x34
 23fc2ac:	f855 2b04 	ldr.w	r2, [r5], #4
 23fc2b0:	4604      	mov	r4, r0
    int n = vsnprintf(buf, sizeof(buf), fmt, args);
 23fc2b2:	462b      	mov	r3, r5
 23fc2b4:	1878      	adds	r0, r7, r1
 23fc2b6:	607a      	str	r2, [r7, #4]
    va_start(args, fmt);
 23fc2b8:	60fd      	str	r5, [r7, #12]
    int n = vsnprintf(buf, sizeof(buf), fmt, args);
 23fc2ba:	f7fd ff53 	bl	23fa164 <vsnprintf>
    va_end(args);
    if ((size_t)n >= sizeof(buf)) {
 23fc2be:	280f      	cmp	r0, #15
 23fc2c0:	687a      	ldr	r2, [r7, #4]
 23fc2c2:	d91a      	bls.n	23fc2fa <_ZN5spark10JSONWriter6printfEPKcz+0x5c>
        char buf[n + 1]; // Use larger buffer
 23fc2c4:	f100 0308 	add.w	r3, r0, #8
 23fc2c8:	f023 0307 	bic.w	r3, r3, #7
        va_start(args, fmt);
        n = vsnprintf(buf, sizeof(buf), fmt, args);
        va_end(args);
        if (n > 0) {
            write(buf, n);
        }
 23fc2cc:	466e      	mov	r6, sp
        char buf[n + 1]; // Use larger buffer
 23fc2ce:	ebad 0d03 	sub.w	sp, sp, r3
        n = vsnprintf(buf, sizeof(buf), fmt, args);
 23fc2d2:	1c41      	adds	r1, r0, #1
 23fc2d4:	462b      	mov	r3, r5
 23fc2d6:	4668      	mov	r0, sp
        va_start(args, fmt);
 23fc2d8:	60fd      	str	r5, [r7, #12]
        n = vsnprintf(buf, sizeof(buf), fmt, args);
 23fc2da:	f7fd ff43 	bl	23fa164 <vsnprintf>
        if (n > 0) {
 23fc2de:	1e02      	subs	r2, r0, #0
 23fc2e0:	dd04      	ble.n	23fc2ec <_ZN5spark10JSONWriter6printfEPKcz+0x4e>
            write(buf, n);
 23fc2e2:	6823      	ldr	r3, [r4, #0]
 23fc2e4:	4669      	mov	r1, sp
 23fc2e6:	4620      	mov	r0, r4
 23fc2e8:	689b      	ldr	r3, [r3, #8]
 23fc2ea:	4798      	blx	r3
 23fc2ec:	46b5      	mov	sp, r6
    } else if (n > 0) {
        write(buf, n);
    }
}
 23fc2ee:	3720      	adds	r7, #32
 23fc2f0:	46bd      	mov	sp, r7
 23fc2f2:	e8bd 40f0 	ldmia.w	sp!, {r4, r5, r6, r7, lr}
 23fc2f6:	b003      	add	sp, #12
 23fc2f8:	4770      	bx	lr
    } else if (n > 0) {
 23fc2fa:	2800      	cmp	r0, #0
 23fc2fc:	d0f7      	beq.n	23fc2ee <_ZN5spark10JSONWriter6printfEPKcz+0x50>
        write(buf, n);
 23fc2fe:	6823      	ldr	r3, [r4, #0]
 23fc300:	4602      	mov	r2, r0
 23fc302:	689b      	ldr	r3, [r3, #8]
 23fc304:	4620      	mov	r0, r4
 23fc306:	f107 0110 	add.w	r1, r7, #16
 23fc30a:	4798      	blx	r3
}
 23fc30c:	e7ef      	b.n	23fc2ee <_ZN5spark10JSONWriter6printfEPKcz+0x50>

023fc30e <_ZNSt12__shared_ptrIN5spark6detail8JSONDataELN9__gnu_cxx12_Lock_policyE0EEaSERKS5_.isra.0>:
      __shared_ptr& operator=(const __shared_ptr&) noexcept = default;
 23fc30e:	b538      	push	{r3, r4, r5, lr}
 23fc310:	680b      	ldr	r3, [r1, #0]
 23fc312:	4604      	mov	r4, r0
 23fc314:	6003      	str	r3, [r0, #0]
 23fc316:	684d      	ldr	r5, [r1, #4]
	if (__tmp != _M_pi)
 23fc318:	6843      	ldr	r3, [r0, #4]
 23fc31a:	429d      	cmp	r5, r3
 23fc31c:	d008      	beq.n	23fc330 <_ZNSt12__shared_ptrIN5spark6detail8JSONDataELN9__gnu_cxx12_Lock_policyE0EEaSERKS5_.isra.0+0x22>
	    if (__tmp != 0)
 23fc31e:	b115      	cbz	r5, 23fc326 <_ZNSt12__shared_ptrIN5spark6detail8JSONDataELN9__gnu_cxx12_Lock_policyE0EEaSERKS5_.isra.0+0x18>
    { ++_M_use_count; }
 23fc320:	686b      	ldr	r3, [r5, #4]
 23fc322:	3301      	adds	r3, #1
 23fc324:	606b      	str	r3, [r5, #4]
	    if (_M_pi != 0)
 23fc326:	6860      	ldr	r0, [r4, #4]
 23fc328:	b108      	cbz	r0, 23fc32e <_ZNSt12__shared_ptrIN5spark6detail8JSONDataELN9__gnu_cxx12_Lock_policyE0EEaSERKS5_.isra.0+0x20>
	      _M_pi->_M_release();
 23fc32a:	f7fe fa21 	bl	23fa770 <_ZNSt16_Sp_counted_baseILN9__gnu_cxx12_Lock_policyE0EE10_M_releaseEv>
	    _M_pi = __tmp;
 23fc32e:	6065      	str	r5, [r4, #4]
      __shared_ptr& operator=(const __shared_ptr&) noexcept = default;
 23fc330:	bd38      	pop	{r3, r4, r5, pc}

023fc332 <_ZN5spark10JSONWriter5writeEc>:
inline void spark::JSONWriter::write(char c) {
 23fc332:	b507      	push	{r0, r1, r2, lr}
    write(&c, 1);
 23fc334:	6803      	ldr	r3, [r0, #0]
inline void spark::JSONWriter::write(char c) {
 23fc336:	f88d 1007 	strb.w	r1, [sp, #7]
    write(&c, 1);
 23fc33a:	2201      	movs	r2, #1
 23fc33c:	689b      	ldr	r3, [r3, #8]
 23fc33e:	f10d 0107 	add.w	r1, sp, #7
 23fc342:	4798      	blx	r3
}
 23fc344:	b003      	add	sp, #12
 23fc346:	f85d fb04 	ldr.w	pc, [sp], #4

023fc34a <_ZN5spark9JSONValueC1EPK9jsmntok_tSt10shared_ptrINS_6detail8JSONDataEE>:
spark::JSONValue::JSONValue(const jsmntok_t *t, detail::JSONDataPtr d) :
 23fc34a:	460b      	mov	r3, r1
 23fc34c:	4611      	mov	r1, r2
      : _M_ptr(0), _M_refcount()
 23fc34e:	2200      	movs	r2, #0
 23fc350:	b510      	push	{r4, lr}
 23fc352:	4604      	mov	r4, r0
      constexpr __shared_count() noexcept : _M_pi(0)
 23fc354:	e9c0 2200 	strd	r2, r2, [r0]
        t_ = t;
 23fc358:	6083      	str	r3, [r0, #8]
    if (t) {
 23fc35a:	b90b      	cbnz	r3, 23fc360 <_ZN5spark9JSONValueC1EPK9jsmntok_tSt10shared_ptrINS_6detail8JSONDataEE+0x16>
}
 23fc35c:	4620      	mov	r0, r4
 23fc35e:	bd10      	pop	{r4, pc}
       *  @brief  Construct an empty %shared_ptr.
       *  @post   use_count() == 0 && get() == nullptr
       */
      constexpr shared_ptr(nullptr_t) noexcept : shared_ptr() { }

      shared_ptr& operator=(const shared_ptr&) noexcept = default;
 23fc360:	f7ff ffd5 	bl	23fc30e <_ZNSt12__shared_ptrIN5spark6detail8JSONDataELN9__gnu_cxx12_Lock_policyE0EEaSERKS5_.isra.0>
 23fc364:	e7fa      	b.n	23fc35c <_ZN5spark9JSONValueC1EPK9jsmntok_tSt10shared_ptrINS_6detail8JSONDataEE+0x12>

023fc366 <_ZNK5spark9JSONValue4typeEv>:
    if (!t_) {
 23fc366:	6883      	ldr	r3, [r0, #8]
 23fc368:	b1eb      	cbz	r3, 23fc3a6 <_ZNK5spark9JSONValue4typeEv+0x40>
    switch (t_->type) {
 23fc36a:	781a      	ldrb	r2, [r3, #0]
 23fc36c:	2a03      	cmp	r2, #3
 23fc36e:	d81a      	bhi.n	23fc3a6 <_ZNK5spark9JSONValue4typeEv+0x40>
 23fc370:	e8df f002 	tbb	[pc, r2]
 23fc374:	1b021704 	.word	0x1b021704
 23fc378:	2005      	movs	r0, #5
 23fc37a:	4770      	bx	lr
        const char c = d_->json[t_->start];
 23fc37c:	6802      	ldr	r2, [r0, #0]
 23fc37e:	685b      	ldr	r3, [r3, #4]
 23fc380:	6852      	ldr	r2, [r2, #4]
 23fc382:	5cd0      	ldrb	r0, [r2, r3]
        if (c == '-' || (c >= '0' && c <= '9')) {
 23fc384:	282d      	cmp	r0, #45	; 0x2d
 23fc386:	d012      	beq.n	23fc3ae <_ZNK5spark9JSONValue4typeEv+0x48>
 23fc388:	f1a0 0330 	sub.w	r3, r0, #48	; 0x30
 23fc38c:	2b09      	cmp	r3, #9
 23fc38e:	d90e      	bls.n	23fc3ae <_ZNK5spark9JSONValue4typeEv+0x48>
        } else if (c == 't' || c == 'f') { // Literal names are always in lower case
 23fc390:	2874      	cmp	r0, #116	; 0x74
 23fc392:	d00e      	beq.n	23fc3b2 <_ZNK5spark9JSONValue4typeEv+0x4c>
 23fc394:	2866      	cmp	r0, #102	; 0x66
 23fc396:	d00c      	beq.n	23fc3b2 <_ZNK5spark9JSONValue4typeEv+0x4c>
        return JSON_TYPE_INVALID;
 23fc398:	f1a0 036e 	sub.w	r3, r0, #110	; 0x6e
 23fc39c:	4258      	negs	r0, r3
 23fc39e:	4158      	adcs	r0, r3
 23fc3a0:	4770      	bx	lr
        return JSON_TYPE_OBJECT;
 23fc3a2:	2006      	movs	r0, #6
 23fc3a4:	4770      	bx	lr
        return JSON_TYPE_INVALID;
 23fc3a6:	2000      	movs	r0, #0
 23fc3a8:	4770      	bx	lr
        return JSON_TYPE_STRING;
 23fc3aa:	2004      	movs	r0, #4
 23fc3ac:	4770      	bx	lr
            return JSON_TYPE_NUMBER;
 23fc3ae:	2003      	movs	r0, #3
 23fc3b0:	4770      	bx	lr
            return JSON_TYPE_BOOL;
 23fc3b2:	2002      	movs	r0, #2
}
 23fc3b4:	4770      	bx	lr

023fc3b6 <_ZNK5spark9JSONValue5toIntEv>:
int spark::JSONValue::toInt() const {
 23fc3b6:	b510      	push	{r4, lr}
 23fc3b8:	4604      	mov	r4, r0
    switch (type()) {
 23fc3ba:	f7ff ffd4 	bl	23fc366 <_ZNK5spark9JSONValue4typeEv>
 23fc3be:	2802      	cmp	r0, #2
 23fc3c0:	d00e      	beq.n	23fc3e0 <_ZNK5spark9JSONValue5toIntEv+0x2a>
 23fc3c2:	1ec3      	subs	r3, r0, #3
 23fc3c4:	b2db      	uxtb	r3, r3
 23fc3c6:	2b01      	cmp	r3, #1
 23fc3c8:	d814      	bhi.n	23fc3f4 <_ZNK5spark9JSONValue5toIntEv+0x3e>
        const char* const s = d_->json + t_->start;
 23fc3ca:	6822      	ldr	r2, [r4, #0]
 23fc3cc:	68a3      	ldr	r3, [r4, #8]
 23fc3ce:	6850      	ldr	r0, [r2, #4]
 23fc3d0:	685b      	ldr	r3, [r3, #4]
        return strtol(s, nullptr, 10);
 23fc3d2:	220a      	movs	r2, #10
}
 23fc3d4:	e8bd 4010 	ldmia.w	sp!, {r4, lr}
        return strtol(s, nullptr, 10);
 23fc3d8:	2100      	movs	r1, #0
 23fc3da:	4418      	add	r0, r3
 23fc3dc:	f001 bd44 	b.w	23fde68 <strtol>
        const char* const s = d_->json + t_->start;
 23fc3e0:	6822      	ldr	r2, [r4, #0]
 23fc3e2:	68a3      	ldr	r3, [r4, #8]
        return *s == 't';
 23fc3e4:	6852      	ldr	r2, [r2, #4]
 23fc3e6:	685b      	ldr	r3, [r3, #4]
 23fc3e8:	5cd0      	ldrb	r0, [r2, r3]
 23fc3ea:	f1a0 0374 	sub.w	r3, r0, #116	; 0x74
 23fc3ee:	4258      	negs	r0, r3
 23fc3f0:	4158      	adcs	r0, r3
}
 23fc3f2:	bd10      	pop	{r4, pc}
    switch (type()) {
 23fc3f4:	2000      	movs	r0, #0
 23fc3f6:	e7fc      	b.n	23fc3f2 <_ZNK5spark9JSONValue5toIntEv+0x3c>

023fc3f8 <_ZN5spark10JSONStringC1EPK9jsmntok_tSt10shared_ptrINS_6detail8JSONDataEE>:
spark::JSONString::JSONString(const jsmntok_t *t, detail::JSONDataPtr d) :
 23fc3f8:	b538      	push	{r3, r4, r5, lr}
      : _M_ptr(0), _M_refcount()
 23fc3fa:	2300      	movs	r3, #0
 23fc3fc:	4604      	mov	r4, r0
      constexpr __shared_count() noexcept : _M_pi(0)
 23fc3fe:	e9c0 3300 	strd	r3, r3, [r0]
        n_(0) {
 23fc402:	480e      	ldr	r0, [pc, #56]	; (23fc43c <_ZN5spark10JSONStringC1EPK9jsmntok_tSt10shared_ptrINS_6detail8JSONDataEE+0x44>)
 23fc404:	e9c4 0302 	strd	r0, r3, [r4, #8]
    if (t && (t->type == JSMN_STRING || t->type == JSMN_PRIMITIVE)) {
 23fc408:	b1a9      	cbz	r1, 23fc436 <_ZN5spark10JSONStringC1EPK9jsmntok_tSt10shared_ptrINS_6detail8JSONDataEE+0x3e>
 23fc40a:	780b      	ldrb	r3, [r1, #0]
 23fc40c:	2b03      	cmp	r3, #3
 23fc40e:	d006      	beq.n	23fc41e <_ZN5spark10JSONStringC1EPK9jsmntok_tSt10shared_ptrINS_6detail8JSONDataEE+0x26>
 23fc410:	b98b      	cbnz	r3, 23fc436 <_ZN5spark10JSONStringC1EPK9jsmntok_tSt10shared_ptrINS_6detail8JSONDataEE+0x3e>
        if (t->type != JSMN_PRIMITIVE || d->json[t->start] != 'n') { // Nulls are treated as empty strings
 23fc412:	6813      	ldr	r3, [r2, #0]
 23fc414:	6858      	ldr	r0, [r3, #4]
 23fc416:	684b      	ldr	r3, [r1, #4]
 23fc418:	5cc3      	ldrb	r3, [r0, r3]
 23fc41a:	2b6e      	cmp	r3, #110	; 0x6e
 23fc41c:	d007      	beq.n	23fc42e <_ZN5spark10JSONStringC1EPK9jsmntok_tSt10shared_ptrINS_6detail8JSONDataEE+0x36>
            s_ = d->json + t->start;
 23fc41e:	6813      	ldr	r3, [r2, #0]
 23fc420:	684d      	ldr	r5, [r1, #4]
 23fc422:	6858      	ldr	r0, [r3, #4]
            n_ = t->end - t->start;
 23fc424:	688b      	ldr	r3, [r1, #8]
            s_ = d->json + t->start;
 23fc426:	4428      	add	r0, r5
            n_ = t->end - t->start;
 23fc428:	1b5b      	subs	r3, r3, r5
            s_ = d->json + t->start;
 23fc42a:	60a0      	str	r0, [r4, #8]
            n_ = t->end - t->start;
 23fc42c:	60e3      	str	r3, [r4, #12]
 23fc42e:	4611      	mov	r1, r2
 23fc430:	4620      	mov	r0, r4
 23fc432:	f7ff ff6c 	bl	23fc30e <_ZNSt12__shared_ptrIN5spark6detail8JSONDataELN9__gnu_cxx12_Lock_policyE0EEaSERKS5_.isra.0>
}
 23fc436:	4620      	mov	r0, r4
 23fc438:	bd38      	pop	{r3, r4, r5, pc}
 23fc43a:	bf00      	nop
 23fc43c:	023ff992 	.word	0x023ff992

023fc440 <_ZN5spark18JSONObjectIteratorC1EPK9jsmntok_tSt10shared_ptrINS_6detail8JSONDataEE>:
spark::JSONObjectIterator::JSONObjectIterator(const jsmntok_t *t, detail::JSONDataPtr d) :
 23fc440:	b538      	push	{r3, r4, r5, lr}
      : _M_ptr(0), _M_refcount()
 23fc442:	2500      	movs	r5, #0
 23fc444:	460b      	mov	r3, r1
 23fc446:	4604      	mov	r4, r0
 23fc448:	4611      	mov	r1, r2
      constexpr __shared_count() noexcept : _M_pi(0)
 23fc44a:	e9c0 5500 	strd	r5, r5, [r0]
        n_(0) {
 23fc44e:	e9c0 5502 	strd	r5, r5, [r0, #8]
 23fc452:	e9c0 5504 	strd	r5, r5, [r0, #16]
    if (t && t->type == JSMN_OBJECT) {
 23fc456:	b14b      	cbz	r3, 23fc46c <_ZN5spark18JSONObjectIteratorC1EPK9jsmntok_tSt10shared_ptrINS_6detail8JSONDataEE+0x2c>
 23fc458:	781a      	ldrb	r2, [r3, #0]
 23fc45a:	2a01      	cmp	r2, #1
 23fc45c:	d106      	bne.n	23fc46c <_ZN5spark18JSONObjectIteratorC1EPK9jsmntok_tSt10shared_ptrINS_6detail8JSONDataEE+0x2c>
        t_ = t + 1; // First property's name
 23fc45e:	f103 0210 	add.w	r2, r3, #16
        n_ = t->size; // Number of properties
 23fc462:	68db      	ldr	r3, [r3, #12]
        t_ = t + 1; // First property's name
 23fc464:	6082      	str	r2, [r0, #8]
        n_ = t->size; // Number of properties
 23fc466:	6143      	str	r3, [r0, #20]
 23fc468:	f7ff ff51 	bl	23fc30e <_ZNSt12__shared_ptrIN5spark6detail8JSONDataELN9__gnu_cxx12_Lock_policyE0EEaSERKS5_.isra.0>
}
 23fc46c:	4620      	mov	r0, r4
 23fc46e:	bd38      	pop	{r3, r4, r5, pc}

023fc470 <_ZN5spark18JSONObjectIterator4nextEv>:
bool spark::JSONObjectIterator::next() {
 23fc470:	b510      	push	{r4, lr}
    if (!n_) {
 23fc472:	6943      	ldr	r3, [r0, #20]
bool spark::JSONObjectIterator::next() {
 23fc474:	4604      	mov	r4, r0
    if (!n_) {
 23fc476:	b163      	cbz	r3, 23fc492 <_ZN5spark18JSONObjectIterator4nextEv+0x22>
    k_ = t_; // Name
 23fc478:	6880      	ldr	r0, [r0, #8]
    --n_;
 23fc47a:	3b01      	subs	r3, #1
    k_ = t_; // Name
 23fc47c:	60e0      	str	r0, [r4, #12]
    ++t_;
 23fc47e:	3010      	adds	r0, #16
 23fc480:	60a0      	str	r0, [r4, #8]
    v_ = t_; // Value
 23fc482:	6120      	str	r0, [r4, #16]
    --n_;
 23fc484:	6163      	str	r3, [r4, #20]
    if (n_) {
 23fc486:	b113      	cbz	r3, 23fc48e <_ZN5spark18JSONObjectIterator4nextEv+0x1e>
        t_ = skipToken(t_);
 23fc488:	f7ff fef2 	bl	23fc270 <_ZN12_GLOBAL__N_19skipTokenEPK9jsmntok_t>
 23fc48c:	60a0      	str	r0, [r4, #8]
    return true;
 23fc48e:	2001      	movs	r0, #1
 23fc490:	e000      	b.n	23fc494 <_ZN5spark18JSONObjectIterator4nextEv+0x24>
        return false;
 23fc492:	4618      	mov	r0, r3
}
 23fc494:	bd10      	pop	{r4, pc}

023fc496 <_ZN5spark10JSONWriter9endObjectEv>:
spark::JSONWriter& spark::JSONWriter::endObject() {
 23fc496:	b510      	push	{r4, lr}
    write('}');
 23fc498:	217d      	movs	r1, #125	; 0x7d
spark::JSONWriter& spark::JSONWriter::endObject() {
 23fc49a:	4604      	mov	r4, r0
    write('}');
 23fc49c:	f7ff ff49 	bl	23fc332 <_ZN5spark10JSONWriter5writeEc>
    state_ = NEXT;
 23fc4a0:	2301      	movs	r3, #1
}
 23fc4a2:	4620      	mov	r0, r4
    state_ = NEXT;
 23fc4a4:	7123      	strb	r3, [r4, #4]
}
 23fc4a6:	bd10      	pop	{r4, pc}

023fc4a8 <_ZN5spark10JSONWriter14writeSeparatorEv>:

void spark::JSONWriter::writeSeparator() {
 23fc4a8:	b508      	push	{r3, lr}
    switch (state_) {
 23fc4aa:	7903      	ldrb	r3, [r0, #4]
 23fc4ac:	2b01      	cmp	r3, #1
 23fc4ae:	d002      	beq.n	23fc4b6 <_ZN5spark10JSONWriter14writeSeparatorEv+0xe>
 23fc4b0:	2b02      	cmp	r3, #2
 23fc4b2:	d004      	beq.n	23fc4be <_ZN5spark10JSONWriter14writeSeparatorEv+0x16>
        write(':');
        break;
    default:
        break;
    }
}
 23fc4b4:	bd08      	pop	{r3, pc}
        write(',');
 23fc4b6:	212c      	movs	r1, #44	; 0x2c
        write(':');
 23fc4b8:	f7ff ff3b 	bl	23fc332 <_ZN5spark10JSONWriter5writeEc>
}
 23fc4bc:	e7fa      	b.n	23fc4b4 <_ZN5spark10JSONWriter14writeSeparatorEv+0xc>
        write(':');
 23fc4be:	213a      	movs	r1, #58	; 0x3a
 23fc4c0:	e7fa      	b.n	23fc4b8 <_ZN5spark10JSONWriter14writeSeparatorEv+0x10>

023fc4c2 <_ZN5spark10JSONWriter11beginObjectEv>:
spark::JSONWriter& spark::JSONWriter::beginObject() {
 23fc4c2:	b510      	push	{r4, lr}
 23fc4c4:	4604      	mov	r4, r0
    writeSeparator();
 23fc4c6:	f7ff ffef 	bl	23fc4a8 <_ZN5spark10JSONWriter14writeSeparatorEv>
    write('{');
 23fc4ca:	4620      	mov	r0, r4
 23fc4cc:	217b      	movs	r1, #123	; 0x7b
 23fc4ce:	f7ff ff30 	bl	23fc332 <_ZN5spark10JSONWriter5writeEc>
    state_ = BEGIN;
 23fc4d2:	2300      	movs	r3, #0
}
 23fc4d4:	4620      	mov	r0, r4
    state_ = BEGIN;
 23fc4d6:	7123      	strb	r3, [r4, #4]
}
 23fc4d8:	bd10      	pop	{r4, pc}
	...

023fc4dc <_ZN5spark10JSONWriter5valueEi>:
spark::JSONWriter& spark::JSONWriter::value(int val) {
 23fc4dc:	b513      	push	{r0, r1, r4, lr}
 23fc4de:	4604      	mov	r4, r0
 23fc4e0:	9101      	str	r1, [sp, #4]
    writeSeparator();
 23fc4e2:	f7ff ffe1 	bl	23fc4a8 <_ZN5spark10JSONWriter14writeSeparatorEv>
    printf("%d", val);
 23fc4e6:	6823      	ldr	r3, [r4, #0]
 23fc4e8:	4620      	mov	r0, r4
 23fc4ea:	68db      	ldr	r3, [r3, #12]
 23fc4ec:	9a01      	ldr	r2, [sp, #4]
 23fc4ee:	4903      	ldr	r1, [pc, #12]	; (23fc4fc <_ZN5spark10JSONWriter5valueEi+0x20>)
 23fc4f0:	4798      	blx	r3
    state_ = NEXT;
 23fc4f2:	2301      	movs	r3, #1
}
 23fc4f4:	4620      	mov	r0, r4
    state_ = NEXT;
 23fc4f6:	7123      	strb	r3, [r4, #4]
}
 23fc4f8:	b002      	add	sp, #8
 23fc4fa:	bd10      	pop	{r4, pc}
 23fc4fc:	023ff378 	.word	0x023ff378

023fc500 <_ZN5spark10JSONWriter5valueEj>:
spark::JSONWriter& spark::JSONWriter::value(unsigned val) {
 23fc500:	b513      	push	{r0, r1, r4, lr}
 23fc502:	4604      	mov	r4, r0
 23fc504:	9101      	str	r1, [sp, #4]
    writeSeparator();
 23fc506:	f7ff ffcf 	bl	23fc4a8 <_ZN5spark10JSONWriter14writeSeparatorEv>
    printf("%u", val);
 23fc50a:	6823      	ldr	r3, [r4, #0]
 23fc50c:	4620      	mov	r0, r4
 23fc50e:	68db      	ldr	r3, [r3, #12]
 23fc510:	9a01      	ldr	r2, [sp, #4]
 23fc512:	4903      	ldr	r1, [pc, #12]	; (23fc520 <_ZN5spark10JSONWriter5valueEj+0x20>)
 23fc514:	4798      	blx	r3
    state_ = NEXT;
 23fc516:	2301      	movs	r3, #1
}
 23fc518:	4620      	mov	r0, r4
    state_ = NEXT;
 23fc51a:	7123      	strb	r3, [r4, #4]
}
 23fc51c:	b002      	add	sp, #8
 23fc51e:	bd10      	pop	{r4, pc}
 23fc520:	023ff1b4 	.word	0x023ff1b4

023fc524 <_ZN5spark10JSONWriter12writeEscapedEPKcj>:

void spark::JSONWriter::writeEscaped(const char *str, size_t size) {
 23fc524:	e92d 47f0 	stmdb	sp!, {r4, r5, r6, r7, r8, r9, sl, lr}
 23fc528:	460d      	mov	r5, r1
 23fc52a:	4690      	mov	r8, r2
    write('"');
 23fc52c:	2122      	movs	r1, #34	; 0x22
void spark::JSONWriter::writeEscaped(const char *str, size_t size) {
 23fc52e:	4604      	mov	r4, r0
 23fc530:	462f      	mov	r7, r5
    write('"');
 23fc532:	f7ff fefe 	bl	23fc332 <_ZN5spark10JSONWriter5writeEc>
            case 0x0d: // Carriage return
                write('r');
                break;
            default:
                // All other control characters are written in hex, e.g. "\u001f"
                printf("u%04x", (unsigned)c);
 23fc536:	f8df 90a4 	ldr.w	r9, [pc, #164]	; 23fc5dc <_ZN5spark10JSONWriter12writeEscapedEPKcj+0xb8>
    const char* const end = str + size;
 23fc53a:	44a8      	add	r8, r5
    while (s != end) {
 23fc53c:	4547      	cmp	r7, r8
 23fc53e:	46ba      	mov	sl, r7
 23fc540:	d03d      	beq.n	23fc5be <_ZN5spark10JSONWriter12writeEscapedEPKcj+0x9a>
        const char c = *s;
 23fc542:	f817 6b01 	ldrb.w	r6, [r7], #1
        if (c == '"' || c == '\\' || !std::isprint((unsigned char)c)) {
 23fc546:	2e22      	cmp	r6, #34	; 0x22
 23fc548:	d006      	beq.n	23fc558 <_ZN5spark10JSONWriter12writeEscapedEPKcj+0x34>
 23fc54a:	2e5c      	cmp	r6, #92	; 0x5c
 23fc54c:	d004      	beq.n	23fc558 <_ZN5spark10JSONWriter12writeEscapedEPKcj+0x34>
 23fc54e:	4630      	mov	r0, r6
 23fc550:	f000 fd08 	bl	23fcf64 <isprint>
 23fc554:	2800      	cmp	r0, #0
 23fc556:	d1f1      	bne.n	23fc53c <_ZN5spark10JSONWriter12writeEscapedEPKcj+0x18>
            write(str, s - str); // Write preceeding characters
 23fc558:	6823      	ldr	r3, [r4, #0]
 23fc55a:	4629      	mov	r1, r5
 23fc55c:	4620      	mov	r0, r4
 23fc55e:	689b      	ldr	r3, [r3, #8]
 23fc560:	ebaa 0205 	sub.w	r2, sl, r5
 23fc564:	4798      	blx	r3
            write('\\');
 23fc566:	215c      	movs	r1, #92	; 0x5c
 23fc568:	4620      	mov	r0, r4
 23fc56a:	f7ff fee2 	bl	23fc332 <_ZN5spark10JSONWriter5writeEc>
            switch (c) {
 23fc56e:	2e0d      	cmp	r6, #13
 23fc570:	d80a      	bhi.n	23fc588 <_ZN5spark10JSONWriter12writeEscapedEPKcj+0x64>
 23fc572:	2e07      	cmp	r6, #7
 23fc574:	d91c      	bls.n	23fc5b0 <_ZN5spark10JSONWriter12writeEscapedEPKcj+0x8c>
 23fc576:	f1a6 0308 	sub.w	r3, r6, #8
 23fc57a:	2b05      	cmp	r3, #5
 23fc57c:	d818      	bhi.n	23fc5b0 <_ZN5spark10JSONWriter12writeEscapedEPKcj+0x8c>
 23fc57e:	e8df f003 	tbb	[pc, r3]
 23fc582:	0f0d      	.short	0x0f0d
 23fc584:	15131711 	.word	0x15131711
 23fc588:	2e22      	cmp	r6, #34	; 0x22
 23fc58a:	d001      	beq.n	23fc590 <_ZN5spark10JSONWriter12writeEscapedEPKcj+0x6c>
 23fc58c:	2e5c      	cmp	r6, #92	; 0x5c
 23fc58e:	d10f      	bne.n	23fc5b0 <_ZN5spark10JSONWriter12writeEscapedEPKcj+0x8c>
                write(c);
 23fc590:	4631      	mov	r1, r6
                write('b');
 23fc592:	4620      	mov	r0, r4
 23fc594:	f7ff fecd 	bl	23fc332 <_ZN5spark10JSONWriter5writeEc>
                break;
            }
            str = s + 1;
 23fc598:	463d      	mov	r5, r7
    while (s != end) {
 23fc59a:	e7cf      	b.n	23fc53c <_ZN5spark10JSONWriter12writeEscapedEPKcj+0x18>
                write('b');
 23fc59c:	2162      	movs	r1, #98	; 0x62
 23fc59e:	e7f8      	b.n	23fc592 <_ZN5spark10JSONWriter12writeEscapedEPKcj+0x6e>
                write('t');
 23fc5a0:	2174      	movs	r1, #116	; 0x74
 23fc5a2:	e7f6      	b.n	23fc592 <_ZN5spark10JSONWriter12writeEscapedEPKcj+0x6e>
                write('n');
 23fc5a4:	216e      	movs	r1, #110	; 0x6e
 23fc5a6:	e7f4      	b.n	23fc592 <_ZN5spark10JSONWriter12writeEscapedEPKcj+0x6e>
                write('f');
 23fc5a8:	2166      	movs	r1, #102	; 0x66
 23fc5aa:	e7f2      	b.n	23fc592 <_ZN5spark10JSONWriter12writeEscapedEPKcj+0x6e>
                write('r');
 23fc5ac:	2172      	movs	r1, #114	; 0x72
 23fc5ae:	e7f0      	b.n	23fc592 <_ZN5spark10JSONWriter12writeEscapedEPKcj+0x6e>
                printf("u%04x", (unsigned)c);
 23fc5b0:	6823      	ldr	r3, [r4, #0]
 23fc5b2:	4632      	mov	r2, r6
 23fc5b4:	4649      	mov	r1, r9
 23fc5b6:	4620      	mov	r0, r4
 23fc5b8:	68db      	ldr	r3, [r3, #12]
 23fc5ba:	4798      	blx	r3
                break;
 23fc5bc:	e7ec      	b.n	23fc598 <_ZN5spark10JSONWriter12writeEscapedEPKcj+0x74>
        }
        ++s;
    }
    if (s != str) {
 23fc5be:	42bd      	cmp	r5, r7
 23fc5c0:	d005      	beq.n	23fc5ce <_ZN5spark10JSONWriter12writeEscapedEPKcj+0xaa>
        write(str, s - str); // Write remaining characters
 23fc5c2:	6823      	ldr	r3, [r4, #0]
 23fc5c4:	4629      	mov	r1, r5
 23fc5c6:	4620      	mov	r0, r4
 23fc5c8:	689b      	ldr	r3, [r3, #8]
 23fc5ca:	1b7a      	subs	r2, r7, r5
 23fc5cc:	4798      	blx	r3
    }
    write('"');
 23fc5ce:	2122      	movs	r1, #34	; 0x22
 23fc5d0:	4620      	mov	r0, r4
 23fc5d2:	f7ff feae 	bl	23fc332 <_ZN5spark10JSONWriter5writeEc>
}
 23fc5d6:	e8bd 87f0 	ldmia.w	sp!, {r4, r5, r6, r7, r8, r9, sl, pc}
 23fc5da:	bf00      	nop
 23fc5dc:	023ffa88 	.word	0x023ffa88

023fc5e0 <_ZN5spark10JSONWriter4nameEPKcj>:
spark::JSONWriter& spark::JSONWriter::name(const char *name, size_t size) {
 23fc5e0:	b513      	push	{r0, r1, r4, lr}
 23fc5e2:	4604      	mov	r4, r0
 23fc5e4:	e9cd 2100 	strd	r2, r1, [sp]
    writeSeparator();
 23fc5e8:	f7ff ff5e 	bl	23fc4a8 <_ZN5spark10JSONWriter14writeSeparatorEv>
    writeEscaped(name, size);
 23fc5ec:	e9dd 2100 	ldrd	r2, r1, [sp]
 23fc5f0:	4620      	mov	r0, r4
 23fc5f2:	f7ff ff97 	bl	23fc524 <_ZN5spark10JSONWriter12writeEscapedEPKcj>
    state_ = VALUE;
 23fc5f6:	2302      	movs	r3, #2
}
 23fc5f8:	4620      	mov	r0, r4
    state_ = VALUE;
 23fc5fa:	7123      	strb	r3, [r4, #4]
}
 23fc5fc:	b002      	add	sp, #8
 23fc5fe:	bd10      	pop	{r4, pc}

023fc600 <_ZN5spark10JSONWriter5valueEPKcj>:
spark::JSONWriter& spark::JSONWriter::value(const char *val, size_t size) {
 23fc600:	b513      	push	{r0, r1, r4, lr}
 23fc602:	4604      	mov	r4, r0
 23fc604:	e9cd 2100 	strd	r2, r1, [sp]
    writeSeparator();
 23fc608:	f7ff ff4e 	bl	23fc4a8 <_ZN5spark10JSONWriter14writeSeparatorEv>
    writeEscaped(val, size);
 23fc60c:	e9dd 2100 	ldrd	r2, r1, [sp]
 23fc610:	4620      	mov	r0, r4
 23fc612:	f7ff ff87 	bl	23fc524 <_ZN5spark10JSONWriter12writeEscapedEPKcj>
    state_ = NEXT;
 23fc616:	2301      	movs	r3, #1
}
 23fc618:	4620      	mov	r0, r4
    state_ = NEXT;
 23fc61a:	7123      	strb	r3, [r4, #4]
}
 23fc61c:	b002      	add	sp, #8
 23fc61e:	bd10      	pop	{r4, pc}

023fc620 <_ZN11USARTSerialD1Ev>:
private:
  hal_usart_interface_t _serial;
  bool _blocking;
public:
  USARTSerial(hal_usart_interface_t serial, const hal_usart_buffer_config_t& config);
  virtual ~USARTSerial() {};
 23fc620:	4770      	bx	lr

023fc622 <_ZN11USARTSerial14blockOnOverrunEb>:
    hal_usart_half_duplex(_serial, Enable);
}

void USARTSerial::blockOnOverrun(bool block)
{
  _blocking = block;
 23fc622:	7441      	strb	r1, [r0, #17]
}
 23fc624:	4770      	bx	lr

023fc626 <_ZN11USARTSerial17availableForWriteEv>:


int USARTSerial::availableForWrite(void)
{
 23fc626:	b508      	push	{r3, lr}
  return std::max(0, (int)hal_usart_available_data_for_write(_serial));
 23fc628:	7c00      	ldrb	r0, [r0, #16]
 23fc62a:	f7fd f9e3 	bl	23f99f4 <hal_usart_available_data_for_write>
}
 23fc62e:	ea20 70e0 	bic.w	r0, r0, r0, asr #31
 23fc632:	bd08      	pop	{r3, pc}

023fc634 <_ZN11USARTSerial9availableEv>:

int USARTSerial::available(void)
{
 23fc634:	b508      	push	{r3, lr}
  return std::max(0, (int)hal_usart_available(_serial));
 23fc636:	7c00      	ldrb	r0, [r0, #16]
 23fc638:	f7fd f996 	bl	23f9968 <hal_usart_available>
}
 23fc63c:	ea20 70e0 	bic.w	r0, r0, r0, asr #31
 23fc640:	bd08      	pop	{r3, pc}

023fc642 <_ZN11USARTSerial4peekEv>:

int USARTSerial::peek(void)
{
 23fc642:	b508      	push	{r3, lr}
  return std::max(-1, (int)hal_usart_peek(_serial));
 23fc644:	7c00      	ldrb	r0, [r0, #16]
 23fc646:	f7fd f9ab 	bl	23f99a0 <hal_usart_peek>
}
 23fc64a:	ea40 70e0 	orr.w	r0, r0, r0, asr #31
 23fc64e:	bd08      	pop	{r3, pc}

023fc650 <_ZN11USARTSerial4readEv>:

int USARTSerial::read(void)
{
 23fc650:	b508      	push	{r3, lr}
  return std::max(-1, (int)hal_usart_read(_serial));
 23fc652:	7c00      	ldrb	r0, [r0, #16]
 23fc654:	f7fd f996 	bl	23f9984 <hal_usart_read>
}
 23fc658:	ea40 70e0 	orr.w	r0, r0, r0, asr #31
 23fc65c:	bd08      	pop	{r3, pc}

023fc65e <_ZN11USARTSerial5flushEv>:

void USARTSerial::flush()
{
  hal_usart_flush(_serial);
 23fc65e:	7c00      	ldrb	r0, [r0, #16]
 23fc660:	f7fd b9ac 	b.w	23f99bc <hal_usart_flush>

023fc664 <_ZN11USARTSerial5writeEh>:
}

size_t USARTSerial::write(uint8_t c)
{
 23fc664:	b537      	push	{r0, r1, r2, r4, r5, lr}
  // attempt a write if blocking, or for non-blocking if there is room.
  if (_blocking || hal_usart_available_data_for_write(_serial) > 0) {
 23fc666:	7c45      	ldrb	r5, [r0, #17]
{
 23fc668:	4604      	mov	r4, r0
  if (_blocking || hal_usart_available_data_for_write(_serial) > 0) {
 23fc66a:	b12d      	cbz	r5, 23fc678 <_ZN11USARTSerial5writeEh+0x14>
    // the HAL always blocks.
	  return hal_usart_write(_serial, c);
 23fc66c:	7c20      	ldrb	r0, [r4, #16]
  }
  return 0;
}
 23fc66e:	b003      	add	sp, #12
 23fc670:	e8bd 4030 	ldmia.w	sp!, {r4, r5, lr}
	  return hal_usart_write(_serial, c);
 23fc674:	f7fd b96a 	b.w	23f994c <hal_usart_write>
  if (_blocking || hal_usart_available_data_for_write(_serial) > 0) {
 23fc678:	7c00      	ldrb	r0, [r0, #16]
 23fc67a:	9101      	str	r1, [sp, #4]
 23fc67c:	f7fd f9ba 	bl	23f99f4 <hal_usart_available_data_for_write>
 23fc680:	2800      	cmp	r0, #0
 23fc682:	9901      	ldr	r1, [sp, #4]
 23fc684:	dcf2      	bgt.n	23fc66c <_ZN11USARTSerial5writeEh+0x8>
}
 23fc686:	4628      	mov	r0, r5
 23fc688:	b003      	add	sp, #12
 23fc68a:	bd30      	pop	{r4, r5, pc}

023fc68c <_ZN11USARTSerialD0Ev>:
 23fc68c:	b510      	push	{r4, lr}
 23fc68e:	4604      	mov	r4, r0
 23fc690:	2114      	movs	r1, #20
 23fc692:	f7fa f946 	bl	23f6922 <_ZdlPvj>
 23fc696:	4620      	mov	r0, r4
 23fc698:	bd10      	pop	{r4, pc}
	...

023fc69c <_ZN11USARTSerialC1E21hal_usart_interface_tRK25hal_usart_buffer_config_t>:
USARTSerial::USARTSerial(hal_usart_interface_t serial, const hal_usart_buffer_config_t& config)
 23fc69c:	b510      	push	{r4, lr}
 23fc69e:	f44f 737a 	mov.w	r3, #1000	; 0x3e8
 23fc6a2:	4604      	mov	r4, r0
 23fc6a4:	4608      	mov	r0, r1
 23fc6a6:	4611      	mov	r1, r2
 23fc6a8:	2200      	movs	r2, #0
 23fc6aa:	e9c4 2301 	strd	r2, r3, [r4, #4]
 23fc6ae:	4b04      	ldr	r3, [pc, #16]	; (23fc6c0 <_ZN11USARTSerialC1E21hal_usart_interface_tRK25hal_usart_buffer_config_t+0x24>)
  _serial = serial;
 23fc6b0:	7420      	strb	r0, [r4, #16]
USARTSerial::USARTSerial(hal_usart_interface_t serial, const hal_usart_buffer_config_t& config)
 23fc6b2:	6023      	str	r3, [r4, #0]
  _blocking = true;
 23fc6b4:	2301      	movs	r3, #1
 23fc6b6:	7463      	strb	r3, [r4, #17]
  hal_usart_init_ex(serial, &config, nullptr);
 23fc6b8:	f7fd f9c6 	bl	23f9a48 <hal_usart_init_ex>
}
 23fc6bc:	4620      	mov	r0, r4
 23fc6be:	bd10      	pop	{r4, pc}
 23fc6c0:	023ffa98 	.word	0x023ffa98

023fc6c4 <_ZN11USARTSerial5beginEmm>:
  hal_usart_begin_config(_serial, baud, config, nullptr);
 23fc6c4:	2300      	movs	r3, #0
 23fc6c6:	7c00      	ldrb	r0, [r0, #16]
 23fc6c8:	f7fd b9a2 	b.w	23f9a10 <hal_usart_begin_config>

023fc6cc <_ZN11USARTSerial5beginEm>:
  begin(baud, SERIAL_8N1);
 23fc6cc:	2200      	movs	r2, #0
 23fc6ce:	f7ff bff9 	b.w	23fc6c4 <_ZN11USARTSerial5beginEmm>

023fc6d2 <_ZN11USARTSerial3endEv>:
  hal_usart_end(_serial);
 23fc6d2:	7c00      	ldrb	r0, [r0, #16]
 23fc6d4:	f7fd b92c 	b.w	23f9930 <hal_usart_end>

023fc6d8 <_ZN11USARTSerial5writeEt>:

size_t USARTSerial::write(uint16_t c)
{
  return hal_usart_write_nine_bits(_serial, c);
 23fc6d8:	7c00      	ldrb	r0, [r0, #16]
 23fc6da:	f7fd b9a7 	b.w	23f9a2c <hal_usart_write_nine_bits>

023fc6de <_ZN11USARTSerial9isEnabledEv>:
USARTSerial::operator bool() {
  return true;
}

bool USARTSerial::isEnabled() {
  return hal_usart_is_enabled(_serial);
 23fc6de:	7c00      	ldrb	r0, [r0, #16]
 23fc6e0:	f7fd b97a 	b.w	23f99d8 <hal_usart_is_enabled>

023fc6e4 <_ZN8particle6detail21futureCallbackWrapperEPv>:
 * License along with this library; if not, see <http://www.gnu.org/licenses/>.
 */

#include "spark_wiring_async.h"

void particle::detail::futureCallbackWrapper(void* data) {
 23fc6e4:	b510      	push	{r4, lr}
      if (_M_empty())
 23fc6e6:	6883      	ldr	r3, [r0, #8]
 23fc6e8:	4604      	mov	r4, r0
 23fc6ea:	b90b      	cbnz	r3, 23fc6f0 <_ZN8particle6detail21futureCallbackWrapperEPv+0xc>
	__throw_bad_function_call();
 23fc6ec:	f000 fbf8 	bl	23fcee0 <_ZSt25__throw_bad_function_callv>
      return _M_invoker(_M_functor, std::forward<_ArgTypes>(__args)...);
 23fc6f0:	68c3      	ldr	r3, [r0, #12]
 23fc6f2:	4798      	blx	r3
      if (_M_manager)
 23fc6f4:	68a3      	ldr	r3, [r4, #8]
 23fc6f6:	b11b      	cbz	r3, 23fc700 <_ZN8particle6detail21futureCallbackWrapperEPv+0x1c>
	_M_manager(_M_functor, _M_functor, __destroy_functor);
 23fc6f8:	2203      	movs	r2, #3
 23fc6fa:	4621      	mov	r1, r4
 23fc6fc:	4620      	mov	r0, r4
 23fc6fe:	4798      	blx	r3
    auto callbackPtr = static_cast<const std::function<void()>*>(data);
    (*callbackPtr)();
    delete callbackPtr;
 23fc700:	4620      	mov	r0, r4
}
 23fc702:	e8bd 4010 	ldmia.w	sp!, {r4, lr}
    delete callbackPtr;
 23fc706:	2110      	movs	r1, #16
 23fc708:	f7fa b90b 	b.w	23f6922 <_ZdlPvj>

023fc70c <_ZN7TwoWireD1Ev>:
private:
  hal_i2c_interface_t _i2c;

public:
  TwoWire(hal_i2c_interface_t i2c, const hal_i2c_config_t& config);
  virtual ~TwoWire() {};
 23fc70c:	4770      	bx	lr

023fc70e <_ZN7TwoWire5writeEPKhj>:

// must be called in:
// slave tx event callback
// or after beginTransmission(address)
size_t TwoWire::write(const uint8_t *data, size_t quantity)
{
 23fc70e:	b5f8      	push	{r3, r4, r5, r6, r7, lr}
 23fc710:	4606      	mov	r6, r0
 23fc712:	4615      	mov	r5, r2
 23fc714:	460c      	mov	r4, r1
 23fc716:	188f      	adds	r7, r1, r2
  // in master/slave transmitter mode
  for(size_t i = 0; i < quantity; ++i)
 23fc718:	42bc      	cmp	r4, r7
 23fc71a:	d006      	beq.n	23fc72a <_ZN7TwoWire5writeEPKhj+0x1c>
  {
    write(data[i]);
 23fc71c:	6833      	ldr	r3, [r6, #0]
 23fc71e:	4630      	mov	r0, r6
 23fc720:	689b      	ldr	r3, [r3, #8]
 23fc722:	f814 1b01 	ldrb.w	r1, [r4], #1
 23fc726:	4798      	blx	r3
  for(size_t i = 0; i < quantity; ++i)
 23fc728:	e7f6      	b.n	23fc718 <_ZN7TwoWire5writeEPKhj+0xa>
  }

  return quantity;
}
 23fc72a:	4628      	mov	r0, r5
 23fc72c:	bdf8      	pop	{r3, r4, r5, r6, r7, pc}

023fc72e <_ZN7TwoWire5writeEh>:
  return hal_i2c_write(_i2c, data, NULL);
 23fc72e:	2200      	movs	r2, #0
 23fc730:	7c00      	ldrb	r0, [r0, #16]
 23fc732:	f7fd b997 	b.w	23f9a64 <hal_i2c_write>

023fc736 <_ZN7TwoWire9availableEv>:
// must be called in:
// slave rx event callback
// or after requestFrom(address, numBytes)
int TwoWire::available(void)
{
  return hal_i2c_available(_i2c, NULL);
 23fc736:	2100      	movs	r1, #0
 23fc738:	7c00      	ldrb	r0, [r0, #16]
 23fc73a:	f7fd b9a1 	b.w	23f9a80 <hal_i2c_available>

023fc73e <_ZN7TwoWire4readEv>:
// must be called in:
// slave rx event callback
// or after requestFrom(address, numBytes)
int TwoWire::read(void)
{
  return hal_i2c_read(_i2c, NULL);
 23fc73e:	2100      	movs	r1, #0
 23fc740:	7c00      	ldrb	r0, [r0, #16]
 23fc742:	f7fd b9ab 	b.w	23f9a9c <hal_i2c_read>

023fc746 <_ZN7TwoWire4peekEv>:
// must be called in:
// slave rx event callback
// or after requestFrom(address, numBytes)
int TwoWire::peek(void)
{
  return hal_i2c_peek(_i2c, NULL);
 23fc746:	2100      	movs	r1, #0
 23fc748:	7c00      	ldrb	r0, [r0, #16]
 23fc74a:	f7fd b9b5 	b.w	23f9ab8 <hal_i2c_peek>

023fc74e <_ZN7TwoWire5flushEv>:
}

void TwoWire::flush(void)
{
  hal_i2c_flush(_i2c, NULL);
 23fc74e:	2100      	movs	r1, #0
 23fc750:	7c00      	ldrb	r0, [r0, #16]
 23fc752:	f7fd b9bf 	b.w	23f9ad4 <hal_i2c_flush>

023fc756 <_ZN7TwoWireD0Ev>:
 23fc756:	b510      	push	{r4, lr}
 23fc758:	4604      	mov	r4, r0
 23fc75a:	2114      	movs	r1, #20
 23fc75c:	f7fa f8e1 	bl	23f6922 <_ZdlPvj>
 23fc760:	4620      	mov	r0, r4
 23fc762:	bd10      	pop	{r4, pc}

023fc764 <_ZN7TwoWireC1E19hal_i2c_interface_tRK16hal_i2c_config_t>:
TwoWire::TwoWire(hal_i2c_interface_t i2c, const hal_i2c_config_t& conf)
 23fc764:	b538      	push	{r3, r4, r5, lr}
 23fc766:	4604      	mov	r4, r0
 23fc768:	4615      	mov	r5, r2
 23fc76a:	f44f 737a 	mov.w	r3, #1000	; 0x3e8
 23fc76e:	2200      	movs	r2, #0
 23fc770:	e9c4 2301 	strd	r2, r3, [r4, #4]
 23fc774:	4b09      	ldr	r3, [pc, #36]	; (23fc79c <_ZN7TwoWireC1E19hal_i2c_interface_tRK16hal_i2c_config_t+0x38>)
 23fc776:	4608      	mov	r0, r1
  _i2c = i2c;
 23fc778:	7421      	strb	r1, [r4, #16]
TwoWire::TwoWire(hal_i2c_interface_t i2c, const hal_i2c_config_t& conf)
 23fc77a:	6023      	str	r3, [r4, #0]
  int result = hal_i2c_init(_i2c, &conf);
 23fc77c:	4629      	mov	r1, r5
 23fc77e:	f7fd f9c5 	bl	23f9b0c <hal_i2c_init>
  if (result == SYSTEM_ERROR_NOT_ENOUGH_DATA && 
 23fc782:	30bf      	adds	r0, #191	; 0xbf
 23fc784:	d108      	bne.n	23fc798 <_ZN7TwoWireC1E19hal_i2c_interface_tRK16hal_i2c_config_t+0x34>
      (conf.flags & HAL_I2C_CONFIG_FLAG_FREEABLE)) {
 23fc786:	696b      	ldr	r3, [r5, #20]
  if (result == SYSTEM_ERROR_NOT_ENOUGH_DATA && 
 23fc788:	07db      	lsls	r3, r3, #31
 23fc78a:	d505      	bpl.n	23fc798 <_ZN7TwoWireC1E19hal_i2c_interface_tRK16hal_i2c_config_t+0x34>
    free(conf.rx_buffer);
 23fc78c:	6868      	ldr	r0, [r5, #4]
 23fc78e:	f7fd fcbf 	bl	23fa110 <free>
    free(conf.tx_buffer);
 23fc792:	68e8      	ldr	r0, [r5, #12]
 23fc794:	f7fd fcbc 	bl	23fa110 <free>
}
 23fc798:	4620      	mov	r0, r4
 23fc79a:	bd38      	pop	{r3, r4, r5, pc}
 23fc79c:	023ffacc 	.word	0x023ffacc

023fc7a0 <_GLOBAL__sub_I__ZN7TwoWireC2E19hal_i2c_interface_tRK16hal_i2c_config_t>:
        buffer_(nullptr) {
 23fc7a0:	21ff      	movs	r1, #255	; 0xff
 23fc7a2:	2200      	movs	r2, #0
      : address_{address},
 23fc7a4:	4b04      	ldr	r3, [pc, #16]	; (23fc7b8 <_GLOBAL__sub_I__ZN7TwoWireC2E19hal_i2c_interface_tRK16hal_i2c_config_t+0x18>)
        buffer_(nullptr) {
 23fc7a6:	2001      	movs	r0, #1
 23fc7a8:	e9c3 1200 	strd	r1, r2, [r3]
 23fc7ac:	2164      	movs	r1, #100	; 0x64
 23fc7ae:	611a      	str	r2, [r3, #16]
 23fc7b0:	e9c3 0102 	strd	r0, r1, [r3, #8]

namespace particle {
namespace detail {
const WireTransmission WIRE_INVALID_TRANSMISSION(0xff);
} // detail
} // particle
 23fc7b4:	4770      	bx	lr
 23fc7b6:	bf00      	nop
 23fc7b8:	1007af58 	.word	0x1007af58

023fc7bc <_ZN10WiFiSignalD1Ev>:
    int rssi = 2;
    int qual = 0;

    WiFiSignal() {}
    WiFiSignal(const wlan_connected_info_t& inf);
    virtual ~WiFiSignal() {};
 23fc7bc:	4770      	bx	lr

023fc7be <_ZNK10WiFiSignal19getAccessTechnologyEv>:
    return true;
}

hal_net_access_tech_t WiFiSignal::getAccessTechnology() const {
    return NET_ACCESS_TECHNOLOGY_WIFI;
}
 23fc7be:	2001      	movs	r0, #1
 23fc7c0:	4770      	bx	lr

023fc7c2 <_ZN10WiFiSignalD0Ev>:
 23fc7c2:	b510      	push	{r4, lr}
 23fc7c4:	4604      	mov	r4, r0
 23fc7c6:	2124      	movs	r1, #36	; 0x24
 23fc7c8:	f7fa f8ab 	bl	23f6922 <_ZdlPvj>
 23fc7cc:	4620      	mov	r0, r4
 23fc7ce:	bd10      	pop	{r4, pc}

023fc7d0 <_ZN5spark9WiFiClass9listeningEv>:
    uint16_t getListenTimeout(void) {
        return network_get_listen_timeout(*this, 0, NULL);
    }

    bool listening(void) {
        return network_listening(*this, 0, NULL);
 23fc7d0:	2200      	movs	r2, #0
 23fc7d2:	6840      	ldr	r0, [r0, #4]
 23fc7d4:	4611      	mov	r1, r2
 23fc7d6:	f7fd bb9f 	b.w	23f9f18 <network_listening>

023fc7da <_ZN5spark9WiFiClass16getListenTimeoutEv>:
        return network_get_listen_timeout(*this, 0, NULL);
 23fc7da:	2200      	movs	r2, #0
 23fc7dc:	6840      	ldr	r0, [r0, #4]
 23fc7de:	4611      	mov	r1, r2
 23fc7e0:	f7fd bbd2 	b.w	23f9f88 <network_get_listen_timeout>

023fc7e4 <_ZN5spark9WiFiClass16setListenTimeoutEt>:
        network_set_listen_timeout(*this, timeout, NULL);
 23fc7e4:	2200      	movs	r2, #0
 23fc7e6:	6840      	ldr	r0, [r0, #4]
 23fc7e8:	f7fd bbc0 	b.w	23f9f6c <network_set_listen_timeout>

023fc7ec <_ZN5spark9WiFiClass6listenEb>:
        network_listen(*this, begin ? 0 : 1, NULL);
 23fc7ec:	2200      	movs	r2, #0
 23fc7ee:	6840      	ldr	r0, [r0, #4]
 23fc7f0:	f081 0101 	eor.w	r1, r1, #1
 23fc7f4:	f7fd bb82 	b.w	23f9efc <network_listen>

023fc7f8 <_ZN5spark9WiFiClass3offEv>:
        network_off(*this, 0, 0, NULL);
 23fc7f8:	2300      	movs	r3, #0
 23fc7fa:	6840      	ldr	r0, [r0, #4]
 23fc7fc:	461a      	mov	r2, r3
 23fc7fe:	4619      	mov	r1, r3
 23fc800:	f7fd bb6e 	b.w	23f9ee0 <network_off>

023fc804 <_ZN5spark9WiFiClass10connectingEv>:
        return network_connecting(*this, 0, NULL);
 23fc804:	2200      	movs	r2, #0
 23fc806:	6840      	ldr	r0, [r0, #4]
 23fc808:	4611      	mov	r1, r2
 23fc80a:	f7fd bb31 	b.w	23f9e70 <network_connecting>

023fc80e <_ZN5spark9WiFiClass10disconnectEv>:
        network_disconnect(*this, NETWORK_DISCONNECT_REASON_USER, NULL);
 23fc80e:	2200      	movs	r2, #0
 23fc810:	2102      	movs	r1, #2
 23fc812:	6840      	ldr	r0, [r0, #4]
 23fc814:	f7fd bb3a 	b.w	23f9e8c <network_disconnect>

023fc818 <_ZNK10WiFiSignal11getStrengthEv>:

float WiFiSignal::getStrength() const {
    if (inf_.size != 0 && inf_.strength >= 0) {
 23fc818:	8983      	ldrh	r3, [r0, #12]
 23fc81a:	b17b      	cbz	r3, 23fc83c <_ZNK10WiFiSignal11getStrengthEv+0x24>
 23fc81c:	6943      	ldr	r3, [r0, #20]
 23fc81e:	2b00      	cmp	r3, #0
 23fc820:	db0c      	blt.n	23fc83c <_ZNK10WiFiSignal11getStrengthEv+0x24>
        return inf_.strength / 65535.0f * 100.0f;
 23fc822:	ee07 3a90 	vmov	s15, r3
 23fc826:	ed9f 7a07 	vldr	s14, [pc, #28]	; 23fc844 <_ZNK10WiFiSignal11getStrengthEv+0x2c>
 23fc82a:	eef8 7ae7 	vcvt.f32.s32	s15, s15
 23fc82e:	ee87 0a87 	vdiv.f32	s0, s15, s14
 23fc832:	eddf 7a05 	vldr	s15, [pc, #20]	; 23fc848 <_ZNK10WiFiSignal11getStrengthEv+0x30>
 23fc836:	ee20 0a27 	vmul.f32	s0, s0, s15
 23fc83a:	4770      	bx	lr
    }
    return -1.0f;
 23fc83c:	eebf 0a00 	vmov.f32	s0, #240	; 0xbf800000 -1.0
}
 23fc840:	4770      	bx	lr
 23fc842:	bf00      	nop
 23fc844:	477fff00 	.word	0x477fff00
 23fc848:	42c80000 	.word	0x42c80000

023fc84c <_ZNK10WiFiSignal16getStrengthValueEv>:

float WiFiSignal::getStrengthValue() const {
    if (inf_.size != 0 && inf_.rssi != std::numeric_limits<int32_t>::min()) {
 23fc84c:	8983      	ldrh	r3, [r0, #12]
 23fc84e:	b163      	cbz	r3, 23fc86a <_ZNK10WiFiSignal16getStrengthValueEv+0x1e>
 23fc850:	6903      	ldr	r3, [r0, #16]
 23fc852:	f1b3 4f00 	cmp.w	r3, #2147483648	; 0x80000000
 23fc856:	d008      	beq.n	23fc86a <_ZNK10WiFiSignal16getStrengthValueEv+0x1e>
        return inf_.rssi / 100.0f;
 23fc858:	ee07 3a90 	vmov	s15, r3
 23fc85c:	ed9f 7a04 	vldr	s14, [pc, #16]	; 23fc870 <_ZNK10WiFiSignal16getStrengthValueEv+0x24>
 23fc860:	eef8 7ae7 	vcvt.f32.s32	s15, s15
 23fc864:	ee87 0a87 	vdiv.f32	s0, s15, s14
 23fc868:	4770      	bx	lr
    }
    return 0.0f;
 23fc86a:	ed9f 0a02 	vldr	s0, [pc, #8]	; 23fc874 <_ZNK10WiFiSignal16getStrengthValueEv+0x28>
}
 23fc86e:	4770      	bx	lr
 23fc870:	42c80000 	.word	0x42c80000
 23fc874:	00000000 	.word	0x00000000

023fc878 <_ZNK10WiFiSignal10getQualityEv>:

float WiFiSignal::getQuality() const {
    if (inf_.size != 0 && inf_.quality >= 0) {
 23fc878:	8983      	ldrh	r3, [r0, #12]
 23fc87a:	b17b      	cbz	r3, 23fc89c <_ZNK10WiFiSignal10getQualityEv+0x24>
 23fc87c:	6a03      	ldr	r3, [r0, #32]
 23fc87e:	2b00      	cmp	r3, #0
 23fc880:	db0c      	blt.n	23fc89c <_ZNK10WiFiSignal10getQualityEv+0x24>
        return inf_.quality / 65535.0f * 100.0f;
 23fc882:	ee07 3a90 	vmov	s15, r3
 23fc886:	ed9f 7a07 	vldr	s14, [pc, #28]	; 23fc8a4 <_ZNK10WiFiSignal10getQualityEv+0x2c>
 23fc88a:	eef8 7ae7 	vcvt.f32.s32	s15, s15
 23fc88e:	ee87 0a87 	vdiv.f32	s0, s15, s14
 23fc892:	eddf 7a05 	vldr	s15, [pc, #20]	; 23fc8a8 <_ZNK10WiFiSignal10getQualityEv+0x30>
 23fc896:	ee20 0a27 	vmul.f32	s0, s0, s15
 23fc89a:	4770      	bx	lr
    }
    return -1.0f;
 23fc89c:	eebf 0a00 	vmov.f32	s0, #240	; 0xbf800000 -1.0
}
 23fc8a0:	4770      	bx	lr
 23fc8a2:	bf00      	nop
 23fc8a4:	477fff00 	.word	0x477fff00
 23fc8a8:	42c80000 	.word	0x42c80000

023fc8ac <_ZNK10WiFiSignal15getQualityValueEv>:

float WiFiSignal::getQualityValue() const {
    if (inf_.size != 0 && inf_.snr != std::numeric_limits<int32_t>::min()) {
 23fc8ac:	8983      	ldrh	r3, [r0, #12]
 23fc8ae:	b163      	cbz	r3, 23fc8ca <_ZNK10WiFiSignal15getQualityValueEv+0x1e>
 23fc8b0:	6983      	ldr	r3, [r0, #24]
 23fc8b2:	f1b3 4f00 	cmp.w	r3, #2147483648	; 0x80000000
 23fc8b6:	d008      	beq.n	23fc8ca <_ZNK10WiFiSignal15getQualityValueEv+0x1e>
        return inf_.snr / 100.0f;
 23fc8b8:	ee07 3a90 	vmov	s15, r3
 23fc8bc:	ed9f 7a04 	vldr	s14, [pc, #16]	; 23fc8d0 <_ZNK10WiFiSignal15getQualityValueEv+0x24>
 23fc8c0:	eef8 7ae7 	vcvt.f32.s32	s15, s15
 23fc8c4:	ee87 0a87 	vdiv.f32	s0, s15, s14
 23fc8c8:	4770      	bx	lr
    }
    return 0.0f;
 23fc8ca:	ed9f 0a02 	vldr	s0, [pc, #8]	; 23fc8d4 <_ZNK10WiFiSignal15getQualityValueEv+0x28>
}
 23fc8ce:	4770      	bx	lr
 23fc8d0:	42c80000 	.word	0x42c80000
 23fc8d4:	00000000 	.word	0x00000000

023fc8d8 <_ZN10WiFiSignal17fromConnectedInfoERK21wlan_connected_info_t>:
bool WiFiSignal::fromConnectedInfo(const wlan_connected_info_t& inf) {
 23fc8d8:	b570      	push	{r4, r5, r6, lr}
    inf_ = inf;
 23fc8da:	460c      	mov	r4, r1
bool WiFiSignal::fromConnectedInfo(const wlan_connected_info_t& inf) {
 23fc8dc:	4606      	mov	r6, r0
    inf_ = inf;
 23fc8de:	f100 050c 	add.w	r5, r0, #12
 23fc8e2:	cc0f      	ldmia	r4!, {r0, r1, r2, r3}
 23fc8e4:	c50f      	stmia	r5!, {r0, r1, r2, r3}
 23fc8e6:	e894 0003 	ldmia.w	r4, {r0, r1}
 23fc8ea:	e885 0003 	stmia.w	r5, {r0, r1}
    this->rssi = inf_.rssi != std::numeric_limits<int32_t>::min() ? inf_.rssi / 100 : 2;
 23fc8ee:	6933      	ldr	r3, [r6, #16]
}
 23fc8f0:	2001      	movs	r0, #1
    this->rssi = inf_.rssi != std::numeric_limits<int32_t>::min() ? inf_.rssi / 100 : 2;
 23fc8f2:	f1b3 4f00 	cmp.w	r3, #2147483648	; 0x80000000
 23fc8f6:	bf16      	itet	ne
 23fc8f8:	2264      	movne	r2, #100	; 0x64
 23fc8fa:	2302      	moveq	r3, #2
 23fc8fc:	fb93 f3f2 	sdivne	r3, r3, r2
 23fc900:	6073      	str	r3, [r6, #4]
    this->qual = inf_.snr != std::numeric_limits<int32_t>::min() ? inf_.snr / 100 : 0;
 23fc902:	69b3      	ldr	r3, [r6, #24]
 23fc904:	f1b3 4f00 	cmp.w	r3, #2147483648	; 0x80000000
 23fc908:	bf16      	itet	ne
 23fc90a:	2264      	movne	r2, #100	; 0x64
 23fc90c:	2300      	moveq	r3, #0
 23fc90e:	fb93 f3f2 	sdivne	r3, r3, r2
 23fc912:	60b3      	str	r3, [r6, #8]
}
 23fc914:	bd70      	pop	{r4, r5, r6, pc}
	...

023fc918 <_ZN5spark9WiFiClass4RSSIEv>:
    int WiFiClass::getCredentials(WiFiAccessPoint* results, size_t result_count) {
        APList apList(results, result_count);
        return apList.start();
    }

    WiFiSignal WiFiClass::RSSI() {
 23fc918:	e92d 41f0 	stmdb	sp!, {r4, r5, r6, r7, r8, lr}
    WiFiSignal() {}
 23fc91c:	2500      	movs	r5, #0
 23fc91e:	f04f 0802 	mov.w	r8, #2
 23fc922:	2618      	movs	r6, #24
 23fc924:	460f      	mov	r7, r1
 23fc926:	4b14      	ldr	r3, [pc, #80]	; (23fc978 <_ZN5spark9WiFiClass4RSSIEv+0x60>)
 23fc928:	4632      	mov	r2, r6
 23fc92a:	4629      	mov	r1, r5
 23fc92c:	e9c0 8501 	strd	r8, r5, [r0, #4]
 23fc930:	b086      	sub	sp, #24
 23fc932:	6003      	str	r3, [r0, #0]
 23fc934:	4604      	mov	r4, r0
 23fc936:	300c      	adds	r0, #12
 23fc938:	f000 fb4b 	bl	23fcfd2 <memset>
        WiFiSignal sig;
        if (!network_ready(*this, 0, NULL)) {
 23fc93c:	462a      	mov	r2, r5
 23fc93e:	4629      	mov	r1, r5
 23fc940:	6878      	ldr	r0, [r7, #4]
 23fc942:	f7fd fab1 	bl	23f9ea8 <network_ready>
 23fc946:	b180      	cbz	r0, 23fc96a <_ZN5spark9WiFiClass4RSSIEv+0x52>
            return sig;
        }

        wlan_connected_info_t info = {};
 23fc948:	4632      	mov	r2, r6
 23fc94a:	4629      	mov	r1, r5
 23fc94c:	4668      	mov	r0, sp
 23fc94e:	f000 fb40 	bl	23fcfd2 <memset>
        info.size = sizeof(info);
        int r = wlan_connected_info(nullptr, &info, nullptr);
 23fc952:	462a      	mov	r2, r5
 23fc954:	4669      	mov	r1, sp
 23fc956:	4628      	mov	r0, r5
        info.size = sizeof(info);
 23fc958:	f8ad 6000 	strh.w	r6, [sp]
        int r = wlan_connected_info(nullptr, &info, nullptr);
 23fc95c:	f7fd f97e 	bl	23f9c5c <wlan_connected_info>
        if (r == 0) {
 23fc960:	b938      	cbnz	r0, 23fc972 <_ZN5spark9WiFiClass4RSSIEv+0x5a>
            sig.fromConnectedInfo(info);
 23fc962:	4669      	mov	r1, sp
 23fc964:	4620      	mov	r0, r4
 23fc966:	f7ff ffb7 	bl	23fc8d8 <_ZN10WiFiSignal17fromConnectedInfoERK21wlan_connected_info_t>
            return sig;
        }

        sig.rssi = 2;
        return sig;
    }
 23fc96a:	4620      	mov	r0, r4
 23fc96c:	b006      	add	sp, #24
 23fc96e:	e8bd 81f0 	ldmia.w	sp!, {r4, r5, r6, r7, r8, pc}
        sig.rssi = 2;
 23fc972:	f8c4 8004 	str.w	r8, [r4, #4]
        return sig;
 23fc976:	e7f8      	b.n	23fc96a <_ZN5spark9WiFiClass4RSSIEv+0x52>
 23fc978:	023ffb3c 	.word	0x023ffb3c

023fc97c <_GLOBAL__sub_I__ZN10WiFiSignalC2ERK21wlan_connected_info_t>:
 23fc97c:	2204      	movs	r2, #4
 23fc97e:	4b02      	ldr	r3, [pc, #8]	; (23fc988 <_GLOBAL__sub_I__ZN10WiFiSignalC2ERK21wlan_connected_info_t+0xc>)
 23fc980:	605a      	str	r2, [r3, #4]
            NetworkClass(NETWORK_INTERFACE_WIFI_STA) {
 23fc982:	4a02      	ldr	r2, [pc, #8]	; (23fc98c <_GLOBAL__sub_I__ZN10WiFiSignalC2ERK21wlan_connected_info_t+0x10>)
 23fc984:	601a      	str	r2, [r3, #0]
the same way.
*****************************************************************************/

    WiFiClass WiFi;
    // NetworkClass& Network = WiFi;
}
 23fc986:	4770      	bx	lr
 23fc988:	1007af6c 	.word	0x1007af6c
 23fc98c:	023ffaf8 	.word	0x023ffaf8

023fc990 <_ZN5spark12NetworkClass7connectEj>:
        return Network;
    }
}

void NetworkClass::connect(unsigned flags) {
    network_connect(*this, flags, 0, nullptr);
 23fc990:	2300      	movs	r3, #0
 23fc992:	6840      	ldr	r0, [r0, #4]
 23fc994:	461a      	mov	r2, r3
 23fc996:	f7fd ba5d 	b.w	23f9e54 <network_connect>

023fc99a <_ZN5spark12NetworkClass10disconnectEv>:
}

void NetworkClass::disconnect() {
    network_disconnect(*this, NETWORK_DISCONNECT_REASON_USER, nullptr);
 23fc99a:	2200      	movs	r2, #0
 23fc99c:	2102      	movs	r1, #2
 23fc99e:	6840      	ldr	r0, [r0, #4]
 23fc9a0:	f7fd ba74 	b.w	23f9e8c <network_disconnect>

023fc9a4 <_ZN5spark12NetworkClass10connectingEv>:
}

bool NetworkClass::connecting() {
    return network_connecting(*this, 0, nullptr);
 23fc9a4:	2200      	movs	r2, #0
 23fc9a6:	6840      	ldr	r0, [r0, #4]
 23fc9a8:	4611      	mov	r1, r2
 23fc9aa:	f7fd ba61 	b.w	23f9e70 <network_connecting>

023fc9ae <_ZN5spark12NetworkClass5readyEv>:
}

bool NetworkClass::ready() {
    return network_ready(*this, 0, nullptr);
 23fc9ae:	2200      	movs	r2, #0
 23fc9b0:	6840      	ldr	r0, [r0, #4]
 23fc9b2:	4611      	mov	r1, r2
 23fc9b4:	f7fd ba78 	b.w	23f9ea8 <network_ready>

023fc9b8 <_ZN5spark12NetworkClass2onEv>:
}

void NetworkClass::on() {
    network_on(*this, 0, 0, nullptr);
 23fc9b8:	2300      	movs	r3, #0
 23fc9ba:	6840      	ldr	r0, [r0, #4]
 23fc9bc:	461a      	mov	r2, r3
 23fc9be:	4619      	mov	r1, r3
 23fc9c0:	f7fd ba80 	b.w	23f9ec4 <network_on>

023fc9c4 <_ZN5spark12NetworkClass3offEv>:
}

void NetworkClass::off() {
    network_off(*this, 0, 0, nullptr);
 23fc9c4:	2300      	movs	r3, #0
 23fc9c6:	6840      	ldr	r0, [r0, #4]
 23fc9c8:	461a      	mov	r2, r3
 23fc9ca:	4619      	mov	r1, r3
 23fc9cc:	f7fd ba88 	b.w	23f9ee0 <network_off>

023fc9d0 <_ZN5spark12NetworkClass4isOnEv>:
}

bool NetworkClass::isOn() {
    return network_is_on(*this, nullptr);
 23fc9d0:	2100      	movs	r1, #0
 23fc9d2:	6840      	ldr	r0, [r0, #4]
 23fc9d4:	f7fd bae6 	b.w	23f9fa4 <network_is_on>

023fc9d8 <_ZN5spark12NetworkClass5isOffEv>:
}

bool NetworkClass::isOff() {
    return network_is_off(*this, nullptr);
 23fc9d8:	2100      	movs	r1, #0
 23fc9da:	6840      	ldr	r0, [r0, #4]
 23fc9dc:	f7fd baf0 	b.w	23f9fc0 <network_is_off>

023fc9e0 <_ZN5spark12NetworkClass6listenEb>:
}

void NetworkClass::listen(bool begin) {
    network_listen(*this, begin ? 0 : 1, nullptr);
 23fc9e0:	2200      	movs	r2, #0
 23fc9e2:	6840      	ldr	r0, [r0, #4]
 23fc9e4:	f081 0101 	eor.w	r1, r1, #1
 23fc9e8:	f7fd ba88 	b.w	23f9efc <network_listen>

023fc9ec <_ZN5spark12NetworkClass16setListenTimeoutEt>:
}

void NetworkClass::setListenTimeout(uint16_t timeout) {
    network_set_listen_timeout(*this, timeout, nullptr);
 23fc9ec:	2200      	movs	r2, #0
 23fc9ee:	6840      	ldr	r0, [r0, #4]
 23fc9f0:	f7fd babc 	b.w	23f9f6c <network_set_listen_timeout>

023fc9f4 <_ZN5spark12NetworkClass16getListenTimeoutEv>:
}

uint16_t NetworkClass::getListenTimeout() {
    return network_get_listen_timeout(*this, 0, nullptr);
 23fc9f4:	2200      	movs	r2, #0
 23fc9f6:	6840      	ldr	r0, [r0, #4]
 23fc9f8:	4611      	mov	r1, r2
 23fc9fa:	f7fd bac5 	b.w	23f9f88 <network_get_listen_timeout>

023fc9fe <_ZN5spark12NetworkClass9listeningEv>:
}

bool NetworkClass::listening() {
    return network_listening(*this, 0, nullptr);
 23fc9fe:	2200      	movs	r2, #0
 23fca00:	6840      	ldr	r0, [r0, #4]
 23fca02:	4611      	mov	r1, r2
 23fca04:	f7fd ba88 	b.w	23f9f18 <network_listening>

023fca08 <_ZN5spark12NetworkClass11isPreferredEv>:
    network_handle_t network = network_prefer(*this, prefer, nullptr);
    return Network.from(network);
}

bool NetworkClass::isPreferred() {
    return network_is_preferred(*this, nullptr);
 23fca08:	2100      	movs	r1, #0
 23fca0a:	6840      	ldr	r0, [r0, #4]
 23fca0c:	f7fd baf4 	b.w	23f9ff8 <network_is_preferred>

023fca10 <_ZN5spark12NetworkClass7resolveEPKcb>:
}

IPAddress NetworkClass::resolve(const char* name, bool flushCache) {
 23fca10:	e92d 43f0 	stmdb	sp!, {r4, r5, r6, r7, r8, r9, lr}
    IPAddress addr;
#if HAL_USE_INET_HAL_POSIX
    struct addrinfo *ai = nullptr;
 23fca14:	2600      	movs	r6, #0
IPAddress NetworkClass::resolve(const char* name, bool flushCache) {
 23fca16:	4698      	mov	r8, r3
 23fca18:	b099      	sub	sp, #100	; 0x64
 23fca1a:	460d      	mov	r5, r1
 23fca1c:	4614      	mov	r4, r2
 23fca1e:	4607      	mov	r7, r0
    IPAddress addr;
 23fca20:	f7ff fb60 	bl	23fc0e4 <_ZN9IPAddressC1Ev>
    struct addrinfo hints = {};
 23fca24:	221c      	movs	r2, #28
 23fca26:	4631      	mov	r1, r6
 23fca28:	a811      	add	r0, sp, #68	; 0x44
    struct addrinfo *ai = nullptr;
 23fca2a:	9603      	str	r6, [sp, #12]
    struct addrinfo hints = {};
 23fca2c:	f000 fad1 	bl	23fcfd2 <memset>
    hints.ai_flags = AI_ADDRCONFIG;
    if (flushCache) {
 23fca30:	f1b8 0f00 	cmp.w	r8, #0
 23fca34:	d12c      	bne.n	23fca90 <_ZN5spark12NetworkClass7resolveEPKcb+0x80>
    hints.ai_flags = AI_ADDRCONFIG;
 23fca36:	2340      	movs	r3, #64	; 0x40
        return iface_;
 23fca38:	6868      	ldr	r0, [r5, #4]
        hints.ai_flags |= AI_FLUSHCACHE;
 23fca3a:	9310      	str	r3, [sp, #64]	; 0x40
    }
    hints.ai_family = AF_UNSPEC;
    if_t iface = nullptr;
 23fca3c:	9604      	str	r6, [sp, #16]
    if ((network_interface_t)*this != NETWORK_INTERFACE_ALL) {
 23fca3e:	b118      	cbz	r0, 23fca48 <_ZN5spark12NetworkClass7resolveEPKcb+0x38>
        if_get_by_index((network_interface_t)*this, &iface);
 23fca40:	a904      	add	r1, sp, #16
 23fca42:	b2c0      	uxtb	r0, r0
 23fca44:	f7fc fdec 	bl	23f9620 <if_get_by_index>
    }
    const int r = netdb_getaddrinfo_ex(name, nullptr, &hints, &ai, iface);
 23fca48:	9b04      	ldr	r3, [sp, #16]
 23fca4a:	4620      	mov	r0, r4
 23fca4c:	9300      	str	r3, [sp, #0]
 23fca4e:	2100      	movs	r1, #0
 23fca50:	ab03      	add	r3, sp, #12
 23fca52:	aa10      	add	r2, sp, #64	; 0x40
 23fca54:	f7fc fd82 	bl	23f955c <netdb_getaddrinfo_ex>
    if (!r) {
 23fca58:	4604      	mov	r4, r0
 23fca5a:	2800      	cmp	r0, #0
 23fca5c:	d14d      	bne.n	23fcafa <_ZN5spark12NetworkClass7resolveEPKcb+0xea>
        bool ok = false;
        // This is not really needed if AI_ADDRCONFIG is properly supported
        bool ipv4 = network_ready(*this, NETWORK_READY_TYPE_IPV4, nullptr);
 23fca5e:	4602      	mov	r2, r0
 23fca60:	2101      	movs	r1, #1
 23fca62:	6868      	ldr	r0, [r5, #4]
 23fca64:	f7fd fa20 	bl	23f9ea8 <network_ready>
        bool ipv6 = network_ready(*this, NETWORK_READY_TYPE_IPV6, nullptr);
 23fca68:	2102      	movs	r1, #2
        bool ipv4 = network_ready(*this, NETWORK_READY_TYPE_IPV4, nullptr);
 23fca6a:	4680      	mov	r8, r0
        bool ipv6 = network_ready(*this, NETWORK_READY_TYPE_IPV6, nullptr);
 23fca6c:	4622      	mov	r2, r4
 23fca6e:	6868      	ldr	r0, [r5, #4]
 23fca70:	f7fd fa1a 	bl	23f9ea8 <network_ready>
        bool ok = false;
 23fca74:	4621      	mov	r1, r4
        bool ipv6 = network_ready(*this, NETWORK_READY_TYPE_IPV6, nullptr);
 23fca76:	4681      	mov	r9, r0
        for (auto cur = ai; cur != nullptr && !ok; cur = cur->ai_next) {
 23fca78:	9e03      	ldr	r6, [sp, #12]
 23fca7a:	2e00      	cmp	r6, #0
 23fca7c:	d03d      	beq.n	23fcafa <_ZN5spark12NetworkClass7resolveEPKcb+0xea>
 23fca7e:	2900      	cmp	r1, #0
 23fca80:	d13b      	bne.n	23fcafa <_ZN5spark12NetworkClass7resolveEPKcb+0xea>
            // NOTE: using only the first entry that matches the current state of IPv4/IPv6 connectivity
            switch (cur->ai_family) {
 23fca82:	6873      	ldr	r3, [r6, #4]
 23fca84:	2b02      	cmp	r3, #2
 23fca86:	d005      	beq.n	23fca94 <_ZN5spark12NetworkClass7resolveEPKcb+0x84>
 23fca88:	2b0a      	cmp	r3, #10
 23fca8a:	d013      	beq.n	23fcab4 <_ZN5spark12NetworkClass7resolveEPKcb+0xa4>
        for (auto cur = ai; cur != nullptr && !ok; cur = cur->ai_next) {
 23fca8c:	69f6      	ldr	r6, [r6, #28]
 23fca8e:	e7f4      	b.n	23fca7a <_ZN5spark12NetworkClass7resolveEPKcb+0x6a>
        hints.ai_flags |= AI_FLUSHCACHE;
 23fca90:	4b1d      	ldr	r3, [pc, #116]	; (23fcb08 <_ZN5spark12NetworkClass7resolveEPKcb+0xf8>)
 23fca92:	e7d1      	b.n	23fca38 <_ZN5spark12NetworkClass7resolveEPKcb+0x28>
                case AF_INET: {
                    if (!ipv4) {
 23fca94:	f1b8 0f00 	cmp.w	r8, #0
 23fca98:	d0f8      	beq.n	23fca8c <_ZN5spark12NetworkClass7resolveEPKcb+0x7c>
                        continue;
                    }
                    // NOTE: HAL_IPAddress is little-endian
                    auto in = (struct sockaddr_in*)cur->ai_addr;
                    addr = (const uint8_t*)(&in->sin_addr.s_addr);
 23fca9a:	6971      	ldr	r1, [r6, #20]
        return *this = IPAddress(address);
 23fca9c:	a80a      	add	r0, sp, #40	; 0x28
 23fca9e:	3104      	adds	r1, #4
class IPAddress : public Printable {
 23fcaa0:	1d3c      	adds	r4, r7, #4
 23fcaa2:	ad0b      	add	r5, sp, #44	; 0x2c
        return *this = IPAddress(address);
 23fcaa4:	f7ff fb4c 	bl	23fc140 <_ZN9IPAddressC1EPKh>
class IPAddress : public Printable {
 23fcaa8:	cd0f      	ldmia	r5!, {r0, r1, r2, r3}
 23fcaaa:	c40f      	stmia	r4!, {r0, r1, r2, r3}
 23fcaac:	682b      	ldr	r3, [r5, #0]
                    ok = true;
 23fcaae:	4641      	mov	r1, r8
 23fcab0:	7023      	strb	r3, [r4, #0]
        return *this = IPAddress(address);
 23fcab2:	e7eb      	b.n	23fca8c <_ZN5spark12NetworkClass7resolveEPKcb+0x7c>
                    break;
                }
                case AF_INET6: {
                    if (!ipv6) {
 23fcab4:	f1b9 0f00 	cmp.w	r9, #0
 23fcab8:	d0e8      	beq.n	23fca8c <_ZN5spark12NetworkClass7resolveEPKcb+0x7c>
                        continue;
                    }
                    auto in6 = (struct sockaddr_in6*)cur->ai_addr;
                    HAL_IPAddress a = {};
 23fcaba:	2210      	movs	r2, #16
 23fcabc:	a805      	add	r0, sp, #20
                    auto in6 = (struct sockaddr_in6*)cur->ai_addr;
 23fcabe:	6974      	ldr	r4, [r6, #20]
                    HAL_IPAddress a = {};
 23fcac0:	f000 fa87 	bl	23fcfd2 <memset>
                    a.v = 6;
 23fcac4:	2306      	movs	r3, #6
                    memcpy(a.ipv6, in6->sin6_addr.s6_addr, sizeof(a.ipv6));
 23fcac6:	ad05      	add	r5, sp, #20
                    a.v = 6;
 23fcac8:	f88d 3024 	strb.w	r3, [sp, #36]	; 0x24
                    memcpy(a.ipv6, in6->sin6_addr.s6_addr, sizeof(a.ipv6));
 23fcacc:	f104 0308 	add.w	r3, r4, #8
 23fcad0:	3418      	adds	r4, #24
 23fcad2:	462a      	mov	r2, r5
 23fcad4:	6818      	ldr	r0, [r3, #0]
 23fcad6:	6859      	ldr	r1, [r3, #4]
 23fcad8:	3308      	adds	r3, #8
 23fcada:	c203      	stmia	r2!, {r0, r1}
 23fcadc:	42a3      	cmp	r3, r4
 23fcade:	4615      	mov	r5, r2
 23fcae0:	d1f7      	bne.n	23fcad2 <_ZN5spark12NetworkClass7resolveEPKcb+0xc2>
                    addr = IPAddress(a);
 23fcae2:	a905      	add	r1, sp, #20
 23fcae4:	a80a      	add	r0, sp, #40	; 0x28
class IPAddress : public Printable {
 23fcae6:	1d3c      	adds	r4, r7, #4
 23fcae8:	ad0b      	add	r5, sp, #44	; 0x2c
 23fcaea:	f7ff fb09 	bl	23fc100 <_ZN9IPAddressC1ERK16_HAL_IPAddress_t>
 23fcaee:	cd0f      	ldmia	r5!, {r0, r1, r2, r3}
 23fcaf0:	c40f      	stmia	r4!, {r0, r1, r2, r3}
 23fcaf2:	682b      	ldr	r3, [r5, #0]
                    ok = true;
 23fcaf4:	4649      	mov	r1, r9
 23fcaf6:	7023      	strb	r3, [r4, #0]
                    break;
 23fcaf8:	e7c8      	b.n	23fca8c <_ZN5spark12NetworkClass7resolveEPKcb+0x7c>
                }
            }
        }
    }
    freeaddrinfo(ai);
 23fcafa:	9803      	ldr	r0, [sp, #12]
 23fcafc:	f7fc fd20 	bl	23f9540 <netdb_freeaddrinfo>
    return Cellular.resolve(name);
#endif // Wiring_Cellular

#endif // HAL_USE_INET_HAL_POSIX
    return addr;
}
 23fcb00:	4638      	mov	r0, r7
 23fcb02:	b019      	add	sp, #100	; 0x64
 23fcb04:	e8bd 83f0 	ldmia.w	sp!, {r4, r5, r6, r7, r8, r9, pc}
 23fcb08:	40000040 	.word	0x40000040

023fcb0c <_ZN5spark12NetworkClass4fromEm>:
    switch (nif) {
 23fcb0c:	3803      	subs	r0, #3
 23fcb0e:	2802      	cmp	r0, #2
 23fcb10:	bf9a      	itte	ls
 23fcb12:	4b02      	ldrls	r3, [pc, #8]	; (23fcb1c <_ZN5spark12NetworkClass4fromEm+0x10>)
 23fcb14:	f853 0020 	ldrls.w	r0, [r3, r0, lsl #2]
NetworkClass& NetworkClass::from(network_interface_t nif) {
 23fcb18:	4801      	ldrhi	r0, [pc, #4]	; (23fcb20 <_ZN5spark12NetworkClass4fromEm+0x14>)
}
 23fcb1a:	4770      	bx	lr
 23fcb1c:	023ffb58 	.word	0x023ffb58
 23fcb20:	1007af74 	.word	0x1007af74

023fcb24 <_ZN5spark12NetworkClass6preferEb>:
NetworkClass& NetworkClass::prefer(bool prefer) {
 23fcb24:	b508      	push	{r3, lr}
    network_handle_t network = network_prefer(*this, prefer, nullptr);
 23fcb26:	2200      	movs	r2, #0
 23fcb28:	6840      	ldr	r0, [r0, #4]
 23fcb2a:	f7fd fa57 	bl	23f9fdc <network_prefer>
}
 23fcb2e:	e8bd 4008 	ldmia.w	sp!, {r3, lr}
    return Network.from(network);
 23fcb32:	f7ff bfeb 	b.w	23fcb0c <_ZN5spark12NetworkClass4fromEm>
	...

023fcb38 <_GLOBAL__sub_I__ZN5spark7NetworkE>:
            : iface_(iface) {
 23fcb38:	4b02      	ldr	r3, [pc, #8]	; (23fcb44 <_GLOBAL__sub_I__ZN5spark7NetworkE+0xc>)
 23fcb3a:	4a03      	ldr	r2, [pc, #12]	; (23fcb48 <_GLOBAL__sub_I__ZN5spark7NetworkE+0x10>)
 23fcb3c:	601a      	str	r2, [r3, #0]
 23fcb3e:	2200      	movs	r2, #0
 23fcb40:	605a      	str	r2, [r3, #4]
    network_free_configuration(c, count, nullptr);
    return res;
}
#endif // HAL_USE_SOCKET_HAL_POSIX

} // spark
 23fcb42:	4770      	bx	lr
 23fcb44:	1007af74 	.word	0x1007af74
 23fcb48:	023ffb6c 	.word	0x023ffb6c

023fcb4c <spark_protocol_instance>:
extern "C" {
#endif

DYNALIB_BEGIN(communication)

DYNALIB_FN(0, communication, spark_protocol_instance, ProtocolFacade*(void))
 23fcb4c:	b509      	push	{r0, r3, lr}
 23fcb4e:	4804      	ldr	r0, [pc, #16]	; (23fcb60 <spark_protocol_instance+0x14>)
 23fcb50:	6800      	ldr	r0, [r0, #0]
 23fcb52:	4b04      	ldr	r3, [pc, #16]	; (23fcb64 <spark_protocol_instance+0x18>)
 23fcb54:	4403      	add	r3, r0
 23fcb56:	681b      	ldr	r3, [r3, #0]
 23fcb58:	681b      	ldr	r3, [r3, #0]
 23fcb5a:	9302      	str	r3, [sp, #8]
 23fcb5c:	bd09      	pop	{r0, r3, pc}
 23fcb5e:	0000      	.short	0x0000
 23fcb60:	10072d28 	.word	0x10072d28
 23fcb64:	00000044 	.word	0x00000044

023fcb68 <spark_protocol_set_product_id>:
DYNALIB_FN(1, communication, spark_protocol_set_product_id, void(ProtocolFacade*, product_id_t, unsigned, void*))
 23fcb68:	b509      	push	{r0, r3, lr}
 23fcb6a:	4804      	ldr	r0, [pc, #16]	; (23fcb7c <spark_protocol_set_product_id+0x14>)
 23fcb6c:	6800      	ldr	r0, [r0, #0]
 23fcb6e:	4b04      	ldr	r3, [pc, #16]	; (23fcb80 <spark_protocol_set_product_id+0x18>)
 23fcb70:	4403      	add	r3, r0
 23fcb72:	681b      	ldr	r3, [r3, #0]
 23fcb74:	685b      	ldr	r3, [r3, #4]
 23fcb76:	9302      	str	r3, [sp, #8]
 23fcb78:	bd09      	pop	{r0, r3, pc}
 23fcb7a:	0000      	.short	0x0000
 23fcb7c:	10072d28 	.word	0x10072d28
 23fcb80:	00000044 	.word	0x00000044

023fcb84 <spark_protocol_set_product_firmware_version>:
DYNALIB_FN(2, communication, spark_protocol_set_product_firmware_version, void(ProtocolFacade*, product_firmware_version_t, unsigned, void*))
 23fcb84:	b509      	push	{r0, r3, lr}
 23fcb86:	4804      	ldr	r0, [pc, #16]	; (23fcb98 <spark_protocol_set_product_firmware_version+0x14>)
 23fcb88:	6800      	ldr	r0, [r0, #0]
 23fcb8a:	4b04      	ldr	r3, [pc, #16]	; (23fcb9c <spark_protocol_set_product_firmware_version+0x18>)
 23fcb8c:	4403      	add	r3, r0
 23fcb8e:	681b      	ldr	r3, [r3, #0]
 23fcb90:	689b      	ldr	r3, [r3, #8]
 23fcb92:	9302      	str	r3, [sp, #8]
 23fcb94:	bd09      	pop	{r0, r3, pc}
 23fcb96:	0000      	.short	0x0000
 23fcb98:	10072d28 	.word	0x10072d28
 23fcb9c:	00000044 	.word	0x00000044

023fcba0 <pinAvailable>:
/*
 * @brief Perform safety check on desired pin to see if it's already
 * being used.  Return 0 if used, otherwise return 1 if available.
 */
bool pinAvailable(uint16_t pin) {
  if (pin >= TOTAL_PINS) {
 23fcba0:	281b      	cmp	r0, #27
bool pinAvailable(uint16_t pin) {
 23fcba2:	b537      	push	{r0, r1, r2, r4, r5, lr}
 23fcba4:	4604      	mov	r4, r0
  if (pin >= TOTAL_PINS) {
 23fcba6:	d902      	bls.n	23fcbae <pinAvailable+0xe>
    return false;
 23fcba8:	2000      	movs	r0, #0
    return false; // 'pin' is used
  }
#endif

  return true; // 'pin' is available
}
 23fcbaa:	b003      	add	sp, #12
 23fcbac:	bd30      	pop	{r4, r5, pc}
  if((pin == SCK || pin == MOSI || pin == MISO) && hal_spi_is_enabled(SPI.interface()) == true)
 23fcbae:	f1a0 030f 	sub.w	r3, r0, #15
 23fcbb2:	2b02      	cmp	r3, #2
 23fcbb4:	d90b      	bls.n	23fcbce <pinAvailable+0x2e>
  if((pin == SCL || pin == SDA) && hal_i2c_is_enabled(Wire.interface(), nullptr) == true)
 23fcbb6:	2801      	cmp	r0, #1
 23fcbb8:	d821      	bhi.n	23fcbfe <pinAvailable+0x5e>
 23fcbba:	f000 f969 	bl	23fce90 <_Z19__fetch_global_Wirev>
 23fcbbe:	2100      	movs	r1, #0
 23fcbc0:	7c00      	ldrb	r0, [r0, #16]
 23fcbc2:	f7fc ff95 	bl	23f9af0 <hal_i2c_is_enabled>
  if((pin == RX || pin == TX) && hal_usart_is_enabled(Serial1.interface()) == true)
 23fcbc6:	f080 0001 	eor.w	r0, r0, #1
 23fcbca:	b2c0      	uxtb	r0, r0
 23fcbcc:	e7ed      	b.n	23fcbaa <pinAvailable+0xa>

template <hal_spi_interface_t Interface>
class SpiProxy {
public:
    static SPIClass& instance() {
        static SPIClass instance(Interface);
 23fcbce:	4d11      	ldr	r5, [pc, #68]	; (23fcc14 <pinAvailable+0x74>)
 23fcbd0:	e8d5 1f8f 	ldab	r1, [r5]
 23fcbd4:	f011 0101 	ands.w	r1, r1, #1
 23fcbd8:	d10b      	bne.n	23fcbf2 <pinAvailable+0x52>
 23fcbda:	4628      	mov	r0, r5
 23fcbdc:	9101      	str	r1, [sp, #4]
 23fcbde:	f7fd fb23 	bl	23fa228 <__cxa_guard_acquire>
 23fcbe2:	9901      	ldr	r1, [sp, #4]
 23fcbe4:	b128      	cbz	r0, 23fcbf2 <pinAvailable+0x52>
 23fcbe6:	480c      	ldr	r0, [pc, #48]	; (23fcc18 <pinAvailable+0x78>)
 23fcbe8:	f7fd fb8a 	bl	23fa300 <_ZN8SPIClassC1E19hal_spi_interface_t>
 23fcbec:	4628      	mov	r0, r5
 23fcbee:	f7fd fb29 	bl	23fa244 <__cxa_guard_release>
  if((pin == SCK || pin == MOSI || pin == MISO) && hal_spi_is_enabled(SPI.interface()) == true)
 23fcbf2:	4b09      	ldr	r3, [pc, #36]	; (23fcc18 <pinAvailable+0x78>)
 23fcbf4:	7818      	ldrb	r0, [r3, #0]
 23fcbf6:	f7fc ffa5 	bl	23f9b44 <hal_spi_is_enabled>
 23fcbfa:	2800      	cmp	r0, #0
 23fcbfc:	d1d4      	bne.n	23fcba8 <pinAvailable+0x8>
  if((pin == RX || pin == TX) && hal_usart_is_enabled(Serial1.interface()) == true)
 23fcbfe:	3c08      	subs	r4, #8
 23fcc00:	2c01      	cmp	r4, #1
 23fcc02:	d805      	bhi.n	23fcc10 <pinAvailable+0x70>
 23fcc04:	f000 f882 	bl	23fcd0c <_Z22__fetch_global_Serial1v>
 23fcc08:	7c00      	ldrb	r0, [r0, #16]
 23fcc0a:	f7fc fee5 	bl	23f99d8 <hal_usart_is_enabled>
 23fcc0e:	e7da      	b.n	23fcbc6 <pinAvailable+0x26>
  return true; // 'pin' is available
 23fcc10:	2001      	movs	r0, #1
 23fcc12:	e7ca      	b.n	23fcbaa <pinAvailable+0xa>
 23fcc14:	1007af7c 	.word	0x1007af7c
 23fcc18:	1007af80 	.word	0x1007af80

023fcc1c <pinMode>:
  if(pin >= TOTAL_PINS || setMode == PIN_MODE_NONE )
 23fcc1c:	281b      	cmp	r0, #27
{
 23fcc1e:	b538      	push	{r3, r4, r5, lr}
 23fcc20:	4604      	mov	r4, r0
 23fcc22:	460d      	mov	r5, r1
  if(pin >= TOTAL_PINS || setMode == PIN_MODE_NONE )
 23fcc24:	d80a      	bhi.n	23fcc3c <pinMode+0x20>
 23fcc26:	29ff      	cmp	r1, #255	; 0xff
 23fcc28:	d008      	beq.n	23fcc3c <pinMode+0x20>
  if( !pinAvailable(pin) ) {
 23fcc2a:	f7ff ffb9 	bl	23fcba0 <pinAvailable>
 23fcc2e:	b128      	cbz	r0, 23fcc3c <pinMode+0x20>
  hal_gpio_mode(pin, setMode);
 23fcc30:	4629      	mov	r1, r5
 23fcc32:	4620      	mov	r0, r4
}
 23fcc34:	e8bd 4038 	ldmia.w	sp!, {r3, r4, r5, lr}
  hal_gpio_mode(pin, setMode);
 23fcc38:	f7fc bcac 	b.w	23f9594 <hal_gpio_mode>
}
 23fcc3c:	bd38      	pop	{r3, r4, r5, pc}

023fcc3e <digitalWrite>:

/*
 * @brief Sets a GPIO pin to HIGH or LOW.
 */
void digitalWrite(hal_pin_t pin, uint8_t value)
{
 23fcc3e:	b538      	push	{r3, r4, r5, lr}
 23fcc40:	4604      	mov	r4, r0
 23fcc42:	460d      	mov	r5, r1
    PinMode mode = hal_gpio_get_mode(pin);
 23fcc44:	f7fc fcb4 	bl	23f95b0 <hal_gpio_get_mode>
    if (mode==PIN_MODE_NONE || is_input_mode(mode))
 23fcc48:	28ff      	cmp	r0, #255	; 0xff
 23fcc4a:	d010      	beq.n	23fcc6e <digitalWrite+0x30>
            mode == INPUT_PULLDOWN ||
 23fcc4c:	2806      	cmp	r0, #6
 23fcc4e:	d804      	bhi.n	23fcc5a <digitalWrite+0x1c>
 23fcc50:	234d      	movs	r3, #77	; 0x4d
 23fcc52:	fa23 f000 	lsr.w	r0, r3, r0
 23fcc56:	07c3      	lsls	r3, r0, #31
 23fcc58:	d409      	bmi.n	23fcc6e <digitalWrite+0x30>
        return;
  // Safety check
  if( !pinAvailable(pin) ) {
 23fcc5a:	4620      	mov	r0, r4
 23fcc5c:	f7ff ffa0 	bl	23fcba0 <pinAvailable>
 23fcc60:	b128      	cbz	r0, 23fcc6e <digitalWrite+0x30>
    return;
  }

  hal_gpio_write(pin, value);
 23fcc62:	4629      	mov	r1, r5
 23fcc64:	4620      	mov	r0, r4
}
 23fcc66:	e8bd 4038 	ldmia.w	sp!, {r3, r4, r5, lr}
  hal_gpio_write(pin, value);
 23fcc6a:	f7fc bcaf 	b.w	23f95cc <hal_gpio_write>
}
 23fcc6e:	bd38      	pop	{r3, r4, r5, pc}

023fcc70 <digitalRead>:

/*
 * @brief Reads the value of a GPIO pin. Should return either 1 (HIGH) or 0 (LOW).
 */
int32_t digitalRead(hal_pin_t pin)
{
 23fcc70:	b510      	push	{r4, lr}
 23fcc72:	4604      	mov	r4, r0
    PinMode mode = hal_gpio_get_mode(pin);
 23fcc74:	f7fc fc9c 	bl	23f95b0 <hal_gpio_get_mode>
    return mode == AF_OUTPUT_PUSHPULL ||
 23fcc78:	1f03      	subs	r3, r0, #4
    if (is_af_output_mode(mode))
 23fcc7a:	b2db      	uxtb	r3, r3
 23fcc7c:	2b01      	cmp	r3, #1
 23fcc7e:	d908      	bls.n	23fcc92 <digitalRead+0x22>
        return LOW;

    // Safety check
    if( !pinAvailable(pin) ) {
 23fcc80:	4620      	mov	r0, r4
 23fcc82:	f7ff ff8d 	bl	23fcba0 <pinAvailable>
 23fcc86:	b120      	cbz	r0, 23fcc92 <digitalRead+0x22>
      return LOW;
    }

    return hal_gpio_read(pin);
 23fcc88:	4620      	mov	r0, r4
}
 23fcc8a:	e8bd 4010 	ldmia.w	sp!, {r4, lr}
    return hal_gpio_read(pin);
 23fcc8e:	f7fc bcab 	b.w	23f95e8 <hal_gpio_read>
}
 23fcc92:	2000      	movs	r0, #0
 23fcc94:	bd10      	pop	{r4, pc}

023fcc96 <analogRead>:
 * @brief Read the analog value of a pin.
 * Should return a 16-bit value, 0-65536 (0 = LOW, 65536 = HIGH)
 * Note: ADC is 12-bit. Currently it returns 0-4095
 */
int32_t analogRead(hal_pin_t pin)
{
 23fcc96:	b510      	push	{r4, lr}
 23fcc98:	4604      	mov	r4, r0
  }
#endif // defined(FIRST_ANALOG_PIN) && FIRST_ANALOG_PIN > 0
#endif

  // Safety check
  if( !pinAvailable(pin) ) {
 23fcc9a:	f7ff ff81 	bl	23fcba0 <pinAvailable>
 23fcc9e:	b150      	cbz	r0, 23fccb6 <analogRead+0x20>
    return LOW;
  }

  if(hal_pin_validate_function(pin, PF_ADC)!=PF_ADC)
 23fcca0:	2103      	movs	r1, #3
 23fcca2:	4620      	mov	r0, r4
 23fcca4:	f7fc fc68 	bl	23f9578 <hal_pin_validate_function>
 23fcca8:	2803      	cmp	r0, #3
 23fccaa:	d104      	bne.n	23fccb6 <analogRead+0x20>
  {
    return LOW;
  }

  return hal_adc_read(pin);
 23fccac:	4620      	mov	r0, r4
}
 23fccae:	e8bd 4010 	ldmia.w	sp!, {r4, lr}
  return hal_adc_read(pin);
 23fccb2:	f7fc bca7 	b.w	23f9604 <hal_adc_read>
}
 23fccb6:	2000      	movs	r0, #0
 23fccb8:	bd10      	pop	{r4, pc}

023fccba <__tcf_0>:
}
#endif

USARTSerial& __fetch_global_Serial1()
{
    static USARTSerial serial1(HAL_USART_SERIAL1, acquireSerial1Buffer());
 23fccba:	4770      	bx	lr

023fccbc <_ZN12_GLOBAL__N_118defaultUsartConfigEv>:
hal_usart_buffer_config_t defaultUsartConfig() {
 23fccbc:	b538      	push	{r3, r4, r5, lr}
    hal_usart_buffer_config_t config = {
 23fccbe:	2514      	movs	r5, #20
hal_usart_buffer_config_t defaultUsartConfig() {
 23fccc0:	4604      	mov	r4, r0
    hal_usart_buffer_config_t config = {
 23fccc2:	462a      	mov	r2, r5
 23fccc4:	2100      	movs	r1, #0
 23fccc6:	f000 f984 	bl	23fcfd2 <memset>
 23fccca:	8025      	strh	r5, [r4, #0]
 23fcccc:	2540      	movs	r5, #64	; 0x40
        .rx_buffer = new (std::nothrow) uint8_t[bufferSize],
 23fccce:	4907      	ldr	r1, [pc, #28]	; (23fccec <_ZN12_GLOBAL__N_118defaultUsartConfigEv+0x30>)
 23fccd0:	4628      	mov	r0, r5
    hal_usart_buffer_config_t config = {
 23fccd2:	8125      	strh	r5, [r4, #8]
 23fccd4:	8225      	strh	r5, [r4, #16]
        .rx_buffer = new (std::nothrow) uint8_t[bufferSize],
 23fccd6:	f000 f901 	bl	23fcedc <_ZnajRKSt9nothrow_t>
        .tx_buffer = new (std::nothrow) uint8_t[bufferSize],
 23fccda:	4904      	ldr	r1, [pc, #16]	; (23fccec <_ZN12_GLOBAL__N_118defaultUsartConfigEv+0x30>)
    };
 23fccdc:	6060      	str	r0, [r4, #4]
        .tx_buffer = new (std::nothrow) uint8_t[bufferSize],
 23fccde:	4628      	mov	r0, r5
 23fcce0:	f000 f8fc 	bl	23fcedc <_ZnajRKSt9nothrow_t>
    };
 23fcce4:	60e0      	str	r0, [r4, #12]
}
 23fcce6:	4620      	mov	r0, r4
 23fcce8:	bd38      	pop	{r3, r4, r5, pc}
 23fccea:	bf00      	nop
 23fccec:	023ffba8 	.word	0x023ffba8

023fccf0 <__tcf_2>:
 23fccf0:	4770      	bx	lr

023fccf2 <__tcf_1>:
 23fccf2:	4770      	bx	lr

023fccf4 <_Z20acquireSerial2Bufferv>:
 23fccf4:	b510      	push	{r4, lr}
 23fccf6:	4604      	mov	r4, r0
 23fccf8:	f7ff ffe0 	bl	23fccbc <_ZN12_GLOBAL__N_118defaultUsartConfigEv>
 23fccfc:	4620      	mov	r0, r4
 23fccfe:	bd10      	pop	{r4, pc}

023fcd00 <_Z20acquireSerial3Bufferv>:
 23fcd00:	b510      	push	{r4, lr}
 23fcd02:	4604      	mov	r4, r0
 23fcd04:	f7ff ffda 	bl	23fccbc <_ZN12_GLOBAL__N_118defaultUsartConfigEv>
 23fcd08:	4620      	mov	r0, r4
 23fcd0a:	bd10      	pop	{r4, pc}

023fcd0c <_Z22__fetch_global_Serial1v>:
{
 23fcd0c:	b530      	push	{r4, r5, lr}
    static USARTSerial serial1(HAL_USART_SERIAL1, acquireSerial1Buffer());
 23fcd0e:	4d0e      	ldr	r5, [pc, #56]	; (23fcd48 <_Z22__fetch_global_Serial1v+0x3c>)
{
 23fcd10:	b087      	sub	sp, #28
    static USARTSerial serial1(HAL_USART_SERIAL1, acquireSerial1Buffer());
 23fcd12:	e8d5 1f8f 	ldab	r1, [r5]
 23fcd16:	f011 0401 	ands.w	r4, r1, #1
 23fcd1a:	d111      	bne.n	23fcd40 <_Z22__fetch_global_Serial1v+0x34>
 23fcd1c:	4628      	mov	r0, r5
 23fcd1e:	f7fd fa83 	bl	23fa228 <__cxa_guard_acquire>
 23fcd22:	b168      	cbz	r0, 23fcd40 <_Z22__fetch_global_Serial1v+0x34>
 23fcd24:	a801      	add	r0, sp, #4
 23fcd26:	f7fb ffc3 	bl	23f8cb0 <_Z20acquireSerial1Bufferv>
 23fcd2a:	4621      	mov	r1, r4
 23fcd2c:	aa01      	add	r2, sp, #4
 23fcd2e:	4807      	ldr	r0, [pc, #28]	; (23fcd4c <_Z22__fetch_global_Serial1v+0x40>)
 23fcd30:	f7ff fcb4 	bl	23fc69c <_ZN11USARTSerialC1E21hal_usart_interface_tRK25hal_usart_buffer_config_t>
 23fcd34:	4628      	mov	r0, r5
 23fcd36:	f7fd fa85 	bl	23fa244 <__cxa_guard_release>
 23fcd3a:	4805      	ldr	r0, [pc, #20]	; (23fcd50 <_Z22__fetch_global_Serial1v+0x44>)
 23fcd3c:	f000 f900 	bl	23fcf40 <atexit>
    return serial1;
}
 23fcd40:	4802      	ldr	r0, [pc, #8]	; (23fcd4c <_Z22__fetch_global_Serial1v+0x40>)
 23fcd42:	b007      	add	sp, #28
 23fcd44:	bd30      	pop	{r4, r5, pc}
 23fcd46:	bf00      	nop
 23fcd48:	1007af88 	.word	0x1007af88
 23fcd4c:	1007af94 	.word	0x1007af94
 23fcd50:	023fccbb 	.word	0x023fccbb

023fcd54 <_Z22__fetch_global_Serial2v>:

#if Wiring_Serial2
USARTSerial& __fetch_global_Serial2()
{
 23fcd54:	b510      	push	{r4, lr}
	static USARTSerial serial2(HAL_USART_SERIAL2, acquireSerial2Buffer());
 23fcd56:	4c0d      	ldr	r4, [pc, #52]	; (23fcd8c <_Z22__fetch_global_Serial2v+0x38>)
{
 23fcd58:	b086      	sub	sp, #24
	static USARTSerial serial2(HAL_USART_SERIAL2, acquireSerial2Buffer());
 23fcd5a:	e8d4 3f8f 	ldab	r3, [r4]
 23fcd5e:	07db      	lsls	r3, r3, #31
 23fcd60:	d411      	bmi.n	23fcd86 <_Z22__fetch_global_Serial2v+0x32>
 23fcd62:	4620      	mov	r0, r4
 23fcd64:	f7fd fa60 	bl	23fa228 <__cxa_guard_acquire>
 23fcd68:	b168      	cbz	r0, 23fcd86 <_Z22__fetch_global_Serial2v+0x32>
 23fcd6a:	a801      	add	r0, sp, #4
 23fcd6c:	f7ff ffc2 	bl	23fccf4 <_Z20acquireSerial2Bufferv>
 23fcd70:	2101      	movs	r1, #1
 23fcd72:	aa01      	add	r2, sp, #4
 23fcd74:	4806      	ldr	r0, [pc, #24]	; (23fcd90 <_Z22__fetch_global_Serial2v+0x3c>)
 23fcd76:	f7ff fc91 	bl	23fc69c <_ZN11USARTSerialC1E21hal_usart_interface_tRK25hal_usart_buffer_config_t>
 23fcd7a:	4620      	mov	r0, r4
 23fcd7c:	f7fd fa62 	bl	23fa244 <__cxa_guard_release>
 23fcd80:	4804      	ldr	r0, [pc, #16]	; (23fcd94 <_Z22__fetch_global_Serial2v+0x40>)
 23fcd82:	f000 f8dd 	bl	23fcf40 <atexit>
	return serial2;
}
 23fcd86:	4802      	ldr	r0, [pc, #8]	; (23fcd90 <_Z22__fetch_global_Serial2v+0x3c>)
 23fcd88:	b006      	add	sp, #24
 23fcd8a:	bd10      	pop	{r4, pc}
 23fcd8c:	1007af8c 	.word	0x1007af8c
 23fcd90:	1007afa8 	.word	0x1007afa8
 23fcd94:	023fccf3 	.word	0x023fccf3

023fcd98 <_Z15serialEventRun2v>:

void serialEventRun2()
{
 23fcd98:	b510      	push	{r4, lr}
    __handleSerialEvent(Serial2, serialEvent2);
 23fcd9a:	f7ff ffdb 	bl	23fcd54 <_Z22__fetch_global_Serial2v>

inline void __handleSerialEvent(USARTSerial& serial, void (*handler)(void)) __attribute__((always_inline));

inline void __handleSerialEvent(USARTSerial& serial, void (*handler)(void))
{
    if (handler && serial.isEnabled() && serial.available()>0)
 23fcd9e:	4b07      	ldr	r3, [pc, #28]	; (23fcdbc <_Z15serialEventRun2v+0x24>)
 23fcda0:	4604      	mov	r4, r0
 23fcda2:	b153      	cbz	r3, 23fcdba <_Z15serialEventRun2v+0x22>
 23fcda4:	f7ff fc9b 	bl	23fc6de <_ZN11USARTSerial9isEnabledEv>
 23fcda8:	b138      	cbz	r0, 23fcdba <_Z15serialEventRun2v+0x22>
 23fcdaa:	6823      	ldr	r3, [r4, #0]
 23fcdac:	4620      	mov	r0, r4
 23fcdae:	691b      	ldr	r3, [r3, #16]
 23fcdb0:	4798      	blx	r3
 23fcdb2:	2800      	cmp	r0, #0
 23fcdb4:	dd01      	ble.n	23fcdba <_Z15serialEventRun2v+0x22>
        handler();
 23fcdb6:	e000      	b.n	23fcdba <_Z15serialEventRun2v+0x22>
 23fcdb8:	bf00      	nop
}
 23fcdba:	bd10      	pop	{r4, pc}
 23fcdbc:	00000000 	.word	0x00000000

023fcdc0 <_Z22__fetch_global_Serial3v>:
#endif

#if Wiring_Serial3
USARTSerial& __fetch_global_Serial3()
{
 23fcdc0:	b510      	push	{r4, lr}
	static USARTSerial serial3(HAL_USART_SERIAL3, acquireSerial3Buffer());
 23fcdc2:	4c0d      	ldr	r4, [pc, #52]	; (23fcdf8 <_Z22__fetch_global_Serial3v+0x38>)
{
 23fcdc4:	b086      	sub	sp, #24
	static USARTSerial serial3(HAL_USART_SERIAL3, acquireSerial3Buffer());
 23fcdc6:	e8d4 3f8f 	ldab	r3, [r4]
 23fcdca:	07db      	lsls	r3, r3, #31
 23fcdcc:	d411      	bmi.n	23fcdf2 <_Z22__fetch_global_Serial3v+0x32>
 23fcdce:	4620      	mov	r0, r4
 23fcdd0:	f7fd fa2a 	bl	23fa228 <__cxa_guard_acquire>
 23fcdd4:	b168      	cbz	r0, 23fcdf2 <_Z22__fetch_global_Serial3v+0x32>
 23fcdd6:	a801      	add	r0, sp, #4
 23fcdd8:	f7ff ff92 	bl	23fcd00 <_Z20acquireSerial3Bufferv>
 23fcddc:	2102      	movs	r1, #2
 23fcdde:	aa01      	add	r2, sp, #4
 23fcde0:	4806      	ldr	r0, [pc, #24]	; (23fcdfc <_Z22__fetch_global_Serial3v+0x3c>)
 23fcde2:	f7ff fc5b 	bl	23fc69c <_ZN11USARTSerialC1E21hal_usart_interface_tRK25hal_usart_buffer_config_t>
 23fcde6:	4620      	mov	r0, r4
 23fcde8:	f7fd fa2c 	bl	23fa244 <__cxa_guard_release>
 23fcdec:	4804      	ldr	r0, [pc, #16]	; (23fce00 <_Z22__fetch_global_Serial3v+0x40>)
 23fcdee:	f000 f8a7 	bl	23fcf40 <atexit>
	return serial3;
}
 23fcdf2:	4802      	ldr	r0, [pc, #8]	; (23fcdfc <_Z22__fetch_global_Serial3v+0x3c>)
 23fcdf4:	b006      	add	sp, #24
 23fcdf6:	bd10      	pop	{r4, pc}
 23fcdf8:	1007af90 	.word	0x1007af90
 23fcdfc:	1007afbc 	.word	0x1007afbc
 23fce00:	023fccf1 	.word	0x023fccf1

023fce04 <_Z15serialEventRun3v>:

void serialEventRun3()
{
 23fce04:	b510      	push	{r4, lr}
    __handleSerialEvent(Serial3, serialEvent3);
 23fce06:	f7ff ffdb 	bl	23fcdc0 <_Z22__fetch_global_Serial3v>
    if (handler && serial.isEnabled() && serial.available()>0)
 23fce0a:	4b07      	ldr	r3, [pc, #28]	; (23fce28 <_Z15serialEventRun3v+0x24>)
 23fce0c:	4604      	mov	r4, r0
 23fce0e:	b153      	cbz	r3, 23fce26 <_Z15serialEventRun3v+0x22>
 23fce10:	f7ff fc65 	bl	23fc6de <_ZN11USARTSerial9isEnabledEv>
 23fce14:	b138      	cbz	r0, 23fce26 <_Z15serialEventRun3v+0x22>
 23fce16:	6823      	ldr	r3, [r4, #0]
 23fce18:	4620      	mov	r0, r4
 23fce1a:	691b      	ldr	r3, [r3, #16]
 23fce1c:	4798      	blx	r3
 23fce1e:	2800      	cmp	r0, #0
 23fce20:	dd01      	ble.n	23fce26 <_Z15serialEventRun3v+0x22>
        handler();
 23fce22:	e000      	b.n	23fce26 <_Z15serialEventRun3v+0x22>
 23fce24:	bf00      	nop
}
 23fce26:	bd10      	pop	{r4, pc}
 23fce28:	00000000 	.word	0x00000000

023fce2c <_Z21__fetch_global_EEPROMv>:

// we don't use this global instance since there's no actual instance data
// Having this keeps the unoptimized build happy

EEPROMClass& __fetch_global_EEPROM()
{
 23fce2c:	b510      	push	{r4, lr}
	static EEPROMClass eeprom;
 23fce2e:	4c08      	ldr	r4, [pc, #32]	; (23fce50 <_Z21__fetch_global_EEPROMv+0x24>)
 23fce30:	e8d4 3f8f 	ldab	r3, [r4]
 23fce34:	07db      	lsls	r3, r3, #31
 23fce36:	d408      	bmi.n	23fce4a <_Z21__fetch_global_EEPROMv+0x1e>
 23fce38:	4620      	mov	r0, r4
 23fce3a:	f7fd f9f5 	bl	23fa228 <__cxa_guard_acquire>
 23fce3e:	b120      	cbz	r0, 23fce4a <_Z21__fetch_global_EEPROMv+0x1e>

struct EEPROMClass{

	EEPROMClass()
    {
    		HAL_EEPROM_Init();
 23fce40:	f7fc fc18 	bl	23f9674 <HAL_EEPROM_Init>
 23fce44:	4620      	mov	r0, r4
 23fce46:	f7fd f9fd 	bl	23fa244 <__cxa_guard_release>
	return eeprom;
}
 23fce4a:	4802      	ldr	r0, [pc, #8]	; (23fce54 <_Z21__fetch_global_EEPROMv+0x28>)
 23fce4c:	bd10      	pop	{r4, pc}
 23fce4e:	bf00      	nop
 23fce50:	1007afd4 	.word	0x1007afd4
 23fce54:	1007afd8 	.word	0x1007afd8

023fce58 <__tcf_0>:
}
#endif

TwoWire& __fetch_global_Wire()
{
	static TwoWire wire(HAL_I2C_INTERFACE1, acquireWireBuffer());
 23fce58:	4770      	bx	lr
	...

023fce5c <_Z17acquireWireBufferv>:
{
 23fce5c:	b538      	push	{r3, r4, r5, lr}
	hal_i2c_config_t config = {
 23fce5e:	4b0a      	ldr	r3, [pc, #40]	; (23fce88 <_Z17acquireWireBufferv+0x2c>)
{
 23fce60:	4604      	mov	r4, r0
	hal_i2c_config_t config = {
 23fce62:	6003      	str	r3, [r0, #0]
 23fce64:	2301      	movs	r3, #1
		.rx_buffer = new (std::nothrow) uint8_t[i2c_buffer_size],
 23fce66:	4909      	ldr	r1, [pc, #36]	; (23fce8c <_Z17acquireWireBufferv+0x30>)
	hal_i2c_config_t config = {
 23fce68:	6143      	str	r3, [r0, #20]
		.rx_buffer = new (std::nothrow) uint8_t[i2c_buffer_size],
 23fce6a:	2020      	movs	r0, #32
 23fce6c:	f000 f836 	bl	23fcedc <_ZnajRKSt9nothrow_t>
	};
 23fce70:	2520      	movs	r5, #32
 23fce72:	6060      	str	r0, [r4, #4]
		.tx_buffer = new (std::nothrow) uint8_t[i2c_buffer_size],
 23fce74:	4905      	ldr	r1, [pc, #20]	; (23fce8c <_Z17acquireWireBufferv+0x30>)
 23fce76:	4628      	mov	r0, r5
	};
 23fce78:	60a5      	str	r5, [r4, #8]
		.tx_buffer = new (std::nothrow) uint8_t[i2c_buffer_size],
 23fce7a:	f000 f82f 	bl	23fcedc <_ZnajRKSt9nothrow_t>
	};
 23fce7e:	e9c4 0503 	strd	r0, r5, [r4, #12]
}
 23fce82:	4620      	mov	r0, r4
 23fce84:	bd38      	pop	{r3, r4, r5, pc}
 23fce86:	bf00      	nop
 23fce88:	00010018 	.word	0x00010018
 23fce8c:	023ffba8 	.word	0x023ffba8

023fce90 <_Z19__fetch_global_Wirev>:
{
 23fce90:	b530      	push	{r4, r5, lr}
	static TwoWire wire(HAL_I2C_INTERFACE1, acquireWireBuffer());
 23fce92:	4d0e      	ldr	r5, [pc, #56]	; (23fcecc <_Z19__fetch_global_Wirev+0x3c>)
{
 23fce94:	b087      	sub	sp, #28
	static TwoWire wire(HAL_I2C_INTERFACE1, acquireWireBuffer());
 23fce96:	e8d5 1f8f 	ldab	r1, [r5]
 23fce9a:	f011 0401 	ands.w	r4, r1, #1
 23fce9e:	d111      	bne.n	23fcec4 <_Z19__fetch_global_Wirev+0x34>
 23fcea0:	4628      	mov	r0, r5
 23fcea2:	f7fd f9c1 	bl	23fa228 <__cxa_guard_acquire>
 23fcea6:	b168      	cbz	r0, 23fcec4 <_Z19__fetch_global_Wirev+0x34>
 23fcea8:	4668      	mov	r0, sp
 23fceaa:	f7ff ffd7 	bl	23fce5c <_Z17acquireWireBufferv>
 23fceae:	466a      	mov	r2, sp
 23fceb0:	4621      	mov	r1, r4
 23fceb2:	4807      	ldr	r0, [pc, #28]	; (23fced0 <_Z19__fetch_global_Wirev+0x40>)
 23fceb4:	f7ff fc56 	bl	23fc764 <_ZN7TwoWireC1E19hal_i2c_interface_tRK16hal_i2c_config_t>
 23fceb8:	4628      	mov	r0, r5
 23fceba:	f7fd f9c3 	bl	23fa244 <__cxa_guard_release>
 23fcebe:	4805      	ldr	r0, [pc, #20]	; (23fced4 <_Z19__fetch_global_Wirev+0x44>)
 23fcec0:	f000 f83e 	bl	23fcf40 <atexit>
	return wire;
}
 23fcec4:	4802      	ldr	r0, [pc, #8]	; (23fced0 <_Z19__fetch_global_Wirev+0x40>)
 23fcec6:	b007      	add	sp, #28
 23fcec8:	bd30      	pop	{r4, r5, pc}
 23fceca:	bf00      	nop
 23fcecc:	1007afdc 	.word	0x1007afdc
 23fced0:	1007afe0 	.word	0x1007afe0
 23fced4:	023fce59 	.word	0x023fce59

023fced8 <_ZnwjRKSt9nothrow_t>:
 23fced8:	f7f9 bd1f 	b.w	23f691a <_Znwj>

023fcedc <_ZnajRKSt9nothrow_t>:
 23fcedc:	f7f9 bd1f 	b.w	23f691e <_Znaj>

023fcee0 <_ZSt25__throw_bad_function_callv>:
 23fcee0:	b508      	push	{r3, lr}
 23fcee2:	f7fd f94d 	bl	23fa180 <abort>
	...

023fcee8 <sqrtf>:
 23fcee8:	b508      	push	{r3, lr}
 23fceea:	ed2d 8b02 	vpush	{d8}
 23fceee:	eeb0 8a40 	vmov.f32	s16, s0
 23fcef2:	f000 f821 	bl	23fcf38 <__ieee754_sqrtf>
 23fcef6:	4b0e      	ldr	r3, [pc, #56]	; (23fcf30 <sqrtf+0x48>)
 23fcef8:	f993 3000 	ldrsb.w	r3, [r3]
 23fcefc:	3301      	adds	r3, #1
 23fcefe:	d00b      	beq.n	23fcf18 <sqrtf+0x30>
 23fcf00:	eeb4 8a48 	vcmp.f32	s16, s16
 23fcf04:	eef1 fa10 	vmrs	APSR_nzcv, fpscr
 23fcf08:	d606      	bvs.n	23fcf18 <sqrtf+0x30>
 23fcf0a:	eddf 8a0a 	vldr	s17, [pc, #40]	; 23fcf34 <sqrtf+0x4c>
 23fcf0e:	eeb4 8ae8 	vcmpe.f32	s16, s17
 23fcf12:	eef1 fa10 	vmrs	APSR_nzcv, fpscr
 23fcf16:	d402      	bmi.n	23fcf1e <sqrtf+0x36>
 23fcf18:	ecbd 8b02 	vpop	{d8}
 23fcf1c:	bd08      	pop	{r3, pc}
 23fcf1e:	f7fd f94b 	bl	23fa1b8 <__errno>
 23fcf22:	ee88 0aa8 	vdiv.f32	s0, s17, s17
 23fcf26:	2321      	movs	r3, #33	; 0x21
 23fcf28:	6003      	str	r3, [r0, #0]
 23fcf2a:	ecbd 8b02 	vpop	{d8}
 23fcf2e:	bd08      	pop	{r3, pc}
 23fcf30:	10072d38 	.word	0x10072d38
 23fcf34:	00000000 	.word	0x00000000

023fcf38 <__ieee754_sqrtf>:
 23fcf38:	eeb1 0ac0 	vsqrt.f32	s0, s0
 23fcf3c:	4770      	bx	lr
 23fcf3e:	bf00      	nop

023fcf40 <atexit>:
 23fcf40:	2300      	movs	r3, #0
 23fcf42:	4601      	mov	r1, r0
 23fcf44:	461a      	mov	r2, r3
 23fcf46:	4618      	mov	r0, r3
 23fcf48:	f7f9 bd06 	b.w	23f6958 <__register_exitproc>

023fcf4c <atof>:
 23fcf4c:	2100      	movs	r1, #0
 23fcf4e:	f000 befd 	b.w	23fdd4c <strtod>

023fcf52 <atoi>:
 23fcf52:	220a      	movs	r2, #10
 23fcf54:	2100      	movs	r1, #0
 23fcf56:	f000 bf87 	b.w	23fde68 <strtol>

023fcf5a <atol>:
 23fcf5a:	220a      	movs	r2, #10
 23fcf5c:	2100      	movs	r1, #0
 23fcf5e:	f000 bf83 	b.w	23fde68 <strtol>
	...

023fcf64 <isprint>:
 23fcf64:	4b02      	ldr	r3, [pc, #8]	; (23fcf70 <isprint+0xc>)
 23fcf66:	4418      	add	r0, r3
 23fcf68:	7840      	ldrb	r0, [r0, #1]
 23fcf6a:	f000 0097 	and.w	r0, r0, #151	; 0x97
 23fcf6e:	4770      	bx	lr
 23fcf70:	023ffca0 	.word	0x023ffca0

023fcf74 <isspace>:
 23fcf74:	4b02      	ldr	r3, [pc, #8]	; (23fcf80 <isspace+0xc>)
 23fcf76:	4418      	add	r0, r3
 23fcf78:	7840      	ldrb	r0, [r0, #1]
 23fcf7a:	f000 0008 	and.w	r0, r0, #8
 23fcf7e:	4770      	bx	lr
 23fcf80:	023ffca0 	.word	0x023ffca0

023fcf84 <memcpy>:
 23fcf84:	440a      	add	r2, r1
 23fcf86:	1e43      	subs	r3, r0, #1
 23fcf88:	4291      	cmp	r1, r2
 23fcf8a:	d100      	bne.n	23fcf8e <memcpy+0xa>
 23fcf8c:	4770      	bx	lr
 23fcf8e:	b510      	push	{r4, lr}
 23fcf90:	f811 4b01 	ldrb.w	r4, [r1], #1
 23fcf94:	4291      	cmp	r1, r2
 23fcf96:	f803 4f01 	strb.w	r4, [r3, #1]!
 23fcf9a:	d1f9      	bne.n	23fcf90 <memcpy+0xc>
 23fcf9c:	bd10      	pop	{r4, pc}

023fcf9e <memmove>:
 23fcf9e:	4288      	cmp	r0, r1
 23fcfa0:	b510      	push	{r4, lr}
 23fcfa2:	eb01 0402 	add.w	r4, r1, r2
 23fcfa6:	d902      	bls.n	23fcfae <memmove+0x10>
 23fcfa8:	4284      	cmp	r4, r0
 23fcfaa:	4623      	mov	r3, r4
 23fcfac:	d807      	bhi.n	23fcfbe <memmove+0x20>
 23fcfae:	1e43      	subs	r3, r0, #1
 23fcfb0:	42a1      	cmp	r1, r4
 23fcfb2:	d008      	beq.n	23fcfc6 <memmove+0x28>
 23fcfb4:	f811 2b01 	ldrb.w	r2, [r1], #1
 23fcfb8:	f803 2f01 	strb.w	r2, [r3, #1]!
 23fcfbc:	e7f8      	b.n	23fcfb0 <memmove+0x12>
 23fcfbe:	4402      	add	r2, r0
 23fcfc0:	4601      	mov	r1, r0
 23fcfc2:	428a      	cmp	r2, r1
 23fcfc4:	d100      	bne.n	23fcfc8 <memmove+0x2a>
 23fcfc6:	bd10      	pop	{r4, pc}
 23fcfc8:	f813 4d01 	ldrb.w	r4, [r3, #-1]!
 23fcfcc:	f802 4d01 	strb.w	r4, [r2, #-1]!
 23fcfd0:	e7f7      	b.n	23fcfc2 <memmove+0x24>

023fcfd2 <memset>:
 23fcfd2:	4402      	add	r2, r0
 23fcfd4:	4603      	mov	r3, r0
 23fcfd6:	4293      	cmp	r3, r2
 23fcfd8:	d100      	bne.n	23fcfdc <memset+0xa>
 23fcfda:	4770      	bx	lr
 23fcfdc:	f803 1b01 	strb.w	r1, [r3], #1
 23fcfe0:	e7f9      	b.n	23fcfd6 <memset+0x4>
	...

023fcfe4 <srand>:
 23fcfe4:	b538      	push	{r3, r4, r5, lr}
 23fcfe6:	4b10      	ldr	r3, [pc, #64]	; (23fd028 <srand+0x44>)
 23fcfe8:	4604      	mov	r4, r0
 23fcfea:	681d      	ldr	r5, [r3, #0]
 23fcfec:	6bab      	ldr	r3, [r5, #56]	; 0x38
 23fcfee:	b9b3      	cbnz	r3, 23fd01e <srand+0x3a>
 23fcff0:	2018      	movs	r0, #24
 23fcff2:	f7fd f87f 	bl	23fa0f4 <malloc>
 23fcff6:	4602      	mov	r2, r0
 23fcff8:	63a8      	str	r0, [r5, #56]	; 0x38
 23fcffa:	b920      	cbnz	r0, 23fd006 <srand+0x22>
 23fcffc:	4b0b      	ldr	r3, [pc, #44]	; (23fd02c <srand+0x48>)
 23fcffe:	2142      	movs	r1, #66	; 0x42
 23fd000:	480b      	ldr	r0, [pc, #44]	; (23fd030 <srand+0x4c>)
 23fd002:	f7fd f8e7 	bl	23fa1d4 <__assert_func>
 23fd006:	490b      	ldr	r1, [pc, #44]	; (23fd034 <srand+0x50>)
 23fd008:	4b0b      	ldr	r3, [pc, #44]	; (23fd038 <srand+0x54>)
 23fd00a:	e9c0 1300 	strd	r1, r3, [r0]
 23fd00e:	4b0b      	ldr	r3, [pc, #44]	; (23fd03c <srand+0x58>)
 23fd010:	2100      	movs	r1, #0
 23fd012:	6083      	str	r3, [r0, #8]
 23fd014:	230b      	movs	r3, #11
 23fd016:	8183      	strh	r3, [r0, #12]
 23fd018:	2001      	movs	r0, #1
 23fd01a:	e9c2 0104 	strd	r0, r1, [r2, #16]
 23fd01e:	6bab      	ldr	r3, [r5, #56]	; 0x38
 23fd020:	2200      	movs	r2, #0
 23fd022:	611c      	str	r4, [r3, #16]
 23fd024:	615a      	str	r2, [r3, #20]
 23fd026:	bd38      	pop	{r3, r4, r5, pc}
 23fd028:	10072d3c 	.word	0x10072d3c
 23fd02c:	023ffba9 	.word	0x023ffba9
 23fd030:	023ffbc0 	.word	0x023ffbc0
 23fd034:	abcd330e 	.word	0xabcd330e
 23fd038:	e66d1234 	.word	0xe66d1234
 23fd03c:	0005deec 	.word	0x0005deec

023fd040 <strchr>:
 23fd040:	b2c9      	uxtb	r1, r1
 23fd042:	4603      	mov	r3, r0
 23fd044:	f810 2b01 	ldrb.w	r2, [r0], #1
 23fd048:	b11a      	cbz	r2, 23fd052 <strchr+0x12>
 23fd04a:	428a      	cmp	r2, r1
 23fd04c:	d1f9      	bne.n	23fd042 <strchr+0x2>
 23fd04e:	4618      	mov	r0, r3
 23fd050:	4770      	bx	lr
 23fd052:	2900      	cmp	r1, #0
 23fd054:	bf18      	it	ne
 23fd056:	2300      	movne	r3, #0
 23fd058:	e7f9      	b.n	23fd04e <strchr+0xe>

023fd05a <strchrnul>:
 23fd05a:	b510      	push	{r4, lr}
 23fd05c:	4604      	mov	r4, r0
 23fd05e:	f7ff ffef 	bl	23fd040 <strchr>
 23fd062:	b918      	cbnz	r0, 23fd06c <strchrnul+0x12>
 23fd064:	4620      	mov	r0, r4
 23fd066:	f7f9 fc19 	bl	23f689c <strlen>
 23fd06a:	4420      	add	r0, r4
 23fd06c:	bd10      	pop	{r4, pc}

023fd06e <strcpy>:
 23fd06e:	4603      	mov	r3, r0
 23fd070:	f811 2b01 	ldrb.w	r2, [r1], #1
 23fd074:	f803 2b01 	strb.w	r2, [r3], #1
 23fd078:	2a00      	cmp	r2, #0
 23fd07a:	d1f9      	bne.n	23fd070 <strcpy+0x2>
 23fd07c:	4770      	bx	lr
	...

023fd080 <strdup>:
 23fd080:	4b02      	ldr	r3, [pc, #8]	; (23fd08c <strdup+0xc>)
 23fd082:	4601      	mov	r1, r0
 23fd084:	6818      	ldr	r0, [r3, #0]
 23fd086:	f000 b803 	b.w	23fd090 <_strdup_r>
 23fd08a:	bf00      	nop
 23fd08c:	10072d3c 	.word	0x10072d3c

023fd090 <_strdup_r>:
 23fd090:	b537      	push	{r0, r1, r2, r4, r5, lr}
 23fd092:	4604      	mov	r4, r0
 23fd094:	4608      	mov	r0, r1
 23fd096:	460d      	mov	r5, r1
 23fd098:	f7f9 fc00 	bl	23f689c <strlen>
 23fd09c:	1c42      	adds	r2, r0, #1
 23fd09e:	4620      	mov	r0, r4
 23fd0a0:	4611      	mov	r1, r2
 23fd0a2:	9201      	str	r2, [sp, #4]
 23fd0a4:	f7fd f87a 	bl	23fa19c <_malloc_r>
 23fd0a8:	4604      	mov	r4, r0
 23fd0aa:	b118      	cbz	r0, 23fd0b4 <_strdup_r+0x24>
 23fd0ac:	9a01      	ldr	r2, [sp, #4]
 23fd0ae:	4629      	mov	r1, r5
 23fd0b0:	f7ff ff68 	bl	23fcf84 <memcpy>
 23fd0b4:	4620      	mov	r0, r4
 23fd0b6:	b003      	add	sp, #12
 23fd0b8:	bd30      	pop	{r4, r5, pc}

023fd0ba <strncmp>:
 23fd0ba:	b510      	push	{r4, lr}
 23fd0bc:	b17a      	cbz	r2, 23fd0de <strncmp+0x24>
 23fd0be:	4603      	mov	r3, r0
 23fd0c0:	3901      	subs	r1, #1
 23fd0c2:	1884      	adds	r4, r0, r2
 23fd0c4:	f813 0b01 	ldrb.w	r0, [r3], #1
 23fd0c8:	f811 2f01 	ldrb.w	r2, [r1, #1]!
 23fd0cc:	4290      	cmp	r0, r2
 23fd0ce:	d101      	bne.n	23fd0d4 <strncmp+0x1a>
 23fd0d0:	42a3      	cmp	r3, r4
 23fd0d2:	d101      	bne.n	23fd0d8 <strncmp+0x1e>
 23fd0d4:	1a80      	subs	r0, r0, r2
 23fd0d6:	bd10      	pop	{r4, pc}
 23fd0d8:	2800      	cmp	r0, #0
 23fd0da:	d1f3      	bne.n	23fd0c4 <strncmp+0xa>
 23fd0dc:	e7fa      	b.n	23fd0d4 <strncmp+0x1a>
 23fd0de:	4610      	mov	r0, r2
 23fd0e0:	e7f9      	b.n	23fd0d6 <strncmp+0x1c>

023fd0e2 <strrchr>:
 23fd0e2:	b538      	push	{r3, r4, r5, lr}
 23fd0e4:	4603      	mov	r3, r0
 23fd0e6:	460c      	mov	r4, r1
 23fd0e8:	b969      	cbnz	r1, 23fd106 <strrchr+0x24>
 23fd0ea:	e8bd 4038 	ldmia.w	sp!, {r3, r4, r5, lr}
 23fd0ee:	f7ff bfa7 	b.w	23fd040 <strchr>
 23fd0f2:	1c43      	adds	r3, r0, #1
 23fd0f4:	4605      	mov	r5, r0
 23fd0f6:	4621      	mov	r1, r4
 23fd0f8:	4618      	mov	r0, r3
 23fd0fa:	f7ff ffa1 	bl	23fd040 <strchr>
 23fd0fe:	2800      	cmp	r0, #0
 23fd100:	d1f7      	bne.n	23fd0f2 <strrchr+0x10>
 23fd102:	4628      	mov	r0, r5
 23fd104:	bd38      	pop	{r3, r4, r5, pc}
 23fd106:	2500      	movs	r5, #0
 23fd108:	e7f5      	b.n	23fd0f6 <strrchr+0x14>

023fd10a <sulp>:
 23fd10a:	b570      	push	{r4, r5, r6, lr}
 23fd10c:	4604      	mov	r4, r0
 23fd10e:	460d      	mov	r5, r1
 23fd110:	4616      	mov	r6, r2
 23fd112:	ec45 4b10 	vmov	d0, r4, r5
 23fd116:	f001 fe05 	bl	23fed24 <__ulp>
 23fd11a:	ec51 0b10 	vmov	r0, r1, d0
 23fd11e:	b17e      	cbz	r6, 23fd140 <sulp+0x36>
 23fd120:	f3c5 530a 	ubfx	r3, r5, #20, #11
 23fd124:	f1c3 036b 	rsb	r3, r3, #107	; 0x6b
 23fd128:	2b00      	cmp	r3, #0
 23fd12a:	dd09      	ble.n	23fd140 <sulp+0x36>
 23fd12c:	051b      	lsls	r3, r3, #20
 23fd12e:	2400      	movs	r4, #0
 23fd130:	f103 557f 	add.w	r5, r3, #1069547520	; 0x3fc00000
 23fd134:	4622      	mov	r2, r4
 23fd136:	f505 1540 	add.w	r5, r5, #3145728	; 0x300000
 23fd13a:	462b      	mov	r3, r5
 23fd13c:	f7f8 feb8 	bl	23f5eb0 <__aeabi_dmul>
 23fd140:	bd70      	pop	{r4, r5, r6, pc}
 23fd142:	0000      	movs	r0, r0
 23fd144:	0000      	movs	r0, r0
	...

023fd148 <_strtod_l>:
 23fd148:	e92d 4ff0 	stmdb	sp!, {r4, r5, r6, r7, r8, r9, sl, fp, lr}
 23fd14c:	461f      	mov	r7, r3
 23fd14e:	2300      	movs	r3, #0
 23fd150:	4604      	mov	r4, r0
 23fd152:	4688      	mov	r8, r1
 23fd154:	f04f 0a00 	mov.w	sl, #0
 23fd158:	f04f 0b00 	mov.w	fp, #0
 23fd15c:	ed2d 8b02 	vpush	{d8}
 23fd160:	b09d      	sub	sp, #116	; 0x74
 23fd162:	9318      	str	r3, [sp, #96]	; 0x60
 23fd164:	4b9f      	ldr	r3, [pc, #636]	; (23fd3e4 <_strtod_l+0x29c>)
 23fd166:	9213      	str	r2, [sp, #76]	; 0x4c
 23fd168:	681b      	ldr	r3, [r3, #0]
 23fd16a:	4618      	mov	r0, r3
 23fd16c:	9305      	str	r3, [sp, #20]
 23fd16e:	f7f9 fb95 	bl	23f689c <strlen>
 23fd172:	4605      	mov	r5, r0
 23fd174:	f8cd 805c 	str.w	r8, [sp, #92]	; 0x5c
 23fd178:	9b17      	ldr	r3, [sp, #92]	; 0x5c
 23fd17a:	781a      	ldrb	r2, [r3, #0]
 23fd17c:	2a2b      	cmp	r2, #43	; 0x2b
 23fd17e:	d04e      	beq.n	23fd21e <_strtod_l+0xd6>
 23fd180:	d83b      	bhi.n	23fd1fa <_strtod_l+0xb2>
 23fd182:	2a0d      	cmp	r2, #13
 23fd184:	d834      	bhi.n	23fd1f0 <_strtod_l+0xa8>
 23fd186:	2a08      	cmp	r2, #8
 23fd188:	d834      	bhi.n	23fd1f4 <_strtod_l+0xac>
 23fd18a:	2a00      	cmp	r2, #0
 23fd18c:	d03e      	beq.n	23fd20c <_strtod_l+0xc4>
 23fd18e:	2300      	movs	r3, #0
 23fd190:	930a      	str	r3, [sp, #40]	; 0x28
 23fd192:	9e17      	ldr	r6, [sp, #92]	; 0x5c
 23fd194:	7833      	ldrb	r3, [r6, #0]
 23fd196:	2b30      	cmp	r3, #48	; 0x30
 23fd198:	f040 80b0 	bne.w	23fd2fc <_strtod_l+0x1b4>
 23fd19c:	7873      	ldrb	r3, [r6, #1]
 23fd19e:	f003 03df 	and.w	r3, r3, #223	; 0xdf
 23fd1a2:	2b58      	cmp	r3, #88	; 0x58
 23fd1a4:	d168      	bne.n	23fd278 <_strtod_l+0x130>
 23fd1a6:	9b0a      	ldr	r3, [sp, #40]	; 0x28
 23fd1a8:	a917      	add	r1, sp, #92	; 0x5c
 23fd1aa:	9702      	str	r7, [sp, #8]
 23fd1ac:	4620      	mov	r0, r4
 23fd1ae:	9301      	str	r3, [sp, #4]
 23fd1b0:	ab18      	add	r3, sp, #96	; 0x60
 23fd1b2:	4a8d      	ldr	r2, [pc, #564]	; (23fd3e8 <_strtod_l+0x2a0>)
 23fd1b4:	9300      	str	r3, [sp, #0]
 23fd1b6:	ab19      	add	r3, sp, #100	; 0x64
 23fd1b8:	f000 ff22 	bl	23fe000 <__gethex>
 23fd1bc:	f010 0707 	ands.w	r7, r0, #7
 23fd1c0:	4605      	mov	r5, r0
 23fd1c2:	d005      	beq.n	23fd1d0 <_strtod_l+0x88>
 23fd1c4:	2f06      	cmp	r7, #6
 23fd1c6:	d12c      	bne.n	23fd222 <_strtod_l+0xda>
 23fd1c8:	3601      	adds	r6, #1
 23fd1ca:	2300      	movs	r3, #0
 23fd1cc:	9617      	str	r6, [sp, #92]	; 0x5c
 23fd1ce:	930a      	str	r3, [sp, #40]	; 0x28
 23fd1d0:	9b13      	ldr	r3, [sp, #76]	; 0x4c
 23fd1d2:	2b00      	cmp	r3, #0
 23fd1d4:	f040 858e 	bne.w	23fdcf4 <_strtod_l+0xbac>
 23fd1d8:	9b0a      	ldr	r3, [sp, #40]	; 0x28
 23fd1da:	b1eb      	cbz	r3, 23fd218 <_strtod_l+0xd0>
 23fd1dc:	4652      	mov	r2, sl
 23fd1de:	f10b 4300 	add.w	r3, fp, #2147483648	; 0x80000000
 23fd1e2:	ec43 2b10 	vmov	d0, r2, r3
 23fd1e6:	b01d      	add	sp, #116	; 0x74
 23fd1e8:	ecbd 8b02 	vpop	{d8}
 23fd1ec:	e8bd 8ff0 	ldmia.w	sp!, {r4, r5, r6, r7, r8, r9, sl, fp, pc}
 23fd1f0:	2a20      	cmp	r2, #32
 23fd1f2:	d1cc      	bne.n	23fd18e <_strtod_l+0x46>
 23fd1f4:	3301      	adds	r3, #1
 23fd1f6:	9317      	str	r3, [sp, #92]	; 0x5c
 23fd1f8:	e7be      	b.n	23fd178 <_strtod_l+0x30>
 23fd1fa:	2a2d      	cmp	r2, #45	; 0x2d
 23fd1fc:	d1c7      	bne.n	23fd18e <_strtod_l+0x46>
 23fd1fe:	2201      	movs	r2, #1
 23fd200:	920a      	str	r2, [sp, #40]	; 0x28
 23fd202:	1c5a      	adds	r2, r3, #1
 23fd204:	9217      	str	r2, [sp, #92]	; 0x5c
 23fd206:	785b      	ldrb	r3, [r3, #1]
 23fd208:	2b00      	cmp	r3, #0
 23fd20a:	d1c2      	bne.n	23fd192 <_strtod_l+0x4a>
 23fd20c:	9b13      	ldr	r3, [sp, #76]	; 0x4c
 23fd20e:	f8cd 805c 	str.w	r8, [sp, #92]	; 0x5c
 23fd212:	2b00      	cmp	r3, #0
 23fd214:	f040 856c 	bne.w	23fdcf0 <_strtod_l+0xba8>
 23fd218:	4652      	mov	r2, sl
 23fd21a:	465b      	mov	r3, fp
 23fd21c:	e7e1      	b.n	23fd1e2 <_strtod_l+0x9a>
 23fd21e:	2200      	movs	r2, #0
 23fd220:	e7ee      	b.n	23fd200 <_strtod_l+0xb8>
 23fd222:	9a18      	ldr	r2, [sp, #96]	; 0x60
 23fd224:	b13a      	cbz	r2, 23fd236 <_strtod_l+0xee>
 23fd226:	2135      	movs	r1, #53	; 0x35
 23fd228:	a81a      	add	r0, sp, #104	; 0x68
 23fd22a:	f001 fe84 	bl	23fef36 <__copybits>
 23fd22e:	9918      	ldr	r1, [sp, #96]	; 0x60
 23fd230:	4620      	mov	r0, r4
 23fd232:	f001 fa3f 	bl	23fe6b4 <_Bfree>
 23fd236:	3f01      	subs	r7, #1
 23fd238:	2f04      	cmp	r7, #4
 23fd23a:	d806      	bhi.n	23fd24a <_strtod_l+0x102>
 23fd23c:	e8df f007 	tbb	[pc, r7]
 23fd240:	1714030a 	.word	0x1714030a
 23fd244:	0a          	.byte	0x0a
 23fd245:	00          	.byte	0x00
 23fd246:	e9dd ab1a 	ldrd	sl, fp, [sp, #104]	; 0x68
 23fd24a:	0728      	lsls	r0, r5, #28
 23fd24c:	d5c0      	bpl.n	23fd1d0 <_strtod_l+0x88>
 23fd24e:	f04b 4b00 	orr.w	fp, fp, #2147483648	; 0x80000000
 23fd252:	e7bd      	b.n	23fd1d0 <_strtod_l+0x88>
 23fd254:	e9dd a31a 	ldrd	sl, r3, [sp, #104]	; 0x68
 23fd258:	9a19      	ldr	r2, [sp, #100]	; 0x64
 23fd25a:	f423 1380 	bic.w	r3, r3, #1048576	; 0x100000
 23fd25e:	f202 4233 	addw	r2, r2, #1075	; 0x433
 23fd262:	ea43 5b02 	orr.w	fp, r3, r2, lsl #20
 23fd266:	e7f0      	b.n	23fd24a <_strtod_l+0x102>
 23fd268:	f8df b180 	ldr.w	fp, [pc, #384]	; 23fd3ec <_strtod_l+0x2a4>
 23fd26c:	e7ed      	b.n	23fd24a <_strtod_l+0x102>
 23fd26e:	f06f 4b00 	mvn.w	fp, #2147483648	; 0x80000000
 23fd272:	f04f 3aff 	mov.w	sl, #4294967295
 23fd276:	e7e8      	b.n	23fd24a <_strtod_l+0x102>
 23fd278:	9b17      	ldr	r3, [sp, #92]	; 0x5c
 23fd27a:	1c5a      	adds	r2, r3, #1
 23fd27c:	9217      	str	r2, [sp, #92]	; 0x5c
 23fd27e:	785b      	ldrb	r3, [r3, #1]
 23fd280:	2b30      	cmp	r3, #48	; 0x30
 23fd282:	d0f9      	beq.n	23fd278 <_strtod_l+0x130>
 23fd284:	2b00      	cmp	r3, #0
 23fd286:	d0a3      	beq.n	23fd1d0 <_strtod_l+0x88>
 23fd288:	2301      	movs	r3, #1
 23fd28a:	f04f 0900 	mov.w	r9, #0
 23fd28e:	9304      	str	r3, [sp, #16]
 23fd290:	220a      	movs	r2, #10
 23fd292:	9b17      	ldr	r3, [sp, #92]	; 0x5c
 23fd294:	464f      	mov	r7, r9
 23fd296:	f8cd 901c 	str.w	r9, [sp, #28]
 23fd29a:	9308      	str	r3, [sp, #32]
 23fd29c:	9817      	ldr	r0, [sp, #92]	; 0x5c
 23fd29e:	7806      	ldrb	r6, [r0, #0]
 23fd2a0:	f1a6 0330 	sub.w	r3, r6, #48	; 0x30
 23fd2a4:	b2d9      	uxtb	r1, r3
 23fd2a6:	2909      	cmp	r1, #9
 23fd2a8:	d92a      	bls.n	23fd300 <_strtod_l+0x1b8>
 23fd2aa:	462a      	mov	r2, r5
 23fd2ac:	9905      	ldr	r1, [sp, #20]
 23fd2ae:	f7ff ff04 	bl	23fd0ba <strncmp>
 23fd2b2:	b3a0      	cbz	r0, 23fd31e <_strtod_l+0x1d6>
 23fd2b4:	2000      	movs	r0, #0
 23fd2b6:	4632      	mov	r2, r6
 23fd2b8:	463d      	mov	r5, r7
 23fd2ba:	4603      	mov	r3, r0
 23fd2bc:	9005      	str	r0, [sp, #20]
 23fd2be:	2a65      	cmp	r2, #101	; 0x65
 23fd2c0:	d001      	beq.n	23fd2c6 <_strtod_l+0x17e>
 23fd2c2:	2a45      	cmp	r2, #69	; 0x45
 23fd2c4:	d118      	bne.n	23fd2f8 <_strtod_l+0x1b0>
 23fd2c6:	b91d      	cbnz	r5, 23fd2d0 <_strtod_l+0x188>
 23fd2c8:	9a04      	ldr	r2, [sp, #16]
 23fd2ca:	4302      	orrs	r2, r0
 23fd2cc:	d09e      	beq.n	23fd20c <_strtod_l+0xc4>
 23fd2ce:	2500      	movs	r5, #0
 23fd2d0:	f8dd 805c 	ldr.w	r8, [sp, #92]	; 0x5c
 23fd2d4:	f108 0201 	add.w	r2, r8, #1
 23fd2d8:	9217      	str	r2, [sp, #92]	; 0x5c
 23fd2da:	f898 2001 	ldrb.w	r2, [r8, #1]
 23fd2de:	2a2b      	cmp	r2, #43	; 0x2b
 23fd2e0:	d075      	beq.n	23fd3ce <_strtod_l+0x286>
 23fd2e2:	2a2d      	cmp	r2, #45	; 0x2d
 23fd2e4:	d07b      	beq.n	23fd3de <_strtod_l+0x296>
 23fd2e6:	f04f 0c00 	mov.w	ip, #0
 23fd2ea:	f1a2 0130 	sub.w	r1, r2, #48	; 0x30
 23fd2ee:	2909      	cmp	r1, #9
 23fd2f0:	f240 8082 	bls.w	23fd3f8 <_strtod_l+0x2b0>
 23fd2f4:	f8cd 805c 	str.w	r8, [sp, #92]	; 0x5c
 23fd2f8:	2600      	movs	r6, #0
 23fd2fa:	e09d      	b.n	23fd438 <_strtod_l+0x2f0>
 23fd2fc:	2300      	movs	r3, #0
 23fd2fe:	e7c4      	b.n	23fd28a <_strtod_l+0x142>
 23fd300:	2f08      	cmp	r7, #8
 23fd302:	f100 0001 	add.w	r0, r0, #1
 23fd306:	f107 0701 	add.w	r7, r7, #1
 23fd30a:	bfd4      	ite	le
 23fd30c:	9907      	ldrle	r1, [sp, #28]
 23fd30e:	fb02 3909 	mlagt	r9, r2, r9, r3
 23fd312:	9017      	str	r0, [sp, #92]	; 0x5c
 23fd314:	bfdc      	itt	le
 23fd316:	fb02 3301 	mlale	r3, r2, r1, r3
 23fd31a:	9307      	strle	r3, [sp, #28]
 23fd31c:	e7be      	b.n	23fd29c <_strtod_l+0x154>
 23fd31e:	9b17      	ldr	r3, [sp, #92]	; 0x5c
 23fd320:	195a      	adds	r2, r3, r5
 23fd322:	9217      	str	r2, [sp, #92]	; 0x5c
 23fd324:	5d5a      	ldrb	r2, [r3, r5]
 23fd326:	2f00      	cmp	r7, #0
 23fd328:	d036      	beq.n	23fd398 <_strtod_l+0x250>
 23fd32a:	463d      	mov	r5, r7
 23fd32c:	9005      	str	r0, [sp, #20]
 23fd32e:	f1a2 0330 	sub.w	r3, r2, #48	; 0x30
 23fd332:	2b09      	cmp	r3, #9
 23fd334:	d912      	bls.n	23fd35c <_strtod_l+0x214>
 23fd336:	2301      	movs	r3, #1
 23fd338:	e7c1      	b.n	23fd2be <_strtod_l+0x176>
 23fd33a:	9b17      	ldr	r3, [sp, #92]	; 0x5c
 23fd33c:	3001      	adds	r0, #1
 23fd33e:	1c5a      	adds	r2, r3, #1
 23fd340:	9217      	str	r2, [sp, #92]	; 0x5c
 23fd342:	785a      	ldrb	r2, [r3, #1]
 23fd344:	2a30      	cmp	r2, #48	; 0x30
 23fd346:	d0f8      	beq.n	23fd33a <_strtod_l+0x1f2>
 23fd348:	f1a2 0331 	sub.w	r3, r2, #49	; 0x31
 23fd34c:	2b08      	cmp	r3, #8
 23fd34e:	f200 84d6 	bhi.w	23fdcfe <_strtod_l+0xbb6>
 23fd352:	9005      	str	r0, [sp, #20]
 23fd354:	2000      	movs	r0, #0
 23fd356:	9b17      	ldr	r3, [sp, #92]	; 0x5c
 23fd358:	4605      	mov	r5, r0
 23fd35a:	9308      	str	r3, [sp, #32]
 23fd35c:	3a30      	subs	r2, #48	; 0x30
 23fd35e:	f100 0301 	add.w	r3, r0, #1
 23fd362:	d013      	beq.n	23fd38c <_strtod_l+0x244>
 23fd364:	9905      	ldr	r1, [sp, #20]
 23fd366:	eb00 0e05 	add.w	lr, r0, r5
 23fd36a:	4419      	add	r1, r3
 23fd36c:	462b      	mov	r3, r5
 23fd36e:	9105      	str	r1, [sp, #20]
 23fd370:	210a      	movs	r1, #10
 23fd372:	4573      	cmp	r3, lr
 23fd374:	d112      	bne.n	23fd39c <_strtod_l+0x254>
 23fd376:	182b      	adds	r3, r5, r0
 23fd378:	3501      	adds	r5, #1
 23fd37a:	2b08      	cmp	r3, #8
 23fd37c:	4405      	add	r5, r0
 23fd37e:	dc1c      	bgt.n	23fd3ba <_strtod_l+0x272>
 23fd380:	9907      	ldr	r1, [sp, #28]
 23fd382:	230a      	movs	r3, #10
 23fd384:	fb03 2301 	mla	r3, r3, r1, r2
 23fd388:	9307      	str	r3, [sp, #28]
 23fd38a:	2300      	movs	r3, #0
 23fd38c:	9a17      	ldr	r2, [sp, #92]	; 0x5c
 23fd38e:	4618      	mov	r0, r3
 23fd390:	1c51      	adds	r1, r2, #1
 23fd392:	9117      	str	r1, [sp, #92]	; 0x5c
 23fd394:	7852      	ldrb	r2, [r2, #1]
 23fd396:	e7ca      	b.n	23fd32e <_strtod_l+0x1e6>
 23fd398:	4638      	mov	r0, r7
 23fd39a:	e7d3      	b.n	23fd344 <_strtod_l+0x1fc>
 23fd39c:	2b08      	cmp	r3, #8
 23fd39e:	dc04      	bgt.n	23fd3aa <_strtod_l+0x262>
 23fd3a0:	9e07      	ldr	r6, [sp, #28]
 23fd3a2:	434e      	muls	r6, r1
 23fd3a4:	9607      	str	r6, [sp, #28]
 23fd3a6:	3301      	adds	r3, #1
 23fd3a8:	e7e3      	b.n	23fd372 <_strtod_l+0x22a>
 23fd3aa:	f103 0c01 	add.w	ip, r3, #1
 23fd3ae:	f1bc 0f10 	cmp.w	ip, #16
 23fd3b2:	bfd8      	it	le
 23fd3b4:	fb01 f909 	mulle.w	r9, r1, r9
 23fd3b8:	e7f5      	b.n	23fd3a6 <_strtod_l+0x25e>
 23fd3ba:	2d10      	cmp	r5, #16
 23fd3bc:	bfdc      	itt	le
 23fd3be:	230a      	movle	r3, #10
 23fd3c0:	fb03 2909 	mlale	r9, r3, r9, r2
 23fd3c4:	e7e1      	b.n	23fd38a <_strtod_l+0x242>
 23fd3c6:	2300      	movs	r3, #0
 23fd3c8:	9305      	str	r3, [sp, #20]
 23fd3ca:	2301      	movs	r3, #1
 23fd3cc:	e77c      	b.n	23fd2c8 <_strtod_l+0x180>
 23fd3ce:	f04f 0c00 	mov.w	ip, #0
 23fd3d2:	f108 0202 	add.w	r2, r8, #2
 23fd3d6:	9217      	str	r2, [sp, #92]	; 0x5c
 23fd3d8:	f898 2002 	ldrb.w	r2, [r8, #2]
 23fd3dc:	e785      	b.n	23fd2ea <_strtod_l+0x1a2>
 23fd3de:	f04f 0c01 	mov.w	ip, #1
 23fd3e2:	e7f6      	b.n	23fd3d2 <_strtod_l+0x28a>
 23fd3e4:	023ffe38 	.word	0x023ffe38
 23fd3e8:	023ffc4c 	.word	0x023ffc4c
 23fd3ec:	7ff00000 	.word	0x7ff00000
 23fd3f0:	9a17      	ldr	r2, [sp, #92]	; 0x5c
 23fd3f2:	1c51      	adds	r1, r2, #1
 23fd3f4:	9117      	str	r1, [sp, #92]	; 0x5c
 23fd3f6:	7852      	ldrb	r2, [r2, #1]
 23fd3f8:	2a30      	cmp	r2, #48	; 0x30
 23fd3fa:	d0f9      	beq.n	23fd3f0 <_strtod_l+0x2a8>
 23fd3fc:	f1a2 0131 	sub.w	r1, r2, #49	; 0x31
 23fd400:	2908      	cmp	r1, #8
 23fd402:	f63f af79 	bhi.w	23fd2f8 <_strtod_l+0x1b0>
 23fd406:	f1a2 0e30 	sub.w	lr, r2, #48	; 0x30
 23fd40a:	9a17      	ldr	r2, [sp, #92]	; 0x5c
 23fd40c:	9206      	str	r2, [sp, #24]
 23fd40e:	9a17      	ldr	r2, [sp, #92]	; 0x5c
 23fd410:	1c51      	adds	r1, r2, #1
 23fd412:	9117      	str	r1, [sp, #92]	; 0x5c
 23fd414:	7852      	ldrb	r2, [r2, #1]
 23fd416:	f1a2 0630 	sub.w	r6, r2, #48	; 0x30
 23fd41a:	2e09      	cmp	r6, #9
 23fd41c:	d937      	bls.n	23fd48e <_strtod_l+0x346>
 23fd41e:	9e06      	ldr	r6, [sp, #24]
 23fd420:	1b89      	subs	r1, r1, r6
 23fd422:	f644 661f 	movw	r6, #19999	; 0x4e1f
 23fd426:	2908      	cmp	r1, #8
 23fd428:	dc02      	bgt.n	23fd430 <_strtod_l+0x2e8>
 23fd42a:	4576      	cmp	r6, lr
 23fd42c:	bfa8      	it	ge
 23fd42e:	4676      	movge	r6, lr
 23fd430:	f1bc 0f00 	cmp.w	ip, #0
 23fd434:	d000      	beq.n	23fd438 <_strtod_l+0x2f0>
 23fd436:	4276      	negs	r6, r6
 23fd438:	2d00      	cmp	r5, #0
 23fd43a:	d14d      	bne.n	23fd4d8 <_strtod_l+0x390>
 23fd43c:	9904      	ldr	r1, [sp, #16]
 23fd43e:	4301      	orrs	r1, r0
 23fd440:	f47f aec6 	bne.w	23fd1d0 <_strtod_l+0x88>
 23fd444:	2b00      	cmp	r3, #0
 23fd446:	f47f aee1 	bne.w	23fd20c <_strtod_l+0xc4>
 23fd44a:	2a69      	cmp	r2, #105	; 0x69
 23fd44c:	d027      	beq.n	23fd49e <_strtod_l+0x356>
 23fd44e:	dc24      	bgt.n	23fd49a <_strtod_l+0x352>
 23fd450:	2a49      	cmp	r2, #73	; 0x49
 23fd452:	d024      	beq.n	23fd49e <_strtod_l+0x356>
 23fd454:	2a4e      	cmp	r2, #78	; 0x4e
 23fd456:	f47f aed9 	bne.w	23fd20c <_strtod_l+0xc4>
 23fd45a:	499f      	ldr	r1, [pc, #636]	; (23fd6d8 <_strtod_l+0x590>)
 23fd45c:	a817      	add	r0, sp, #92	; 0x5c
 23fd45e:	f001 f827 	bl	23fe4b0 <__match>
 23fd462:	2800      	cmp	r0, #0
 23fd464:	f43f aed2 	beq.w	23fd20c <_strtod_l+0xc4>
 23fd468:	9b17      	ldr	r3, [sp, #92]	; 0x5c
 23fd46a:	781b      	ldrb	r3, [r3, #0]
 23fd46c:	2b28      	cmp	r3, #40	; 0x28
 23fd46e:	d12d      	bne.n	23fd4cc <_strtod_l+0x384>
 23fd470:	aa1a      	add	r2, sp, #104	; 0x68
 23fd472:	499a      	ldr	r1, [pc, #616]	; (23fd6dc <_strtod_l+0x594>)
 23fd474:	a817      	add	r0, sp, #92	; 0x5c
 23fd476:	f001 f82f 	bl	23fe4d8 <__hexnan>
 23fd47a:	2805      	cmp	r0, #5
 23fd47c:	d126      	bne.n	23fd4cc <_strtod_l+0x384>
 23fd47e:	9b1b      	ldr	r3, [sp, #108]	; 0x6c
 23fd480:	f8dd a068 	ldr.w	sl, [sp, #104]	; 0x68
 23fd484:	f043 4bff 	orr.w	fp, r3, #2139095040	; 0x7f800000
 23fd488:	f44b 0be0 	orr.w	fp, fp, #7340032	; 0x700000
 23fd48c:	e6a0      	b.n	23fd1d0 <_strtod_l+0x88>
 23fd48e:	210a      	movs	r1, #10
 23fd490:	fb01 2e0e 	mla	lr, r1, lr, r2
 23fd494:	f1ae 0e30 	sub.w	lr, lr, #48	; 0x30
 23fd498:	e7b9      	b.n	23fd40e <_strtod_l+0x2c6>
 23fd49a:	2a6e      	cmp	r2, #110	; 0x6e
 23fd49c:	e7db      	b.n	23fd456 <_strtod_l+0x30e>
 23fd49e:	4990      	ldr	r1, [pc, #576]	; (23fd6e0 <_strtod_l+0x598>)
 23fd4a0:	a817      	add	r0, sp, #92	; 0x5c
 23fd4a2:	f001 f805 	bl	23fe4b0 <__match>
 23fd4a6:	2800      	cmp	r0, #0
 23fd4a8:	f43f aeb0 	beq.w	23fd20c <_strtod_l+0xc4>
 23fd4ac:	9b17      	ldr	r3, [sp, #92]	; 0x5c
 23fd4ae:	a817      	add	r0, sp, #92	; 0x5c
 23fd4b0:	498c      	ldr	r1, [pc, #560]	; (23fd6e4 <_strtod_l+0x59c>)
 23fd4b2:	3b01      	subs	r3, #1
 23fd4b4:	9317      	str	r3, [sp, #92]	; 0x5c
 23fd4b6:	f000 fffb 	bl	23fe4b0 <__match>
 23fd4ba:	b910      	cbnz	r0, 23fd4c2 <_strtod_l+0x37a>
 23fd4bc:	9b17      	ldr	r3, [sp, #92]	; 0x5c
 23fd4be:	3301      	adds	r3, #1
 23fd4c0:	9317      	str	r3, [sp, #92]	; 0x5c
 23fd4c2:	f8df b230 	ldr.w	fp, [pc, #560]	; 23fd6f4 <_strtod_l+0x5ac>
 23fd4c6:	f04f 0a00 	mov.w	sl, #0
 23fd4ca:	e681      	b.n	23fd1d0 <_strtod_l+0x88>
 23fd4cc:	4886      	ldr	r0, [pc, #536]	; (23fd6e8 <_strtod_l+0x5a0>)
 23fd4ce:	f001 fdab 	bl	23ff028 <nan>
 23fd4d2:	ec5b ab10 	vmov	sl, fp, d0
 23fd4d6:	e67b      	b.n	23fd1d0 <_strtod_l+0x88>
 23fd4d8:	9b05      	ldr	r3, [sp, #20]
 23fd4da:	2f00      	cmp	r7, #0
 23fd4dc:	bf08      	it	eq
 23fd4de:	462f      	moveq	r7, r5
 23fd4e0:	2d10      	cmp	r5, #16
 23fd4e2:	9807      	ldr	r0, [sp, #28]
 23fd4e4:	eba6 0303 	sub.w	r3, r6, r3
 23fd4e8:	46a8      	mov	r8, r5
 23fd4ea:	bfa8      	it	ge
 23fd4ec:	f04f 0810 	movge.w	r8, #16
 23fd4f0:	9306      	str	r3, [sp, #24]
 23fd4f2:	f7f8 fc63 	bl	23f5dbc <__aeabi_ui2d>
 23fd4f6:	2d09      	cmp	r5, #9
 23fd4f8:	4682      	mov	sl, r0
 23fd4fa:	468b      	mov	fp, r1
 23fd4fc:	dd13      	ble.n	23fd526 <_strtod_l+0x3de>
 23fd4fe:	4b7b      	ldr	r3, [pc, #492]	; (23fd6ec <_strtod_l+0x5a4>)
 23fd500:	eb03 03c8 	add.w	r3, r3, r8, lsl #3
 23fd504:	e953 2312 	ldrd	r2, r3, [r3, #-72]	; 0x48
 23fd508:	f7f8 fcd2 	bl	23f5eb0 <__aeabi_dmul>
 23fd50c:	4682      	mov	sl, r0
 23fd50e:	468b      	mov	fp, r1
 23fd510:	4648      	mov	r0, r9
 23fd512:	f7f8 fc53 	bl	23f5dbc <__aeabi_ui2d>
 23fd516:	4602      	mov	r2, r0
 23fd518:	460b      	mov	r3, r1
 23fd51a:	4650      	mov	r0, sl
 23fd51c:	4659      	mov	r1, fp
 23fd51e:	f7f8 fb11 	bl	23f5b44 <__adddf3>
 23fd522:	4682      	mov	sl, r0
 23fd524:	468b      	mov	fp, r1
 23fd526:	2d0f      	cmp	r5, #15
 23fd528:	dc38      	bgt.n	23fd59c <_strtod_l+0x454>
 23fd52a:	9b06      	ldr	r3, [sp, #24]
 23fd52c:	2b00      	cmp	r3, #0
 23fd52e:	f43f ae4f 	beq.w	23fd1d0 <_strtod_l+0x88>
 23fd532:	dd24      	ble.n	23fd57e <_strtod_l+0x436>
 23fd534:	2b16      	cmp	r3, #22
 23fd536:	dc0b      	bgt.n	23fd550 <_strtod_l+0x408>
 23fd538:	496c      	ldr	r1, [pc, #432]	; (23fd6ec <_strtod_l+0x5a4>)
 23fd53a:	4652      	mov	r2, sl
 23fd53c:	eb01 01c3 	add.w	r1, r1, r3, lsl #3
 23fd540:	465b      	mov	r3, fp
 23fd542:	e9d1 0100 	ldrd	r0, r1, [r1]
 23fd546:	f7f8 fcb3 	bl	23f5eb0 <__aeabi_dmul>
 23fd54a:	4682      	mov	sl, r0
 23fd54c:	468b      	mov	fp, r1
 23fd54e:	e63f      	b.n	23fd1d0 <_strtod_l+0x88>
 23fd550:	f1c5 0325 	rsb	r3, r5, #37	; 0x25
 23fd554:	9a06      	ldr	r2, [sp, #24]
 23fd556:	4293      	cmp	r3, r2
 23fd558:	db20      	blt.n	23fd59c <_strtod_l+0x454>
 23fd55a:	f1c5 050f 	rsb	r5, r5, #15
 23fd55e:	4c63      	ldr	r4, [pc, #396]	; (23fd6ec <_strtod_l+0x5a4>)
 23fd560:	4652      	mov	r2, sl
 23fd562:	465b      	mov	r3, fp
 23fd564:	eb04 01c5 	add.w	r1, r4, r5, lsl #3
 23fd568:	e9d1 0100 	ldrd	r0, r1, [r1]
 23fd56c:	f7f8 fca0 	bl	23f5eb0 <__aeabi_dmul>
 23fd570:	9b06      	ldr	r3, [sp, #24]
 23fd572:	1b5d      	subs	r5, r3, r5
 23fd574:	eb04 04c5 	add.w	r4, r4, r5, lsl #3
 23fd578:	e9d4 2300 	ldrd	r2, r3, [r4]
 23fd57c:	e7e3      	b.n	23fd546 <_strtod_l+0x3fe>
 23fd57e:	9b06      	ldr	r3, [sp, #24]
 23fd580:	3316      	adds	r3, #22
 23fd582:	db0b      	blt.n	23fd59c <_strtod_l+0x454>
 23fd584:	9b05      	ldr	r3, [sp, #20]
 23fd586:	4650      	mov	r0, sl
 23fd588:	4659      	mov	r1, fp
 23fd58a:	1b9e      	subs	r6, r3, r6
 23fd58c:	4b57      	ldr	r3, [pc, #348]	; (23fd6ec <_strtod_l+0x5a4>)
 23fd58e:	eb03 06c6 	add.w	r6, r3, r6, lsl #3
 23fd592:	e9d6 2300 	ldrd	r2, r3, [r6]
 23fd596:	f7f8 fdb5 	bl	23f6104 <__aeabi_ddiv>
 23fd59a:	e7d6      	b.n	23fd54a <_strtod_l+0x402>
 23fd59c:	eba5 0808 	sub.w	r8, r5, r8
 23fd5a0:	9b06      	ldr	r3, [sp, #24]
 23fd5a2:	4498      	add	r8, r3
 23fd5a4:	f1b8 0f00 	cmp.w	r8, #0
 23fd5a8:	dd74      	ble.n	23fd694 <_strtod_l+0x54c>
 23fd5aa:	f018 030f 	ands.w	r3, r8, #15
 23fd5ae:	d00a      	beq.n	23fd5c6 <_strtod_l+0x47e>
 23fd5b0:	494e      	ldr	r1, [pc, #312]	; (23fd6ec <_strtod_l+0x5a4>)
 23fd5b2:	4652      	mov	r2, sl
 23fd5b4:	eb01 01c3 	add.w	r1, r1, r3, lsl #3
 23fd5b8:	465b      	mov	r3, fp
 23fd5ba:	e9d1 0100 	ldrd	r0, r1, [r1]
 23fd5be:	f7f8 fc77 	bl	23f5eb0 <__aeabi_dmul>
 23fd5c2:	4682      	mov	sl, r0
 23fd5c4:	468b      	mov	fp, r1
 23fd5c6:	f038 080f 	bics.w	r8, r8, #15
 23fd5ca:	d04f      	beq.n	23fd66c <_strtod_l+0x524>
 23fd5cc:	f5b8 7f9a 	cmp.w	r8, #308	; 0x134
 23fd5d0:	dd22      	ble.n	23fd618 <_strtod_l+0x4d0>
 23fd5d2:	2500      	movs	r5, #0
 23fd5d4:	462e      	mov	r6, r5
 23fd5d6:	9507      	str	r5, [sp, #28]
 23fd5d8:	9505      	str	r5, [sp, #20]
 23fd5da:	2322      	movs	r3, #34	; 0x22
 23fd5dc:	f8df b114 	ldr.w	fp, [pc, #276]	; 23fd6f4 <_strtod_l+0x5ac>
 23fd5e0:	f04f 0a00 	mov.w	sl, #0
 23fd5e4:	6023      	str	r3, [r4, #0]
 23fd5e6:	9b07      	ldr	r3, [sp, #28]
 23fd5e8:	2b00      	cmp	r3, #0
 23fd5ea:	f43f adf1 	beq.w	23fd1d0 <_strtod_l+0x88>
 23fd5ee:	9918      	ldr	r1, [sp, #96]	; 0x60
 23fd5f0:	4620      	mov	r0, r4
 23fd5f2:	f001 f85f 	bl	23fe6b4 <_Bfree>
 23fd5f6:	9905      	ldr	r1, [sp, #20]
 23fd5f8:	4620      	mov	r0, r4
 23fd5fa:	f001 f85b 	bl	23fe6b4 <_Bfree>
 23fd5fe:	4631      	mov	r1, r6
 23fd600:	4620      	mov	r0, r4
 23fd602:	f001 f857 	bl	23fe6b4 <_Bfree>
 23fd606:	9907      	ldr	r1, [sp, #28]
 23fd608:	4620      	mov	r0, r4
 23fd60a:	f001 f853 	bl	23fe6b4 <_Bfree>
 23fd60e:	4629      	mov	r1, r5
 23fd610:	4620      	mov	r0, r4
 23fd612:	f001 f84f 	bl	23fe6b4 <_Bfree>
 23fd616:	e5db      	b.n	23fd1d0 <_strtod_l+0x88>
 23fd618:	4b35      	ldr	r3, [pc, #212]	; (23fd6f0 <_strtod_l+0x5a8>)
 23fd61a:	ea4f 1828 	mov.w	r8, r8, asr #4
 23fd61e:	4650      	mov	r0, sl
 23fd620:	4659      	mov	r1, fp
 23fd622:	9304      	str	r3, [sp, #16]
 23fd624:	2300      	movs	r3, #0
 23fd626:	4699      	mov	r9, r3
 23fd628:	f1b8 0f01 	cmp.w	r8, #1
 23fd62c:	dc21      	bgt.n	23fd672 <_strtod_l+0x52a>
 23fd62e:	b10b      	cbz	r3, 23fd634 <_strtod_l+0x4ec>
 23fd630:	4682      	mov	sl, r0
 23fd632:	468b      	mov	fp, r1
 23fd634:	4b2e      	ldr	r3, [pc, #184]	; (23fd6f0 <_strtod_l+0x5a8>)
 23fd636:	f1ab 7b54 	sub.w	fp, fp, #55574528	; 0x3500000
 23fd63a:	4652      	mov	r2, sl
 23fd63c:	eb03 09c9 	add.w	r9, r3, r9, lsl #3
 23fd640:	465b      	mov	r3, fp
 23fd642:	e9d9 0100 	ldrd	r0, r1, [r9]
 23fd646:	f7f8 fc33 	bl	23f5eb0 <__aeabi_dmul>
 23fd64a:	4b2a      	ldr	r3, [pc, #168]	; (23fd6f4 <_strtod_l+0x5ac>)
 23fd64c:	460a      	mov	r2, r1
 23fd64e:	4682      	mov	sl, r0
 23fd650:	400b      	ands	r3, r1
 23fd652:	4929      	ldr	r1, [pc, #164]	; (23fd6f8 <_strtod_l+0x5b0>)
 23fd654:	428b      	cmp	r3, r1
 23fd656:	d8bc      	bhi.n	23fd5d2 <_strtod_l+0x48a>
 23fd658:	f5a1 1180 	sub.w	r1, r1, #1048576	; 0x100000
 23fd65c:	428b      	cmp	r3, r1
 23fd65e:	bf86      	itte	hi
 23fd660:	f8df b098 	ldrhi.w	fp, [pc, #152]	; 23fd6fc <_strtod_l+0x5b4>
 23fd664:	f04f 3aff 	movhi.w	sl, #4294967295
 23fd668:	f102 7b54 	addls.w	fp, r2, #55574528	; 0x3500000
 23fd66c:	2300      	movs	r3, #0
 23fd66e:	9304      	str	r3, [sp, #16]
 23fd670:	e083      	b.n	23fd77a <_strtod_l+0x632>
 23fd672:	f018 0f01 	tst.w	r8, #1
 23fd676:	d005      	beq.n	23fd684 <_strtod_l+0x53c>
 23fd678:	9b04      	ldr	r3, [sp, #16]
 23fd67a:	e9d3 2300 	ldrd	r2, r3, [r3]
 23fd67e:	f7f8 fc17 	bl	23f5eb0 <__aeabi_dmul>
 23fd682:	2301      	movs	r3, #1
 23fd684:	9a04      	ldr	r2, [sp, #16]
 23fd686:	f109 0901 	add.w	r9, r9, #1
 23fd68a:	ea4f 0868 	mov.w	r8, r8, asr #1
 23fd68e:	3208      	adds	r2, #8
 23fd690:	9204      	str	r2, [sp, #16]
 23fd692:	e7c9      	b.n	23fd628 <_strtod_l+0x4e0>
 23fd694:	d0ea      	beq.n	23fd66c <_strtod_l+0x524>
 23fd696:	f1c8 0800 	rsb	r8, r8, #0
 23fd69a:	f018 020f 	ands.w	r2, r8, #15
 23fd69e:	d00a      	beq.n	23fd6b6 <_strtod_l+0x56e>
 23fd6a0:	4b12      	ldr	r3, [pc, #72]	; (23fd6ec <_strtod_l+0x5a4>)
 23fd6a2:	4650      	mov	r0, sl
 23fd6a4:	4659      	mov	r1, fp
 23fd6a6:	eb03 03c2 	add.w	r3, r3, r2, lsl #3
 23fd6aa:	e9d3 2300 	ldrd	r2, r3, [r3]
 23fd6ae:	f7f8 fd29 	bl	23f6104 <__aeabi_ddiv>
 23fd6b2:	4682      	mov	sl, r0
 23fd6b4:	468b      	mov	fp, r1
 23fd6b6:	ea5f 1828 	movs.w	r8, r8, asr #4
 23fd6ba:	d0d7      	beq.n	23fd66c <_strtod_l+0x524>
 23fd6bc:	f1b8 0f1f 	cmp.w	r8, #31
 23fd6c0:	dd1e      	ble.n	23fd700 <_strtod_l+0x5b8>
 23fd6c2:	2500      	movs	r5, #0
 23fd6c4:	462e      	mov	r6, r5
 23fd6c6:	9507      	str	r5, [sp, #28]
 23fd6c8:	9505      	str	r5, [sp, #20]
 23fd6ca:	2322      	movs	r3, #34	; 0x22
 23fd6cc:	f04f 0a00 	mov.w	sl, #0
 23fd6d0:	f04f 0b00 	mov.w	fp, #0
 23fd6d4:	6023      	str	r3, [r4, #0]
 23fd6d6:	e786      	b.n	23fd5e6 <_strtod_l+0x49e>
 23fd6d8:	023ffc46 	.word	0x023ffc46
 23fd6dc:	023ffc60 	.word	0x023ffc60
 23fd6e0:	023ffc3d 	.word	0x023ffc3d
 23fd6e4:	023ffc40 	.word	0x023ffc40
 23fd6e8:	023ff992 	.word	0x023ff992
 23fd6ec:	023ffef8 	.word	0x023ffef8
 23fd6f0:	023ffed0 	.word	0x023ffed0
 23fd6f4:	7ff00000 	.word	0x7ff00000
 23fd6f8:	7ca00000 	.word	0x7ca00000
 23fd6fc:	7fefffff 	.word	0x7fefffff
 23fd700:	f018 0310 	ands.w	r3, r8, #16
 23fd704:	4650      	mov	r0, sl
 23fd706:	4659      	mov	r1, fp
 23fd708:	f8df 93a8 	ldr.w	r9, [pc, #936]	; 23fdab4 <_strtod_l+0x96c>
 23fd70c:	bf18      	it	ne
 23fd70e:	236a      	movne	r3, #106	; 0x6a
 23fd710:	9304      	str	r3, [sp, #16]
 23fd712:	2300      	movs	r3, #0
 23fd714:	f018 0f01 	tst.w	r8, #1
 23fd718:	d004      	beq.n	23fd724 <_strtod_l+0x5dc>
 23fd71a:	e9d9 2300 	ldrd	r2, r3, [r9]
 23fd71e:	f7f8 fbc7 	bl	23f5eb0 <__aeabi_dmul>
 23fd722:	2301      	movs	r3, #1
 23fd724:	ea5f 0868 	movs.w	r8, r8, asr #1
 23fd728:	f109 0908 	add.w	r9, r9, #8
 23fd72c:	d1f2      	bne.n	23fd714 <_strtod_l+0x5cc>
 23fd72e:	b10b      	cbz	r3, 23fd734 <_strtod_l+0x5ec>
 23fd730:	4682      	mov	sl, r0
 23fd732:	468b      	mov	fp, r1
 23fd734:	9b04      	ldr	r3, [sp, #16]
 23fd736:	b1c3      	cbz	r3, 23fd76a <_strtod_l+0x622>
 23fd738:	f3cb 520a 	ubfx	r2, fp, #20, #11
 23fd73c:	4659      	mov	r1, fp
 23fd73e:	f1c2 036b 	rsb	r3, r2, #107	; 0x6b
 23fd742:	2b00      	cmp	r3, #0
 23fd744:	dd11      	ble.n	23fd76a <_strtod_l+0x622>
 23fd746:	2b1f      	cmp	r3, #31
 23fd748:	f340 8121 	ble.w	23fd98e <_strtod_l+0x846>
 23fd74c:	2b34      	cmp	r3, #52	; 0x34
 23fd74e:	f04f 0a00 	mov.w	sl, #0
 23fd752:	bfdb      	ittet	le
 23fd754:	f1c2 024b 	rsble	r2, r2, #75	; 0x4b
 23fd758:	f04f 33ff 	movle.w	r3, #4294967295
 23fd75c:	f04f 7b5c 	movgt.w	fp, #57671680	; 0x3700000
 23fd760:	fa03 f202 	lslle.w	r2, r3, r2
 23fd764:	bfd8      	it	le
 23fd766:	ea02 0b01 	andle.w	fp, r2, r1
 23fd76a:	2200      	movs	r2, #0
 23fd76c:	2300      	movs	r3, #0
 23fd76e:	4650      	mov	r0, sl
 23fd770:	4659      	mov	r1, fp
 23fd772:	f7f8 fe05 	bl	23f6380 <__aeabi_dcmpeq>
 23fd776:	2800      	cmp	r0, #0
 23fd778:	d1a3      	bne.n	23fd6c2 <_strtod_l+0x57a>
 23fd77a:	9b07      	ldr	r3, [sp, #28]
 23fd77c:	463a      	mov	r2, r7
 23fd77e:	9908      	ldr	r1, [sp, #32]
 23fd780:	4620      	mov	r0, r4
 23fd782:	9300      	str	r3, [sp, #0]
 23fd784:	462b      	mov	r3, r5
 23fd786:	f000 ffff 	bl	23fe788 <__s2b>
 23fd78a:	9007      	str	r0, [sp, #28]
 23fd78c:	2800      	cmp	r0, #0
 23fd78e:	f43f af20 	beq.w	23fd5d2 <_strtod_l+0x48a>
 23fd792:	9b05      	ldr	r3, [sp, #20]
 23fd794:	2500      	movs	r5, #0
 23fd796:	1b9e      	subs	r6, r3, r6
 23fd798:	9b06      	ldr	r3, [sp, #24]
 23fd79a:	2b00      	cmp	r3, #0
 23fd79c:	bfb4      	ite	lt
 23fd79e:	4633      	movlt	r3, r6
 23fd7a0:	2300      	movge	r3, #0
 23fd7a2:	462e      	mov	r6, r5
 23fd7a4:	930c      	str	r3, [sp, #48]	; 0x30
 23fd7a6:	9b06      	ldr	r3, [sp, #24]
 23fd7a8:	ea23 73e3 	bic.w	r3, r3, r3, asr #31
 23fd7ac:	9312      	str	r3, [sp, #72]	; 0x48
 23fd7ae:	9b07      	ldr	r3, [sp, #28]
 23fd7b0:	4620      	mov	r0, r4
 23fd7b2:	6859      	ldr	r1, [r3, #4]
 23fd7b4:	f000 ff3e 	bl	23fe634 <_Balloc>
 23fd7b8:	9005      	str	r0, [sp, #20]
 23fd7ba:	2800      	cmp	r0, #0
 23fd7bc:	f43f af0d 	beq.w	23fd5da <_strtod_l+0x492>
 23fd7c0:	9b07      	ldr	r3, [sp, #28]
 23fd7c2:	300c      	adds	r0, #12
 23fd7c4:	691a      	ldr	r2, [r3, #16]
 23fd7c6:	f103 010c 	add.w	r1, r3, #12
 23fd7ca:	3202      	adds	r2, #2
 23fd7cc:	0092      	lsls	r2, r2, #2
 23fd7ce:	f7ff fbd9 	bl	23fcf84 <memcpy>
 23fd7d2:	aa1a      	add	r2, sp, #104	; 0x68
 23fd7d4:	a919      	add	r1, sp, #100	; 0x64
 23fd7d6:	4620      	mov	r0, r4
 23fd7d8:	ec4b ab10 	vmov	d0, sl, fp
 23fd7dc:	f001 fb1c 	bl	23fee18 <__d2b>
 23fd7e0:	9018      	str	r0, [sp, #96]	; 0x60
 23fd7e2:	ec4b ab18 	vmov	d8, sl, fp
 23fd7e6:	2800      	cmp	r0, #0
 23fd7e8:	f43f aef7 	beq.w	23fd5da <_strtod_l+0x492>
 23fd7ec:	2101      	movs	r1, #1
 23fd7ee:	4620      	mov	r0, r4
 23fd7f0:	f001 f864 	bl	23fe8bc <__i2b>
 23fd7f4:	4606      	mov	r6, r0
 23fd7f6:	2800      	cmp	r0, #0
 23fd7f8:	f43f aeef 	beq.w	23fd5da <_strtod_l+0x492>
 23fd7fc:	9b19      	ldr	r3, [sp, #100]	; 0x64
 23fd7fe:	9904      	ldr	r1, [sp, #16]
 23fd800:	2b00      	cmp	r3, #0
 23fd802:	eba3 0801 	sub.w	r8, r3, r1
 23fd806:	bfa9      	itett	ge
 23fd808:	9a0c      	ldrge	r2, [sp, #48]	; 0x30
 23fd80a:	9a12      	ldrlt	r2, [sp, #72]	; 0x48
 23fd80c:	eb03 0902 	addge.w	r9, r3, r2
 23fd810:	9f12      	ldrge	r7, [sp, #72]	; 0x48
 23fd812:	bfb8      	it	lt
 23fd814:	1ad7      	sublt	r7, r2, r3
 23fd816:	9a1a      	ldr	r2, [sp, #104]	; 0x68
 23fd818:	4ba1      	ldr	r3, [pc, #644]	; (23fdaa0 <_strtod_l+0x958>)
 23fd81a:	4490      	add	r8, r2
 23fd81c:	bfb8      	it	lt
 23fd81e:	f8dd 9030 	ldrlt.w	r9, [sp, #48]	; 0x30
 23fd822:	f1c2 0236 	rsb	r2, r2, #54	; 0x36
 23fd826:	f108 38ff 	add.w	r8, r8, #4294967295
 23fd82a:	4598      	cmp	r8, r3
 23fd82c:	f280 80c3 	bge.w	23fd9b6 <_strtod_l+0x86e>
 23fd830:	eba3 0308 	sub.w	r3, r3, r8
 23fd834:	2101      	movs	r1, #1
 23fd836:	2b1f      	cmp	r3, #31
 23fd838:	eba2 0203 	sub.w	r2, r2, r3
 23fd83c:	f300 80ae 	bgt.w	23fd99c <_strtod_l+0x854>
 23fd840:	fa01 f303 	lsl.w	r3, r1, r3
 23fd844:	930d      	str	r3, [sp, #52]	; 0x34
 23fd846:	2300      	movs	r3, #0
 23fd848:	9308      	str	r3, [sp, #32]
 23fd84a:	eb09 0802 	add.w	r8, r9, r2
 23fd84e:	9b04      	ldr	r3, [sp, #16]
 23fd850:	4417      	add	r7, r2
 23fd852:	45c1      	cmp	r9, r8
 23fd854:	441f      	add	r7, r3
 23fd856:	464b      	mov	r3, r9
 23fd858:	bfa8      	it	ge
 23fd85a:	4643      	movge	r3, r8
 23fd85c:	42bb      	cmp	r3, r7
 23fd85e:	bfa8      	it	ge
 23fd860:	463b      	movge	r3, r7
 23fd862:	2b00      	cmp	r3, #0
 23fd864:	bfc2      	ittt	gt
 23fd866:	eba8 0803 	subgt.w	r8, r8, r3
 23fd86a:	1aff      	subgt	r7, r7, r3
 23fd86c:	eba9 0903 	subgt.w	r9, r9, r3
 23fd870:	9b0c      	ldr	r3, [sp, #48]	; 0x30
 23fd872:	2b00      	cmp	r3, #0
 23fd874:	dd17      	ble.n	23fd8a6 <_strtod_l+0x75e>
 23fd876:	4631      	mov	r1, r6
 23fd878:	461a      	mov	r2, r3
 23fd87a:	4620      	mov	r0, r4
 23fd87c:	f001 f8dc 	bl	23fea38 <__pow5mult>
 23fd880:	4606      	mov	r6, r0
 23fd882:	2800      	cmp	r0, #0
 23fd884:	f43f aea9 	beq.w	23fd5da <_strtod_l+0x492>
 23fd888:	4601      	mov	r1, r0
 23fd88a:	9a18      	ldr	r2, [sp, #96]	; 0x60
 23fd88c:	4620      	mov	r0, r4
 23fd88e:	f001 f82b 	bl	23fe8e8 <__multiply>
 23fd892:	900b      	str	r0, [sp, #44]	; 0x2c
 23fd894:	2800      	cmp	r0, #0
 23fd896:	f43f aea0 	beq.w	23fd5da <_strtod_l+0x492>
 23fd89a:	9918      	ldr	r1, [sp, #96]	; 0x60
 23fd89c:	4620      	mov	r0, r4
 23fd89e:	f000 ff09 	bl	23fe6b4 <_Bfree>
 23fd8a2:	9b0b      	ldr	r3, [sp, #44]	; 0x2c
 23fd8a4:	9318      	str	r3, [sp, #96]	; 0x60
 23fd8a6:	f1b8 0f00 	cmp.w	r8, #0
 23fd8aa:	f300 8089 	bgt.w	23fd9c0 <_strtod_l+0x878>
 23fd8ae:	9b06      	ldr	r3, [sp, #24]
 23fd8b0:	2b00      	cmp	r3, #0
 23fd8b2:	dd08      	ble.n	23fd8c6 <_strtod_l+0x77e>
 23fd8b4:	9a12      	ldr	r2, [sp, #72]	; 0x48
 23fd8b6:	4620      	mov	r0, r4
 23fd8b8:	9905      	ldr	r1, [sp, #20]
 23fd8ba:	f001 f8bd 	bl	23fea38 <__pow5mult>
 23fd8be:	9005      	str	r0, [sp, #20]
 23fd8c0:	2800      	cmp	r0, #0
 23fd8c2:	f43f ae8a 	beq.w	23fd5da <_strtod_l+0x492>
 23fd8c6:	2f00      	cmp	r7, #0
 23fd8c8:	dd08      	ble.n	23fd8dc <_strtod_l+0x794>
 23fd8ca:	463a      	mov	r2, r7
 23fd8cc:	9905      	ldr	r1, [sp, #20]
 23fd8ce:	4620      	mov	r0, r4
 23fd8d0:	f001 f90c 	bl	23feaec <__lshift>
 23fd8d4:	9005      	str	r0, [sp, #20]
 23fd8d6:	2800      	cmp	r0, #0
 23fd8d8:	f43f ae7f 	beq.w	23fd5da <_strtod_l+0x492>
 23fd8dc:	f1b9 0f00 	cmp.w	r9, #0
 23fd8e0:	dd08      	ble.n	23fd8f4 <_strtod_l+0x7ac>
 23fd8e2:	4631      	mov	r1, r6
 23fd8e4:	464a      	mov	r2, r9
 23fd8e6:	4620      	mov	r0, r4
 23fd8e8:	f001 f900 	bl	23feaec <__lshift>
 23fd8ec:	4606      	mov	r6, r0
 23fd8ee:	2800      	cmp	r0, #0
 23fd8f0:	f43f ae73 	beq.w	23fd5da <_strtod_l+0x492>
 23fd8f4:	9a05      	ldr	r2, [sp, #20]
 23fd8f6:	4620      	mov	r0, r4
 23fd8f8:	9918      	ldr	r1, [sp, #96]	; 0x60
 23fd8fa:	f001 f983 	bl	23fec04 <__mdiff>
 23fd8fe:	4605      	mov	r5, r0
 23fd900:	2800      	cmp	r0, #0
 23fd902:	f43f ae6a 	beq.w	23fd5da <_strtod_l+0x492>
 23fd906:	68c3      	ldr	r3, [r0, #12]
 23fd908:	4631      	mov	r1, r6
 23fd90a:	930b      	str	r3, [sp, #44]	; 0x2c
 23fd90c:	2300      	movs	r3, #0
 23fd90e:	60c3      	str	r3, [r0, #12]
 23fd910:	f001 f95c 	bl	23febcc <__mcmp>
 23fd914:	2800      	cmp	r0, #0
 23fd916:	da5d      	bge.n	23fd9d4 <_strtod_l+0x88c>
 23fd918:	9b0b      	ldr	r3, [sp, #44]	; 0x2c
 23fd91a:	ea53 030a 	orrs.w	r3, r3, sl
 23fd91e:	d17f      	bne.n	23fda20 <_strtod_l+0x8d8>
 23fd920:	f3cb 0313 	ubfx	r3, fp, #0, #20
 23fd924:	2b00      	cmp	r3, #0
 23fd926:	d17b      	bne.n	23fda20 <_strtod_l+0x8d8>
 23fd928:	f02b 4300 	bic.w	r3, fp, #2147483648	; 0x80000000
 23fd92c:	0d1b      	lsrs	r3, r3, #20
 23fd92e:	051b      	lsls	r3, r3, #20
 23fd930:	f1b3 6fd6 	cmp.w	r3, #112197632	; 0x6b00000
 23fd934:	d974      	bls.n	23fda20 <_strtod_l+0x8d8>
 23fd936:	696b      	ldr	r3, [r5, #20]
 23fd938:	b913      	cbnz	r3, 23fd940 <_strtod_l+0x7f8>
 23fd93a:	692b      	ldr	r3, [r5, #16]
 23fd93c:	2b01      	cmp	r3, #1
 23fd93e:	dd6f      	ble.n	23fda20 <_strtod_l+0x8d8>
 23fd940:	4629      	mov	r1, r5
 23fd942:	2201      	movs	r2, #1
 23fd944:	4620      	mov	r0, r4
 23fd946:	f001 f8d1 	bl	23feaec <__lshift>
 23fd94a:	4631      	mov	r1, r6
 23fd94c:	4605      	mov	r5, r0
 23fd94e:	f001 f93d 	bl	23febcc <__mcmp>
 23fd952:	2800      	cmp	r0, #0
 23fd954:	dd64      	ble.n	23fda20 <_strtod_l+0x8d8>
 23fd956:	9904      	ldr	r1, [sp, #16]
 23fd958:	465b      	mov	r3, fp
 23fd95a:	4a52      	ldr	r2, [pc, #328]	; (23fdaa4 <_strtod_l+0x95c>)
 23fd95c:	2900      	cmp	r1, #0
 23fd95e:	d07f      	beq.n	23fda60 <_strtod_l+0x918>
 23fd960:	ea02 010b 	and.w	r1, r2, fp
 23fd964:	f1b1 6fd6 	cmp.w	r1, #112197632	; 0x6b00000
 23fd968:	dc7a      	bgt.n	23fda60 <_strtod_l+0x918>
 23fd96a:	f1b1 7f5c 	cmp.w	r1, #57671680	; 0x3700000
 23fd96e:	f77f aeac 	ble.w	23fd6ca <_strtod_l+0x582>
 23fd972:	4b4d      	ldr	r3, [pc, #308]	; (23fdaa8 <_strtod_l+0x960>)
 23fd974:	4650      	mov	r0, sl
 23fd976:	4659      	mov	r1, fp
 23fd978:	2200      	movs	r2, #0
 23fd97a:	f7f8 fa99 	bl	23f5eb0 <__aeabi_dmul>
 23fd97e:	460b      	mov	r3, r1
 23fd980:	4682      	mov	sl, r0
 23fd982:	468b      	mov	fp, r1
 23fd984:	4303      	orrs	r3, r0
 23fd986:	bf04      	itt	eq
 23fd988:	2322      	moveq	r3, #34	; 0x22
 23fd98a:	6023      	streq	r3, [r4, #0]
 23fd98c:	e62f      	b.n	23fd5ee <_strtod_l+0x4a6>
 23fd98e:	f04f 32ff 	mov.w	r2, #4294967295
 23fd992:	fa02 f303 	lsl.w	r3, r2, r3
 23fd996:	ea03 0a0a 	and.w	sl, r3, sl
 23fd99a:	e6e6      	b.n	23fd76a <_strtod_l+0x622>
 23fd99c:	f1c8 487f 	rsb	r8, r8, #4278190080	; 0xff000000
 23fd9a0:	910d      	str	r1, [sp, #52]	; 0x34
 23fd9a2:	f508 087f 	add.w	r8, r8, #16711680	; 0xff0000
 23fd9a6:	f508 487b 	add.w	r8, r8, #64256	; 0xfb00
 23fd9aa:	f108 08e2 	add.w	r8, r8, #226	; 0xe2
 23fd9ae:	fa01 f308 	lsl.w	r3, r1, r8
 23fd9b2:	9308      	str	r3, [sp, #32]
 23fd9b4:	e749      	b.n	23fd84a <_strtod_l+0x702>
 23fd9b6:	2300      	movs	r3, #0
 23fd9b8:	9308      	str	r3, [sp, #32]
 23fd9ba:	2301      	movs	r3, #1
 23fd9bc:	930d      	str	r3, [sp, #52]	; 0x34
 23fd9be:	e744      	b.n	23fd84a <_strtod_l+0x702>
 23fd9c0:	4642      	mov	r2, r8
 23fd9c2:	9918      	ldr	r1, [sp, #96]	; 0x60
 23fd9c4:	4620      	mov	r0, r4
 23fd9c6:	f001 f891 	bl	23feaec <__lshift>
 23fd9ca:	9018      	str	r0, [sp, #96]	; 0x60
 23fd9cc:	2800      	cmp	r0, #0
 23fd9ce:	f47f af6e 	bne.w	23fd8ae <_strtod_l+0x766>
 23fd9d2:	e602      	b.n	23fd5da <_strtod_l+0x492>
 23fd9d4:	465f      	mov	r7, fp
 23fd9d6:	d16f      	bne.n	23fdab8 <_strtod_l+0x970>
 23fd9d8:	9a0b      	ldr	r2, [sp, #44]	; 0x2c
 23fd9da:	f3cb 0313 	ubfx	r3, fp, #0, #20
 23fd9de:	b342      	cbz	r2, 23fda32 <_strtod_l+0x8ea>
 23fd9e0:	4a32      	ldr	r2, [pc, #200]	; (23fdaac <_strtod_l+0x964>)
 23fd9e2:	4293      	cmp	r3, r2
 23fd9e4:	d128      	bne.n	23fda38 <_strtod_l+0x8f0>
 23fd9e6:	9b04      	ldr	r3, [sp, #16]
 23fd9e8:	4651      	mov	r1, sl
 23fd9ea:	b1eb      	cbz	r3, 23fda28 <_strtod_l+0x8e0>
 23fd9ec:	4b2d      	ldr	r3, [pc, #180]	; (23fdaa4 <_strtod_l+0x95c>)
 23fd9ee:	f04f 32ff 	mov.w	r2, #4294967295
 23fd9f2:	403b      	ands	r3, r7
 23fd9f4:	f1b3 6fd4 	cmp.w	r3, #111149056	; 0x6a00000
 23fd9f8:	d819      	bhi.n	23fda2e <_strtod_l+0x8e6>
 23fd9fa:	0d1b      	lsrs	r3, r3, #20
 23fd9fc:	f1c3 036b 	rsb	r3, r3, #107	; 0x6b
 23fda00:	fa02 f303 	lsl.w	r3, r2, r3
 23fda04:	4299      	cmp	r1, r3
 23fda06:	d117      	bne.n	23fda38 <_strtod_l+0x8f0>
 23fda08:	4b29      	ldr	r3, [pc, #164]	; (23fdab0 <_strtod_l+0x968>)
 23fda0a:	429f      	cmp	r7, r3
 23fda0c:	d102      	bne.n	23fda14 <_strtod_l+0x8cc>
 23fda0e:	3101      	adds	r1, #1
 23fda10:	f43f ade3 	beq.w	23fd5da <_strtod_l+0x492>
 23fda14:	4b23      	ldr	r3, [pc, #140]	; (23fdaa4 <_strtod_l+0x95c>)
 23fda16:	f04f 0a00 	mov.w	sl, #0
 23fda1a:	403b      	ands	r3, r7
 23fda1c:	f503 1b80 	add.w	fp, r3, #1048576	; 0x100000
 23fda20:	9b04      	ldr	r3, [sp, #16]
 23fda22:	2b00      	cmp	r3, #0
 23fda24:	d1a5      	bne.n	23fd972 <_strtod_l+0x82a>
 23fda26:	e5e2      	b.n	23fd5ee <_strtod_l+0x4a6>
 23fda28:	f04f 33ff 	mov.w	r3, #4294967295
 23fda2c:	e7ea      	b.n	23fda04 <_strtod_l+0x8bc>
 23fda2e:	4613      	mov	r3, r2
 23fda30:	e7e8      	b.n	23fda04 <_strtod_l+0x8bc>
 23fda32:	ea53 030a 	orrs.w	r3, r3, sl
 23fda36:	d08e      	beq.n	23fd956 <_strtod_l+0x80e>
 23fda38:	9b08      	ldr	r3, [sp, #32]
 23fda3a:	b1db      	cbz	r3, 23fda74 <_strtod_l+0x92c>
 23fda3c:	423b      	tst	r3, r7
 23fda3e:	d0ef      	beq.n	23fda20 <_strtod_l+0x8d8>
 23fda40:	9b0b      	ldr	r3, [sp, #44]	; 0x2c
 23fda42:	4650      	mov	r0, sl
 23fda44:	9a04      	ldr	r2, [sp, #16]
 23fda46:	4659      	mov	r1, fp
 23fda48:	b1c3      	cbz	r3, 23fda7c <_strtod_l+0x934>
 23fda4a:	f7ff fb5e 	bl	23fd10a <sulp>
 23fda4e:	4602      	mov	r2, r0
 23fda50:	460b      	mov	r3, r1
 23fda52:	ec51 0b18 	vmov	r0, r1, d8
 23fda56:	f7f8 f875 	bl	23f5b44 <__adddf3>
 23fda5a:	4682      	mov	sl, r0
 23fda5c:	468b      	mov	fp, r1
 23fda5e:	e7df      	b.n	23fda20 <_strtod_l+0x8d8>
 23fda60:	4013      	ands	r3, r2
 23fda62:	f04f 3aff 	mov.w	sl, #4294967295
 23fda66:	f5a3 1380 	sub.w	r3, r3, #1048576	; 0x100000
 23fda6a:	ea6f 5b13 	mvn.w	fp, r3, lsr #20
 23fda6e:	ea6f 5b0b 	mvn.w	fp, fp, lsl #20
 23fda72:	e7d5      	b.n	23fda20 <_strtod_l+0x8d8>
 23fda74:	9b0d      	ldr	r3, [sp, #52]	; 0x34
 23fda76:	ea13 0f0a 	tst.w	r3, sl
 23fda7a:	e7e0      	b.n	23fda3e <_strtod_l+0x8f6>
 23fda7c:	f7ff fb45 	bl	23fd10a <sulp>
 23fda80:	4602      	mov	r2, r0
 23fda82:	460b      	mov	r3, r1
 23fda84:	ec51 0b18 	vmov	r0, r1, d8
 23fda88:	f7f8 f85a 	bl	23f5b40 <__aeabi_dsub>
 23fda8c:	2200      	movs	r2, #0
 23fda8e:	2300      	movs	r3, #0
 23fda90:	4682      	mov	sl, r0
 23fda92:	468b      	mov	fp, r1
 23fda94:	f7f8 fc74 	bl	23f6380 <__aeabi_dcmpeq>
 23fda98:	2800      	cmp	r0, #0
 23fda9a:	d0c1      	beq.n	23fda20 <_strtod_l+0x8d8>
 23fda9c:	e615      	b.n	23fd6ca <_strtod_l+0x582>
 23fda9e:	bf00      	nop
 23fdaa0:	fffffc02 	.word	0xfffffc02
 23fdaa4:	7ff00000 	.word	0x7ff00000
 23fdaa8:	39500000 	.word	0x39500000
 23fdaac:	000fffff 	.word	0x000fffff
 23fdab0:	7fefffff 	.word	0x7fefffff
 23fdab4:	023ffc78 	.word	0x023ffc78
 23fdab8:	4631      	mov	r1, r6
 23fdaba:	4628      	mov	r0, r5
 23fdabc:	f001 fa08 	bl	23feed0 <__ratio>
 23fdac0:	2200      	movs	r2, #0
 23fdac2:	f04f 4380 	mov.w	r3, #1073741824	; 0x40000000
 23fdac6:	ee10 0a10 	vmov	r0, s0
 23fdaca:	ec59 8b10 	vmov	r8, r9, d0
 23fdace:	4649      	mov	r1, r9
 23fdad0:	f7f8 fc6a 	bl	23f63a8 <__aeabi_dcmple>
 23fdad4:	2800      	cmp	r0, #0
 23fdad6:	d07a      	beq.n	23fdbce <_strtod_l+0xa86>
 23fdad8:	9b0b      	ldr	r3, [sp, #44]	; 0x2c
 23fdada:	2b00      	cmp	r3, #0
 23fdadc:	d04a      	beq.n	23fdb74 <_strtod_l+0xa2c>
 23fdade:	2200      	movs	r2, #0
 23fdae0:	4b93      	ldr	r3, [pc, #588]	; (23fdd30 <_strtod_l+0xbe8>)
 23fdae2:	f04f 0800 	mov.w	r8, #0
 23fdae6:	f8df 9248 	ldr.w	r9, [pc, #584]	; 23fdd30 <_strtod_l+0xbe8>
 23fdaea:	e9cd 2308 	strd	r2, r3, [sp, #32]
 23fdaee:	4b91      	ldr	r3, [pc, #580]	; (23fdd34 <_strtod_l+0xbec>)
 23fdaf0:	403b      	ands	r3, r7
 23fdaf2:	930d      	str	r3, [sp, #52]	; 0x34
 23fdaf4:	9a0d      	ldr	r2, [sp, #52]	; 0x34
 23fdaf6:	4b90      	ldr	r3, [pc, #576]	; (23fdd38 <_strtod_l+0xbf0>)
 23fdaf8:	429a      	cmp	r2, r3
 23fdafa:	f040 80b0 	bne.w	23fdc5e <_strtod_l+0xb16>
 23fdafe:	f1a7 7b54 	sub.w	fp, r7, #55574528	; 0x3500000
 23fdb02:	e9dd 0108 	ldrd	r0, r1, [sp, #32]
 23fdb06:	ec4b ab10 	vmov	d0, sl, fp
 23fdb0a:	e9cd 0108 	strd	r0, r1, [sp, #32]
 23fdb0e:	f001 f909 	bl	23fed24 <__ulp>
 23fdb12:	e9dd 0108 	ldrd	r0, r1, [sp, #32]
 23fdb16:	ec53 2b10 	vmov	r2, r3, d0
 23fdb1a:	f7f8 f9c9 	bl	23f5eb0 <__aeabi_dmul>
 23fdb1e:	4652      	mov	r2, sl
 23fdb20:	465b      	mov	r3, fp
 23fdb22:	f7f8 f80f 	bl	23f5b44 <__adddf3>
 23fdb26:	460b      	mov	r3, r1
 23fdb28:	4982      	ldr	r1, [pc, #520]	; (23fdd34 <_strtod_l+0xbec>)
 23fdb2a:	4682      	mov	sl, r0
 23fdb2c:	4a83      	ldr	r2, [pc, #524]	; (23fdd3c <_strtod_l+0xbf4>)
 23fdb2e:	4019      	ands	r1, r3
 23fdb30:	4291      	cmp	r1, r2
 23fdb32:	d960      	bls.n	23fdbf6 <_strtod_l+0xaae>
 23fdb34:	ee18 3a90 	vmov	r3, s17
 23fdb38:	f102 7254 	add.w	r2, r2, #55574528	; 0x3500000
 23fdb3c:	4293      	cmp	r3, r2
 23fdb3e:	d104      	bne.n	23fdb4a <_strtod_l+0xa02>
 23fdb40:	ee18 3a10 	vmov	r3, s16
 23fdb44:	3301      	adds	r3, #1
 23fdb46:	f43f ad48 	beq.w	23fd5da <_strtod_l+0x492>
 23fdb4a:	f8df b1fc 	ldr.w	fp, [pc, #508]	; 23fdd48 <_strtod_l+0xc00>
 23fdb4e:	f04f 3aff 	mov.w	sl, #4294967295
 23fdb52:	9918      	ldr	r1, [sp, #96]	; 0x60
 23fdb54:	4620      	mov	r0, r4
 23fdb56:	f000 fdad 	bl	23fe6b4 <_Bfree>
 23fdb5a:	9905      	ldr	r1, [sp, #20]
 23fdb5c:	4620      	mov	r0, r4
 23fdb5e:	f000 fda9 	bl	23fe6b4 <_Bfree>
 23fdb62:	4631      	mov	r1, r6
 23fdb64:	4620      	mov	r0, r4
 23fdb66:	f000 fda5 	bl	23fe6b4 <_Bfree>
 23fdb6a:	4629      	mov	r1, r5
 23fdb6c:	4620      	mov	r0, r4
 23fdb6e:	f000 fda1 	bl	23fe6b4 <_Bfree>
 23fdb72:	e61c      	b.n	23fd7ae <_strtod_l+0x666>
 23fdb74:	f1ba 0f00 	cmp.w	sl, #0
 23fdb78:	d11b      	bne.n	23fdbb2 <_strtod_l+0xa6a>
 23fdb7a:	f3cb 0313 	ubfx	r3, fp, #0, #20
 23fdb7e:	b9f3      	cbnz	r3, 23fdbbe <_strtod_l+0xa76>
 23fdb80:	2200      	movs	r2, #0
 23fdb82:	4b6b      	ldr	r3, [pc, #428]	; (23fdd30 <_strtod_l+0xbe8>)
 23fdb84:	4640      	mov	r0, r8
 23fdb86:	4649      	mov	r1, r9
 23fdb88:	f7f8 fc04 	bl	23f6394 <__aeabi_dcmplt>
 23fdb8c:	b9d0      	cbnz	r0, 23fdbc4 <_strtod_l+0xa7c>
 23fdb8e:	4640      	mov	r0, r8
 23fdb90:	4649      	mov	r1, r9
 23fdb92:	2200      	movs	r2, #0
 23fdb94:	4b6a      	ldr	r3, [pc, #424]	; (23fdd40 <_strtod_l+0xbf8>)
 23fdb96:	f7f8 f98b 	bl	23f5eb0 <__aeabi_dmul>
 23fdb9a:	4680      	mov	r8, r0
 23fdb9c:	4689      	mov	r9, r1
 23fdb9e:	f109 4300 	add.w	r3, r9, #2147483648	; 0x80000000
 23fdba2:	f8cd 8050 	str.w	r8, [sp, #80]	; 0x50
 23fdba6:	9315      	str	r3, [sp, #84]	; 0x54
 23fdba8:	e9dd 2314 	ldrd	r2, r3, [sp, #80]	; 0x50
 23fdbac:	e9cd 2308 	strd	r2, r3, [sp, #32]
 23fdbb0:	e79d      	b.n	23fdaee <_strtod_l+0x9a6>
 23fdbb2:	f1ba 0f01 	cmp.w	sl, #1
 23fdbb6:	d102      	bne.n	23fdbbe <_strtod_l+0xa76>
 23fdbb8:	2f00      	cmp	r7, #0
 23fdbba:	f43f ad86 	beq.w	23fd6ca <_strtod_l+0x582>
 23fdbbe:	2200      	movs	r2, #0
 23fdbc0:	4b60      	ldr	r3, [pc, #384]	; (23fdd44 <_strtod_l+0xbfc>)
 23fdbc2:	e78e      	b.n	23fdae2 <_strtod_l+0x99a>
 23fdbc4:	f04f 0800 	mov.w	r8, #0
 23fdbc8:	f8df 9174 	ldr.w	r9, [pc, #372]	; 23fdd40 <_strtod_l+0xbf8>
 23fdbcc:	e7e7      	b.n	23fdb9e <_strtod_l+0xa56>
 23fdbce:	4b5c      	ldr	r3, [pc, #368]	; (23fdd40 <_strtod_l+0xbf8>)
 23fdbd0:	4640      	mov	r0, r8
 23fdbd2:	4649      	mov	r1, r9
 23fdbd4:	2200      	movs	r2, #0
 23fdbd6:	f7f8 f96b 	bl	23f5eb0 <__aeabi_dmul>
 23fdbda:	9b0b      	ldr	r3, [sp, #44]	; 0x2c
 23fdbdc:	4680      	mov	r8, r0
 23fdbde:	4689      	mov	r9, r1
 23fdbe0:	b933      	cbnz	r3, 23fdbf0 <_strtod_l+0xaa8>
 23fdbe2:	f101 4300 	add.w	r3, r1, #2147483648	; 0x80000000
 23fdbe6:	900e      	str	r0, [sp, #56]	; 0x38
 23fdbe8:	930f      	str	r3, [sp, #60]	; 0x3c
 23fdbea:	e9dd 230e 	ldrd	r2, r3, [sp, #56]	; 0x38
 23fdbee:	e7dd      	b.n	23fdbac <_strtod_l+0xa64>
 23fdbf0:	e9cd 890e 	strd	r8, r9, [sp, #56]	; 0x38
 23fdbf4:	e7f9      	b.n	23fdbea <_strtod_l+0xaa2>
 23fdbf6:	f103 7b54 	add.w	fp, r3, #55574528	; 0x3500000
 23fdbfa:	9b04      	ldr	r3, [sp, #16]
 23fdbfc:	2b00      	cmp	r3, #0
 23fdbfe:	d1a8      	bne.n	23fdb52 <_strtod_l+0xa0a>
 23fdc00:	f02b 4300 	bic.w	r3, fp, #2147483648	; 0x80000000
 23fdc04:	9a0d      	ldr	r2, [sp, #52]	; 0x34
 23fdc06:	0d1b      	lsrs	r3, r3, #20
 23fdc08:	051b      	lsls	r3, r3, #20
 23fdc0a:	429a      	cmp	r2, r3
 23fdc0c:	d1a1      	bne.n	23fdb52 <_strtod_l+0xa0a>
 23fdc0e:	4640      	mov	r0, r8
 23fdc10:	4649      	mov	r1, r9
 23fdc12:	f7f8 fe4b 	bl	23f68ac <__aeabi_d2lz>
 23fdc16:	f7f8 f91d 	bl	23f5e54 <__aeabi_l2d>
 23fdc1a:	4602      	mov	r2, r0
 23fdc1c:	460b      	mov	r3, r1
 23fdc1e:	4640      	mov	r0, r8
 23fdc20:	4649      	mov	r1, r9
 23fdc22:	f7f7 ff8d 	bl	23f5b40 <__aeabi_dsub>
 23fdc26:	f3cb 0313 	ubfx	r3, fp, #0, #20
 23fdc2a:	9a0b      	ldr	r2, [sp, #44]	; 0x2c
 23fdc2c:	4680      	mov	r8, r0
 23fdc2e:	ea43 030a 	orr.w	r3, r3, sl
 23fdc32:	4689      	mov	r9, r1
 23fdc34:	4313      	orrs	r3, r2
 23fdc36:	d055      	beq.n	23fdce4 <_strtod_l+0xb9c>
 23fdc38:	a335      	add	r3, pc, #212	; (adr r3, 23fdd10 <_strtod_l+0xbc8>)
 23fdc3a:	e9d3 2300 	ldrd	r2, r3, [r3]
 23fdc3e:	f7f8 fba9 	bl	23f6394 <__aeabi_dcmplt>
 23fdc42:	2800      	cmp	r0, #0
 23fdc44:	f47f acd3 	bne.w	23fd5ee <_strtod_l+0x4a6>
 23fdc48:	4640      	mov	r0, r8
 23fdc4a:	4649      	mov	r1, r9
 23fdc4c:	a332      	add	r3, pc, #200	; (adr r3, 23fdd18 <_strtod_l+0xbd0>)
 23fdc4e:	e9d3 2300 	ldrd	r2, r3, [r3]
 23fdc52:	f7f8 fbbd 	bl	23f63d0 <__aeabi_dcmpgt>
 23fdc56:	2800      	cmp	r0, #0
 23fdc58:	f43f af7b 	beq.w	23fdb52 <_strtod_l+0xa0a>
 23fdc5c:	e4c7      	b.n	23fd5ee <_strtod_l+0x4a6>
 23fdc5e:	9b04      	ldr	r3, [sp, #16]
 23fdc60:	b333      	cbz	r3, 23fdcb0 <_strtod_l+0xb68>
 23fdc62:	9b0d      	ldr	r3, [sp, #52]	; 0x34
 23fdc64:	f1b3 6fd4 	cmp.w	r3, #111149056	; 0x6a00000
 23fdc68:	d822      	bhi.n	23fdcb0 <_strtod_l+0xb68>
 23fdc6a:	4640      	mov	r0, r8
 23fdc6c:	4649      	mov	r1, r9
 23fdc6e:	a32c      	add	r3, pc, #176	; (adr r3, 23fdd20 <_strtod_l+0xbd8>)
 23fdc70:	e9d3 2300 	ldrd	r2, r3, [r3]
 23fdc74:	f7f8 fb98 	bl	23f63a8 <__aeabi_dcmple>
 23fdc78:	b1a0      	cbz	r0, 23fdca4 <_strtod_l+0xb5c>
 23fdc7a:	4649      	mov	r1, r9
 23fdc7c:	4640      	mov	r0, r8
 23fdc7e:	f7f8 fde3 	bl	23f6848 <__aeabi_d2uiz>
 23fdc82:	2801      	cmp	r0, #1
 23fdc84:	bf38      	it	cc
 23fdc86:	2001      	movcc	r0, #1
 23fdc88:	f7f8 f898 	bl	23f5dbc <__aeabi_ui2d>
 23fdc8c:	9b0b      	ldr	r3, [sp, #44]	; 0x2c
 23fdc8e:	4680      	mov	r8, r0
 23fdc90:	4689      	mov	r9, r1
 23fdc92:	bb23      	cbnz	r3, 23fdcde <_strtod_l+0xb96>
 23fdc94:	f101 4300 	add.w	r3, r1, #2147483648	; 0x80000000
 23fdc98:	9010      	str	r0, [sp, #64]	; 0x40
 23fdc9a:	9311      	str	r3, [sp, #68]	; 0x44
 23fdc9c:	e9dd 2310 	ldrd	r2, r3, [sp, #64]	; 0x40
 23fdca0:	e9cd 2308 	strd	r2, r3, [sp, #32]
 23fdca4:	9b09      	ldr	r3, [sp, #36]	; 0x24
 23fdca6:	9a0d      	ldr	r2, [sp, #52]	; 0x34
 23fdca8:	f103 63d6 	add.w	r3, r3, #112197632	; 0x6b00000
 23fdcac:	1a9b      	subs	r3, r3, r2
 23fdcae:	9309      	str	r3, [sp, #36]	; 0x24
 23fdcb0:	eeb0 0a48 	vmov.f32	s0, s16
 23fdcb4:	eef0 0a68 	vmov.f32	s1, s17
 23fdcb8:	e9dd 0108 	ldrd	r0, r1, [sp, #32]
 23fdcbc:	e9cd 0108 	strd	r0, r1, [sp, #32]
 23fdcc0:	f001 f830 	bl	23fed24 <__ulp>
 23fdcc4:	e9dd 0108 	ldrd	r0, r1, [sp, #32]
 23fdcc8:	ec53 2b10 	vmov	r2, r3, d0
 23fdccc:	f7f8 f8f0 	bl	23f5eb0 <__aeabi_dmul>
 23fdcd0:	ec53 2b18 	vmov	r2, r3, d8
 23fdcd4:	f7f7 ff36 	bl	23f5b44 <__adddf3>
 23fdcd8:	4682      	mov	sl, r0
 23fdcda:	468b      	mov	fp, r1
 23fdcdc:	e78d      	b.n	23fdbfa <_strtod_l+0xab2>
 23fdcde:	e9cd 8910 	strd	r8, r9, [sp, #64]	; 0x40
 23fdce2:	e7db      	b.n	23fdc9c <_strtod_l+0xb54>
 23fdce4:	a310      	add	r3, pc, #64	; (adr r3, 23fdd28 <_strtod_l+0xbe0>)
 23fdce6:	e9d3 2300 	ldrd	r2, r3, [r3]
 23fdcea:	f7f8 fb53 	bl	23f6394 <__aeabi_dcmplt>
 23fdcee:	e7b2      	b.n	23fdc56 <_strtod_l+0xb0e>
 23fdcf0:	2300      	movs	r3, #0
 23fdcf2:	930a      	str	r3, [sp, #40]	; 0x28
 23fdcf4:	9b17      	ldr	r3, [sp, #92]	; 0x5c
 23fdcf6:	9a13      	ldr	r2, [sp, #76]	; 0x4c
 23fdcf8:	6013      	str	r3, [r2, #0]
 23fdcfa:	f7ff ba6d 	b.w	23fd1d8 <_strtod_l+0x90>
 23fdcfe:	2a65      	cmp	r2, #101	; 0x65
 23fdd00:	f43f ab61 	beq.w	23fd3c6 <_strtod_l+0x27e>
 23fdd04:	2a45      	cmp	r2, #69	; 0x45
 23fdd06:	f43f ab5e 	beq.w	23fd3c6 <_strtod_l+0x27e>
 23fdd0a:	2301      	movs	r3, #1
 23fdd0c:	f7ff bb96 	b.w	23fd43c <_strtod_l+0x2f4>
 23fdd10:	94a03595 	.word	0x94a03595
 23fdd14:	3fdfffff 	.word	0x3fdfffff
 23fdd18:	35afe535 	.word	0x35afe535
 23fdd1c:	3fe00000 	.word	0x3fe00000
 23fdd20:	ffc00000 	.word	0xffc00000
 23fdd24:	41dfffff 	.word	0x41dfffff
 23fdd28:	94a03595 	.word	0x94a03595
 23fdd2c:	3fcfffff 	.word	0x3fcfffff
 23fdd30:	3ff00000 	.word	0x3ff00000
 23fdd34:	7ff00000 	.word	0x7ff00000
 23fdd38:	7fe00000 	.word	0x7fe00000
 23fdd3c:	7c9fffff 	.word	0x7c9fffff
 23fdd40:	3fe00000 	.word	0x3fe00000
 23fdd44:	bff00000 	.word	0xbff00000
 23fdd48:	7fefffff 	.word	0x7fefffff

023fdd4c <strtod>:
 23fdd4c:	460a      	mov	r2, r1
 23fdd4e:	4601      	mov	r1, r0
 23fdd50:	4802      	ldr	r0, [pc, #8]	; (23fdd5c <strtod+0x10>)
 23fdd52:	4b03      	ldr	r3, [pc, #12]	; (23fdd60 <strtod+0x14>)
 23fdd54:	6800      	ldr	r0, [r0, #0]
 23fdd56:	f7ff b9f7 	b.w	23fd148 <_strtod_l>
 23fdd5a:	bf00      	nop
 23fdd5c:	10072d3c 	.word	0x10072d3c
 23fdd60:	10072da4 	.word	0x10072da4

023fdd64 <_strtol_l.constprop.0>:
 23fdd64:	2b01      	cmp	r3, #1
 23fdd66:	e92d 47f0 	stmdb	sp!, {r4, r5, r6, r7, r8, r9, sl, lr}
 23fdd6a:	d001      	beq.n	23fdd70 <_strtol_l.constprop.0+0xc>
 23fdd6c:	2b24      	cmp	r3, #36	; 0x24
 23fdd6e:	d906      	bls.n	23fdd7e <_strtol_l.constprop.0+0x1a>
 23fdd70:	f7fc fa22 	bl	23fa1b8 <__errno>
 23fdd74:	2316      	movs	r3, #22
 23fdd76:	6003      	str	r3, [r0, #0]
 23fdd78:	2000      	movs	r0, #0
 23fdd7a:	e8bd 87f0 	ldmia.w	sp!, {r4, r5, r6, r7, r8, r9, sl, pc}
 23fdd7e:	460d      	mov	r5, r1
 23fdd80:	f8df c0e0 	ldr.w	ip, [pc, #224]	; 23fde64 <_strtol_l.constprop.0+0x100>
 23fdd84:	462e      	mov	r6, r5
 23fdd86:	f815 4b01 	ldrb.w	r4, [r5], #1
 23fdd8a:	f814 700c 	ldrb.w	r7, [r4, ip]
 23fdd8e:	f017 0708 	ands.w	r7, r7, #8
 23fdd92:	d1f7      	bne.n	23fdd84 <_strtol_l.constprop.0+0x20>
 23fdd94:	2c2d      	cmp	r4, #45	; 0x2d
 23fdd96:	d132      	bne.n	23fddfe <_strtol_l.constprop.0+0x9a>
 23fdd98:	782c      	ldrb	r4, [r5, #0]
 23fdd9a:	2701      	movs	r7, #1
 23fdd9c:	1cb5      	adds	r5, r6, #2
 23fdd9e:	2b00      	cmp	r3, #0
 23fdda0:	d05b      	beq.n	23fde5a <_strtol_l.constprop.0+0xf6>
 23fdda2:	2b10      	cmp	r3, #16
 23fdda4:	d109      	bne.n	23fddba <_strtol_l.constprop.0+0x56>
 23fdda6:	2c30      	cmp	r4, #48	; 0x30
 23fdda8:	d107      	bne.n	23fddba <_strtol_l.constprop.0+0x56>
 23fddaa:	782c      	ldrb	r4, [r5, #0]
 23fddac:	f004 04df 	and.w	r4, r4, #223	; 0xdf
 23fddb0:	2c58      	cmp	r4, #88	; 0x58
 23fddb2:	d14d      	bne.n	23fde50 <_strtol_l.constprop.0+0xec>
 23fddb4:	786c      	ldrb	r4, [r5, #1]
 23fddb6:	2310      	movs	r3, #16
 23fddb8:	3502      	adds	r5, #2
 23fddba:	f107 4800 	add.w	r8, r7, #2147483648	; 0x80000000
 23fddbe:	f04f 0c00 	mov.w	ip, #0
 23fddc2:	f108 38ff 	add.w	r8, r8, #4294967295
 23fddc6:	4666      	mov	r6, ip
 23fddc8:	fbb8 f9f3 	udiv	r9, r8, r3
 23fddcc:	fb03 8a19 	mls	sl, r3, r9, r8
 23fddd0:	f1a4 0e30 	sub.w	lr, r4, #48	; 0x30
 23fddd4:	f1be 0f09 	cmp.w	lr, #9
 23fddd8:	d816      	bhi.n	23fde08 <_strtol_l.constprop.0+0xa4>
 23fddda:	4674      	mov	r4, lr
 23fdddc:	42a3      	cmp	r3, r4
 23fddde:	dd24      	ble.n	23fde2a <_strtol_l.constprop.0+0xc6>
 23fdde0:	f1bc 0f00 	cmp.w	ip, #0
 23fdde4:	db1e      	blt.n	23fde24 <_strtol_l.constprop.0+0xc0>
 23fdde6:	45b1      	cmp	r9, r6
 23fdde8:	d31c      	bcc.n	23fde24 <_strtol_l.constprop.0+0xc0>
 23fddea:	d101      	bne.n	23fddf0 <_strtol_l.constprop.0+0x8c>
 23fddec:	45a2      	cmp	sl, r4
 23fddee:	db19      	blt.n	23fde24 <_strtol_l.constprop.0+0xc0>
 23fddf0:	fb06 4603 	mla	r6, r6, r3, r4
 23fddf4:	f04f 0c01 	mov.w	ip, #1
 23fddf8:	f815 4b01 	ldrb.w	r4, [r5], #1
 23fddfc:	e7e8      	b.n	23fddd0 <_strtol_l.constprop.0+0x6c>
 23fddfe:	2c2b      	cmp	r4, #43	; 0x2b
 23fde00:	bf04      	itt	eq
 23fde02:	782c      	ldrbeq	r4, [r5, #0]
 23fde04:	1cb5      	addeq	r5, r6, #2
 23fde06:	e7ca      	b.n	23fdd9e <_strtol_l.constprop.0+0x3a>
 23fde08:	f1a4 0e41 	sub.w	lr, r4, #65	; 0x41
 23fde0c:	f1be 0f19 	cmp.w	lr, #25
 23fde10:	d801      	bhi.n	23fde16 <_strtol_l.constprop.0+0xb2>
 23fde12:	3c37      	subs	r4, #55	; 0x37
 23fde14:	e7e2      	b.n	23fdddc <_strtol_l.constprop.0+0x78>
 23fde16:	f1a4 0e61 	sub.w	lr, r4, #97	; 0x61
 23fde1a:	f1be 0f19 	cmp.w	lr, #25
 23fde1e:	d804      	bhi.n	23fde2a <_strtol_l.constprop.0+0xc6>
 23fde20:	3c57      	subs	r4, #87	; 0x57
 23fde22:	e7db      	b.n	23fdddc <_strtol_l.constprop.0+0x78>
 23fde24:	f04f 3cff 	mov.w	ip, #4294967295
 23fde28:	e7e6      	b.n	23fddf8 <_strtol_l.constprop.0+0x94>
 23fde2a:	f1bc 0f00 	cmp.w	ip, #0
 23fde2e:	da05      	bge.n	23fde3c <_strtol_l.constprop.0+0xd8>
 23fde30:	2322      	movs	r3, #34	; 0x22
 23fde32:	4646      	mov	r6, r8
 23fde34:	6003      	str	r3, [r0, #0]
 23fde36:	b942      	cbnz	r2, 23fde4a <_strtol_l.constprop.0+0xe6>
 23fde38:	4630      	mov	r0, r6
 23fde3a:	e79e      	b.n	23fdd7a <_strtol_l.constprop.0+0x16>
 23fde3c:	b107      	cbz	r7, 23fde40 <_strtol_l.constprop.0+0xdc>
 23fde3e:	4276      	negs	r6, r6
 23fde40:	2a00      	cmp	r2, #0
 23fde42:	d0f9      	beq.n	23fde38 <_strtol_l.constprop.0+0xd4>
 23fde44:	f1bc 0f00 	cmp.w	ip, #0
 23fde48:	d000      	beq.n	23fde4c <_strtol_l.constprop.0+0xe8>
 23fde4a:	1e69      	subs	r1, r5, #1
 23fde4c:	6011      	str	r1, [r2, #0]
 23fde4e:	e7f3      	b.n	23fde38 <_strtol_l.constprop.0+0xd4>
 23fde50:	2430      	movs	r4, #48	; 0x30
 23fde52:	2b00      	cmp	r3, #0
 23fde54:	d1b1      	bne.n	23fddba <_strtol_l.constprop.0+0x56>
 23fde56:	2308      	movs	r3, #8
 23fde58:	e7af      	b.n	23fddba <_strtol_l.constprop.0+0x56>
 23fde5a:	2c30      	cmp	r4, #48	; 0x30
 23fde5c:	d0a5      	beq.n	23fddaa <_strtol_l.constprop.0+0x46>
 23fde5e:	230a      	movs	r3, #10
 23fde60:	e7ab      	b.n	23fddba <_strtol_l.constprop.0+0x56>
 23fde62:	bf00      	nop
 23fde64:	023ffca1 	.word	0x023ffca1

023fde68 <strtol>:
 23fde68:	4613      	mov	r3, r2
 23fde6a:	460a      	mov	r2, r1
 23fde6c:	4601      	mov	r1, r0
 23fde6e:	4802      	ldr	r0, [pc, #8]	; (23fde78 <strtol+0x10>)
 23fde70:	6800      	ldr	r0, [r0, #0]
 23fde72:	f7ff bf77 	b.w	23fdd64 <_strtol_l.constprop.0>
 23fde76:	bf00      	nop
 23fde78:	10072d3c 	.word	0x10072d3c

023fde7c <close>:
 23fde7c:	4b02      	ldr	r3, [pc, #8]	; (23fde88 <close+0xc>)
 23fde7e:	4601      	mov	r1, r0
 23fde80:	6818      	ldr	r0, [r3, #0]
 23fde82:	f000 b847 	b.w	23fdf14 <_close_r>
 23fde86:	bf00      	nop
 23fde88:	10072d3c 	.word	0x10072d3c

023fde8c <open>:
 23fde8c:	b40e      	push	{r1, r2, r3}
 23fde8e:	b503      	push	{r0, r1, lr}
 23fde90:	ab03      	add	r3, sp, #12
 23fde92:	4601      	mov	r1, r0
 23fde94:	4806      	ldr	r0, [pc, #24]	; (23fdeb0 <open+0x24>)
 23fde96:	f853 2b04 	ldr.w	r2, [r3], #4
 23fde9a:	6800      	ldr	r0, [r0, #0]
 23fde9c:	9301      	str	r3, [sp, #4]
 23fde9e:	9b04      	ldr	r3, [sp, #16]
 23fdea0:	f001 f89c 	bl	23fefdc <_open_r>
 23fdea4:	b002      	add	sp, #8
 23fdea6:	f85d eb04 	ldr.w	lr, [sp], #4
 23fdeaa:	b003      	add	sp, #12
 23fdeac:	4770      	bx	lr
 23fdeae:	bf00      	nop
 23fdeb0:	10072d3c 	.word	0x10072d3c

023fdeb4 <read>:
 23fdeb4:	4613      	mov	r3, r2
 23fdeb6:	460a      	mov	r2, r1
 23fdeb8:	4601      	mov	r1, r0
 23fdeba:	4802      	ldr	r0, [pc, #8]	; (23fdec4 <read+0x10>)
 23fdebc:	6800      	ldr	r0, [r0, #0]
 23fdebe:	f001 b89f 	b.w	23ff000 <_read_r>
 23fdec2:	bf00      	nop
 23fdec4:	10072d3c 	.word	0x10072d3c

023fdec8 <write>:
 23fdec8:	4613      	mov	r3, r2
 23fdeca:	460a      	mov	r2, r1
 23fdecc:	4601      	mov	r1, r0
 23fdece:	4802      	ldr	r0, [pc, #8]	; (23fded8 <write+0x10>)
 23fded0:	6800      	ldr	r0, [r0, #0]
 23fded2:	f000 b80d 	b.w	23fdef0 <_write_r>
 23fded6:	bf00      	nop
 23fded8:	10072d3c 	.word	0x10072d3c

023fdedc <tolower>:
 23fdedc:	4b03      	ldr	r3, [pc, #12]	; (23fdeec <tolower+0x10>)
 23fdede:	5cc3      	ldrb	r3, [r0, r3]
 23fdee0:	f003 0303 	and.w	r3, r3, #3
 23fdee4:	2b01      	cmp	r3, #1
 23fdee6:	bf08      	it	eq
 23fdee8:	3020      	addeq	r0, #32
 23fdeea:	4770      	bx	lr
 23fdeec:	023ffca1 	.word	0x023ffca1

023fdef0 <_write_r>:
 23fdef0:	b538      	push	{r3, r4, r5, lr}
 23fdef2:	4604      	mov	r4, r0
 23fdef4:	4d06      	ldr	r5, [pc, #24]	; (23fdf10 <_write_r+0x20>)
 23fdef6:	4608      	mov	r0, r1
 23fdef8:	4611      	mov	r1, r2
 23fdefa:	2200      	movs	r2, #0
 23fdefc:	602a      	str	r2, [r5, #0]
 23fdefe:	461a      	mov	r2, r3
 23fdf00:	f7fb fc36 	bl	23f9770 <_write>
 23fdf04:	1c43      	adds	r3, r0, #1
 23fdf06:	d102      	bne.n	23fdf0e <_write_r+0x1e>
 23fdf08:	682b      	ldr	r3, [r5, #0]
 23fdf0a:	b103      	cbz	r3, 23fdf0e <_write_r+0x1e>
 23fdf0c:	6023      	str	r3, [r4, #0]
 23fdf0e:	bd38      	pop	{r3, r4, r5, pc}
 23fdf10:	1007aff4 	.word	0x1007aff4

023fdf14 <_close_r>:
 23fdf14:	b538      	push	{r3, r4, r5, lr}
 23fdf16:	2300      	movs	r3, #0
 23fdf18:	4d05      	ldr	r5, [pc, #20]	; (23fdf30 <_close_r+0x1c>)
 23fdf1a:	4604      	mov	r4, r0
 23fdf1c:	4608      	mov	r0, r1
 23fdf1e:	602b      	str	r3, [r5, #0]
 23fdf20:	f7fb fc42 	bl	23f97a8 <_close>
 23fdf24:	1c43      	adds	r3, r0, #1
 23fdf26:	d102      	bne.n	23fdf2e <_close_r+0x1a>
 23fdf28:	682b      	ldr	r3, [r5, #0]
 23fdf2a:	b103      	cbz	r3, 23fdf2e <_close_r+0x1a>
 23fdf2c:	6023      	str	r3, [r4, #0]
 23fdf2e:	bd38      	pop	{r3, r4, r5, pc}
 23fdf30:	1007aff4 	.word	0x1007aff4

023fdf34 <rshift>:
 23fdf34:	6903      	ldr	r3, [r0, #16]
 23fdf36:	114a      	asrs	r2, r1, #5
 23fdf38:	ebb3 1f61 	cmp.w	r3, r1, asr #5
 23fdf3c:	e92d 43f0 	stmdb	sp!, {r4, r5, r6, r7, r8, r9, lr}
 23fdf40:	f100 0414 	add.w	r4, r0, #20
 23fdf44:	dd45      	ble.n	23fdfd2 <rshift+0x9e>
 23fdf46:	f011 011f 	ands.w	r1, r1, #31
 23fdf4a:	eb04 0683 	add.w	r6, r4, r3, lsl #2
 23fdf4e:	eb04 0582 	add.w	r5, r4, r2, lsl #2
 23fdf52:	d10c      	bne.n	23fdf6e <rshift+0x3a>
 23fdf54:	f100 0710 	add.w	r7, r0, #16
 23fdf58:	4629      	mov	r1, r5
 23fdf5a:	42b1      	cmp	r1, r6
 23fdf5c:	d334      	bcc.n	23fdfc8 <rshift+0x94>
 23fdf5e:	1a9b      	subs	r3, r3, r2
 23fdf60:	1eea      	subs	r2, r5, #3
 23fdf62:	009b      	lsls	r3, r3, #2
 23fdf64:	4296      	cmp	r6, r2
 23fdf66:	bf38      	it	cc
 23fdf68:	2300      	movcc	r3, #0
 23fdf6a:	4423      	add	r3, r4
 23fdf6c:	e015      	b.n	23fdf9a <rshift+0x66>
 23fdf6e:	f854 7022 	ldr.w	r7, [r4, r2, lsl #2]
 23fdf72:	f1c1 0820 	rsb	r8, r1, #32
 23fdf76:	f105 0e04 	add.w	lr, r5, #4
 23fdf7a:	46a1      	mov	r9, r4
 23fdf7c:	40cf      	lsrs	r7, r1
 23fdf7e:	4576      	cmp	r6, lr
 23fdf80:	46f4      	mov	ip, lr
 23fdf82:	d815      	bhi.n	23fdfb0 <rshift+0x7c>
 23fdf84:	1a9a      	subs	r2, r3, r2
 23fdf86:	3501      	adds	r5, #1
 23fdf88:	0092      	lsls	r2, r2, #2
 23fdf8a:	3a04      	subs	r2, #4
 23fdf8c:	42ae      	cmp	r6, r5
 23fdf8e:	bf38      	it	cc
 23fdf90:	2200      	movcc	r2, #0
 23fdf92:	18a3      	adds	r3, r4, r2
 23fdf94:	50a7      	str	r7, [r4, r2]
 23fdf96:	b107      	cbz	r7, 23fdf9a <rshift+0x66>
 23fdf98:	3304      	adds	r3, #4
 23fdf9a:	1b1a      	subs	r2, r3, r4
 23fdf9c:	42a3      	cmp	r3, r4
 23fdf9e:	ea4f 02a2 	mov.w	r2, r2, asr #2
 23fdfa2:	bf08      	it	eq
 23fdfa4:	2300      	moveq	r3, #0
 23fdfa6:	6102      	str	r2, [r0, #16]
 23fdfa8:	bf08      	it	eq
 23fdfaa:	6143      	streq	r3, [r0, #20]
 23fdfac:	e8bd 83f0 	ldmia.w	sp!, {r4, r5, r6, r7, r8, r9, pc}
 23fdfb0:	f8dc c000 	ldr.w	ip, [ip]
 23fdfb4:	fa0c fc08 	lsl.w	ip, ip, r8
 23fdfb8:	ea4c 0707 	orr.w	r7, ip, r7
 23fdfbc:	f849 7b04 	str.w	r7, [r9], #4
 23fdfc0:	f85e 7b04 	ldr.w	r7, [lr], #4
 23fdfc4:	40cf      	lsrs	r7, r1
 23fdfc6:	e7da      	b.n	23fdf7e <rshift+0x4a>
 23fdfc8:	f851 cb04 	ldr.w	ip, [r1], #4
 23fdfcc:	f847 cf04 	str.w	ip, [r7, #4]!
 23fdfd0:	e7c3      	b.n	23fdf5a <rshift+0x26>
 23fdfd2:	4623      	mov	r3, r4
 23fdfd4:	e7e1      	b.n	23fdf9a <rshift+0x66>

023fdfd6 <__hexdig_fun>:
 23fdfd6:	f1a0 0330 	sub.w	r3, r0, #48	; 0x30
 23fdfda:	2b09      	cmp	r3, #9
 23fdfdc:	d802      	bhi.n	23fdfe4 <__hexdig_fun+0xe>
 23fdfde:	3820      	subs	r0, #32
 23fdfe0:	b2c0      	uxtb	r0, r0
 23fdfe2:	4770      	bx	lr
 23fdfe4:	f1a0 0361 	sub.w	r3, r0, #97	; 0x61
 23fdfe8:	2b05      	cmp	r3, #5
 23fdfea:	d801      	bhi.n	23fdff0 <__hexdig_fun+0x1a>
 23fdfec:	3847      	subs	r0, #71	; 0x47
 23fdfee:	e7f7      	b.n	23fdfe0 <__hexdig_fun+0xa>
 23fdff0:	f1a0 0341 	sub.w	r3, r0, #65	; 0x41
 23fdff4:	2b05      	cmp	r3, #5
 23fdff6:	d801      	bhi.n	23fdffc <__hexdig_fun+0x26>
 23fdff8:	3827      	subs	r0, #39	; 0x27
 23fdffa:	e7f1      	b.n	23fdfe0 <__hexdig_fun+0xa>
 23fdffc:	2000      	movs	r0, #0
 23fdffe:	4770      	bx	lr

023fe000 <__gethex>:
 23fe000:	e92d 4ff0 	stmdb	sp!, {r4, r5, r6, r7, r8, r9, sl, fp, lr}
 23fe004:	ed2d 8b02 	vpush	{d8}
 23fe008:	b089      	sub	sp, #36	; 0x24
 23fe00a:	ee08 0a10 	vmov	s16, r0
 23fe00e:	468b      	mov	fp, r1
 23fe010:	4690      	mov	r8, r2
 23fe012:	9304      	str	r3, [sp, #16]
 23fe014:	4bb2      	ldr	r3, [pc, #712]	; (23fe2e0 <__gethex+0x2e0>)
 23fe016:	681b      	ldr	r3, [r3, #0]
 23fe018:	4618      	mov	r0, r3
 23fe01a:	9301      	str	r3, [sp, #4]
 23fe01c:	f7f8 fc3e 	bl	23f689c <strlen>
 23fe020:	9b01      	ldr	r3, [sp, #4]
 23fe022:	f8db 2000 	ldr.w	r2, [fp]
 23fe026:	4682      	mov	sl, r0
 23fe028:	4403      	add	r3, r0
 23fe02a:	f813 3c01 	ldrb.w	r3, [r3, #-1]
 23fe02e:	9305      	str	r3, [sp, #20]
 23fe030:	1c93      	adds	r3, r2, #2
 23fe032:	f1c2 22ff 	rsb	r2, r2, #4278255360	; 0xff00ff00
 23fe036:	f502 027f 	add.w	r2, r2, #16711680	; 0xff0000
 23fe03a:	32fe      	adds	r2, #254	; 0xfe
 23fe03c:	18d1      	adds	r1, r2, r3
 23fe03e:	461f      	mov	r7, r3
 23fe040:	f813 0b01 	ldrb.w	r0, [r3], #1
 23fe044:	9100      	str	r1, [sp, #0]
 23fe046:	2830      	cmp	r0, #48	; 0x30
 23fe048:	d0f8      	beq.n	23fe03c <__gethex+0x3c>
 23fe04a:	f7ff ffc4 	bl	23fdfd6 <__hexdig_fun>
 23fe04e:	4604      	mov	r4, r0
 23fe050:	2800      	cmp	r0, #0
 23fe052:	d139      	bne.n	23fe0c8 <__gethex+0xc8>
 23fe054:	4652      	mov	r2, sl
 23fe056:	9901      	ldr	r1, [sp, #4]
 23fe058:	4638      	mov	r0, r7
 23fe05a:	f7ff f82e 	bl	23fd0ba <strncmp>
 23fe05e:	4605      	mov	r5, r0
 23fe060:	2800      	cmp	r0, #0
 23fe062:	d167      	bne.n	23fe134 <__gethex+0x134>
 23fe064:	f817 000a 	ldrb.w	r0, [r7, sl]
 23fe068:	eb07 060a 	add.w	r6, r7, sl
 23fe06c:	f7ff ffb3 	bl	23fdfd6 <__hexdig_fun>
 23fe070:	2800      	cmp	r0, #0
 23fe072:	d061      	beq.n	23fe138 <__gethex+0x138>
 23fe074:	4633      	mov	r3, r6
 23fe076:	7818      	ldrb	r0, [r3, #0]
 23fe078:	461f      	mov	r7, r3
 23fe07a:	3301      	adds	r3, #1
 23fe07c:	2830      	cmp	r0, #48	; 0x30
 23fe07e:	d0fa      	beq.n	23fe076 <__gethex+0x76>
 23fe080:	f7ff ffa9 	bl	23fdfd6 <__hexdig_fun>
 23fe084:	fab0 f480 	clz	r4, r0
 23fe088:	2301      	movs	r3, #1
 23fe08a:	4635      	mov	r5, r6
 23fe08c:	0964      	lsrs	r4, r4, #5
 23fe08e:	9300      	str	r3, [sp, #0]
 23fe090:	463a      	mov	r2, r7
 23fe092:	4616      	mov	r6, r2
 23fe094:	3201      	adds	r2, #1
 23fe096:	7830      	ldrb	r0, [r6, #0]
 23fe098:	f7ff ff9d 	bl	23fdfd6 <__hexdig_fun>
 23fe09c:	2800      	cmp	r0, #0
 23fe09e:	d1f8      	bne.n	23fe092 <__gethex+0x92>
 23fe0a0:	4652      	mov	r2, sl
 23fe0a2:	9901      	ldr	r1, [sp, #4]
 23fe0a4:	4630      	mov	r0, r6
 23fe0a6:	f7ff f808 	bl	23fd0ba <strncmp>
 23fe0aa:	b980      	cbnz	r0, 23fe0ce <__gethex+0xce>
 23fe0ac:	b94d      	cbnz	r5, 23fe0c2 <__gethex+0xc2>
 23fe0ae:	eb06 050a 	add.w	r5, r6, sl
 23fe0b2:	462a      	mov	r2, r5
 23fe0b4:	4616      	mov	r6, r2
 23fe0b6:	3201      	adds	r2, #1
 23fe0b8:	7830      	ldrb	r0, [r6, #0]
 23fe0ba:	f7ff ff8c 	bl	23fdfd6 <__hexdig_fun>
 23fe0be:	2800      	cmp	r0, #0
 23fe0c0:	d1f8      	bne.n	23fe0b4 <__gethex+0xb4>
 23fe0c2:	1bad      	subs	r5, r5, r6
 23fe0c4:	00ad      	lsls	r5, r5, #2
 23fe0c6:	e004      	b.n	23fe0d2 <__gethex+0xd2>
 23fe0c8:	2400      	movs	r4, #0
 23fe0ca:	4625      	mov	r5, r4
 23fe0cc:	e7e0      	b.n	23fe090 <__gethex+0x90>
 23fe0ce:	2d00      	cmp	r5, #0
 23fe0d0:	d1f7      	bne.n	23fe0c2 <__gethex+0xc2>
 23fe0d2:	7833      	ldrb	r3, [r6, #0]
 23fe0d4:	f003 03df 	and.w	r3, r3, #223	; 0xdf
 23fe0d8:	2b50      	cmp	r3, #80	; 0x50
 23fe0da:	d13b      	bne.n	23fe154 <__gethex+0x154>
 23fe0dc:	7873      	ldrb	r3, [r6, #1]
 23fe0de:	2b2b      	cmp	r3, #43	; 0x2b
 23fe0e0:	d02c      	beq.n	23fe13c <__gethex+0x13c>
 23fe0e2:	2b2d      	cmp	r3, #45	; 0x2d
 23fe0e4:	d02e      	beq.n	23fe144 <__gethex+0x144>
 23fe0e6:	1c71      	adds	r1, r6, #1
 23fe0e8:	f04f 0900 	mov.w	r9, #0
 23fe0ec:	7808      	ldrb	r0, [r1, #0]
 23fe0ee:	f7ff ff72 	bl	23fdfd6 <__hexdig_fun>
 23fe0f2:	1e43      	subs	r3, r0, #1
 23fe0f4:	b2db      	uxtb	r3, r3
 23fe0f6:	2b18      	cmp	r3, #24
 23fe0f8:	d82c      	bhi.n	23fe154 <__gethex+0x154>
 23fe0fa:	f1a0 0210 	sub.w	r2, r0, #16
 23fe0fe:	f811 0f01 	ldrb.w	r0, [r1, #1]!
 23fe102:	f7ff ff68 	bl	23fdfd6 <__hexdig_fun>
 23fe106:	1e43      	subs	r3, r0, #1
 23fe108:	b2db      	uxtb	r3, r3
 23fe10a:	2b18      	cmp	r3, #24
 23fe10c:	d91d      	bls.n	23fe14a <__gethex+0x14a>
 23fe10e:	f1b9 0f00 	cmp.w	r9, #0
 23fe112:	d000      	beq.n	23fe116 <__gethex+0x116>
 23fe114:	4252      	negs	r2, r2
 23fe116:	4415      	add	r5, r2
 23fe118:	f8cb 1000 	str.w	r1, [fp]
 23fe11c:	b1e4      	cbz	r4, 23fe158 <__gethex+0x158>
 23fe11e:	9b00      	ldr	r3, [sp, #0]
 23fe120:	2b00      	cmp	r3, #0
 23fe122:	bf14      	ite	ne
 23fe124:	2700      	movne	r7, #0
 23fe126:	2706      	moveq	r7, #6
 23fe128:	4638      	mov	r0, r7
 23fe12a:	b009      	add	sp, #36	; 0x24
 23fe12c:	ecbd 8b02 	vpop	{d8}
 23fe130:	e8bd 8ff0 	ldmia.w	sp!, {r4, r5, r6, r7, r8, r9, sl, fp, pc}
 23fe134:	463e      	mov	r6, r7
 23fe136:	4625      	mov	r5, r4
 23fe138:	2401      	movs	r4, #1
 23fe13a:	e7ca      	b.n	23fe0d2 <__gethex+0xd2>
 23fe13c:	f04f 0900 	mov.w	r9, #0
 23fe140:	1cb1      	adds	r1, r6, #2
 23fe142:	e7d3      	b.n	23fe0ec <__gethex+0xec>
 23fe144:	f04f 0901 	mov.w	r9, #1
 23fe148:	e7fa      	b.n	23fe140 <__gethex+0x140>
 23fe14a:	230a      	movs	r3, #10
 23fe14c:	fb03 0202 	mla	r2, r3, r2, r0
 23fe150:	3a10      	subs	r2, #16
 23fe152:	e7d4      	b.n	23fe0fe <__gethex+0xfe>
 23fe154:	4631      	mov	r1, r6
 23fe156:	e7df      	b.n	23fe118 <__gethex+0x118>
 23fe158:	1bf3      	subs	r3, r6, r7
 23fe15a:	4621      	mov	r1, r4
 23fe15c:	3b01      	subs	r3, #1
 23fe15e:	2b07      	cmp	r3, #7
 23fe160:	dc0b      	bgt.n	23fe17a <__gethex+0x17a>
 23fe162:	ee18 0a10 	vmov	r0, s16
 23fe166:	f000 fa65 	bl	23fe634 <_Balloc>
 23fe16a:	4604      	mov	r4, r0
 23fe16c:	b940      	cbnz	r0, 23fe180 <__gethex+0x180>
 23fe16e:	4b5d      	ldr	r3, [pc, #372]	; (23fe2e4 <__gethex+0x2e4>)
 23fe170:	4602      	mov	r2, r0
 23fe172:	21de      	movs	r1, #222	; 0xde
 23fe174:	485c      	ldr	r0, [pc, #368]	; (23fe2e8 <__gethex+0x2e8>)
 23fe176:	f7fc f82d 	bl	23fa1d4 <__assert_func>
 23fe17a:	3101      	adds	r1, #1
 23fe17c:	105b      	asrs	r3, r3, #1
 23fe17e:	e7ee      	b.n	23fe15e <__gethex+0x15e>
 23fe180:	f100 0914 	add.w	r9, r0, #20
 23fe184:	f04f 0b00 	mov.w	fp, #0
 23fe188:	f1ca 0301 	rsb	r3, sl, #1
 23fe18c:	f8cd 9008 	str.w	r9, [sp, #8]
 23fe190:	f8cd b000 	str.w	fp, [sp]
 23fe194:	9306      	str	r3, [sp, #24]
 23fe196:	42b7      	cmp	r7, r6
 23fe198:	d340      	bcc.n	23fe21c <__gethex+0x21c>
 23fe19a:	9802      	ldr	r0, [sp, #8]
 23fe19c:	9b00      	ldr	r3, [sp, #0]
 23fe19e:	f840 3b04 	str.w	r3, [r0], #4
 23fe1a2:	eba0 0009 	sub.w	r0, r0, r9
 23fe1a6:	1080      	asrs	r0, r0, #2
 23fe1a8:	0146      	lsls	r6, r0, #5
 23fe1aa:	6120      	str	r0, [r4, #16]
 23fe1ac:	4618      	mov	r0, r3
 23fe1ae:	f000 fb35 	bl	23fe81c <__hi0bits>
 23fe1b2:	1a30      	subs	r0, r6, r0
 23fe1b4:	f8d8 6000 	ldr.w	r6, [r8]
 23fe1b8:	42b0      	cmp	r0, r6
 23fe1ba:	dd63      	ble.n	23fe284 <__gethex+0x284>
 23fe1bc:	1b87      	subs	r7, r0, r6
 23fe1be:	4620      	mov	r0, r4
 23fe1c0:	4639      	mov	r1, r7
 23fe1c2:	f000 fedb 	bl	23fef7c <__any_on>
 23fe1c6:	4682      	mov	sl, r0
 23fe1c8:	b1a8      	cbz	r0, 23fe1f6 <__gethex+0x1f6>
 23fe1ca:	1e7b      	subs	r3, r7, #1
 23fe1cc:	f04f 0a01 	mov.w	sl, #1
 23fe1d0:	1159      	asrs	r1, r3, #5
 23fe1d2:	f003 021f 	and.w	r2, r3, #31
 23fe1d6:	f859 1021 	ldr.w	r1, [r9, r1, lsl #2]
 23fe1da:	fa0a f202 	lsl.w	r2, sl, r2
 23fe1de:	420a      	tst	r2, r1
 23fe1e0:	d009      	beq.n	23fe1f6 <__gethex+0x1f6>
 23fe1e2:	4553      	cmp	r3, sl
 23fe1e4:	dd05      	ble.n	23fe1f2 <__gethex+0x1f2>
 23fe1e6:	1eb9      	subs	r1, r7, #2
 23fe1e8:	4620      	mov	r0, r4
 23fe1ea:	f000 fec7 	bl	23fef7c <__any_on>
 23fe1ee:	2800      	cmp	r0, #0
 23fe1f0:	d145      	bne.n	23fe27e <__gethex+0x27e>
 23fe1f2:	f04f 0a02 	mov.w	sl, #2
 23fe1f6:	443d      	add	r5, r7
 23fe1f8:	4639      	mov	r1, r7
 23fe1fa:	4620      	mov	r0, r4
 23fe1fc:	f7ff fe9a 	bl	23fdf34 <rshift>
 23fe200:	f8d8 3008 	ldr.w	r3, [r8, #8]
 23fe204:	42ab      	cmp	r3, r5
 23fe206:	da4c      	bge.n	23fe2a2 <__gethex+0x2a2>
 23fe208:	4621      	mov	r1, r4
 23fe20a:	ee18 0a10 	vmov	r0, s16
 23fe20e:	f000 fa51 	bl	23fe6b4 <_Bfree>
 23fe212:	2300      	movs	r3, #0
 23fe214:	9a14      	ldr	r2, [sp, #80]	; 0x50
 23fe216:	27a3      	movs	r7, #163	; 0xa3
 23fe218:	6013      	str	r3, [r2, #0]
 23fe21a:	e785      	b.n	23fe128 <__gethex+0x128>
 23fe21c:	1e73      	subs	r3, r6, #1
 23fe21e:	9a05      	ldr	r2, [sp, #20]
 23fe220:	9303      	str	r3, [sp, #12]
 23fe222:	f816 3c01 	ldrb.w	r3, [r6, #-1]
 23fe226:	4293      	cmp	r3, r2
 23fe228:	d019      	beq.n	23fe25e <__gethex+0x25e>
 23fe22a:	f1bb 0f20 	cmp.w	fp, #32
 23fe22e:	d107      	bne.n	23fe240 <__gethex+0x240>
 23fe230:	9b02      	ldr	r3, [sp, #8]
 23fe232:	9a00      	ldr	r2, [sp, #0]
 23fe234:	f843 2b04 	str.w	r2, [r3], #4
 23fe238:	9302      	str	r3, [sp, #8]
 23fe23a:	2300      	movs	r3, #0
 23fe23c:	469b      	mov	fp, r3
 23fe23e:	9300      	str	r3, [sp, #0]
 23fe240:	f816 0c01 	ldrb.w	r0, [r6, #-1]
 23fe244:	f7ff fec7 	bl	23fdfd6 <__hexdig_fun>
 23fe248:	f000 000f 	and.w	r0, r0, #15
 23fe24c:	9b00      	ldr	r3, [sp, #0]
 23fe24e:	fa00 f00b 	lsl.w	r0, r0, fp
 23fe252:	f10b 0b04 	add.w	fp, fp, #4
 23fe256:	4303      	orrs	r3, r0
 23fe258:	9300      	str	r3, [sp, #0]
 23fe25a:	9b03      	ldr	r3, [sp, #12]
 23fe25c:	e00d      	b.n	23fe27a <__gethex+0x27a>
 23fe25e:	9b03      	ldr	r3, [sp, #12]
 23fe260:	9a06      	ldr	r2, [sp, #24]
 23fe262:	4413      	add	r3, r2
 23fe264:	42bb      	cmp	r3, r7
 23fe266:	d3e0      	bcc.n	23fe22a <__gethex+0x22a>
 23fe268:	4618      	mov	r0, r3
 23fe26a:	4652      	mov	r2, sl
 23fe26c:	9901      	ldr	r1, [sp, #4]
 23fe26e:	9307      	str	r3, [sp, #28]
 23fe270:	f7fe ff23 	bl	23fd0ba <strncmp>
 23fe274:	9b07      	ldr	r3, [sp, #28]
 23fe276:	2800      	cmp	r0, #0
 23fe278:	d1d7      	bne.n	23fe22a <__gethex+0x22a>
 23fe27a:	461e      	mov	r6, r3
 23fe27c:	e78b      	b.n	23fe196 <__gethex+0x196>
 23fe27e:	f04f 0a03 	mov.w	sl, #3
 23fe282:	e7b8      	b.n	23fe1f6 <__gethex+0x1f6>
 23fe284:	da0a      	bge.n	23fe29c <__gethex+0x29c>
 23fe286:	1a37      	subs	r7, r6, r0
 23fe288:	4621      	mov	r1, r4
 23fe28a:	ee18 0a10 	vmov	r0, s16
 23fe28e:	463a      	mov	r2, r7
 23fe290:	1bed      	subs	r5, r5, r7
 23fe292:	f000 fc2b 	bl	23feaec <__lshift>
 23fe296:	4604      	mov	r4, r0
 23fe298:	f100 0914 	add.w	r9, r0, #20
 23fe29c:	f04f 0a00 	mov.w	sl, #0
 23fe2a0:	e7ae      	b.n	23fe200 <__gethex+0x200>
 23fe2a2:	f8d8 0004 	ldr.w	r0, [r8, #4]
 23fe2a6:	42a8      	cmp	r0, r5
 23fe2a8:	dd72      	ble.n	23fe390 <__gethex+0x390>
 23fe2aa:	1b45      	subs	r5, r0, r5
 23fe2ac:	42ae      	cmp	r6, r5
 23fe2ae:	dc35      	bgt.n	23fe31c <__gethex+0x31c>
 23fe2b0:	f8d8 300c 	ldr.w	r3, [r8, #12]
 23fe2b4:	2b02      	cmp	r3, #2
 23fe2b6:	d029      	beq.n	23fe30c <__gethex+0x30c>
 23fe2b8:	2b03      	cmp	r3, #3
 23fe2ba:	d02b      	beq.n	23fe314 <__gethex+0x314>
 23fe2bc:	2b01      	cmp	r3, #1
 23fe2be:	d11b      	bne.n	23fe2f8 <__gethex+0x2f8>
 23fe2c0:	42ae      	cmp	r6, r5
 23fe2c2:	d119      	bne.n	23fe2f8 <__gethex+0x2f8>
 23fe2c4:	2e01      	cmp	r6, #1
 23fe2c6:	d111      	bne.n	23fe2ec <__gethex+0x2ec>
 23fe2c8:	f8d8 3004 	ldr.w	r3, [r8, #4]
 23fe2cc:	2762      	movs	r7, #98	; 0x62
 23fe2ce:	9a04      	ldr	r2, [sp, #16]
 23fe2d0:	6013      	str	r3, [r2, #0]
 23fe2d2:	2301      	movs	r3, #1
 23fe2d4:	6123      	str	r3, [r4, #16]
 23fe2d6:	f8c9 3000 	str.w	r3, [r9]
 23fe2da:	9b14      	ldr	r3, [sp, #80]	; 0x50
 23fe2dc:	601c      	str	r4, [r3, #0]
 23fe2de:	e723      	b.n	23fe128 <__gethex+0x128>
 23fe2e0:	023ffe38 	.word	0x023ffe38
 23fe2e4:	023ffda1 	.word	0x023ffda1
 23fe2e8:	023ffdb2 	.word	0x023ffdb2
 23fe2ec:	1e71      	subs	r1, r6, #1
 23fe2ee:	4620      	mov	r0, r4
 23fe2f0:	f000 fe44 	bl	23fef7c <__any_on>
 23fe2f4:	2800      	cmp	r0, #0
 23fe2f6:	d1e7      	bne.n	23fe2c8 <__gethex+0x2c8>
 23fe2f8:	4621      	mov	r1, r4
 23fe2fa:	ee18 0a10 	vmov	r0, s16
 23fe2fe:	f000 f9d9 	bl	23fe6b4 <_Bfree>
 23fe302:	2300      	movs	r3, #0
 23fe304:	9a14      	ldr	r2, [sp, #80]	; 0x50
 23fe306:	2750      	movs	r7, #80	; 0x50
 23fe308:	6013      	str	r3, [r2, #0]
 23fe30a:	e70d      	b.n	23fe128 <__gethex+0x128>
 23fe30c:	9b15      	ldr	r3, [sp, #84]	; 0x54
 23fe30e:	2b00      	cmp	r3, #0
 23fe310:	d1f2      	bne.n	23fe2f8 <__gethex+0x2f8>
 23fe312:	e7d9      	b.n	23fe2c8 <__gethex+0x2c8>
 23fe314:	9b15      	ldr	r3, [sp, #84]	; 0x54
 23fe316:	2b00      	cmp	r3, #0
 23fe318:	d1d6      	bne.n	23fe2c8 <__gethex+0x2c8>
 23fe31a:	e7ed      	b.n	23fe2f8 <__gethex+0x2f8>
 23fe31c:	1e6f      	subs	r7, r5, #1
 23fe31e:	f1ba 0f00 	cmp.w	sl, #0
 23fe322:	d132      	bne.n	23fe38a <__gethex+0x38a>
 23fe324:	b127      	cbz	r7, 23fe330 <__gethex+0x330>
 23fe326:	4639      	mov	r1, r7
 23fe328:	4620      	mov	r0, r4
 23fe32a:	f000 fe27 	bl	23fef7c <__any_on>
 23fe32e:	4682      	mov	sl, r0
 23fe330:	117b      	asrs	r3, r7, #5
 23fe332:	2101      	movs	r1, #1
 23fe334:	f007 071f 	and.w	r7, r7, #31
 23fe338:	4620      	mov	r0, r4
 23fe33a:	f859 3023 	ldr.w	r3, [r9, r3, lsl #2]
 23fe33e:	1b76      	subs	r6, r6, r5
 23fe340:	fa01 f707 	lsl.w	r7, r1, r7
 23fe344:	4629      	mov	r1, r5
 23fe346:	421f      	tst	r7, r3
 23fe348:	f04f 0702 	mov.w	r7, #2
 23fe34c:	bf18      	it	ne
 23fe34e:	f04a 0a02 	orrne.w	sl, sl, #2
 23fe352:	f7ff fdef 	bl	23fdf34 <rshift>
 23fe356:	f8d8 5004 	ldr.w	r5, [r8, #4]
 23fe35a:	f1ba 0f00 	cmp.w	sl, #0
 23fe35e:	d048      	beq.n	23fe3f2 <__gethex+0x3f2>
 23fe360:	f8d8 300c 	ldr.w	r3, [r8, #12]
 23fe364:	2b02      	cmp	r3, #2
 23fe366:	d015      	beq.n	23fe394 <__gethex+0x394>
 23fe368:	2b03      	cmp	r3, #3
 23fe36a:	d017      	beq.n	23fe39c <__gethex+0x39c>
 23fe36c:	2b01      	cmp	r3, #1
 23fe36e:	d109      	bne.n	23fe384 <__gethex+0x384>
 23fe370:	f01a 0f02 	tst.w	sl, #2
 23fe374:	d006      	beq.n	23fe384 <__gethex+0x384>
 23fe376:	f8d9 0000 	ldr.w	r0, [r9]
 23fe37a:	ea4a 0a00 	orr.w	sl, sl, r0
 23fe37e:	f01a 0f01 	tst.w	sl, #1
 23fe382:	d10e      	bne.n	23fe3a2 <__gethex+0x3a2>
 23fe384:	f047 0710 	orr.w	r7, r7, #16
 23fe388:	e033      	b.n	23fe3f2 <__gethex+0x3f2>
 23fe38a:	f04f 0a01 	mov.w	sl, #1
 23fe38e:	e7cf      	b.n	23fe330 <__gethex+0x330>
 23fe390:	2701      	movs	r7, #1
 23fe392:	e7e2      	b.n	23fe35a <__gethex+0x35a>
 23fe394:	9b15      	ldr	r3, [sp, #84]	; 0x54
 23fe396:	f1c3 0301 	rsb	r3, r3, #1
 23fe39a:	9315      	str	r3, [sp, #84]	; 0x54
 23fe39c:	9b15      	ldr	r3, [sp, #84]	; 0x54
 23fe39e:	2b00      	cmp	r3, #0
 23fe3a0:	d0f0      	beq.n	23fe384 <__gethex+0x384>
 23fe3a2:	f8d4 b010 	ldr.w	fp, [r4, #16]
 23fe3a6:	f104 0314 	add.w	r3, r4, #20
 23fe3aa:	f04f 0c00 	mov.w	ip, #0
 23fe3ae:	ea4f 0a8b 	mov.w	sl, fp, lsl #2
 23fe3b2:	eb03 018b 	add.w	r1, r3, fp, lsl #2
 23fe3b6:	4618      	mov	r0, r3
 23fe3b8:	f853 2b04 	ldr.w	r2, [r3], #4
 23fe3bc:	f1b2 3fff 	cmp.w	r2, #4294967295
 23fe3c0:	d01c      	beq.n	23fe3fc <__gethex+0x3fc>
 23fe3c2:	3201      	adds	r2, #1
 23fe3c4:	6002      	str	r2, [r0, #0]
 23fe3c6:	2f02      	cmp	r7, #2
 23fe3c8:	f104 0314 	add.w	r3, r4, #20
 23fe3cc:	d13f      	bne.n	23fe44e <__gethex+0x44e>
 23fe3ce:	f8d8 2000 	ldr.w	r2, [r8]
 23fe3d2:	3a01      	subs	r2, #1
 23fe3d4:	42b2      	cmp	r2, r6
 23fe3d6:	d10a      	bne.n	23fe3ee <__gethex+0x3ee>
 23fe3d8:	1171      	asrs	r1, r6, #5
 23fe3da:	2201      	movs	r2, #1
 23fe3dc:	f006 061f 	and.w	r6, r6, #31
 23fe3e0:	f853 3021 	ldr.w	r3, [r3, r1, lsl #2]
 23fe3e4:	fa02 f606 	lsl.w	r6, r2, r6
 23fe3e8:	421e      	tst	r6, r3
 23fe3ea:	bf18      	it	ne
 23fe3ec:	4617      	movne	r7, r2
 23fe3ee:	f047 0720 	orr.w	r7, r7, #32
 23fe3f2:	9b14      	ldr	r3, [sp, #80]	; 0x50
 23fe3f4:	601c      	str	r4, [r3, #0]
 23fe3f6:	9b04      	ldr	r3, [sp, #16]
 23fe3f8:	601d      	str	r5, [r3, #0]
 23fe3fa:	e695      	b.n	23fe128 <__gethex+0x128>
 23fe3fc:	4299      	cmp	r1, r3
 23fe3fe:	f843 cc04 	str.w	ip, [r3, #-4]
 23fe402:	d8d8      	bhi.n	23fe3b6 <__gethex+0x3b6>
 23fe404:	68a3      	ldr	r3, [r4, #8]
 23fe406:	459b      	cmp	fp, r3
 23fe408:	db19      	blt.n	23fe43e <__gethex+0x43e>
 23fe40a:	6861      	ldr	r1, [r4, #4]
 23fe40c:	ee18 0a10 	vmov	r0, s16
 23fe410:	3101      	adds	r1, #1
 23fe412:	f000 f90f 	bl	23fe634 <_Balloc>
 23fe416:	4681      	mov	r9, r0
 23fe418:	b918      	cbnz	r0, 23fe422 <__gethex+0x422>
 23fe41a:	4b1b      	ldr	r3, [pc, #108]	; (23fe488 <__gethex+0x488>)
 23fe41c:	4602      	mov	r2, r0
 23fe41e:	2184      	movs	r1, #132	; 0x84
 23fe420:	e6a8      	b.n	23fe174 <__gethex+0x174>
 23fe422:	6922      	ldr	r2, [r4, #16]
 23fe424:	f104 010c 	add.w	r1, r4, #12
 23fe428:	300c      	adds	r0, #12
 23fe42a:	3202      	adds	r2, #2
 23fe42c:	0092      	lsls	r2, r2, #2
 23fe42e:	f7fe fda9 	bl	23fcf84 <memcpy>
 23fe432:	4621      	mov	r1, r4
 23fe434:	464c      	mov	r4, r9
 23fe436:	ee18 0a10 	vmov	r0, s16
 23fe43a:	f000 f93b 	bl	23fe6b4 <_Bfree>
 23fe43e:	6923      	ldr	r3, [r4, #16]
 23fe440:	1c5a      	adds	r2, r3, #1
 23fe442:	eb04 0383 	add.w	r3, r4, r3, lsl #2
 23fe446:	6122      	str	r2, [r4, #16]
 23fe448:	2201      	movs	r2, #1
 23fe44a:	615a      	str	r2, [r3, #20]
 23fe44c:	e7bb      	b.n	23fe3c6 <__gethex+0x3c6>
 23fe44e:	6922      	ldr	r2, [r4, #16]
 23fe450:	455a      	cmp	r2, fp
 23fe452:	dd0b      	ble.n	23fe46c <__gethex+0x46c>
 23fe454:	2101      	movs	r1, #1
 23fe456:	4620      	mov	r0, r4
 23fe458:	f7ff fd6c 	bl	23fdf34 <rshift>
 23fe45c:	3501      	adds	r5, #1
 23fe45e:	f8d8 3008 	ldr.w	r3, [r8, #8]
 23fe462:	42ab      	cmp	r3, r5
 23fe464:	f6ff aed0 	blt.w	23fe208 <__gethex+0x208>
 23fe468:	2701      	movs	r7, #1
 23fe46a:	e7c0      	b.n	23fe3ee <__gethex+0x3ee>
 23fe46c:	f016 061f 	ands.w	r6, r6, #31
 23fe470:	d0fa      	beq.n	23fe468 <__gethex+0x468>
 23fe472:	4453      	add	r3, sl
 23fe474:	f1c6 0620 	rsb	r6, r6, #32
 23fe478:	f853 0c04 	ldr.w	r0, [r3, #-4]
 23fe47c:	f000 f9ce 	bl	23fe81c <__hi0bits>
 23fe480:	42b0      	cmp	r0, r6
 23fe482:	dbe7      	blt.n	23fe454 <__gethex+0x454>
 23fe484:	e7f0      	b.n	23fe468 <__gethex+0x468>
 23fe486:	bf00      	nop
 23fe488:	023ffda1 	.word	0x023ffda1

023fe48c <L_shift>:
 23fe48c:	f1c2 0208 	rsb	r2, r2, #8
 23fe490:	0092      	lsls	r2, r2, #2
 23fe492:	b570      	push	{r4, r5, r6, lr}
 23fe494:	f1c2 0620 	rsb	r6, r2, #32
 23fe498:	6843      	ldr	r3, [r0, #4]
 23fe49a:	6804      	ldr	r4, [r0, #0]
 23fe49c:	fa03 f506 	lsl.w	r5, r3, r6
 23fe4a0:	40d3      	lsrs	r3, r2
 23fe4a2:	432c      	orrs	r4, r5
 23fe4a4:	6004      	str	r4, [r0, #0]
 23fe4a6:	f840 3f04 	str.w	r3, [r0, #4]!
 23fe4aa:	4288      	cmp	r0, r1
 23fe4ac:	d3f4      	bcc.n	23fe498 <L_shift+0xc>
 23fe4ae:	bd70      	pop	{r4, r5, r6, pc}

023fe4b0 <__match>:
 23fe4b0:	6803      	ldr	r3, [r0, #0]
 23fe4b2:	3301      	adds	r3, #1
 23fe4b4:	b530      	push	{r4, r5, lr}
 23fe4b6:	f811 4b01 	ldrb.w	r4, [r1], #1
 23fe4ba:	b914      	cbnz	r4, 23fe4c2 <__match+0x12>
 23fe4bc:	6003      	str	r3, [r0, #0]
 23fe4be:	2001      	movs	r0, #1
 23fe4c0:	bd30      	pop	{r4, r5, pc}
 23fe4c2:	f813 2b01 	ldrb.w	r2, [r3], #1
 23fe4c6:	f1a2 0541 	sub.w	r5, r2, #65	; 0x41
 23fe4ca:	2d19      	cmp	r5, #25
 23fe4cc:	bf98      	it	ls
 23fe4ce:	3220      	addls	r2, #32
 23fe4d0:	42a2      	cmp	r2, r4
 23fe4d2:	d0f0      	beq.n	23fe4b6 <__match+0x6>
 23fe4d4:	2000      	movs	r0, #0
 23fe4d6:	e7f3      	b.n	23fe4c0 <__match+0x10>

023fe4d8 <__hexnan>:
 23fe4d8:	680b      	ldr	r3, [r1, #0]
 23fe4da:	e92d 4ff0 	stmdb	sp!, {r4, r5, r6, r7, r8, r9, sl, fp, lr}
 23fe4de:	115e      	asrs	r6, r3, #5
 23fe4e0:	f013 031f 	ands.w	r3, r3, #31
 23fe4e4:	f04f 0500 	mov.w	r5, #0
 23fe4e8:	b087      	sub	sp, #28
 23fe4ea:	eb02 0686 	add.w	r6, r2, r6, lsl #2
 23fe4ee:	4690      	mov	r8, r2
 23fe4f0:	4682      	mov	sl, r0
 23fe4f2:	6802      	ldr	r2, [r0, #0]
 23fe4f4:	bf18      	it	ne
 23fe4f6:	3604      	addne	r6, #4
 23fe4f8:	46ab      	mov	fp, r5
 23fe4fa:	9301      	str	r3, [sp, #4]
 23fe4fc:	1f37      	subs	r7, r6, #4
 23fe4fe:	f846 5c04 	str.w	r5, [r6, #-4]
 23fe502:	9502      	str	r5, [sp, #8]
 23fe504:	46b9      	mov	r9, r7
 23fe506:	463c      	mov	r4, r7
 23fe508:	1c53      	adds	r3, r2, #1
 23fe50a:	7851      	ldrb	r1, [r2, #1]
 23fe50c:	9303      	str	r3, [sp, #12]
 23fe50e:	b341      	cbz	r1, 23fe562 <__hexnan+0x8a>
 23fe510:	4608      	mov	r0, r1
 23fe512:	9205      	str	r2, [sp, #20]
 23fe514:	9104      	str	r1, [sp, #16]
 23fe516:	f7ff fd5e 	bl	23fdfd6 <__hexdig_fun>
 23fe51a:	2800      	cmp	r0, #0
 23fe51c:	d14f      	bne.n	23fe5be <__hexnan+0xe6>
 23fe51e:	9904      	ldr	r1, [sp, #16]
 23fe520:	9a05      	ldr	r2, [sp, #20]
 23fe522:	2920      	cmp	r1, #32
 23fe524:	d818      	bhi.n	23fe558 <__hexnan+0x80>
 23fe526:	9b02      	ldr	r3, [sp, #8]
 23fe528:	459b      	cmp	fp, r3
 23fe52a:	dd13      	ble.n	23fe554 <__hexnan+0x7c>
 23fe52c:	454c      	cmp	r4, r9
 23fe52e:	d206      	bcs.n	23fe53e <__hexnan+0x66>
 23fe530:	2d07      	cmp	r5, #7
 23fe532:	dc04      	bgt.n	23fe53e <__hexnan+0x66>
 23fe534:	462a      	mov	r2, r5
 23fe536:	4649      	mov	r1, r9
 23fe538:	4620      	mov	r0, r4
 23fe53a:	f7ff ffa7 	bl	23fe48c <L_shift>
 23fe53e:	4544      	cmp	r4, r8
 23fe540:	d94f      	bls.n	23fe5e2 <__hexnan+0x10a>
 23fe542:	2300      	movs	r3, #0
 23fe544:	f1a4 0904 	sub.w	r9, r4, #4
 23fe548:	f8cd b008 	str.w	fp, [sp, #8]
 23fe54c:	f844 3c04 	str.w	r3, [r4, #-4]
 23fe550:	461d      	mov	r5, r3
 23fe552:	464c      	mov	r4, r9
 23fe554:	9a03      	ldr	r2, [sp, #12]
 23fe556:	e7d7      	b.n	23fe508 <__hexnan+0x30>
 23fe558:	2929      	cmp	r1, #41	; 0x29
 23fe55a:	d155      	bne.n	23fe608 <__hexnan+0x130>
 23fe55c:	3202      	adds	r2, #2
 23fe55e:	f8ca 2000 	str.w	r2, [sl]
 23fe562:	f1bb 0f00 	cmp.w	fp, #0
 23fe566:	d04f      	beq.n	23fe608 <__hexnan+0x130>
 23fe568:	454c      	cmp	r4, r9
 23fe56a:	d206      	bcs.n	23fe57a <__hexnan+0xa2>
 23fe56c:	2d07      	cmp	r5, #7
 23fe56e:	dc04      	bgt.n	23fe57a <__hexnan+0xa2>
 23fe570:	462a      	mov	r2, r5
 23fe572:	4649      	mov	r1, r9
 23fe574:	4620      	mov	r0, r4
 23fe576:	f7ff ff89 	bl	23fe48c <L_shift>
 23fe57a:	4544      	cmp	r4, r8
 23fe57c:	d933      	bls.n	23fe5e6 <__hexnan+0x10e>
 23fe57e:	f1a8 0204 	sub.w	r2, r8, #4
 23fe582:	4623      	mov	r3, r4
 23fe584:	f853 1b04 	ldr.w	r1, [r3], #4
 23fe588:	429f      	cmp	r7, r3
 23fe58a:	f842 1f04 	str.w	r1, [r2, #4]!
 23fe58e:	d2f9      	bcs.n	23fe584 <__hexnan+0xac>
 23fe590:	1b3b      	subs	r3, r7, r4
 23fe592:	3e03      	subs	r6, #3
 23fe594:	3401      	adds	r4, #1
 23fe596:	2200      	movs	r2, #0
 23fe598:	f023 0303 	bic.w	r3, r3, #3
 23fe59c:	3304      	adds	r3, #4
 23fe59e:	42b4      	cmp	r4, r6
 23fe5a0:	bf88      	it	hi
 23fe5a2:	2304      	movhi	r3, #4
 23fe5a4:	4443      	add	r3, r8
 23fe5a6:	f843 2b04 	str.w	r2, [r3], #4
 23fe5aa:	429f      	cmp	r7, r3
 23fe5ac:	d2fb      	bcs.n	23fe5a6 <__hexnan+0xce>
 23fe5ae:	683b      	ldr	r3, [r7, #0]
 23fe5b0:	b91b      	cbnz	r3, 23fe5ba <__hexnan+0xe2>
 23fe5b2:	4547      	cmp	r7, r8
 23fe5b4:	d126      	bne.n	23fe604 <__hexnan+0x12c>
 23fe5b6:	2301      	movs	r3, #1
 23fe5b8:	603b      	str	r3, [r7, #0]
 23fe5ba:	2005      	movs	r0, #5
 23fe5bc:	e025      	b.n	23fe60a <__hexnan+0x132>
 23fe5be:	3501      	adds	r5, #1
 23fe5c0:	f10b 0b01 	add.w	fp, fp, #1
 23fe5c4:	2d08      	cmp	r5, #8
 23fe5c6:	dd05      	ble.n	23fe5d4 <__hexnan+0xfc>
 23fe5c8:	4544      	cmp	r4, r8
 23fe5ca:	d9c3      	bls.n	23fe554 <__hexnan+0x7c>
 23fe5cc:	2300      	movs	r3, #0
 23fe5ce:	3c04      	subs	r4, #4
 23fe5d0:	2501      	movs	r5, #1
 23fe5d2:	6023      	str	r3, [r4, #0]
 23fe5d4:	6822      	ldr	r2, [r4, #0]
 23fe5d6:	f000 000f 	and.w	r0, r0, #15
 23fe5da:	ea40 1202 	orr.w	r2, r0, r2, lsl #4
 23fe5de:	6022      	str	r2, [r4, #0]
 23fe5e0:	e7b8      	b.n	23fe554 <__hexnan+0x7c>
 23fe5e2:	2508      	movs	r5, #8
 23fe5e4:	e7b6      	b.n	23fe554 <__hexnan+0x7c>
 23fe5e6:	9b01      	ldr	r3, [sp, #4]
 23fe5e8:	2b00      	cmp	r3, #0
 23fe5ea:	d0e0      	beq.n	23fe5ae <__hexnan+0xd6>
 23fe5ec:	f04f 32ff 	mov.w	r2, #4294967295
 23fe5f0:	f1c3 0320 	rsb	r3, r3, #32
 23fe5f4:	fa22 f303 	lsr.w	r3, r2, r3
 23fe5f8:	f856 2c04 	ldr.w	r2, [r6, #-4]
 23fe5fc:	401a      	ands	r2, r3
 23fe5fe:	f846 2c04 	str.w	r2, [r6, #-4]
 23fe602:	e7d4      	b.n	23fe5ae <__hexnan+0xd6>
 23fe604:	3f04      	subs	r7, #4
 23fe606:	e7d2      	b.n	23fe5ae <__hexnan+0xd6>
 23fe608:	2004      	movs	r0, #4
 23fe60a:	b007      	add	sp, #28
 23fe60c:	e8bd 8ff0 	ldmia.w	sp!, {r4, r5, r6, r7, r8, r9, sl, fp, pc}

023fe610 <__ascii_mbtowc>:
 23fe610:	b082      	sub	sp, #8
 23fe612:	b901      	cbnz	r1, 23fe616 <__ascii_mbtowc+0x6>
 23fe614:	a901      	add	r1, sp, #4
 23fe616:	b142      	cbz	r2, 23fe62a <__ascii_mbtowc+0x1a>
 23fe618:	b14b      	cbz	r3, 23fe62e <__ascii_mbtowc+0x1e>
 23fe61a:	7813      	ldrb	r3, [r2, #0]
 23fe61c:	600b      	str	r3, [r1, #0]
 23fe61e:	7812      	ldrb	r2, [r2, #0]
 23fe620:	1e10      	subs	r0, r2, #0
 23fe622:	bf18      	it	ne
 23fe624:	2001      	movne	r0, #1
 23fe626:	b002      	add	sp, #8
 23fe628:	4770      	bx	lr
 23fe62a:	4610      	mov	r0, r2
 23fe62c:	e7fb      	b.n	23fe626 <__ascii_mbtowc+0x16>
 23fe62e:	f06f 0001 	mvn.w	r0, #1
 23fe632:	e7f8      	b.n	23fe626 <__ascii_mbtowc+0x16>

023fe634 <_Balloc>:
 23fe634:	b570      	push	{r4, r5, r6, lr}
 23fe636:	6a46      	ldr	r6, [r0, #36]	; 0x24
 23fe638:	4604      	mov	r4, r0
 23fe63a:	460d      	mov	r5, r1
 23fe63c:	b976      	cbnz	r6, 23fe65c <_Balloc+0x28>
 23fe63e:	2010      	movs	r0, #16
 23fe640:	f7fb fd58 	bl	23fa0f4 <malloc>
 23fe644:	4602      	mov	r2, r0
 23fe646:	6260      	str	r0, [r4, #36]	; 0x24
 23fe648:	b920      	cbnz	r0, 23fe654 <_Balloc+0x20>
 23fe64a:	4b18      	ldr	r3, [pc, #96]	; (23fe6ac <_Balloc+0x78>)
 23fe64c:	2166      	movs	r1, #102	; 0x66
 23fe64e:	4818      	ldr	r0, [pc, #96]	; (23fe6b0 <_Balloc+0x7c>)
 23fe650:	f7fb fdc0 	bl	23fa1d4 <__assert_func>
 23fe654:	e9c0 6601 	strd	r6, r6, [r0, #4]
 23fe658:	6006      	str	r6, [r0, #0]
 23fe65a:	60c6      	str	r6, [r0, #12]
 23fe65c:	6a66      	ldr	r6, [r4, #36]	; 0x24
 23fe65e:	68f3      	ldr	r3, [r6, #12]
 23fe660:	b183      	cbz	r3, 23fe684 <_Balloc+0x50>
 23fe662:	6a63      	ldr	r3, [r4, #36]	; 0x24
 23fe664:	68db      	ldr	r3, [r3, #12]
 23fe666:	f853 0025 	ldr.w	r0, [r3, r5, lsl #2]
 23fe66a:	b9b8      	cbnz	r0, 23fe69c <_Balloc+0x68>
 23fe66c:	2101      	movs	r1, #1
 23fe66e:	4620      	mov	r0, r4
 23fe670:	fa01 f605 	lsl.w	r6, r1, r5
 23fe674:	1d72      	adds	r2, r6, #5
 23fe676:	0092      	lsls	r2, r2, #2
 23fe678:	f000 fca1 	bl	23fefbe <_calloc_r>
 23fe67c:	b160      	cbz	r0, 23fe698 <_Balloc+0x64>
 23fe67e:	e9c0 5601 	strd	r5, r6, [r0, #4]
 23fe682:	e00e      	b.n	23fe6a2 <_Balloc+0x6e>
 23fe684:	2221      	movs	r2, #33	; 0x21
 23fe686:	2104      	movs	r1, #4
 23fe688:	4620      	mov	r0, r4
 23fe68a:	f000 fc98 	bl	23fefbe <_calloc_r>
 23fe68e:	6a63      	ldr	r3, [r4, #36]	; 0x24
 23fe690:	60f0      	str	r0, [r6, #12]
 23fe692:	68db      	ldr	r3, [r3, #12]
 23fe694:	2b00      	cmp	r3, #0
 23fe696:	d1e4      	bne.n	23fe662 <_Balloc+0x2e>
 23fe698:	2000      	movs	r0, #0
 23fe69a:	bd70      	pop	{r4, r5, r6, pc}
 23fe69c:	6802      	ldr	r2, [r0, #0]
 23fe69e:	f843 2025 	str.w	r2, [r3, r5, lsl #2]
 23fe6a2:	2300      	movs	r3, #0
 23fe6a4:	e9c0 3303 	strd	r3, r3, [r0, #12]
 23fe6a8:	e7f7      	b.n	23fe69a <_Balloc+0x66>
 23fe6aa:	bf00      	nop
 23fe6ac:	023ffba9 	.word	0x023ffba9
 23fe6b0:	023ffe4c 	.word	0x023ffe4c

023fe6b4 <_Bfree>:
 23fe6b4:	b570      	push	{r4, r5, r6, lr}
 23fe6b6:	6a46      	ldr	r6, [r0, #36]	; 0x24
 23fe6b8:	4605      	mov	r5, r0
 23fe6ba:	460c      	mov	r4, r1
 23fe6bc:	b976      	cbnz	r6, 23fe6dc <_Bfree+0x28>
 23fe6be:	2010      	movs	r0, #16
 23fe6c0:	f7fb fd18 	bl	23fa0f4 <malloc>
 23fe6c4:	4602      	mov	r2, r0
 23fe6c6:	6268      	str	r0, [r5, #36]	; 0x24
 23fe6c8:	b920      	cbnz	r0, 23fe6d4 <_Bfree+0x20>
 23fe6ca:	4b09      	ldr	r3, [pc, #36]	; (23fe6f0 <_Bfree+0x3c>)
 23fe6cc:	218a      	movs	r1, #138	; 0x8a
 23fe6ce:	4809      	ldr	r0, [pc, #36]	; (23fe6f4 <_Bfree+0x40>)
 23fe6d0:	f7fb fd80 	bl	23fa1d4 <__assert_func>
 23fe6d4:	e9c0 6601 	strd	r6, r6, [r0, #4]
 23fe6d8:	6006      	str	r6, [r0, #0]
 23fe6da:	60c6      	str	r6, [r0, #12]
 23fe6dc:	b13c      	cbz	r4, 23fe6ee <_Bfree+0x3a>
 23fe6de:	6a6b      	ldr	r3, [r5, #36]	; 0x24
 23fe6e0:	6862      	ldr	r2, [r4, #4]
 23fe6e2:	68db      	ldr	r3, [r3, #12]
 23fe6e4:	f853 1022 	ldr.w	r1, [r3, r2, lsl #2]
 23fe6e8:	6021      	str	r1, [r4, #0]
 23fe6ea:	f843 4022 	str.w	r4, [r3, r2, lsl #2]
 23fe6ee:	bd70      	pop	{r4, r5, r6, pc}
 23fe6f0:	023ffba9 	.word	0x023ffba9
 23fe6f4:	023ffe4c 	.word	0x023ffe4c

023fe6f8 <__multadd>:
 23fe6f8:	e92d 41f0 	stmdb	sp!, {r4, r5, r6, r7, r8, lr}
 23fe6fc:	f101 0c14 	add.w	ip, r1, #20
 23fe700:	4607      	mov	r7, r0
 23fe702:	460c      	mov	r4, r1
 23fe704:	461e      	mov	r6, r3
 23fe706:	690d      	ldr	r5, [r1, #16]
 23fe708:	2000      	movs	r0, #0
 23fe70a:	f8dc 3000 	ldr.w	r3, [ip]
 23fe70e:	3001      	adds	r0, #1
 23fe710:	b299      	uxth	r1, r3
 23fe712:	4285      	cmp	r5, r0
 23fe714:	fb02 6101 	mla	r1, r2, r1, r6
 23fe718:	ea4f 4613 	mov.w	r6, r3, lsr #16
 23fe71c:	ea4f 4311 	mov.w	r3, r1, lsr #16
 23fe720:	b289      	uxth	r1, r1
 23fe722:	fb02 3306 	mla	r3, r2, r6, r3
 23fe726:	eb01 4103 	add.w	r1, r1, r3, lsl #16
 23fe72a:	ea4f 4613 	mov.w	r6, r3, lsr #16
 23fe72e:	f84c 1b04 	str.w	r1, [ip], #4
 23fe732:	dcea      	bgt.n	23fe70a <__multadd+0x12>
 23fe734:	b30e      	cbz	r6, 23fe77a <__multadd+0x82>
 23fe736:	68a3      	ldr	r3, [r4, #8]
 23fe738:	42ab      	cmp	r3, r5
 23fe73a:	dc19      	bgt.n	23fe770 <__multadd+0x78>
 23fe73c:	6861      	ldr	r1, [r4, #4]
 23fe73e:	4638      	mov	r0, r7
 23fe740:	3101      	adds	r1, #1
 23fe742:	f7ff ff77 	bl	23fe634 <_Balloc>
 23fe746:	4680      	mov	r8, r0
 23fe748:	b928      	cbnz	r0, 23fe756 <__multadd+0x5e>
 23fe74a:	4602      	mov	r2, r0
 23fe74c:	4b0c      	ldr	r3, [pc, #48]	; (23fe780 <__multadd+0x88>)
 23fe74e:	21b5      	movs	r1, #181	; 0xb5
 23fe750:	480c      	ldr	r0, [pc, #48]	; (23fe784 <__multadd+0x8c>)
 23fe752:	f7fb fd3f 	bl	23fa1d4 <__assert_func>
 23fe756:	6922      	ldr	r2, [r4, #16]
 23fe758:	f104 010c 	add.w	r1, r4, #12
 23fe75c:	300c      	adds	r0, #12
 23fe75e:	3202      	adds	r2, #2
 23fe760:	0092      	lsls	r2, r2, #2
 23fe762:	f7fe fc0f 	bl	23fcf84 <memcpy>
 23fe766:	4621      	mov	r1, r4
 23fe768:	4644      	mov	r4, r8
 23fe76a:	4638      	mov	r0, r7
 23fe76c:	f7ff ffa2 	bl	23fe6b4 <_Bfree>
 23fe770:	eb04 0385 	add.w	r3, r4, r5, lsl #2
 23fe774:	3501      	adds	r5, #1
 23fe776:	615e      	str	r6, [r3, #20]
 23fe778:	6125      	str	r5, [r4, #16]
 23fe77a:	4620      	mov	r0, r4
 23fe77c:	e8bd 81f0 	ldmia.w	sp!, {r4, r5, r6, r7, r8, pc}
 23fe780:	023ffda1 	.word	0x023ffda1
 23fe784:	023ffe4c 	.word	0x023ffe4c

023fe788 <__s2b>:
 23fe788:	e92d 43f8 	stmdb	sp!, {r3, r4, r5, r6, r7, r8, r9, lr}
 23fe78c:	4615      	mov	r5, r2
 23fe78e:	461f      	mov	r7, r3
 23fe790:	2209      	movs	r2, #9
 23fe792:	3308      	adds	r3, #8
 23fe794:	460c      	mov	r4, r1
 23fe796:	4606      	mov	r6, r0
 23fe798:	2100      	movs	r1, #0
 23fe79a:	fb93 f3f2 	sdiv	r3, r3, r2
 23fe79e:	2201      	movs	r2, #1
 23fe7a0:	429a      	cmp	r2, r3
 23fe7a2:	db09      	blt.n	23fe7b8 <__s2b+0x30>
 23fe7a4:	4630      	mov	r0, r6
 23fe7a6:	f7ff ff45 	bl	23fe634 <_Balloc>
 23fe7aa:	b940      	cbnz	r0, 23fe7be <__s2b+0x36>
 23fe7ac:	4602      	mov	r2, r0
 23fe7ae:	4b19      	ldr	r3, [pc, #100]	; (23fe814 <__s2b+0x8c>)
 23fe7b0:	21ce      	movs	r1, #206	; 0xce
 23fe7b2:	4819      	ldr	r0, [pc, #100]	; (23fe818 <__s2b+0x90>)
 23fe7b4:	f7fb fd0e 	bl	23fa1d4 <__assert_func>
 23fe7b8:	0052      	lsls	r2, r2, #1
 23fe7ba:	3101      	adds	r1, #1
 23fe7bc:	e7f0      	b.n	23fe7a0 <__s2b+0x18>
 23fe7be:	9b08      	ldr	r3, [sp, #32]
 23fe7c0:	2d09      	cmp	r5, #9
 23fe7c2:	6143      	str	r3, [r0, #20]
 23fe7c4:	f04f 0301 	mov.w	r3, #1
 23fe7c8:	6103      	str	r3, [r0, #16]
 23fe7ca:	dd16      	ble.n	23fe7fa <__s2b+0x72>
 23fe7cc:	f104 0909 	add.w	r9, r4, #9
 23fe7d0:	442c      	add	r4, r5
 23fe7d2:	46c8      	mov	r8, r9
 23fe7d4:	f818 3b01 	ldrb.w	r3, [r8], #1
 23fe7d8:	4601      	mov	r1, r0
 23fe7da:	220a      	movs	r2, #10
 23fe7dc:	4630      	mov	r0, r6
 23fe7de:	3b30      	subs	r3, #48	; 0x30
 23fe7e0:	f7ff ff8a 	bl	23fe6f8 <__multadd>
 23fe7e4:	45a0      	cmp	r8, r4
 23fe7e6:	d1f5      	bne.n	23fe7d4 <__s2b+0x4c>
 23fe7e8:	f1a5 0408 	sub.w	r4, r5, #8
 23fe7ec:	444c      	add	r4, r9
 23fe7ee:	1b2d      	subs	r5, r5, r4
 23fe7f0:	1963      	adds	r3, r4, r5
 23fe7f2:	42bb      	cmp	r3, r7
 23fe7f4:	db04      	blt.n	23fe800 <__s2b+0x78>
 23fe7f6:	e8bd 83f8 	ldmia.w	sp!, {r3, r4, r5, r6, r7, r8, r9, pc}
 23fe7fa:	340a      	adds	r4, #10
 23fe7fc:	2509      	movs	r5, #9
 23fe7fe:	e7f6      	b.n	23fe7ee <__s2b+0x66>
 23fe800:	f814 3b01 	ldrb.w	r3, [r4], #1
 23fe804:	4601      	mov	r1, r0
 23fe806:	220a      	movs	r2, #10
 23fe808:	4630      	mov	r0, r6
 23fe80a:	3b30      	subs	r3, #48	; 0x30
 23fe80c:	f7ff ff74 	bl	23fe6f8 <__multadd>
 23fe810:	e7ee      	b.n	23fe7f0 <__s2b+0x68>
 23fe812:	bf00      	nop
 23fe814:	023ffda1 	.word	0x023ffda1
 23fe818:	023ffe4c 	.word	0x023ffe4c

023fe81c <__hi0bits>:
 23fe81c:	0c03      	lsrs	r3, r0, #16
 23fe81e:	041b      	lsls	r3, r3, #16
 23fe820:	b9d3      	cbnz	r3, 23fe858 <__hi0bits+0x3c>
 23fe822:	0400      	lsls	r0, r0, #16
 23fe824:	2310      	movs	r3, #16
 23fe826:	f010 4f7f 	tst.w	r0, #4278190080	; 0xff000000
 23fe82a:	bf04      	itt	eq
 23fe82c:	0200      	lsleq	r0, r0, #8
 23fe82e:	3308      	addeq	r3, #8
 23fe830:	f010 4f70 	tst.w	r0, #4026531840	; 0xf0000000
 23fe834:	bf04      	itt	eq
 23fe836:	0100      	lsleq	r0, r0, #4
 23fe838:	3304      	addeq	r3, #4
 23fe83a:	f010 4f40 	tst.w	r0, #3221225472	; 0xc0000000
 23fe83e:	bf04      	itt	eq
 23fe840:	0080      	lsleq	r0, r0, #2
 23fe842:	3302      	addeq	r3, #2
 23fe844:	2800      	cmp	r0, #0
 23fe846:	db05      	blt.n	23fe854 <__hi0bits+0x38>
 23fe848:	f010 4f80 	tst.w	r0, #1073741824	; 0x40000000
 23fe84c:	f103 0301 	add.w	r3, r3, #1
 23fe850:	bf08      	it	eq
 23fe852:	2320      	moveq	r3, #32
 23fe854:	4618      	mov	r0, r3
 23fe856:	4770      	bx	lr
 23fe858:	2300      	movs	r3, #0
 23fe85a:	e7e4      	b.n	23fe826 <__hi0bits+0xa>

023fe85c <__lo0bits>:
 23fe85c:	6803      	ldr	r3, [r0, #0]
 23fe85e:	4601      	mov	r1, r0
 23fe860:	f013 0207 	ands.w	r2, r3, #7
 23fe864:	d00b      	beq.n	23fe87e <__lo0bits+0x22>
 23fe866:	07da      	lsls	r2, r3, #31
 23fe868:	d423      	bmi.n	23fe8b2 <__lo0bits+0x56>
 23fe86a:	0798      	lsls	r0, r3, #30
 23fe86c:	bf47      	ittee	mi
 23fe86e:	085b      	lsrmi	r3, r3, #1
 23fe870:	2001      	movmi	r0, #1
 23fe872:	089b      	lsrpl	r3, r3, #2
 23fe874:	2002      	movpl	r0, #2
 23fe876:	bf4c      	ite	mi
 23fe878:	600b      	strmi	r3, [r1, #0]
 23fe87a:	600b      	strpl	r3, [r1, #0]
 23fe87c:	4770      	bx	lr
 23fe87e:	b298      	uxth	r0, r3
 23fe880:	b9a8      	cbnz	r0, 23fe8ae <__lo0bits+0x52>
 23fe882:	0c1b      	lsrs	r3, r3, #16
 23fe884:	2010      	movs	r0, #16
 23fe886:	b2da      	uxtb	r2, r3
 23fe888:	b90a      	cbnz	r2, 23fe88e <__lo0bits+0x32>
 23fe88a:	3008      	adds	r0, #8
 23fe88c:	0a1b      	lsrs	r3, r3, #8
 23fe88e:	071a      	lsls	r2, r3, #28
 23fe890:	bf04      	itt	eq
 23fe892:	091b      	lsreq	r3, r3, #4
 23fe894:	3004      	addeq	r0, #4
 23fe896:	079a      	lsls	r2, r3, #30
 23fe898:	bf04      	itt	eq
 23fe89a:	089b      	lsreq	r3, r3, #2
 23fe89c:	3002      	addeq	r0, #2
 23fe89e:	07da      	lsls	r2, r3, #31
 23fe8a0:	d403      	bmi.n	23fe8aa <__lo0bits+0x4e>
 23fe8a2:	085b      	lsrs	r3, r3, #1
 23fe8a4:	f100 0001 	add.w	r0, r0, #1
 23fe8a8:	d005      	beq.n	23fe8b6 <__lo0bits+0x5a>
 23fe8aa:	600b      	str	r3, [r1, #0]
 23fe8ac:	4770      	bx	lr
 23fe8ae:	4610      	mov	r0, r2
 23fe8b0:	e7e9      	b.n	23fe886 <__lo0bits+0x2a>
 23fe8b2:	2000      	movs	r0, #0
 23fe8b4:	4770      	bx	lr
 23fe8b6:	2020      	movs	r0, #32
 23fe8b8:	4770      	bx	lr
	...

023fe8bc <__i2b>:
 23fe8bc:	b510      	push	{r4, lr}
 23fe8be:	460c      	mov	r4, r1
 23fe8c0:	2101      	movs	r1, #1
 23fe8c2:	f7ff feb7 	bl	23fe634 <_Balloc>
 23fe8c6:	4602      	mov	r2, r0
 23fe8c8:	b928      	cbnz	r0, 23fe8d6 <__i2b+0x1a>
 23fe8ca:	4b05      	ldr	r3, [pc, #20]	; (23fe8e0 <__i2b+0x24>)
 23fe8cc:	f44f 71a0 	mov.w	r1, #320	; 0x140
 23fe8d0:	4804      	ldr	r0, [pc, #16]	; (23fe8e4 <__i2b+0x28>)
 23fe8d2:	f7fb fc7f 	bl	23fa1d4 <__assert_func>
 23fe8d6:	2301      	movs	r3, #1
 23fe8d8:	6144      	str	r4, [r0, #20]
 23fe8da:	6103      	str	r3, [r0, #16]
 23fe8dc:	bd10      	pop	{r4, pc}
 23fe8de:	bf00      	nop
 23fe8e0:	023ffda1 	.word	0x023ffda1
 23fe8e4:	023ffe4c 	.word	0x023ffe4c

023fe8e8 <__multiply>:
 23fe8e8:	e92d 4ff0 	stmdb	sp!, {r4, r5, r6, r7, r8, r9, sl, fp, lr}
 23fe8ec:	4691      	mov	r9, r2
 23fe8ee:	690a      	ldr	r2, [r1, #16]
 23fe8f0:	460c      	mov	r4, r1
 23fe8f2:	b085      	sub	sp, #20
 23fe8f4:	f8d9 3010 	ldr.w	r3, [r9, #16]
 23fe8f8:	429a      	cmp	r2, r3
 23fe8fa:	bfbe      	ittt	lt
 23fe8fc:	460b      	movlt	r3, r1
 23fe8fe:	464c      	movlt	r4, r9
 23fe900:	4699      	movlt	r9, r3
 23fe902:	6927      	ldr	r7, [r4, #16]
 23fe904:	68a3      	ldr	r3, [r4, #8]
 23fe906:	f8d9 a010 	ldr.w	sl, [r9, #16]
 23fe90a:	6861      	ldr	r1, [r4, #4]
 23fe90c:	eb07 060a 	add.w	r6, r7, sl
 23fe910:	42b3      	cmp	r3, r6
 23fe912:	bfb8      	it	lt
 23fe914:	3101      	addlt	r1, #1
 23fe916:	f7ff fe8d 	bl	23fe634 <_Balloc>
 23fe91a:	b930      	cbnz	r0, 23fe92a <__multiply+0x42>
 23fe91c:	4602      	mov	r2, r0
 23fe91e:	4b44      	ldr	r3, [pc, #272]	; (23fea30 <__multiply+0x148>)
 23fe920:	f240 115d 	movw	r1, #349	; 0x15d
 23fe924:	4843      	ldr	r0, [pc, #268]	; (23fea34 <__multiply+0x14c>)
 23fe926:	f7fb fc55 	bl	23fa1d4 <__assert_func>
 23fe92a:	f100 0514 	add.w	r5, r0, #20
 23fe92e:	2200      	movs	r2, #0
 23fe930:	eb05 0886 	add.w	r8, r5, r6, lsl #2
 23fe934:	462b      	mov	r3, r5
 23fe936:	4543      	cmp	r3, r8
 23fe938:	d321      	bcc.n	23fe97e <__multiply+0x96>
 23fe93a:	f104 0314 	add.w	r3, r4, #20
 23fe93e:	f104 0115 	add.w	r1, r4, #21
 23fe942:	eb03 0787 	add.w	r7, r3, r7, lsl #2
 23fe946:	f109 0314 	add.w	r3, r9, #20
 23fe94a:	eb03 028a 	add.w	r2, r3, sl, lsl #2
 23fe94e:	9202      	str	r2, [sp, #8]
 23fe950:	1b3a      	subs	r2, r7, r4
 23fe952:	3a15      	subs	r2, #21
 23fe954:	f022 0203 	bic.w	r2, r2, #3
 23fe958:	3204      	adds	r2, #4
 23fe95a:	428f      	cmp	r7, r1
 23fe95c:	bf38      	it	cc
 23fe95e:	2204      	movcc	r2, #4
 23fe960:	9201      	str	r2, [sp, #4]
 23fe962:	9a02      	ldr	r2, [sp, #8]
 23fe964:	9303      	str	r3, [sp, #12]
 23fe966:	429a      	cmp	r2, r3
 23fe968:	d80c      	bhi.n	23fe984 <__multiply+0x9c>
 23fe96a:	2e00      	cmp	r6, #0
 23fe96c:	dd03      	ble.n	23fe976 <__multiply+0x8e>
 23fe96e:	f858 3d04 	ldr.w	r3, [r8, #-4]!
 23fe972:	2b00      	cmp	r3, #0
 23fe974:	d05a      	beq.n	23fea2c <__multiply+0x144>
 23fe976:	6106      	str	r6, [r0, #16]
 23fe978:	b005      	add	sp, #20
 23fe97a:	e8bd 8ff0 	ldmia.w	sp!, {r4, r5, r6, r7, r8, r9, sl, fp, pc}
 23fe97e:	f843 2b04 	str.w	r2, [r3], #4
 23fe982:	e7d8      	b.n	23fe936 <__multiply+0x4e>
 23fe984:	f8b3 a000 	ldrh.w	sl, [r3]
 23fe988:	f1ba 0f00 	cmp.w	sl, #0
 23fe98c:	d024      	beq.n	23fe9d8 <__multiply+0xf0>
 23fe98e:	f104 0e14 	add.w	lr, r4, #20
 23fe992:	46a9      	mov	r9, r5
 23fe994:	f04f 0c00 	mov.w	ip, #0
 23fe998:	f85e 2b04 	ldr.w	r2, [lr], #4
 23fe99c:	f8d9 1000 	ldr.w	r1, [r9]
 23fe9a0:	fa1f fb82 	uxth.w	fp, r2
 23fe9a4:	4577      	cmp	r7, lr
 23fe9a6:	b289      	uxth	r1, r1
 23fe9a8:	fb0a 110b 	mla	r1, sl, fp, r1
 23fe9ac:	ea4f 4b12 	mov.w	fp, r2, lsr #16
 23fe9b0:	f8d9 2000 	ldr.w	r2, [r9]
 23fe9b4:	4461      	add	r1, ip
 23fe9b6:	ea4f 4c12 	mov.w	ip, r2, lsr #16
 23fe9ba:	fb0a c20b 	mla	r2, sl, fp, ip
 23fe9be:	eb02 4211 	add.w	r2, r2, r1, lsr #16
 23fe9c2:	b289      	uxth	r1, r1
 23fe9c4:	ea4f 4c12 	mov.w	ip, r2, lsr #16
 23fe9c8:	ea41 4102 	orr.w	r1, r1, r2, lsl #16
 23fe9cc:	f849 1b04 	str.w	r1, [r9], #4
 23fe9d0:	d8e2      	bhi.n	23fe998 <__multiply+0xb0>
 23fe9d2:	9a01      	ldr	r2, [sp, #4]
 23fe9d4:	f845 c002 	str.w	ip, [r5, r2]
 23fe9d8:	9a03      	ldr	r2, [sp, #12]
 23fe9da:	3304      	adds	r3, #4
 23fe9dc:	f8b2 9002 	ldrh.w	r9, [r2, #2]
 23fe9e0:	f1b9 0f00 	cmp.w	r9, #0
 23fe9e4:	d020      	beq.n	23fea28 <__multiply+0x140>
 23fe9e6:	6829      	ldr	r1, [r5, #0]
 23fe9e8:	f104 0c14 	add.w	ip, r4, #20
 23fe9ec:	46ae      	mov	lr, r5
 23fe9ee:	f04f 0a00 	mov.w	sl, #0
 23fe9f2:	f8bc b000 	ldrh.w	fp, [ip]
 23fe9f6:	b289      	uxth	r1, r1
 23fe9f8:	f8be 2002 	ldrh.w	r2, [lr, #2]
 23fe9fc:	fb09 220b 	mla	r2, r9, fp, r2
 23fea00:	4492      	add	sl, r2
 23fea02:	ea41 410a 	orr.w	r1, r1, sl, lsl #16
 23fea06:	f84e 1b04 	str.w	r1, [lr], #4
 23fea0a:	f85c 2b04 	ldr.w	r2, [ip], #4
 23fea0e:	f8be 1000 	ldrh.w	r1, [lr]
 23fea12:	0c12      	lsrs	r2, r2, #16
 23fea14:	4567      	cmp	r7, ip
 23fea16:	fb09 1102 	mla	r1, r9, r2, r1
 23fea1a:	eb01 411a 	add.w	r1, r1, sl, lsr #16
 23fea1e:	ea4f 4a11 	mov.w	sl, r1, lsr #16
 23fea22:	d8e6      	bhi.n	23fe9f2 <__multiply+0x10a>
 23fea24:	9a01      	ldr	r2, [sp, #4]
 23fea26:	50a9      	str	r1, [r5, r2]
 23fea28:	3504      	adds	r5, #4
 23fea2a:	e79a      	b.n	23fe962 <__multiply+0x7a>
 23fea2c:	3e01      	subs	r6, #1
 23fea2e:	e79c      	b.n	23fe96a <__multiply+0x82>
 23fea30:	023ffda1 	.word	0x023ffda1
 23fea34:	023ffe4c 	.word	0x023ffe4c

023fea38 <__pow5mult>:
 23fea38:	e92d 43f8 	stmdb	sp!, {r3, r4, r5, r6, r7, r8, r9, lr}
 23fea3c:	4615      	mov	r5, r2
 23fea3e:	f012 0203 	ands.w	r2, r2, #3
 23fea42:	4606      	mov	r6, r0
 23fea44:	460f      	mov	r7, r1
 23fea46:	d007      	beq.n	23fea58 <__pow5mult+0x20>
 23fea48:	3a01      	subs	r2, #1
 23fea4a:	4c25      	ldr	r4, [pc, #148]	; (23feae0 <__pow5mult+0xa8>)
 23fea4c:	2300      	movs	r3, #0
 23fea4e:	f854 2022 	ldr.w	r2, [r4, r2, lsl #2]
 23fea52:	f7ff fe51 	bl	23fe6f8 <__multadd>
 23fea56:	4607      	mov	r7, r0
 23fea58:	10ad      	asrs	r5, r5, #2
 23fea5a:	d03d      	beq.n	23fead8 <__pow5mult+0xa0>
 23fea5c:	6a74      	ldr	r4, [r6, #36]	; 0x24
 23fea5e:	b97c      	cbnz	r4, 23fea80 <__pow5mult+0x48>
 23fea60:	2010      	movs	r0, #16
 23fea62:	f7fb fb47 	bl	23fa0f4 <malloc>
 23fea66:	4602      	mov	r2, r0
 23fea68:	6270      	str	r0, [r6, #36]	; 0x24
 23fea6a:	b928      	cbnz	r0, 23fea78 <__pow5mult+0x40>
 23fea6c:	4b1d      	ldr	r3, [pc, #116]	; (23feae4 <__pow5mult+0xac>)
 23fea6e:	f44f 71d7 	mov.w	r1, #430	; 0x1ae
 23fea72:	481d      	ldr	r0, [pc, #116]	; (23feae8 <__pow5mult+0xb0>)
 23fea74:	f7fb fbae 	bl	23fa1d4 <__assert_func>
 23fea78:	e9c0 4401 	strd	r4, r4, [r0, #4]
 23fea7c:	6004      	str	r4, [r0, #0]
 23fea7e:	60c4      	str	r4, [r0, #12]
 23fea80:	f8d6 8024 	ldr.w	r8, [r6, #36]	; 0x24
 23fea84:	f8d8 4008 	ldr.w	r4, [r8, #8]
 23fea88:	b94c      	cbnz	r4, 23fea9e <__pow5mult+0x66>
 23fea8a:	f240 2171 	movw	r1, #625	; 0x271
 23fea8e:	4630      	mov	r0, r6
 23fea90:	f7ff ff14 	bl	23fe8bc <__i2b>
 23fea94:	2300      	movs	r3, #0
 23fea96:	4604      	mov	r4, r0
 23fea98:	f8c8 0008 	str.w	r0, [r8, #8]
 23fea9c:	6003      	str	r3, [r0, #0]
 23fea9e:	f04f 0900 	mov.w	r9, #0
 23feaa2:	07eb      	lsls	r3, r5, #31
 23feaa4:	d50a      	bpl.n	23feabc <__pow5mult+0x84>
 23feaa6:	4639      	mov	r1, r7
 23feaa8:	4622      	mov	r2, r4
 23feaaa:	4630      	mov	r0, r6
 23feaac:	f7ff ff1c 	bl	23fe8e8 <__multiply>
 23feab0:	4680      	mov	r8, r0
 23feab2:	4639      	mov	r1, r7
 23feab4:	4630      	mov	r0, r6
 23feab6:	4647      	mov	r7, r8
 23feab8:	f7ff fdfc 	bl	23fe6b4 <_Bfree>
 23feabc:	106d      	asrs	r5, r5, #1
 23feabe:	d00b      	beq.n	23fead8 <__pow5mult+0xa0>
 23feac0:	6820      	ldr	r0, [r4, #0]
 23feac2:	b938      	cbnz	r0, 23fead4 <__pow5mult+0x9c>
 23feac4:	4622      	mov	r2, r4
 23feac6:	4621      	mov	r1, r4
 23feac8:	4630      	mov	r0, r6
 23feaca:	f7ff ff0d 	bl	23fe8e8 <__multiply>
 23feace:	6020      	str	r0, [r4, #0]
 23fead0:	f8c0 9000 	str.w	r9, [r0]
 23fead4:	4604      	mov	r4, r0
 23fead6:	e7e4      	b.n	23feaa2 <__pow5mult+0x6a>
 23fead8:	4638      	mov	r0, r7
 23feada:	e8bd 83f8 	ldmia.w	sp!, {r3, r4, r5, r6, r7, r8, r9, pc}
 23feade:	bf00      	nop
 23feae0:	023fffc0 	.word	0x023fffc0
 23feae4:	023ffba9 	.word	0x023ffba9
 23feae8:	023ffe4c 	.word	0x023ffe4c

023feaec <__lshift>:
 23feaec:	e92d 47f0 	stmdb	sp!, {r4, r5, r6, r7, r8, r9, sl, lr}
 23feaf0:	460c      	mov	r4, r1
 23feaf2:	4607      	mov	r7, r0
 23feaf4:	4691      	mov	r9, r2
 23feaf6:	ea4f 1a62 	mov.w	sl, r2, asr #5
 23feafa:	6923      	ldr	r3, [r4, #16]
 23feafc:	6849      	ldr	r1, [r1, #4]
 23feafe:	eb03 1862 	add.w	r8, r3, r2, asr #5
 23feb02:	68a3      	ldr	r3, [r4, #8]
 23feb04:	f108 0601 	add.w	r6, r8, #1
 23feb08:	42b3      	cmp	r3, r6
 23feb0a:	db0b      	blt.n	23feb24 <__lshift+0x38>
 23feb0c:	4638      	mov	r0, r7
 23feb0e:	f7ff fd91 	bl	23fe634 <_Balloc>
 23feb12:	4605      	mov	r5, r0
 23feb14:	b948      	cbnz	r0, 23feb2a <__lshift+0x3e>
 23feb16:	4602      	mov	r2, r0
 23feb18:	4b2a      	ldr	r3, [pc, #168]	; (23febc4 <__lshift+0xd8>)
 23feb1a:	f240 11d9 	movw	r1, #473	; 0x1d9
 23feb1e:	482a      	ldr	r0, [pc, #168]	; (23febc8 <__lshift+0xdc>)
 23feb20:	f7fb fb58 	bl	23fa1d4 <__assert_func>
 23feb24:	3101      	adds	r1, #1
 23feb26:	005b      	lsls	r3, r3, #1
 23feb28:	e7ee      	b.n	23feb08 <__lshift+0x1c>
 23feb2a:	2300      	movs	r3, #0
 23feb2c:	f100 0114 	add.w	r1, r0, #20
 23feb30:	f100 0210 	add.w	r2, r0, #16
 23feb34:	4618      	mov	r0, r3
 23feb36:	4553      	cmp	r3, sl
 23feb38:	db37      	blt.n	23febaa <__lshift+0xbe>
 23feb3a:	ea2a 7aea 	bic.w	sl, sl, sl, asr #31
 23feb3e:	f104 0314 	add.w	r3, r4, #20
 23feb42:	6920      	ldr	r0, [r4, #16]
 23feb44:	f019 091f 	ands.w	r9, r9, #31
 23feb48:	eb01 018a 	add.w	r1, r1, sl, lsl #2
 23feb4c:	eb03 0080 	add.w	r0, r3, r0, lsl #2
 23feb50:	d02f      	beq.n	23febb2 <__lshift+0xc6>
 23feb52:	f1c9 0e20 	rsb	lr, r9, #32
 23feb56:	468a      	mov	sl, r1
 23feb58:	f04f 0c00 	mov.w	ip, #0
 23feb5c:	681a      	ldr	r2, [r3, #0]
 23feb5e:	fa02 f209 	lsl.w	r2, r2, r9
 23feb62:	ea42 020c 	orr.w	r2, r2, ip
 23feb66:	f84a 2b04 	str.w	r2, [sl], #4
 23feb6a:	f853 2b04 	ldr.w	r2, [r3], #4
 23feb6e:	4298      	cmp	r0, r3
 23feb70:	fa22 fc0e 	lsr.w	ip, r2, lr
 23feb74:	d8f2      	bhi.n	23feb5c <__lshift+0x70>
 23feb76:	1b03      	subs	r3, r0, r4
 23feb78:	f104 0215 	add.w	r2, r4, #21
 23feb7c:	3b15      	subs	r3, #21
 23feb7e:	f023 0303 	bic.w	r3, r3, #3
 23feb82:	3304      	adds	r3, #4
 23feb84:	4290      	cmp	r0, r2
 23feb86:	bf38      	it	cc
 23feb88:	2304      	movcc	r3, #4
 23feb8a:	f841 c003 	str.w	ip, [r1, r3]
 23feb8e:	f1bc 0f00 	cmp.w	ip, #0
 23feb92:	d001      	beq.n	23feb98 <__lshift+0xac>
 23feb94:	f108 0602 	add.w	r6, r8, #2
 23feb98:	3e01      	subs	r6, #1
 23feb9a:	4638      	mov	r0, r7
 23feb9c:	4621      	mov	r1, r4
 23feb9e:	612e      	str	r6, [r5, #16]
 23feba0:	f7ff fd88 	bl	23fe6b4 <_Bfree>
 23feba4:	4628      	mov	r0, r5
 23feba6:	e8bd 87f0 	ldmia.w	sp!, {r4, r5, r6, r7, r8, r9, sl, pc}
 23febaa:	3301      	adds	r3, #1
 23febac:	f842 0f04 	str.w	r0, [r2, #4]!
 23febb0:	e7c1      	b.n	23feb36 <__lshift+0x4a>
 23febb2:	3904      	subs	r1, #4
 23febb4:	f853 2b04 	ldr.w	r2, [r3], #4
 23febb8:	4298      	cmp	r0, r3
 23febba:	f841 2f04 	str.w	r2, [r1, #4]!
 23febbe:	d8f9      	bhi.n	23febb4 <__lshift+0xc8>
 23febc0:	e7ea      	b.n	23feb98 <__lshift+0xac>
 23febc2:	bf00      	nop
 23febc4:	023ffda1 	.word	0x023ffda1
 23febc8:	023ffe4c 	.word	0x023ffe4c

023febcc <__mcmp>:
 23febcc:	6902      	ldr	r2, [r0, #16]
 23febce:	b530      	push	{r4, r5, lr}
 23febd0:	690c      	ldr	r4, [r1, #16]
 23febd2:	1b12      	subs	r2, r2, r4
 23febd4:	d10e      	bne.n	23febf4 <__mcmp+0x28>
 23febd6:	f100 0314 	add.w	r3, r0, #20
 23febda:	3114      	adds	r1, #20
 23febdc:	eb03 0084 	add.w	r0, r3, r4, lsl #2
 23febe0:	eb01 0184 	add.w	r1, r1, r4, lsl #2
 23febe4:	f850 5d04 	ldr.w	r5, [r0, #-4]!
 23febe8:	f851 4d04 	ldr.w	r4, [r1, #-4]!
 23febec:	42a5      	cmp	r5, r4
 23febee:	d003      	beq.n	23febf8 <__mcmp+0x2c>
 23febf0:	d305      	bcc.n	23febfe <__mcmp+0x32>
 23febf2:	2201      	movs	r2, #1
 23febf4:	4610      	mov	r0, r2
 23febf6:	bd30      	pop	{r4, r5, pc}
 23febf8:	4283      	cmp	r3, r0
 23febfa:	d3f3      	bcc.n	23febe4 <__mcmp+0x18>
 23febfc:	e7fa      	b.n	23febf4 <__mcmp+0x28>
 23febfe:	f04f 32ff 	mov.w	r2, #4294967295
 23fec02:	e7f7      	b.n	23febf4 <__mcmp+0x28>

023fec04 <__mdiff>:
 23fec04:	e92d 4ff8 	stmdb	sp!, {r3, r4, r5, r6, r7, r8, r9, sl, fp, lr}
 23fec08:	460c      	mov	r4, r1
 23fec0a:	4606      	mov	r6, r0
 23fec0c:	4611      	mov	r1, r2
 23fec0e:	4692      	mov	sl, r2
 23fec10:	4620      	mov	r0, r4
 23fec12:	f7ff ffdb 	bl	23febcc <__mcmp>
 23fec16:	1e05      	subs	r5, r0, #0
 23fec18:	d110      	bne.n	23fec3c <__mdiff+0x38>
 23fec1a:	4629      	mov	r1, r5
 23fec1c:	4630      	mov	r0, r6
 23fec1e:	f7ff fd09 	bl	23fe634 <_Balloc>
 23fec22:	b930      	cbnz	r0, 23fec32 <__mdiff+0x2e>
 23fec24:	4b3d      	ldr	r3, [pc, #244]	; (23fed1c <__mdiff+0x118>)
 23fec26:	4602      	mov	r2, r0
 23fec28:	f240 2132 	movw	r1, #562	; 0x232
 23fec2c:	483c      	ldr	r0, [pc, #240]	; (23fed20 <__mdiff+0x11c>)
 23fec2e:	f7fb fad1 	bl	23fa1d4 <__assert_func>
 23fec32:	2301      	movs	r3, #1
 23fec34:	e9c0 3504 	strd	r3, r5, [r0, #16]
 23fec38:	e8bd 8ff8 	ldmia.w	sp!, {r3, r4, r5, r6, r7, r8, r9, sl, fp, pc}
 23fec3c:	bfa4      	itt	ge
 23fec3e:	4653      	movge	r3, sl
 23fec40:	46a2      	movge	sl, r4
 23fec42:	4630      	mov	r0, r6
 23fec44:	bfa8      	it	ge
 23fec46:	2500      	movge	r5, #0
 23fec48:	f8da 1004 	ldr.w	r1, [sl, #4]
 23fec4c:	bfac      	ite	ge
 23fec4e:	461c      	movge	r4, r3
 23fec50:	2501      	movlt	r5, #1
 23fec52:	f7ff fcef 	bl	23fe634 <_Balloc>
 23fec56:	b920      	cbnz	r0, 23fec62 <__mdiff+0x5e>
 23fec58:	4b30      	ldr	r3, [pc, #192]	; (23fed1c <__mdiff+0x118>)
 23fec5a:	4602      	mov	r2, r0
 23fec5c:	f44f 7110 	mov.w	r1, #576	; 0x240
 23fec60:	e7e4      	b.n	23fec2c <__mdiff+0x28>
 23fec62:	f8da 7010 	ldr.w	r7, [sl, #16]
 23fec66:	f104 0914 	add.w	r9, r4, #20
 23fec6a:	6926      	ldr	r6, [r4, #16]
 23fec6c:	f100 0814 	add.w	r8, r0, #20
 23fec70:	60c5      	str	r5, [r0, #12]
 23fec72:	f10a 0514 	add.w	r5, sl, #20
 23fec76:	f10a 0210 	add.w	r2, sl, #16
 23fec7a:	eb09 0686 	add.w	r6, r9, r6, lsl #2
 23fec7e:	eb05 0e87 	add.w	lr, r5, r7, lsl #2
 23fec82:	46c2      	mov	sl, r8
 23fec84:	f04f 0c00 	mov.w	ip, #0
 23fec88:	f852 bf04 	ldr.w	fp, [r2, #4]!
 23fec8c:	f859 3b04 	ldr.w	r3, [r9], #4
 23fec90:	fa1f f18b 	uxth.w	r1, fp
 23fec94:	454e      	cmp	r6, r9
 23fec96:	448c      	add	ip, r1
 23fec98:	b299      	uxth	r1, r3
 23fec9a:	ea4f 4313 	mov.w	r3, r3, lsr #16
 23fec9e:	ebac 0101 	sub.w	r1, ip, r1
 23feca2:	ebc3 431b 	rsb	r3, r3, fp, lsr #16
 23feca6:	eb03 4321 	add.w	r3, r3, r1, asr #16
 23fecaa:	b289      	uxth	r1, r1
 23fecac:	ea4f 4c23 	mov.w	ip, r3, asr #16
 23fecb0:	ea41 4303 	orr.w	r3, r1, r3, lsl #16
 23fecb4:	f84a 3b04 	str.w	r3, [sl], #4
 23fecb8:	d8e6      	bhi.n	23fec88 <__mdiff+0x84>
 23fecba:	1b33      	subs	r3, r6, r4
 23fecbc:	3415      	adds	r4, #21
 23fecbe:	3b15      	subs	r3, #21
 23fecc0:	f023 0303 	bic.w	r3, r3, #3
 23fecc4:	3304      	adds	r3, #4
 23fecc6:	42a6      	cmp	r6, r4
 23fecc8:	bf38      	it	cc
 23fecca:	2304      	movcc	r3, #4
 23feccc:	441d      	add	r5, r3
 23fecce:	4443      	add	r3, r8
 23fecd0:	462c      	mov	r4, r5
 23fecd2:	461e      	mov	r6, r3
 23fecd4:	4574      	cmp	r4, lr
 23fecd6:	d30e      	bcc.n	23fecf6 <__mdiff+0xf2>
 23fecd8:	f10e 0203 	add.w	r2, lr, #3
 23fecdc:	1b52      	subs	r2, r2, r5
 23fecde:	3d03      	subs	r5, #3
 23fece0:	f022 0203 	bic.w	r2, r2, #3
 23fece4:	45ae      	cmp	lr, r5
 23fece6:	bf38      	it	cc
 23fece8:	2200      	movcc	r2, #0
 23fecea:	441a      	add	r2, r3
 23fecec:	f852 3d04 	ldr.w	r3, [r2, #-4]!
 23fecf0:	b18b      	cbz	r3, 23fed16 <__mdiff+0x112>
 23fecf2:	6107      	str	r7, [r0, #16]
 23fecf4:	e7a0      	b.n	23fec38 <__mdiff+0x34>
 23fecf6:	f854 8b04 	ldr.w	r8, [r4], #4
 23fecfa:	fa1f f288 	uxth.w	r2, r8
 23fecfe:	4462      	add	r2, ip
 23fed00:	1411      	asrs	r1, r2, #16
 23fed02:	b292      	uxth	r2, r2
 23fed04:	eb01 4118 	add.w	r1, r1, r8, lsr #16
 23fed08:	ea42 4201 	orr.w	r2, r2, r1, lsl #16
 23fed0c:	ea4f 4c21 	mov.w	ip, r1, asr #16
 23fed10:	f846 2b04 	str.w	r2, [r6], #4
 23fed14:	e7de      	b.n	23fecd4 <__mdiff+0xd0>
 23fed16:	3f01      	subs	r7, #1
 23fed18:	e7e8      	b.n	23fecec <__mdiff+0xe8>
 23fed1a:	bf00      	nop
 23fed1c:	023ffda1 	.word	0x023ffda1
 23fed20:	023ffe4c 	.word	0x023ffe4c

023fed24 <__ulp>:
 23fed24:	b082      	sub	sp, #8
 23fed26:	4913      	ldr	r1, [pc, #76]	; (23fed74 <__ulp+0x50>)
 23fed28:	ed8d 0b00 	vstr	d0, [sp]
 23fed2c:	9b01      	ldr	r3, [sp, #4]
 23fed2e:	4019      	ands	r1, r3
 23fed30:	f1a1 7150 	sub.w	r1, r1, #54525952	; 0x3400000
 23fed34:	2900      	cmp	r1, #0
 23fed36:	dd05      	ble.n	23fed44 <__ulp+0x20>
 23fed38:	2200      	movs	r2, #0
 23fed3a:	460b      	mov	r3, r1
 23fed3c:	ec43 2b10 	vmov	d0, r2, r3
 23fed40:	b002      	add	sp, #8
 23fed42:	4770      	bx	lr
 23fed44:	4249      	negs	r1, r1
 23fed46:	2200      	movs	r2, #0
 23fed48:	2300      	movs	r3, #0
 23fed4a:	f1b1 7fa0 	cmp.w	r1, #20971520	; 0x1400000
 23fed4e:	ea4f 5021 	mov.w	r0, r1, asr #20
 23fed52:	da04      	bge.n	23fed5e <__ulp+0x3a>
 23fed54:	f44f 2100 	mov.w	r1, #524288	; 0x80000
 23fed58:	fa41 f300 	asr.w	r3, r1, r0
 23fed5c:	e7ee      	b.n	23fed3c <__ulp+0x18>
 23fed5e:	f1a0 0114 	sub.w	r1, r0, #20
 23fed62:	291e      	cmp	r1, #30
 23fed64:	bfd6      	itet	le
 23fed66:	f04f 4000 	movle.w	r0, #2147483648	; 0x80000000
 23fed6a:	2101      	movgt	r1, #1
 23fed6c:	fa20 f101 	lsrle.w	r1, r0, r1
 23fed70:	460a      	mov	r2, r1
 23fed72:	e7e3      	b.n	23fed3c <__ulp+0x18>
 23fed74:	7ff00000 	.word	0x7ff00000

023fed78 <__b2d>:
 23fed78:	b5f8      	push	{r3, r4, r5, r6, r7, lr}
 23fed7a:	6905      	ldr	r5, [r0, #16]
 23fed7c:	f100 0714 	add.w	r7, r0, #20
 23fed80:	eb07 0585 	add.w	r5, r7, r5, lsl #2
 23fed84:	f855 4c04 	ldr.w	r4, [r5, #-4]
 23fed88:	1f2e      	subs	r6, r5, #4
 23fed8a:	4620      	mov	r0, r4
 23fed8c:	f7ff fd46 	bl	23fe81c <__hi0bits>
 23fed90:	f1c0 0320 	rsb	r3, r0, #32
 23fed94:	280a      	cmp	r0, #10
 23fed96:	f8df c07c 	ldr.w	ip, [pc, #124]	; 23fee14 <__b2d+0x9c>
 23fed9a:	600b      	str	r3, [r1, #0]
 23fed9c:	dc15      	bgt.n	23fedca <__b2d+0x52>
 23fed9e:	f1c0 0e0b 	rsb	lr, r0, #11
 23feda2:	42b7      	cmp	r7, r6
 23feda4:	f100 0015 	add.w	r0, r0, #21
 23feda8:	fa24 f10e 	lsr.w	r1, r4, lr
 23fedac:	fa04 f000 	lsl.w	r0, r4, r0
 23fedb0:	ea41 030c 	orr.w	r3, r1, ip
 23fedb4:	bf34      	ite	cc
 23fedb6:	f855 1c08 	ldrcc.w	r1, [r5, #-8]
 23fedba:	2100      	movcs	r1, #0
 23fedbc:	fa21 f10e 	lsr.w	r1, r1, lr
 23fedc0:	ea40 0201 	orr.w	r2, r0, r1
 23fedc4:	ec43 2b10 	vmov	d0, r2, r3
 23fedc8:	bdf8      	pop	{r3, r4, r5, r6, r7, pc}
 23fedca:	42b7      	cmp	r7, r6
 23fedcc:	bf3a      	itte	cc
 23fedce:	f1a5 0608 	subcc.w	r6, r5, #8
 23fedd2:	f855 1c08 	ldrcc.w	r1, [r5, #-8]
 23fedd6:	2100      	movcs	r1, #0
 23fedd8:	380b      	subs	r0, #11
 23fedda:	d017      	beq.n	23fee0c <__b2d+0x94>
 23feddc:	f1c0 0c20 	rsb	ip, r0, #32
 23fede0:	fa04 f500 	lsl.w	r5, r4, r0
 23fede4:	42be      	cmp	r6, r7
 23fede6:	fa01 f000 	lsl.w	r0, r1, r0
 23fedea:	fa21 f40c 	lsr.w	r4, r1, ip
 23fedee:	ea45 0504 	orr.w	r5, r5, r4
 23fedf2:	bf8c      	ite	hi
 23fedf4:	f856 4c04 	ldrhi.w	r4, [r6, #-4]
 23fedf8:	2400      	movls	r4, #0
 23fedfa:	f045 537f 	orr.w	r3, r5, #1069547520	; 0x3fc00000
 23fedfe:	fa24 f40c 	lsr.w	r4, r4, ip
 23fee02:	f443 1340 	orr.w	r3, r3, #3145728	; 0x300000
 23fee06:	ea40 0204 	orr.w	r2, r0, r4
 23fee0a:	e7db      	b.n	23fedc4 <__b2d+0x4c>
 23fee0c:	ea44 030c 	orr.w	r3, r4, ip
 23fee10:	460a      	mov	r2, r1
 23fee12:	e7d7      	b.n	23fedc4 <__b2d+0x4c>
 23fee14:	3ff00000 	.word	0x3ff00000

023fee18 <__d2b>:
 23fee18:	e92d 43f7 	stmdb	sp!, {r0, r1, r2, r4, r5, r6, r7, r8, r9, lr}
 23fee1c:	4689      	mov	r9, r1
 23fee1e:	2101      	movs	r1, #1
 23fee20:	4690      	mov	r8, r2
 23fee22:	ec57 6b10 	vmov	r6, r7, d0
 23fee26:	f7ff fc05 	bl	23fe634 <_Balloc>
 23fee2a:	4604      	mov	r4, r0
 23fee2c:	b930      	cbnz	r0, 23fee3c <__d2b+0x24>
 23fee2e:	4602      	mov	r2, r0
 23fee30:	4b25      	ldr	r3, [pc, #148]	; (23feec8 <__d2b+0xb0>)
 23fee32:	f240 310a 	movw	r1, #778	; 0x30a
 23fee36:	4825      	ldr	r0, [pc, #148]	; (23feecc <__d2b+0xb4>)
 23fee38:	f7fb f9cc 	bl	23fa1d4 <__assert_func>
 23fee3c:	f3c7 550a 	ubfx	r5, r7, #20, #11
 23fee40:	f3c7 0313 	ubfx	r3, r7, #0, #20
 23fee44:	bb35      	cbnz	r5, 23fee94 <__d2b+0x7c>
 23fee46:	2e00      	cmp	r6, #0
 23fee48:	9301      	str	r3, [sp, #4]
 23fee4a:	d028      	beq.n	23fee9e <__d2b+0x86>
 23fee4c:	4668      	mov	r0, sp
 23fee4e:	9600      	str	r6, [sp, #0]
 23fee50:	f7ff fd04 	bl	23fe85c <__lo0bits>
 23fee54:	9900      	ldr	r1, [sp, #0]
 23fee56:	b300      	cbz	r0, 23fee9a <__d2b+0x82>
 23fee58:	9a01      	ldr	r2, [sp, #4]
 23fee5a:	f1c0 0320 	rsb	r3, r0, #32
 23fee5e:	fa02 f303 	lsl.w	r3, r2, r3
 23fee62:	40c2      	lsrs	r2, r0
 23fee64:	430b      	orrs	r3, r1
 23fee66:	9201      	str	r2, [sp, #4]
 23fee68:	6163      	str	r3, [r4, #20]
 23fee6a:	9b01      	ldr	r3, [sp, #4]
 23fee6c:	2b00      	cmp	r3, #0
 23fee6e:	61a3      	str	r3, [r4, #24]
 23fee70:	bf14      	ite	ne
 23fee72:	2202      	movne	r2, #2
 23fee74:	2201      	moveq	r2, #1
 23fee76:	6122      	str	r2, [r4, #16]
 23fee78:	b1d5      	cbz	r5, 23feeb0 <__d2b+0x98>
 23fee7a:	f2a5 4533 	subw	r5, r5, #1075	; 0x433
 23fee7e:	4405      	add	r5, r0
 23fee80:	f1c0 0035 	rsb	r0, r0, #53	; 0x35
 23fee84:	f8c9 5000 	str.w	r5, [r9]
 23fee88:	f8c8 0000 	str.w	r0, [r8]
 23fee8c:	4620      	mov	r0, r4
 23fee8e:	b003      	add	sp, #12
 23fee90:	e8bd 83f0 	ldmia.w	sp!, {r4, r5, r6, r7, r8, r9, pc}
 23fee94:	f443 1380 	orr.w	r3, r3, #1048576	; 0x100000
 23fee98:	e7d5      	b.n	23fee46 <__d2b+0x2e>
 23fee9a:	6161      	str	r1, [r4, #20]
 23fee9c:	e7e5      	b.n	23fee6a <__d2b+0x52>
 23fee9e:	a801      	add	r0, sp, #4
 23feea0:	f7ff fcdc 	bl	23fe85c <__lo0bits>
 23feea4:	9b01      	ldr	r3, [sp, #4]
 23feea6:	2201      	movs	r2, #1
 23feea8:	3020      	adds	r0, #32
 23feeaa:	6163      	str	r3, [r4, #20]
 23feeac:	6122      	str	r2, [r4, #16]
 23feeae:	e7e3      	b.n	23fee78 <__d2b+0x60>
 23feeb0:	f2a0 4032 	subw	r0, r0, #1074	; 0x432
 23feeb4:	eb04 0382 	add.w	r3, r4, r2, lsl #2
 23feeb8:	f8c9 0000 	str.w	r0, [r9]
 23feebc:	6918      	ldr	r0, [r3, #16]
 23feebe:	f7ff fcad 	bl	23fe81c <__hi0bits>
 23feec2:	ebc0 1042 	rsb	r0, r0, r2, lsl #5
 23feec6:	e7df      	b.n	23fee88 <__d2b+0x70>
 23feec8:	023ffda1 	.word	0x023ffda1
 23feecc:	023ffe4c 	.word	0x023ffe4c

023feed0 <__ratio>:
 23feed0:	e92d 4ff7 	stmdb	sp!, {r0, r1, r2, r4, r5, r6, r7, r8, r9, sl, fp, lr}
 23feed4:	4688      	mov	r8, r1
 23feed6:	4681      	mov	r9, r0
 23feed8:	4669      	mov	r1, sp
 23feeda:	f7ff ff4d 	bl	23fed78 <__b2d>
 23feede:	a901      	add	r1, sp, #4
 23feee0:	4640      	mov	r0, r8
 23feee2:	ec55 4b10 	vmov	r4, r5, d0
 23feee6:	f7ff ff47 	bl	23fed78 <__b2d>
 23feeea:	f8d9 3010 	ldr.w	r3, [r9, #16]
 23feeee:	f8d8 2010 	ldr.w	r2, [r8, #16]
 23feef2:	462f      	mov	r7, r5
 23feef4:	eba3 0c02 	sub.w	ip, r3, r2
 23feef8:	e9dd 3200 	ldrd	r3, r2, [sp]
 23feefc:	ec51 0b10 	vmov	r0, r1, d0
 23fef00:	1a9b      	subs	r3, r3, r2
 23fef02:	468b      	mov	fp, r1
 23fef04:	4620      	mov	r0, r4
 23fef06:	eb03 134c 	add.w	r3, r3, ip, lsl #5
 23fef0a:	2b00      	cmp	r3, #0
 23fef0c:	bfd5      	itete	le
 23fef0e:	460a      	movle	r2, r1
 23fef10:	462a      	movgt	r2, r5
 23fef12:	ebc3 3303 	rsble	r3, r3, r3, lsl #12
 23fef16:	eb02 5703 	addgt.w	r7, r2, r3, lsl #20
 23fef1a:	bfd8      	it	le
 23fef1c:	eb02 5b03 	addle.w	fp, r2, r3, lsl #20
 23fef20:	ee10 2a10 	vmov	r2, s0
 23fef24:	4639      	mov	r1, r7
 23fef26:	465b      	mov	r3, fp
 23fef28:	f7f7 f8ec 	bl	23f6104 <__aeabi_ddiv>
 23fef2c:	ec41 0b10 	vmov	d0, r0, r1
 23fef30:	b003      	add	sp, #12
 23fef32:	e8bd 8ff0 	ldmia.w	sp!, {r4, r5, r6, r7, r8, r9, sl, fp, pc}

023fef36 <__copybits>:
 23fef36:	3901      	subs	r1, #1
 23fef38:	f102 0314 	add.w	r3, r2, #20
 23fef3c:	1149      	asrs	r1, r1, #5
 23fef3e:	b570      	push	{r4, r5, r6, lr}
 23fef40:	3101      	adds	r1, #1
 23fef42:	6914      	ldr	r4, [r2, #16]
 23fef44:	1f05      	subs	r5, r0, #4
 23fef46:	eb00 0181 	add.w	r1, r0, r1, lsl #2
 23fef4a:	eb03 0484 	add.w	r4, r3, r4, lsl #2
 23fef4e:	42a3      	cmp	r3, r4
 23fef50:	d30c      	bcc.n	23fef6c <__copybits+0x36>
 23fef52:	1aa3      	subs	r3, r4, r2
 23fef54:	3211      	adds	r2, #17
 23fef56:	3b11      	subs	r3, #17
 23fef58:	f023 0303 	bic.w	r3, r3, #3
 23fef5c:	42a2      	cmp	r2, r4
 23fef5e:	bf88      	it	hi
 23fef60:	2300      	movhi	r3, #0
 23fef62:	4418      	add	r0, r3
 23fef64:	2300      	movs	r3, #0
 23fef66:	4288      	cmp	r0, r1
 23fef68:	d305      	bcc.n	23fef76 <__copybits+0x40>
 23fef6a:	bd70      	pop	{r4, r5, r6, pc}
 23fef6c:	f853 6b04 	ldr.w	r6, [r3], #4
 23fef70:	f845 6f04 	str.w	r6, [r5, #4]!
 23fef74:	e7eb      	b.n	23fef4e <__copybits+0x18>
 23fef76:	f840 3b04 	str.w	r3, [r0], #4
 23fef7a:	e7f4      	b.n	23fef66 <__copybits+0x30>

023fef7c <__any_on>:
 23fef7c:	f100 0214 	add.w	r2, r0, #20
 23fef80:	114b      	asrs	r3, r1, #5
 23fef82:	6900      	ldr	r0, [r0, #16]
 23fef84:	4298      	cmp	r0, r3
 23fef86:	b510      	push	{r4, lr}
 23fef88:	db11      	blt.n	23fefae <__any_on+0x32>
 23fef8a:	dd0a      	ble.n	23fefa2 <__any_on+0x26>
 23fef8c:	f011 011f 	ands.w	r1, r1, #31
 23fef90:	d007      	beq.n	23fefa2 <__any_on+0x26>
 23fef92:	f852 4023 	ldr.w	r4, [r2, r3, lsl #2]
 23fef96:	fa24 f001 	lsr.w	r0, r4, r1
 23fef9a:	fa00 f101 	lsl.w	r1, r0, r1
 23fef9e:	428c      	cmp	r4, r1
 23fefa0:	d10b      	bne.n	23fefba <__any_on+0x3e>
 23fefa2:	eb02 0383 	add.w	r3, r2, r3, lsl #2
 23fefa6:	4293      	cmp	r3, r2
 23fefa8:	d803      	bhi.n	23fefb2 <__any_on+0x36>
 23fefaa:	2000      	movs	r0, #0
 23fefac:	bd10      	pop	{r4, pc}
 23fefae:	4603      	mov	r3, r0
 23fefb0:	e7f7      	b.n	23fefa2 <__any_on+0x26>
 23fefb2:	f853 1d04 	ldr.w	r1, [r3, #-4]!
 23fefb6:	2900      	cmp	r1, #0
 23fefb8:	d0f5      	beq.n	23fefa6 <__any_on+0x2a>
 23fefba:	2001      	movs	r0, #1
 23fefbc:	e7f6      	b.n	23fefac <__any_on+0x30>

023fefbe <_calloc_r>:
 23fefbe:	434a      	muls	r2, r1
 23fefc0:	b513      	push	{r0, r1, r4, lr}
 23fefc2:	4611      	mov	r1, r2
 23fefc4:	9201      	str	r2, [sp, #4]
 23fefc6:	f7fb f8e9 	bl	23fa19c <_malloc_r>
 23fefca:	4604      	mov	r4, r0
 23fefcc:	b118      	cbz	r0, 23fefd6 <_calloc_r+0x18>
 23fefce:	9a01      	ldr	r2, [sp, #4]
 23fefd0:	2100      	movs	r1, #0
 23fefd2:	f7fd fffe 	bl	23fcfd2 <memset>
 23fefd6:	4620      	mov	r0, r4
 23fefd8:	b002      	add	sp, #8
 23fefda:	bd10      	pop	{r4, pc}

023fefdc <_open_r>:
 23fefdc:	b538      	push	{r3, r4, r5, lr}
 23fefde:	4604      	mov	r4, r0
 23fefe0:	4d06      	ldr	r5, [pc, #24]	; (23feffc <_open_r+0x20>)
 23fefe2:	4608      	mov	r0, r1
 23fefe4:	4611      	mov	r1, r2
 23fefe6:	2200      	movs	r2, #0
 23fefe8:	602a      	str	r2, [r5, #0]
 23fefea:	461a      	mov	r2, r3
 23fefec:	f7fa fbb2 	bl	23f9754 <_open>
 23feff0:	1c43      	adds	r3, r0, #1
 23feff2:	d102      	bne.n	23feffa <_open_r+0x1e>
 23feff4:	682b      	ldr	r3, [r5, #0]
 23feff6:	b103      	cbz	r3, 23feffa <_open_r+0x1e>
 23feff8:	6023      	str	r3, [r4, #0]
 23feffa:	bd38      	pop	{r3, r4, r5, pc}
 23feffc:	1007aff4 	.word	0x1007aff4

023ff000 <_read_r>:
 23ff000:	b538      	push	{r3, r4, r5, lr}
 23ff002:	4604      	mov	r4, r0
 23ff004:	4d06      	ldr	r5, [pc, #24]	; (23ff020 <_read_r+0x20>)
 23ff006:	4608      	mov	r0, r1
 23ff008:	4611      	mov	r1, r2
 23ff00a:	2200      	movs	r2, #0
 23ff00c:	602a      	str	r2, [r5, #0]
 23ff00e:	461a      	mov	r2, r3
 23ff010:	f7fa fbbc 	bl	23f978c <_read>
 23ff014:	1c43      	adds	r3, r0, #1
 23ff016:	d102      	bne.n	23ff01e <_read_r+0x1e>
 23ff018:	682b      	ldr	r3, [r5, #0]
 23ff01a:	b103      	cbz	r3, 23ff01e <_read_r+0x1e>
 23ff01c:	6023      	str	r3, [r4, #0]
 23ff01e:	bd38      	pop	{r3, r4, r5, pc}
 23ff020:	1007aff4 	.word	0x1007aff4
 23ff024:	00000000 	.word	0x00000000

023ff028 <nan>:
 23ff028:	ed9f 0b01 	vldr	d0, [pc, #4]	; 23ff030 <nan+0x8>
 23ff02c:	4770      	bx	lr
 23ff02e:	bf00      	nop
 23ff030:	00000000 	.word	0x00000000
 23ff034:	7ff80000 	.word	0x7ff80000

023ff038 <__ascii_wctomb>:
 23ff038:	b149      	cbz	r1, 23ff04e <__ascii_wctomb+0x16>
 23ff03a:	2aff      	cmp	r2, #255	; 0xff
 23ff03c:	bf8d      	iteet	hi
 23ff03e:	238a      	movhi	r3, #138	; 0x8a
 23ff040:	2001      	movls	r0, #1
 23ff042:	700a      	strbls	r2, [r1, #0]
 23ff044:	6003      	strhi	r3, [r0, #0]
 23ff046:	bf88      	it	hi
 23ff048:	f04f 30ff 	movhi.w	r0, #4294967295
 23ff04c:	4770      	bx	lr
 23ff04e:	4608      	mov	r0, r1
 23ff050:	4770      	bx	lr
	...

023ff054 <link_const_data_start>:
 23ff054:	40a00000 	.word	0x40a00000
 23ff058:	41f00000 	.word	0x41f00000
 23ff05c:	00000100 	.word	0x00000100
 23ff060:	01e00064 	.word	0x01e00064
 23ff064:	00b40190 	.word	0x00b40190
 23ff068:	00000014 	.word	0x00000014
 23ff06c:	100791c1 	.word	0x100791c1
 23ff070:	00001000 	.word	0x00001000
 23ff074:	1007a1c1 	.word	0x1007a1c1
 23ff078:	00000100 	.word	0x00000100

023ff07c <dynalib_user>:
 23ff07c:	023f68e1 023f6909 023f690d 023f68dd     .h?..i?..i?..h?.
 23ff08c:	00000000 6c6c6143 206e6f20 65727570     ....Call on pure
 23ff09c:	72697620 6c617574 73752f00 6d672f72      virtual./usr/gm
 23ff0ac:	72657465 7461642e 73752f00 656c2f72     eter.dat./usr/le
 23ff0bc:	6f6d6b61 2e6c6564 00746164 53524550     akmodel.dat.PERS
 23ff0cc:	3a545349 654d6720 28726574 20297525     IST: gMeter(%u) 
 23ff0dc:	6f6d202b 206c6564 65766173 45500064     + model saved.PE
 23ff0ec:	53495352 67203a54 6574654d 65722072     RSIST: gMeter re
 23ff0fc:	726f7473 28206465 73207525 6c706d61     stored (%u sampl
 23ff10c:	00297365 53524550 3a545349 654d6720     es).PERSIST: gMe
 23ff11c:	20726574 73657266 45500068 53495352     ter fresh.PERSIS
 23ff12c:	6c203a54 206b6165 65646f6d 7266206c     T: leak model fr
 23ff13c:	20687365 772d3128 206b6565 7261656c     esh (1-week lear
 23ff14c:	676e696e 73657220 74726174 50002973     ning restarts).P
 23ff15c:	49535245 203a5453 6b61656c 646f6d20     ERSIST: leak mod
 23ff16c:	72206c65 6f747365 00646572 574f4c46     el restored.FLOW
 23ff17c:	4c41435f 2e25203a 43006634 203a4746     _CAL: %.4f.CFG: 
 23ff18c:	6b61656c 322e253d 68732066 666f7475     leak=%.2f shutof
 23ff19c:	6c6f5666 312e253d 75612066 253d6f74     fVol=%.1f auto=%
 23ff1ac:	6c612075 3d747265 50007525 3a504349     u alert=%u.PICP:
 23ff1bc:	3d316c20 252f7525 6c207375 75253d32      l1=%u/%us l2=%u
 23ff1cc:	7375252f 756f4800 64252072 6e6f6420     /%us.Hour %d don
 23ff1dc:	25203a65 2066322e 206c6167 68203e2d     e: %.2f gal -> h
 23ff1ec:	2072756f 4d006425 696e6469 3a746867     our %d.Midnight:
 23ff1fc:	69616420 253d796c 2066322e 206c6167      daily=%.2f gal 
 23ff20c:	65736572 4d490074 6f6e2055 76612074     reset.IMU not av
 23ff21c:	616c6961 00656c62 3a434950 72617020     ailable.PIC: par
 23ff22c:	20736d61 696c6564 65726576 41282064     ams delivered (A
 23ff23c:	00294b43 3a434950 54455320 5241505f     CK).PIC: SET_PAR
 23ff24c:	66204d41 656c6961 6e282064 303d6b61     AM failed (nak=0
 23ff25c:	32302578 56002958 45564c41 72777020     x%02X).VALVE pwr
 23ff26c:	2075253d 6c727463 2075253d 69746f6d     =%u ctrl=%u moti
 23ff27c:	253d6e6f 6f6c2075 303d6b63 32302578     on=%u lock=0x%02
 23ff28c:	65742058 6f4c706d 3d736b63 00756c25     X tempLocks=%lu.
 23ff29c:	45454c53 74203a50 72656d69 73657220     SLEEP: timer res
 23ff2ac:	74726174 28206465 00297325 74756873     tarted (%s).shut
 23ff2bc:	5366666f 63746977 6c630068 0065736f     offSwitch.close.
 23ff2cc:	6e65706f 665b2000 20776f6c 69746361     open. [flow acti
 23ff2dc:	005d6576 3a434950 6d697420 6e692065     ve].PIC: time in
 23ff2ec:	696c6176 64202c64 70706f72 20676e69     valid, dropping 
 23ff2fc:	63746162 49500068 61732043 656c706d     batch.PIC sample
 23ff30c:	2f64255b 3a5d6425 78646920 2075253d     [%d/%d]: idx=%u 
 23ff31c:	736c7570 253d7365 3e2d2075 332e2520     pulses=%u -> %.3
 23ff32c:	50472066 25202c4d 2066342e 006c6167     f GPM, %.4f gal.
 23ff33c:	3a434950 676e6920 65747365 64252064     PIC: ingested %d
 23ff34c:	6d617320 73656c70 6164202c 3d796c69      samples, daily=
 23ff35c:	66322e25 6c616720 50007325 52204349     %.2f gal%s.PIC R
 23ff36c:	445f5145 20415441 20727265 6c006425     EQ_DATA err %d.l
 23ff37c:	696b6165 7753676e 68637469 74656700     eakingSwitch.get
 23ff38c:	766c6156 43410065 6e75004b 6b636f6c     Valve.ACK.unlock
 23ff39c:	766c6156 65740065 7000706d 006d7265     Valve.temp.perm.
 23ff3ac:	68746f62 56003300 45564c41 6c6e7520     both.3.VALVE unl
 23ff3bc:	206b636f 30257830 2d205832 7325203e     ock 0x%02X -> %s
 23ff3cc:	616e2820 78303d6b 58323025 69700029      (nak=0x%02X).pi
 23ff3dc:	73655263 50007465 203a4349 5f535953     cReset.PIC: SYS_
 23ff3ec:	45534552 65732054 7300746e 50636e79     RESET sent.syncP
 23ff3fc:	73006369 69577465 63006946 7261656c     ic.setWiFi.clear
 23ff40c:	69466957 74657300 776f6c46 006c6143     WiFi.setFlowCal.
 23ff41c:	574f4c46 4c41435f 74657320 342e2520     FLOW_CAL set %.4
 23ff42c:	65730066 6e6f4374 00676966 43746573     f.setConfig.setC
 23ff43c:	69666e6f 6e203a67 20646565 53432034     onfig: need 4 CS
 23ff44c:	61762056 7365756c 47464300 74657320     V values.CFG set
 23ff45c:	61656c20 2e253d6b 76206632 253d6c6f      leak=%.2f vol=%
 23ff46c:	2066312e 6f747561 2064253d 72656c61     .1f auto=%d aler
 23ff47c:	64253d74 74657300 6b61654c 61726150     t=%d.setLeakPara
 23ff48c:	7300736d 654c7465 61506b61 736d6172     ms.setLeakParams
 23ff49c:	656e203a 34206465 56534320 6c617620     : need 4 CSV val
 23ff4ac:	00736575 50434950 74657320 3d316c20     ues.PICP set l1=
 23ff4bc:	2f646c25 73646c25 3d326c20 2f646c25     %ld/%lds l2=%ld/
 23ff4cc:	73646c25 74656700 6b61654c 61726150     %lds.getLeakPara
 23ff4dc:	4e00736d 4c53204f 3a504545 616c6120     ms.NO SLEEP: ala
 23ff4ec:	61206d72 76697463 6c282065 696b6165     rm active (leaki
 23ff4fc:	253d676e 73202c64 6f747568 253d6666     ng=%d, shutoff=%
 23ff50c:	46002964 20574f4c 6374616c 6c632068     d).FLOW latch cl
 23ff51c:	65726165 69282064 2f656c64 6c617473     eared (idle/stal
 23ff52c:	2d202965 6c73203e 20706565 6f6c6c61     e) -> sleep allo
 23ff53c:	00646577 53204f4e 5045454c 6c66203a     wed.NO SLEEP: fl
 23ff54c:	6920776f 7270206e 6572676f 28207373     ow in progress (
 23ff55c:	67697274 53726567 65746174 0029313d     triggerState=1).
 23ff56c:	45454c53 23203a50 66206425 7520726f     SLEEP: #%d for u
 23ff57c:	6f742070 756c2520 28207320 6e756863     p to %lu s (chun
 23ff58c:	6163206b 6c252070 29732075 4b415700     k cap %lu s).WAK
 23ff59c:	50203a45 2d204349 666f203e 616f6c66     E: PIC -> offloa
 23ff5ac:	6e6f2064 5700796c 3a454b41 74756220     d only.WAKE: but
 23ff5bc:	206e6f74 70203e2d 696c6275 57006873     ton -> publish.W
 23ff5cc:	3a454b41 6d697420 63207265 6b6e7568     AKE: timer chunk
 23ff5dc:	203e2d20 6c66666f 2064616f 796c6e6f      -> offload only
 23ff5ec:	75702820 73696c62 61672068 20646574      (publish gated 
 23ff5fc:	32207962 65206834 68636f70 41570029     by 24h epoch).WA
 23ff60c:	203a454b 72757073 73756f69 6f62612f     KE: spurious/abo
 23ff61c:	64657472 65722820 6e6f7361 2064253d     rted (reason=%d 
 23ff62c:	3d727265 20296425 72203e2d 6c732d65     err=%d) -> re-sl
 23ff63c:	00706565 4c003250 536b6165 65736e65     eep.P2.LeakSense
 23ff64c:	20325020 746f6f62 206e6f20 67007325      P2 boot on %s.g
 23ff65c:	6c467465 6143776f 6567006c 6e6f4374     etFlowCal.getCon
 23ff66c:	00676966 75746553 6f632070 656c706d     fig.Setup comple
 23ff67c:	25006574 00753330 74616c70 6d726f66     te.%03u.platform
 23ff68c:	79616400 63745530 746e6900 61767265     .day0Utc.interva
 23ff69c:	6365536c 75686300 74006b6e 6c61746f     lSec.chunk.total
 23ff6ac:	6e756843 7300736b 6c706d61 61745365     Chunks.sampleSta
 23ff6bc:	73007472 6c706d61 756f4365 6400746e     rt.sampleCount.d
 23ff6cc:	00617461 6574656d 746e4972 61767265     ata.meterInterva
 23ff6dc:	5700736c 20694669 6c696166 6e657300     ls.WiFi fail.sen
 23ff6ec:	00726f73 6b61656c 00676e69 74756873     sor.leaking.shut
 23ff6fc:	0066666f 7265766f 776f6c66 6f6c6600     off.overflow.flo
 23ff70c:	6c614377 67666300 6b61654c 006d7047     wCal.cfgLeakGpm.
 23ff71c:	53676663 6f747568 6f566666 6663006c     cfgShutoffVol.cf
 23ff72c:	74754167 7568536f 66666f74 67666300     gAutoShutoff.cfg
 23ff73c:	72656c41 646f4d74 69700065 61654c63     AlertMode.picLea
 23ff74c:	6f43316b 73746e75 63697000 6b61654c     k1Counts.picLeak
 23ff75c:	6e695731 69700053 61654c63 6f43326b     1WinS.picLeak2Co
 23ff76c:	73746e75 63697000 6b61654c 6e695732     unts.picLeak2Win
 23ff77c:	69700053 72615063 44736d61 79747269     S.picParamsDirty
 23ff78c:	6c617600 6f4d6576 6e6f6974 6c617600     .valveMotion.val
 23ff79c:	6f4c6576 6c466b63 00736761 766c6176     veLockFlags.valv
 23ff7ac:	72775065 6c617600 74436576 76006c72     ePwr.valveCtrl.v
 23ff7bc:	65766c61 706d6554 6b636f4c 6f680073     alveTempLocks.ho
 23ff7cc:	796c7275 6c6c6147 00736e6f 69737372     urlyGallons.rssi
 23ff7dc:	74616200 79726574 65726600 6d654d65     .battery.freeMem
 23ff7ec:	74707500 00656d69 736e6573 6144726f     .uptime.sensorDa
 23ff7fc:	50006174 696c6275 64656873 7325203a     ta.Published: %s
 23ff80c:	654d6700 20726574 6c6c6f72 62006465     .gMeter rolled.b
 23ff81c:	6f747475 0000006e                       utton...

023ff824 <_ZTV5Timer>:
	...
 23ff82c:	023f6b91 023f6bd5 023f69cb              .k?..k?..i?.

023ff838 <_ZTVN5spark10LogHandlerE>:
	...
 23ff848:	023f6929 023f695b                       )i?.[i?.

023ff850 <_ZTVN5spark16SerialLogHandlerE>:
	...
 23ff858:	023f6b35 023f6b69 023fb449 023fb5f1     5k?.ik?.I.?...?.

023ff868 <_ZTV16JsonWriterStaticILj512EE>:
	...
 23ff870:	023f69a1 023f69b5                       .i?..i?.

023ff878 <_ZL16MODEL_FILE_MAGIC>:
 23ff878:	4c4d444c 3025755c 25005834 00662a2e     LDML\u%04X.%.*f.
 23ff888:	00006625                                %f..

023ff88c <_ZTV10JsonBuffer>:
	...
 23ff894:	023f923d 023f9259                       =.?.Y.?.

023ff89c <_ZTV10JsonWriter>:
	...
 23ff8a4:	023f926d 023f9281                       m.?...?.

023ff8ac <_ZTVN5spark13EthernetClassE>:
	...
 23ff8b4:	023fa2bf 023fa2b5 023fa2ab 023fa2a1     ..?...?...?...?.
 23ff8c4:	023fa295 023fa289 023fc9d1 023fc9d9     ..?...?...?...?.
 23ff8d4:	023fa27d 023fa275 023fa26b 023fa261     }.?.u.?.k.?.a.?.
 23ff8e4:	023fcb25 023fca09 023fca11 69726977     %.?...?...?.wiri
 23ff8f4:	5300676e 65747379 6c73206d 20706565     ng.System sleep 
 23ff904:	666e6f63 72756769 6f697461 7369206e     configuration is
 23ff914:	766e6920 64696c61 0000002e               invalid....

023ff920 <_ZTVN5spark16JSONStreamWriterE>:
	...
 23ff928:	023fa80d 023fa80f 023fa7cd 023fc29f     ..?...?...?...?.
 23ff938:	64756162 72655300 006c6169 69726553     baud.Serial.Seri
 23ff948:	00316c61 4e4f534a 65727453 6f4c6d61     al1.JSONStreamLo
 23ff958:	6e614867 72656c64 70706100 31302500     gHandler.app.%01
 23ff968:	00207530 2c00205d 29280020 2000203a     0u .] ., .(): . 
 23ff978:	6f63005b 3d206564 69250020 74656400     [.code = .%i.det
 23ff988:	736c6961 00203d20 6c000a0d 6e66006e     ails = ....ln.fn
 23ff998:	646f6300 65640065 6c696174 00000000     .code.detail....

023ff9a8 <_ZTVN5spark16StreamLogHandlerE>:
	...
 23ff9b0:	023fad55 023fad6d 023fb449 023fb5f1     U.?.m.?.I.?...?.

023ff9c0 <_ZTVN5spark20JSONStreamLogHandlerE>:
	...
 23ff9c8:	023fad81 023fad95 023fb629 023fa8d7     ..?...?.).?...?.

023ff9d8 <_ZTVN5spark24DefaultLogHandlerFactoryE>:
	...
 23ff9e0:	023fa8e9 023fa90f 023fb3ad 023fa8d9     ..?...?...?...?.

023ff9f0 <_ZTVN5spark26DefaultOutputStreamFactoryE>:
	...
 23ff9f8:	023fa8e7 023fa91d 023facbd 023fa93f     ..?...?...?.?.?.
 23ffa08:	252d5925 64252d6d 3a482554 253a4d25     %Y-%m-%dT%H:%M:%
 23ffa18:	007a2553 74637361 00656d69              S%z.asctime.

023ffa24 <_ZTVSt15_Sp_counted_ptrIPN8particle6detail10FutureImplIbNS1_13FutureContextEEELN9__gnu_cxx12_Lock_policyE0EE>:
	...
 23ffa2c:	023fbaad 023fbab3 023fbaf1 023fbac1     ..?...?...?...?.
 23ffa3c:	023fbaaf                                ..?.

023ffa40 <_ZTV9IPAddress>:
	...
 23ffa48:	023fc081 023fc071 023fc073              ..?.q.?.s.?.

023ffa54 <_ZTV9USBSerial>:
	...
 23ffa5c:	023fc167 023fc1cf 023fc1a5 023fa7e1     g.?...?...?...?.
 23ffa6c:	023fc197 023fc169 023fc179 023fc1c9     ..?.i.?.y.?...?.
 23ffa7c:	023fa8ad 023fc189 023fc161 34302575     ..?...?.a.?.u%04
 23ffa8c:	00000078                                x...

023ffa90 <_ZTV11USARTSerial>:
	...
 23ffa98:	023fc621 023fc68d 023fc665 023fa7e1     !.?...?.e.?...?.
 23ffaa8:	023fc635 023fc651 023fc643 023fc65f     5.?.Q.?.C.?._.?.
 23ffab8:	023fa8ad 023fc623 023fc627              ..?.#.?.'.?.

023ffac4 <_ZTV7TwoWire>:
	...
 23ffacc:	023fc70d 023fc757 023fc72f 023fc70f     ..?.W.?./.?...?.
 23ffadc:	023fc737 023fc73f 023fc747 023fc74f     7.?.?.?.G.?.O.?.
 23ffaec:	023fa8ad                                ..?.

023ffaf0 <_ZTVN5spark9WiFiClassE>:
	...
 23ffaf8:	023f6bf5 023fc80f 023fc805 023f6bff     .k?...?...?..k?.
 23ffb08:	023f6be9 023fc7f9 023fc9d1 023fc9d9     .k?...?...?...?.
 23ffb18:	023fc7ed 023fc7e5 023fc7db 023fc7d1     ..?...?...?...?.
 23ffb28:	023fcb25 023fca09 023fca11              %.?...?...?.

023ffb34 <_ZTV10WiFiSignal>:
	...
 23ffb3c:	023fc7bd 023fc7c3 023fc7bf 023fc819     ..?...?...?...?.
 23ffb4c:	023fc84d 023fc879 023fc8ad              M.?.y.?...?.

023ffb58 <CSWTCH.165>:
 23ffb58:	1007ae80 1007af6c 1007af74              ....l...t...

023ffb64 <_ZTVN5spark12NetworkClassE>:
	...
 23ffb6c:	023fc991 023fc99b 023fc9a5 023fc9af     ..?...?...?...?.
 23ffb7c:	023fc9b9 023fc9c5 023fc9d1 023fc9d9     ..?...?...?...?.
 23ffb8c:	023fc9e1 023fc9ed 023fc9f5 023fc9ff     ..?...?...?...?.
 23ffb9c:	023fcb25 023fca09 023fca11              %.?...?...?.

023ffba8 <_ZSt7nothrow>:
 23ffba8:	45455200 6d20544e 6f6c6c61 75732063     .REENT malloc su
 23ffbb8:	65656363 00646564 746e6d2f 726f772f     cceeded./mnt/wor
 23ffbc8:	6170736b 772f6563 736b726f 65636170     kspace/workspace
 23ffbd8:	4343472f 2d30312d 65706970 656e696c     /GCC-10-pipeline
 23ffbe8:	6e656a2f 736e696b 4343472d 2d30312d     /jenkins-GCC-10-
 23ffbf8:	65706970 656e696c 5f38342d 30323032     pipeline-48_2020
 23ffc08:	34323131 3036315f 30383136 2f313436     1124_1606180641/
 23ffc18:	2f637273 6c77656e 6e2f6269 696c7765     src/newlib/newli
 23ffc28:	696c2f62 732f6362 696c6474 61722f62     b/libc/stdlib/ra
 23ffc38:	632e646e 00666e00 74696e69 6e610079     nd.c.nf.inity.an
 23ffc48:	00000000                                ....

023ffc4c <fpi.1>:
 23ffc4c:	00000035 fffffbce 000003cb 00000001     5...............
 23ffc5c:	00000000                                ....

023ffc60 <fpinan.0>:
 23ffc60:	00000034 fffffbce 000003cb 00000001     4...............
	...

023ffc78 <tinytens>:
 23ffc78:	97d889bc 3c9cd2b2 d5a8a733 3949f623     .......<3...#.I9
 23ffc88:	44f4a73d 32a50ffd cf8c979d 255bba08     =..D...2......[%
 23ffc98:	64ac6f43 11680628                       Co.d(.h.

023ffca0 <_ctype_>:
 23ffca0:	20202000 20202020 28282020 20282828     .         ((((( 
 23ffcb0:	20202020 20202020 20202020 20202020                     
 23ffcc0:	10108820 10101010 10101010 10101010      ...............
 23ffcd0:	04040410 04040404 10040404 10101010     ................
 23ffce0:	41411010 41414141 01010101 01010101     ..AAAAAA........
 23ffcf0:	01010101 01010101 01010101 10101010     ................
 23ffd00:	42421010 42424242 02020202 02020202     ..BBBBBB........
 23ffd10:	02020202 02020202 02020202 10101010     ................
 23ffd20:	00000020 00000000 00000000 00000000      ...............
	...
 23ffda0:	6c614200 20636f6c 63637573 65646565     .Balloc succeede
 23ffdb0:	6d2f0064 772f746e 736b726f 65636170     d./mnt/workspace
 23ffdc0:	726f772f 6170736b 472f6563 312d4343     /workspace/GCC-1
 23ffdd0:	69702d30 696c6570 6a2f656e 696b6e65     0-pipeline/jenki
 23ffde0:	472d736e 312d4343 69702d30 696c6570     ns-GCC-10-pipeli
 23ffdf0:	342d656e 30325f38 31313032 315f3432     ne-48_20201124_1
 23ffe00:	31363036 34363038 72732f31 656e2f63     606180641/src/ne
 23ffe10:	62696c77 77656e2f 2f62696c 6362696c     wlib/newlib/libc
 23ffe20:	6474732f 2f62696c 6f746467 65672d61     /stdlib/gdtoa-ge
 23ffe30:	78656874 0000632e                       thex.c..

023ffe38 <_C_numeric_locale>:
 23ffe38:	023ff91c 023ff992 10072da0 4f500043     ..?...?..-..C.PO
 23ffe48:	00584953 746e6d2f 726f772f 6170736b     SIX./mnt/workspa
 23ffe58:	772f6563 736b726f 65636170 4343472f     ce/workspace/GCC
 23ffe68:	2d30312d 65706970 656e696c 6e656a2f     -10-pipeline/jen
 23ffe78:	736e696b 4343472d 2d30312d 65706970     kins-GCC-10-pipe
 23ffe88:	656e696c 5f38342d 30323032 34323131     line-48_20201124
 23ffe98:	3036315f 30383136 2f313436 2f637273     _1606180641/src/
 23ffea8:	6c77656e 6e2f6269 696c7765 696c2f62     newlib/newlib/li
 23ffeb8:	732f6362 696c6474 706d2f62 2e636572     bc/stdlib/mprec.
 23ffec8:	00000063 00000000                       c.......

023ffed0 <__mprec_bigtens>:
 23ffed0:	37e08000 4341c379 b5056e17 4693b8b5     ...7y.AC.n.....F
 23ffee0:	e93ff9f5 4d384f03 f9301d32 5a827748     ..?..O8M2.0.Hw.Z
 23ffef0:	7f73bf3c 75154fdd                       <.s..O.u

023ffef8 <__mprec_tens>:
 23ffef8:	00000000 3ff00000 00000000 40240000     .......?......$@
 23fff08:	00000000 40590000 00000000 408f4000     ......Y@.....@.@
 23fff18:	00000000 40c38800 00000000 40f86a00     .......@.....j.@
 23fff28:	00000000 412e8480 00000000 416312d0     .......A......cA
 23fff38:	00000000 4197d784 00000000 41cdcd65     .......A....e..A
 23fff48:	20000000 4202a05f e8000000 42374876     ... _..B....vH7B
 23fff58:	a2000000 426d1a94 e5400000 42a2309c     ......mB..@..0.B
 23fff68:	1e900000 42d6bcc4 26340000 430c6bf5     .......B..4&.k.C
 23fff78:	37e08000 4341c379 85d8a000 43763457     ...7y.AC....W4vC
 23fff88:	674ec800 43abc16d 60913d00 43e158e4     ..Ngm..C.=.`.X.C
 23fff98:	78b58c40 4415af1d d6e2ef50 444b1ae4     @..x...DP.....KD
 23fffa8:	064dd592 4480f0cf c7e14af6 44b52d02     ..M....D.J...-.D
 23fffb8:	79d99db4 44ea7843                       ...yCx.D

023fffc0 <p05.0>:
 23fffc0:	00000005 00000019 0000007d              ........}...

023fffcc <link_const_data_end>:
 23fffcc:	023f8b65 	.word	0x023f8b65
 23fffd0:	023fa2c9 	.word	0x023fa2c9
 23fffd4:	023fa2f1 	.word	0x023fa2f1
 23fffd8:	023fa501 	.word	0x023fa501
 23fffdc:	023fa7bd 	.word	0x023fa7bd
 23fffe0:	023fb439 	.word	0x023fb439
 23fffe4:	023fb94d 	.word	0x023fb94d
 23fffe8:	023fc7a1 	.word	0x023fc7a1
 23fffec:	023fc97d 	.word	0x023fc97d
 23ffff0:	023fcb39 	.word	0x023fcb39
